
main.elf:     file format elf32-littlearm


Disassembly of section .text:

00000000 <hang-0x50>:
       0:	40800000 	.word	0x40800000
       4:	00000075 	.word	0x00000075
       8:	00000051 	.word	0x00000051
       c:	00000053 	.word	0x00000053
      10:	00000055 	.word	0x00000055
      14:	00000057 	.word	0x00000057
      18:	00000059 	.word	0x00000059
      1c:	0000005b 	.word	0x0000005b
      20:	0000005d 	.word	0x0000005d
      24:	0000005f 	.word	0x0000005f
      28:	00000061 	.word	0x00000061
      2c:	00000063 	.word	0x00000063
      30:	00000065 	.word	0x00000065
      34:	00000067 	.word	0x00000067
      38:	00000069 	.word	0x00000069
      3c:	0000006b 	.word	0x0000006b
      40:	0000006d 	.word	0x0000006d
      44:	0000006f 	.word	0x0000006f
      48:	00000071 	.word	0x00000071
      4c:	00000073 	.word	0x00000073

00000050 <hang>:
      50:	e7fe      	b.n	50 <hang>

00000052 <hang1>:
      52:	e7fe      	b.n	52 <hang1>

00000054 <hang2>:
      54:	e7fe      	b.n	54 <hang2>

00000056 <hang3>:
      56:	e7fe      	b.n	56 <hang3>

00000058 <hang4>:
      58:	e7fe      	b.n	58 <hang4>

0000005a <hang5>:
      5a:	e7fe      	b.n	5a <hang5>

0000005c <hang6>:
      5c:	e7fe      	b.n	5c <hang6>

0000005e <hang7>:
      5e:	e7fe      	b.n	5e <hang7>

00000060 <hang8>:
      60:	e7fe      	b.n	60 <hang8>

00000062 <hang9>:
      62:	e7fe      	b.n	62 <hang9>

00000064 <hang10>:
      64:	e7fe      	b.n	64 <hang10>

00000066 <hang11>:
      66:	e7fe      	b.n	66 <hang11>

00000068 <hang12>:
      68:	e7fe      	b.n	68 <hang12>

0000006a <hang13>:
      6a:	e7fe      	b.n	6a <hang13>

0000006c <hang14>:
      6c:	e7fe      	b.n	6c <hang14>

0000006e <hang15>:
      6e:	e7fe      	b.n	6e <hang15>

00000070 <hang16>:
      70:	e7fe      	b.n	70 <hang16>

00000072 <hang17>:
      72:	e7fe      	b.n	72 <hang17>

00000074 <_start>:
      74:	f000 f97e 	bl	374 <main>

00000078 <exit>:
      78:	df01      	svc	1
      7a:	e7fe      	b.n	7a <exit+0x2>

0000007c <putchar>:
      7c:	b580      	push	{r7, lr}
      7e:	af00      	add	r7, sp, #0
      80:	22e0      	movs	r2, #224	; 0xe0
      82:	0612      	lsls	r2, r2, #24
      84:	6010      	str	r0, [r2, #0]
      86:	46bd      	mov	sp, r7
      88:	bd80      	pop	{r7, pc}

0000008a <PUT32>:
      8a:	6001      	str	r1, [r0, #0]
      8c:	4770      	bx	lr

0000008e <GET32>:
      8e:	6800      	ldr	r0, [r0, #0]
      90:	4770      	bx	lr

00000092 <PUTGETCLR>:
      92:	6802      	ldr	r2, [r0, #0]
      94:	438a      	bics	r2, r1
      96:	6002      	str	r2, [r0, #0]
      98:	4770      	bx	lr

0000009a <atest>:
      9a:	1842      	adds	r2, r0, r1
      9c:	2000      	movs	r0, #0
      9e:	d701      	bvc.n	a4 <atest1>
      a0:	2301      	movs	r3, #1
      a2:	4318      	orrs	r0, r3

000000a4 <atest1>:
      a4:	d301      	bcc.n	aa <atest2>
      a6:	2302      	movs	r3, #2
      a8:	4318      	orrs	r0, r3

000000aa <atest2>:
      aa:	4770      	bx	lr

000000ac <stest>:
      ac:	1a42      	subs	r2, r0, r1
      ae:	2000      	movs	r0, #0
      b0:	d701      	bvc.n	b6 <stest1>
      b2:	2301      	movs	r3, #1
      b4:	4318      	orrs	r0, r3

000000b6 <stest1>:
      b6:	d301      	bcc.n	bc <stest2>
      b8:	2302      	movs	r3, #2
      ba:	4318      	orrs	r0, r3

000000bc <stest2>:
      bc:	4770      	bx	lr

000000be <returnvcflags>:
      be:	d703      	bvc.n	c8 <returnvcflags+0xa>
      c0:	d306      	bcc.n	d0 <returnvcflags+0x12>
      c2:	2003      	movs	r0, #3
      c4:	0700      	lsls	r0, r0, #28
      c6:	4770      	bx	lr
      c8:	d305      	bcc.n	d6 <returnvcflags+0x18>
      ca:	2002      	movs	r0, #2
      cc:	0700      	lsls	r0, r0, #28
      ce:	4770      	bx	lr
      d0:	2001      	movs	r0, #1
      d2:	0700      	lsls	r0, r0, #28
      d4:	4770      	bx	lr
      d6:	2000      	movs	r0, #0
      d8:	0700      	lsls	r0, r0, #28
      da:	4770      	bx	lr

000000dc <testfun1>:
      dc:	2200      	movs	r2, #0
      de:	41d2      	rors	r2, r2
      e0:	4148      	adcs	r0, r1
      e2:	e7ec      	b.n	be <returnvcflags>

000000e4 <testfun2>:
      e4:	2201      	movs	r2, #1
      e6:	41d2      	rors	r2, r2
      e8:	4148      	adcs	r0, r1
      ea:	e7e8      	b.n	be <returnvcflags>

000000ec <testfun3>:
      ec:	2200      	movs	r2, #0
      ee:	41d2      	rors	r2, r2
      f0:	4188      	sbcs	r0, r1
      f2:	e7e4      	b.n	be <returnvcflags>

000000f4 <testfun4>:
      f4:	2201      	movs	r2, #1
      f6:	41d2      	rors	r2, r2
      f8:	4188      	sbcs	r0, r1
      fa:	e7e0      	b.n	be <returnvcflags>

000000fc <PUTGETSET>:
      fc:	6802      	ldr	r2, [r0, #0]
      fe:	430a      	orrs	r2, r1
     100:	6002      	str	r2, [r0, #0]
     102:	4770      	bx	lr

00000104 <_fini>:
     104:	4770      	bx	lr
     106:	46c0      	nop			; (mov r8, r8)

00000108 <__exidx_start>:
     108:	4770      	bx	lr
     10a:	46c0      	nop			; (mov r8, r8)

0000010c <__exidx_end>:
     10c:	4770      	bx	lr
     10e:	46c0      	nop			; (mov r8, r8)

00000110 <__errno>:
     110:	4770      	bx	lr
     112:	46c0      	nop			; (mov r8, r8)

00000114 <rand>:
     114:	2007      	movs	r0, #7
     116:	4770      	bx	lr

00000118 <srand>:
     118:	200b      	movs	r0, #11
     11a:	4770      	bx	lr

0000011c <initLED>:
     11c:	b580      	push	{r7, lr}
     11e:	af00      	add	r7, sp, #0
     120:	2243      	movs	r2, #67	; 0x43
     122:	0212      	lsls	r2, r2, #8
     124:	3290      	adds	r2, #144	; 0x90
     126:	0212      	lsls	r2, r2, #8
     128:	3208      	adds	r2, #8
     12a:	0212      	lsls	r2, r2, #8
     12c:	32b4      	adds	r2, #180	; 0xb4
     12e:	2301      	movs	r3, #1
     130:	6013      	str	r3, [r2, #0]
     132:	230c      	movs	r3, #12
     134:	2240      	movs	r2, #64	; 0x40
     136:	0412      	lsls	r2, r2, #16
     138:	3260      	adds	r2, #96	; 0x60
     13a:	0212      	lsls	r2, r2, #8
     13c:	3290      	adds	r2, #144	; 0x90
     13e:	6153      	str	r3, [r2, #20]
     140:	2344      	movs	r3, #68	; 0x44
     142:	021b      	lsls	r3, r3, #8
     144:	6053      	str	r3, [r2, #4]
     146:	46bd      	mov	sp, r7
     148:	bd80      	pop	{r7, pc}

0000014a <LED>:
     14a:	b580      	push	{r7, lr}
     14c:	af00      	add	r7, sp, #0
     14e:	2240      	movs	r2, #64	; 0x40
     150:	0412      	lsls	r2, r2, #16
     152:	3260      	adds	r2, #96	; 0x60
     154:	0212      	lsls	r2, r2, #8
     156:	3290      	adds	r2, #144	; 0x90
     158:	2308      	movs	r3, #8
     15a:	6153      	str	r3, [r2, #20]
     15c:	2301      	movs	r3, #1
     15e:	4003      	ands	r3, r0
     160:	00db      	lsls	r3, r3, #3
     162:	6113      	str	r3, [r2, #16]
     164:	2304      	movs	r3, #4
     166:	6193      	str	r3, [r2, #24]
     168:	2200      	movs	r2, #0
     16a:	2300      	movs	r3, #0
     16c:	46bd      	mov	sp, r7
     16e:	bd80      	pop	{r7, pc}

00000170 <init_timer>:
     170:	4770      	bx	lr
     172:	46c0      	nop			; (mov r8, r8)

00000174 <timer>:
     174:	2000      	movs	r0, #0
     176:	2100      	movs	r1, #0
     178:	4770      	bx	lr
     17a:	46c0      	nop			; (mov r8, r8)

0000017c <timer_getres>:
     17c:	2000      	movs	r0, #0
     17e:	2100      	movs	r1, #0
     180:	4770      	bx	lr
     182:	46c0      	nop			; (mov r8, r8)

00000184 <tic>:
     184:	2000      	movs	r0, #0
     186:	2100      	movs	r1, #0
     188:	4b01      	ldr	r3, [pc, #4]	; (190 <tic+0xc>)
     18a:	6018      	str	r0, [r3, #0]
     18c:	6059      	str	r1, [r3, #4]
     18e:	4770      	bx	lr
     190:	0000a6e8 	.word	0x0000a6e8

00000194 <toc>:
     194:	b510      	push	{r4, lr}
     196:	4c06      	ldr	r4, [pc, #24]	; (1b0 <toc+0x1c>)
     198:	2000      	movs	r0, #0
     19a:	6822      	ldr	r2, [r4, #0]
     19c:	6863      	ldr	r3, [r4, #4]
     19e:	2100      	movs	r1, #0
     1a0:	f009 f8e4 	bl	936c <__aeabi_dsub>
     1a4:	2200      	movs	r2, #0
     1a6:	2300      	movs	r3, #0
     1a8:	6022      	str	r2, [r4, #0]
     1aa:	6063      	str	r3, [r4, #4]
     1ac:	bd10      	pop	{r4, pc}
     1ae:	46c0      	nop			; (mov r8, r8)
     1b0:	0000a6e8 	.word	0x0000a6e8

000001b4 <conv2d>:
     1b4:	b5f0      	push	{r4, r5, r6, r7, lr}
     1b6:	46de      	mov	lr, fp
     1b8:	4657      	mov	r7, sl
     1ba:	464e      	mov	r6, r9
     1bc:	4645      	mov	r5, r8
     1be:	b5e0      	push	{r5, r6, r7, lr}
     1c0:	b093      	sub	sp, #76	; 0x4c
     1c2:	9111      	str	r1, [sp, #68]	; 0x44
     1c4:	991f      	ldr	r1, [sp, #124]	; 0x7c
     1c6:	0006      	movs	r6, r0
     1c8:	468c      	mov	ip, r1
     1ca:	0018      	movs	r0, r3
     1cc:	0fcf      	lsrs	r7, r1, #31
     1ce:	4467      	add	r7, ip
     1d0:	4684      	mov	ip, r0
     1d2:	4461      	add	r1, ip
     1d4:	4694      	mov	ip, r2
     1d6:	9308      	str	r3, [sp, #32]
     1d8:	9b1e      	ldr	r3, [sp, #120]	; 0x78
     1da:	910a      	str	r1, [sp, #40]	; 0x28
     1dc:	0fdd      	lsrs	r5, r3, #31
     1de:	18ed      	adds	r5, r5, r3
     1e0:	4463      	add	r3, ip
     1e2:	4359      	muls	r1, r3
     1e4:	0008      	movs	r0, r1
     1e6:	2104      	movs	r1, #4
     1e8:	0014      	movs	r4, r2
     1ea:	920e      	str	r2, [sp, #56]	; 0x38
     1ec:	f000 f90a 	bl	404 <calloc>
     1f0:	106d      	asrs	r5, r5, #1
     1f2:	107f      	asrs	r7, r7, #1
     1f4:	900d      	str	r0, [sp, #52]	; 0x34
     1f6:	2800      	cmp	r0, #0
     1f8:	d100      	bne.n	1fc <conv2d+0x48>
     1fa:	e0aa      	b.n	352 <conv2d+0x19e>
     1fc:	2c00      	cmp	r4, #0
     1fe:	dd1a      	ble.n	236 <conv2d+0x82>
     200:	9b08      	ldr	r3, [sp, #32]
     202:	009b      	lsls	r3, r3, #2
     204:	4699      	mov	r9, r3
     206:	9b0a      	ldr	r3, [sp, #40]	; 0x28
     208:	009a      	lsls	r2, r3, #2
     20a:	436b      	muls	r3, r5
     20c:	19dc      	adds	r4, r3, r7
     20e:	9b0d      	ldr	r3, [sp, #52]	; 0x34
     210:	4692      	mov	sl, r2
     212:	469c      	mov	ip, r3
     214:	2300      	movs	r3, #0
     216:	4698      	mov	r8, r3
     218:	00a4      	lsls	r4, r4, #2
     21a:	4464      	add	r4, ip
     21c:	0031      	movs	r1, r6
     21e:	0020      	movs	r0, r4
     220:	464a      	mov	r2, r9
     222:	f000 fc3d 	bl	aa0 <memcpy>
     226:	2301      	movs	r3, #1
     228:	469c      	mov	ip, r3
     22a:	9b0e      	ldr	r3, [sp, #56]	; 0x38
     22c:	44e0      	add	r8, ip
     22e:	4454      	add	r4, sl
     230:	444e      	add	r6, r9
     232:	4543      	cmp	r3, r8
     234:	d1f2      	bne.n	21c <conv2d+0x68>
     236:	9b0e      	ldr	r3, [sp, #56]	; 0x38
     238:	18eb      	adds	r3, r5, r3
     23a:	429d      	cmp	r5, r3
     23c:	da79      	bge.n	332 <conv2d+0x17e>
     23e:	9a0a      	ldr	r2, [sp, #40]	; 0x28
     240:	007b      	lsls	r3, r7, #1
     242:	0092      	lsls	r2, r2, #2
     244:	9202      	str	r2, [sp, #8]
     246:	9a1f      	ldr	r2, [sp, #124]	; 0x7c
     248:	930f      	str	r3, [sp, #60]	; 0x3c
     24a:	0092      	lsls	r2, r2, #2
     24c:	9201      	str	r2, [sp, #4]
     24e:	2200      	movs	r2, #0
     250:	006b      	lsls	r3, r5, #1
     252:	9310      	str	r3, [sp, #64]	; 0x40
     254:	3301      	adds	r3, #1
     256:	920b      	str	r2, [sp, #44]	; 0x2c
     258:	920c      	str	r2, [sp, #48]	; 0x30
     25a:	9207      	str	r2, [sp, #28]
     25c:	9303      	str	r3, [sp, #12]
     25e:	9b08      	ldr	r3, [sp, #32]
     260:	2b00      	cmp	r3, #0
     262:	dd55      	ble.n	310 <conv2d+0x15c>
     264:	9a11      	ldr	r2, [sp, #68]	; 0x44
     266:	9b0c      	ldr	r3, [sp, #48]	; 0x30
     268:	4694      	mov	ip, r2
     26a:	9a0d      	ldr	r2, [sp, #52]	; 0x34
     26c:	009b      	lsls	r3, r3, #2
     26e:	4463      	add	r3, ip
     270:	4694      	mov	ip, r2
     272:	9305      	str	r3, [sp, #20]
     274:	9b0b      	ldr	r3, [sp, #44]	; 0x2c
     276:	9a10      	ldr	r2, [sp, #64]	; 0x40
     278:	009b      	lsls	r3, r3, #2
     27a:	4463      	add	r3, ip
     27c:	4694      	mov	ip, r2
     27e:	9304      	str	r3, [sp, #16]
     280:	9b07      	ldr	r3, [sp, #28]
     282:	4463      	add	r3, ip
     284:	9309      	str	r3, [sp, #36]	; 0x24
     286:	9b0f      	ldr	r3, [sp, #60]	; 0x3c
     288:	469a      	mov	sl, r3
     28a:	2300      	movs	r3, #0
     28c:	469b      	mov	fp, r3
     28e:	9b07      	ldr	r3, [sp, #28]
     290:	9a09      	ldr	r2, [sp, #36]	; 0x24
     292:	4293      	cmp	r3, r2
     294:	dc58      	bgt.n	348 <conv2d+0x194>
     296:	4653      	mov	r3, sl
     298:	465a      	mov	r2, fp
     29a:	3301      	adds	r3, #1
     29c:	9306      	str	r3, [sp, #24]
     29e:	1a9b      	subs	r3, r3, r2
     2a0:	009b      	lsls	r3, r3, #2
     2a2:	4698      	mov	r8, r3
     2a4:	2300      	movs	r3, #0
     2a6:	2500      	movs	r5, #0
     2a8:	4699      	mov	r9, r3
     2aa:	9f1c      	ldr	r7, [sp, #112]	; 0x70
     2ac:	9e04      	ldr	r6, [sp, #16]
     2ae:	45d3      	cmp	fp, sl
     2b0:	dc0e      	bgt.n	2d0 <conv2d+0x11c>
     2b2:	2400      	movs	r4, #0
     2b4:	5930      	ldr	r0, [r6, r4]
     2b6:	f007 fe61 	bl	7f7c <__aeabi_i2f>
     2ba:	5939      	ldr	r1, [r7, r4]
     2bc:	f007 fd18 	bl	7cf0 <__aeabi_fmul>
     2c0:	1c01      	adds	r1, r0, #0
     2c2:	1c28      	adds	r0, r5, #0
     2c4:	f007 fa5e 	bl	7784 <__aeabi_fadd>
     2c8:	3404      	adds	r4, #4
     2ca:	1c05      	adds	r5, r0, #0
     2cc:	45a0      	cmp	r8, r4
     2ce:	d1f1      	bne.n	2b4 <conv2d+0x100>
     2d0:	2301      	movs	r3, #1
     2d2:	469c      	mov	ip, r3
     2d4:	9b02      	ldr	r3, [sp, #8]
     2d6:	44e1      	add	r9, ip
     2d8:	469c      	mov	ip, r3
     2da:	9b01      	ldr	r3, [sp, #4]
     2dc:	4466      	add	r6, ip
     2de:	469c      	mov	ip, r3
     2e0:	9b03      	ldr	r3, [sp, #12]
     2e2:	4467      	add	r7, ip
     2e4:	4599      	cmp	r9, r3
     2e6:	d1e2      	bne.n	2ae <conv2d+0xfa>
     2e8:	991d      	ldr	r1, [sp, #116]	; 0x74
     2ea:	1c28      	adds	r0, r5, #0
     2ec:	f007 fbe8 	bl	7ac0 <__aeabi_fdiv>
     2f0:	f007 fe24 	bl	7f3c <__aeabi_f2iz>
     2f4:	9b05      	ldr	r3, [sp, #20]
     2f6:	c301      	stmia	r3!, {r0}
     2f8:	9305      	str	r3, [sp, #20]
     2fa:	2301      	movs	r3, #1
     2fc:	469c      	mov	ip, r3
     2fe:	9b06      	ldr	r3, [sp, #24]
     300:	44e3      	add	fp, ip
     302:	469a      	mov	sl, r3
     304:	9b04      	ldr	r3, [sp, #16]
     306:	3304      	adds	r3, #4
     308:	9304      	str	r3, [sp, #16]
     30a:	9b08      	ldr	r3, [sp, #32]
     30c:	455b      	cmp	r3, fp
     30e:	d1be      	bne.n	28e <conv2d+0xda>
     310:	46c0      	nop			; (mov r8, r8)
     312:	9908      	ldr	r1, [sp, #32]
     314:	9a0c      	ldr	r2, [sp, #48]	; 0x30
     316:	468c      	mov	ip, r1
     318:	990a      	ldr	r1, [sp, #40]	; 0x28
     31a:	4462      	add	r2, ip
     31c:	468c      	mov	ip, r1
     31e:	920c      	str	r2, [sp, #48]	; 0x30
     320:	9a0b      	ldr	r2, [sp, #44]	; 0x2c
     322:	9b07      	ldr	r3, [sp, #28]
     324:	4462      	add	r2, ip
     326:	920b      	str	r2, [sp, #44]	; 0x2c
     328:	9a0e      	ldr	r2, [sp, #56]	; 0x38
     32a:	3301      	adds	r3, #1
     32c:	9307      	str	r3, [sp, #28]
     32e:	429a      	cmp	r2, r3
     330:	d195      	bne.n	25e <conv2d+0xaa>
     332:	980d      	ldr	r0, [sp, #52]	; 0x34
     334:	f000 f8e8 	bl	508 <free>
     338:	2000      	movs	r0, #0
     33a:	b013      	add	sp, #76	; 0x4c
     33c:	bcf0      	pop	{r4, r5, r6, r7}
     33e:	46bb      	mov	fp, r7
     340:	46b2      	mov	sl, r6
     342:	46a9      	mov	r9, r5
     344:	46a0      	mov	r8, r4
     346:	bdf0      	pop	{r4, r5, r6, r7, pc}
     348:	4653      	mov	r3, sl
     34a:	3301      	adds	r3, #1
     34c:	2500      	movs	r5, #0
     34e:	9306      	str	r3, [sp, #24]
     350:	e7ca      	b.n	2e8 <conv2d+0x134>
     352:	4b05      	ldr	r3, [pc, #20]	; (368 <conv2d+0x1b4>)
     354:	4a05      	ldr	r2, [pc, #20]	; (36c <conv2d+0x1b8>)
     356:	6818      	ldr	r0, [r3, #0]
     358:	4905      	ldr	r1, [pc, #20]	; (370 <conv2d+0x1bc>)
     35a:	237b      	movs	r3, #123	; 0x7b
     35c:	68c0      	ldr	r0, [r0, #12]
     35e:	f000 f8b7 	bl	4d0 <fprintf>
     362:	2001      	movs	r0, #1
     364:	4240      	negs	r0, r0
     366:	e7e8      	b.n	33a <conv2d+0x186>
     368:	000106f0 	.word	0x000106f0
     36c:	00009cd8 	.word	0x00009cd8
     370:	00009ce4 	.word	0x00009ce4

00000374 <main>:
     374:	22a2      	movs	r2, #162	; 0xa2
     376:	b570      	push	{r4, r5, r6, lr}
     378:	b0d6      	sub	sp, #344	; 0x158
     37a:	ae05      	add	r6, sp, #20
     37c:	0030      	movs	r0, r6
     37e:	491f      	ldr	r1, [pc, #124]	; (3fc <main+0x88>)
     380:	0052      	lsls	r2, r2, #1
     382:	f000 fb8d 	bl	aa0 <memcpy>
     386:	0034      	movs	r4, r6
     388:	ad56      	add	r5, sp, #344	; 0x158
     38a:	21ea      	movs	r1, #234	; 0xea
     38c:	6820      	ldr	r0, [r4, #0]
     38e:	0589      	lsls	r1, r1, #22
     390:	f007 fcae 	bl	7cf0 <__aeabi_fmul>
     394:	c401      	stmia	r4!, {r0}
     396:	42ac      	cmp	r4, r5
     398:	d1f7      	bne.n	38a <main+0x16>
     39a:	20c0      	movs	r0, #192	; 0xc0
     39c:	2104      	movs	r1, #4
     39e:	0100      	lsls	r0, r0, #4
     3a0:	f000 f830 	bl	404 <calloc>
     3a4:	0004      	movs	r4, r0
     3a6:	20c0      	movs	r0, #192	; 0xc0
     3a8:	2104      	movs	r1, #4
     3aa:	0100      	lsls	r0, r0, #4
     3ac:	f000 f82a 	bl	404 <calloc>
     3b0:	0005      	movs	r5, r0
     3b2:	2c00      	cmp	r4, #0
     3b4:	d01d      	beq.n	3f2 <main+0x7e>
     3b6:	2800      	cmp	r0, #0
     3b8:	d01b      	beq.n	3f2 <main+0x7e>
     3ba:	22c0      	movs	r2, #192	; 0xc0
     3bc:	0020      	movs	r0, r4
     3be:	4910      	ldr	r1, [pc, #64]	; (400 <main+0x8c>)
     3c0:	0192      	lsls	r2, r2, #6
     3c2:	f000 fb6d 	bl	aa0 <memcpy>
     3c6:	2309      	movs	r3, #9
     3c8:	9303      	str	r3, [sp, #12]
     3ca:	9302      	str	r3, [sp, #8]
     3cc:	23fe      	movs	r3, #254	; 0xfe
     3ce:	059b      	lsls	r3, r3, #22
     3d0:	2230      	movs	r2, #48	; 0x30
     3d2:	0029      	movs	r1, r5
     3d4:	9301      	str	r3, [sp, #4]
     3d6:	0020      	movs	r0, r4
     3d8:	2340      	movs	r3, #64	; 0x40
     3da:	9600      	str	r6, [sp, #0]
     3dc:	f7ff feea 	bl	1b4 <conv2d>
     3e0:	0028      	movs	r0, r5
     3e2:	f000 f891 	bl	508 <free>
     3e6:	0020      	movs	r0, r4
     3e8:	f000 f88e 	bl	508 <free>
     3ec:	2000      	movs	r0, #0
     3ee:	b056      	add	sp, #344	; 0x158
     3f0:	bd70      	pop	{r4, r5, r6, pc}
     3f2:	2001      	movs	r0, #1
     3f4:	4240      	negs	r0, r0
     3f6:	f7ff fe3f 	bl	78 <exit>
     3fa:	46c0      	nop			; (mov r8, r8)
     3fc:	00009d14 	.word	0x00009d14
     400:	0000d6f0 	.word	0x0000d6f0

00000404 <calloc>:
     404:	0003      	movs	r3, r0
     406:	b510      	push	{r4, lr}
     408:	000a      	movs	r2, r1
     40a:	4903      	ldr	r1, [pc, #12]	; (418 <calloc+0x14>)
     40c:	6808      	ldr	r0, [r1, #0]
     40e:	0019      	movs	r1, r3
     410:	f000 f804 	bl	41c <_calloc_r>
     414:	bd10      	pop	{r4, pc}
     416:	46c0      	nop			; (mov r8, r8)
     418:	000106f0 	.word	0x000106f0

0000041c <_calloc_r>:
     41c:	b570      	push	{r4, r5, r6, lr}
     41e:	0c0b      	lsrs	r3, r1, #16
     420:	2400      	movs	r4, #0
     422:	0c15      	lsrs	r5, r2, #16
     424:	2b00      	cmp	r3, #0
     426:	d128      	bne.n	47a <_calloc_r+0x5e>
     428:	2d00      	cmp	r5, #0
     42a:	d137      	bne.n	49c <_calloc_r+0x80>
     42c:	b28b      	uxth	r3, r1
     42e:	b291      	uxth	r1, r2
     430:	4359      	muls	r1, r3
     432:	f000 f873 	bl	51c <_malloc_r>
     436:	1e05      	subs	r5, r0, #0
     438:	d019      	beq.n	46e <_calloc_r+0x52>
     43a:	0003      	movs	r3, r0
     43c:	3b08      	subs	r3, #8
     43e:	685a      	ldr	r2, [r3, #4]
     440:	2303      	movs	r3, #3
     442:	439a      	bics	r2, r3
     444:	3a04      	subs	r2, #4
     446:	2a24      	cmp	r2, #36	; 0x24
     448:	d813      	bhi.n	472 <_calloc_r+0x56>
     44a:	0003      	movs	r3, r0
     44c:	2a13      	cmp	r2, #19
     44e:	d90a      	bls.n	466 <_calloc_r+0x4a>
     450:	6004      	str	r4, [r0, #0]
     452:	6044      	str	r4, [r0, #4]
     454:	3308      	adds	r3, #8
     456:	2a1b      	cmp	r2, #27
     458:	d905      	bls.n	466 <_calloc_r+0x4a>
     45a:	6084      	str	r4, [r0, #8]
     45c:	60c4      	str	r4, [r0, #12]
     45e:	2a24      	cmp	r2, #36	; 0x24
     460:	d025      	beq.n	4ae <_calloc_r+0x92>
     462:	0003      	movs	r3, r0
     464:	3310      	adds	r3, #16
     466:	2200      	movs	r2, #0
     468:	601a      	str	r2, [r3, #0]
     46a:	605a      	str	r2, [r3, #4]
     46c:	609a      	str	r2, [r3, #8]
     46e:	0028      	movs	r0, r5
     470:	bd70      	pop	{r4, r5, r6, pc}
     472:	2100      	movs	r1, #0
     474:	f000 fb66 	bl	b44 <memset>
     478:	e7f9      	b.n	46e <_calloc_r+0x52>
     47a:	2d00      	cmp	r5, #0
     47c:	d111      	bne.n	4a2 <_calloc_r+0x86>
     47e:	1c15      	adds	r5, r2, #0
     480:	b289      	uxth	r1, r1
     482:	b292      	uxth	r2, r2
     484:	434a      	muls	r2, r1
     486:	b2ad      	uxth	r5, r5
     488:	b29b      	uxth	r3, r3
     48a:	436b      	muls	r3, r5
     48c:	0c11      	lsrs	r1, r2, #16
     48e:	185b      	adds	r3, r3, r1
     490:	0c19      	lsrs	r1, r3, #16
     492:	d106      	bne.n	4a2 <_calloc_r+0x86>
     494:	0419      	lsls	r1, r3, #16
     496:	b292      	uxth	r2, r2
     498:	4311      	orrs	r1, r2
     49a:	e7ca      	b.n	432 <_calloc_r+0x16>
     49c:	1c2b      	adds	r3, r5, #0
     49e:	1c0d      	adds	r5, r1, #0
     4a0:	e7ee      	b.n	480 <_calloc_r+0x64>
     4a2:	f7ff fe35 	bl	110 <__errno>
     4a6:	230c      	movs	r3, #12
     4a8:	2500      	movs	r5, #0
     4aa:	6003      	str	r3, [r0, #0]
     4ac:	e7df      	b.n	46e <_calloc_r+0x52>
     4ae:	0003      	movs	r3, r0
     4b0:	6104      	str	r4, [r0, #16]
     4b2:	3318      	adds	r3, #24
     4b4:	6144      	str	r4, [r0, #20]
     4b6:	e7d6      	b.n	466 <_calloc_r+0x4a>

000004b8 <_fprintf_r>:
     4b8:	b40c      	push	{r2, r3}
     4ba:	b500      	push	{lr}
     4bc:	b083      	sub	sp, #12
     4be:	ab04      	add	r3, sp, #16
     4c0:	cb04      	ldmia	r3!, {r2}
     4c2:	9301      	str	r3, [sp, #4]
     4c4:	f000 fbb4 	bl	c30 <_vfprintf_r>
     4c8:	b003      	add	sp, #12
     4ca:	bc08      	pop	{r3}
     4cc:	b002      	add	sp, #8
     4ce:	4718      	bx	r3

000004d0 <fprintf>:
     4d0:	b40e      	push	{r1, r2, r3}
     4d2:	b500      	push	{lr}
     4d4:	b082      	sub	sp, #8
     4d6:	ab03      	add	r3, sp, #12
     4d8:	0001      	movs	r1, r0
     4da:	4805      	ldr	r0, [pc, #20]	; (4f0 <fprintf+0x20>)
     4dc:	cb04      	ldmia	r3!, {r2}
     4de:	6800      	ldr	r0, [r0, #0]
     4e0:	9301      	str	r3, [sp, #4]
     4e2:	f000 fba5 	bl	c30 <_vfprintf_r>
     4e6:	b002      	add	sp, #8
     4e8:	bc08      	pop	{r3}
     4ea:	b003      	add	sp, #12
     4ec:	4718      	bx	r3
     4ee:	46c0      	nop			; (mov r8, r8)
     4f0:	000106f0 	.word	0x000106f0

000004f4 <malloc>:
     4f4:	b510      	push	{r4, lr}
     4f6:	4b03      	ldr	r3, [pc, #12]	; (504 <malloc+0x10>)
     4f8:	0001      	movs	r1, r0
     4fa:	6818      	ldr	r0, [r3, #0]
     4fc:	f000 f80e 	bl	51c <_malloc_r>
     500:	bd10      	pop	{r4, pc}
     502:	46c0      	nop			; (mov r8, r8)
     504:	000106f0 	.word	0x000106f0

00000508 <free>:
     508:	b510      	push	{r4, lr}
     50a:	4b03      	ldr	r3, [pc, #12]	; (518 <free+0x10>)
     50c:	0001      	movs	r1, r0
     50e:	6818      	ldr	r0, [r3, #0]
     510:	f003 fdd6 	bl	40c0 <_free_r>
     514:	bd10      	pop	{r4, pc}
     516:	46c0      	nop			; (mov r8, r8)
     518:	000106f0 	.word	0x000106f0

0000051c <_malloc_r>:
     51c:	b5f0      	push	{r4, r5, r6, r7, lr}
     51e:	464e      	mov	r6, r9
     520:	4645      	mov	r5, r8
     522:	46de      	mov	lr, fp
     524:	4657      	mov	r7, sl
     526:	b5e0      	push	{r5, r6, r7, lr}
     528:	000d      	movs	r5, r1
     52a:	350b      	adds	r5, #11
     52c:	0006      	movs	r6, r0
     52e:	b083      	sub	sp, #12
     530:	2d16      	cmp	r5, #22
     532:	d822      	bhi.n	57a <_malloc_r+0x5e>
     534:	2910      	cmp	r1, #16
     536:	d900      	bls.n	53a <_malloc_r+0x1e>
     538:	e0b2      	b.n	6a0 <_malloc_r+0x184>
     53a:	f000 fb57 	bl	bec <__malloc_lock>
     53e:	2510      	movs	r5, #16
     540:	2318      	movs	r3, #24
     542:	2002      	movs	r0, #2
     544:	4fcc      	ldr	r7, [pc, #816]	; (878 <_malloc_r+0x35c>)
     546:	18fb      	adds	r3, r7, r3
     548:	001a      	movs	r2, r3
     54a:	685c      	ldr	r4, [r3, #4]
     54c:	3a08      	subs	r2, #8
     54e:	4294      	cmp	r4, r2
     550:	d100      	bne.n	554 <_malloc_r+0x38>
     552:	e0b5      	b.n	6c0 <_malloc_r+0x1a4>
     554:	2303      	movs	r3, #3
     556:	6862      	ldr	r2, [r4, #4]
     558:	439a      	bics	r2, r3
     55a:	0013      	movs	r3, r2
     55c:	68e2      	ldr	r2, [r4, #12]
     55e:	68a1      	ldr	r1, [r4, #8]
     560:	60ca      	str	r2, [r1, #12]
     562:	6091      	str	r1, [r2, #8]
     564:	2201      	movs	r2, #1
     566:	18e3      	adds	r3, r4, r3
     568:	6859      	ldr	r1, [r3, #4]
     56a:	0030      	movs	r0, r6
     56c:	430a      	orrs	r2, r1
     56e:	605a      	str	r2, [r3, #4]
     570:	f000 fb44 	bl	bfc <__malloc_unlock>
     574:	0020      	movs	r0, r4
     576:	3008      	adds	r0, #8
     578:	e095      	b.n	6a6 <_malloc_r+0x18a>
     57a:	2307      	movs	r3, #7
     57c:	439d      	bics	r5, r3
     57e:	d500      	bpl.n	582 <_malloc_r+0x66>
     580:	e08e      	b.n	6a0 <_malloc_r+0x184>
     582:	42a9      	cmp	r1, r5
     584:	d900      	bls.n	588 <_malloc_r+0x6c>
     586:	e08b      	b.n	6a0 <_malloc_r+0x184>
     588:	f000 fb30 	bl	bec <__malloc_lock>
     58c:	23fc      	movs	r3, #252	; 0xfc
     58e:	005b      	lsls	r3, r3, #1
     590:	429d      	cmp	r5, r3
     592:	d200      	bcs.n	596 <_malloc_r+0x7a>
     594:	e1a7      	b.n	8e6 <_malloc_r+0x3ca>
     596:	0a68      	lsrs	r0, r5, #9
     598:	d100      	bne.n	59c <_malloc_r+0x80>
     59a:	e08b      	b.n	6b4 <_malloc_r+0x198>
     59c:	2804      	cmp	r0, #4
     59e:	d900      	bls.n	5a2 <_malloc_r+0x86>
     5a0:	e17a      	b.n	898 <_malloc_r+0x37c>
     5a2:	2338      	movs	r3, #56	; 0x38
     5a4:	4698      	mov	r8, r3
     5a6:	09a8      	lsrs	r0, r5, #6
     5a8:	4480      	add	r8, r0
     5aa:	3039      	adds	r0, #57	; 0x39
     5ac:	00c1      	lsls	r1, r0, #3
     5ae:	4fb2      	ldr	r7, [pc, #712]	; (878 <_malloc_r+0x35c>)
     5b0:	1879      	adds	r1, r7, r1
     5b2:	684c      	ldr	r4, [r1, #4]
     5b4:	3908      	subs	r1, #8
     5b6:	42a1      	cmp	r1, r4
     5b8:	d00e      	beq.n	5d8 <_malloc_r+0xbc>
     5ba:	2303      	movs	r3, #3
     5bc:	469c      	mov	ip, r3
     5be:	e004      	b.n	5ca <_malloc_r+0xae>
     5c0:	2a00      	cmp	r2, #0
     5c2:	dacb      	bge.n	55c <_malloc_r+0x40>
     5c4:	68e4      	ldr	r4, [r4, #12]
     5c6:	42a1      	cmp	r1, r4
     5c8:	d006      	beq.n	5d8 <_malloc_r+0xbc>
     5ca:	4662      	mov	r2, ip
     5cc:	6863      	ldr	r3, [r4, #4]
     5ce:	4393      	bics	r3, r2
     5d0:	1b5a      	subs	r2, r3, r5
     5d2:	2a0f      	cmp	r2, #15
     5d4:	ddf4      	ble.n	5c0 <_malloc_r+0xa4>
     5d6:	4640      	mov	r0, r8
     5d8:	003a      	movs	r2, r7
     5da:	693c      	ldr	r4, [r7, #16]
     5dc:	3208      	adds	r2, #8
     5de:	4294      	cmp	r4, r2
     5e0:	d100      	bne.n	5e4 <_malloc_r+0xc8>
     5e2:	e078      	b.n	6d6 <_malloc_r+0x1ba>
     5e4:	2303      	movs	r3, #3
     5e6:	6861      	ldr	r1, [r4, #4]
     5e8:	4399      	bics	r1, r3
     5ea:	4689      	mov	r9, r1
     5ec:	000b      	movs	r3, r1
     5ee:	1b49      	subs	r1, r1, r5
     5f0:	290f      	cmp	r1, #15
     5f2:	dd00      	ble.n	5f6 <_malloc_r+0xda>
     5f4:	e17b      	b.n	8ee <_malloc_r+0x3d2>
     5f6:	617a      	str	r2, [r7, #20]
     5f8:	613a      	str	r2, [r7, #16]
     5fa:	2900      	cmp	r1, #0
     5fc:	dab2      	bge.n	564 <_malloc_r+0x48>
     5fe:	2280      	movs	r2, #128	; 0x80
     600:	0092      	lsls	r2, r2, #2
     602:	4591      	cmp	r9, r2
     604:	d300      	bcc.n	608 <_malloc_r+0xec>
     606:	e10f      	b.n	828 <_malloc_r+0x30c>
     608:	0959      	lsrs	r1, r3, #5
     60a:	08da      	lsrs	r2, r3, #3
     60c:	2301      	movs	r3, #1
     60e:	408b      	lsls	r3, r1
     610:	00d2      	lsls	r2, r2, #3
     612:	6879      	ldr	r1, [r7, #4]
     614:	19d2      	adds	r2, r2, r7
     616:	430b      	orrs	r3, r1
     618:	6891      	ldr	r1, [r2, #8]
     61a:	607b      	str	r3, [r7, #4]
     61c:	60e2      	str	r2, [r4, #12]
     61e:	60a1      	str	r1, [r4, #8]
     620:	6094      	str	r4, [r2, #8]
     622:	60cc      	str	r4, [r1, #12]
     624:	2101      	movs	r1, #1
     626:	1082      	asrs	r2, r0, #2
     628:	4091      	lsls	r1, r2
     62a:	4299      	cmp	r1, r3
     62c:	d859      	bhi.n	6e2 <_malloc_r+0x1c6>
     62e:	420b      	tst	r3, r1
     630:	d105      	bne.n	63e <_malloc_r+0x122>
     632:	2203      	movs	r2, #3
     634:	4390      	bics	r0, r2
     636:	0049      	lsls	r1, r1, #1
     638:	3004      	adds	r0, #4
     63a:	420b      	tst	r3, r1
     63c:	d0fb      	beq.n	636 <_malloc_r+0x11a>
     63e:	2303      	movs	r3, #3
     640:	4698      	mov	r8, r3
     642:	00c3      	lsls	r3, r0, #3
     644:	4699      	mov	r9, r3
     646:	44b9      	add	r9, r7
     648:	46cc      	mov	ip, r9
     64a:	4682      	mov	sl, r0
     64c:	4663      	mov	r3, ip
     64e:	68dc      	ldr	r4, [r3, #12]
     650:	45a4      	cmp	ip, r4
     652:	d107      	bne.n	664 <_malloc_r+0x148>
     654:	e12c      	b.n	8b0 <_malloc_r+0x394>
     656:	2a00      	cmp	r2, #0
     658:	db00      	blt.n	65c <_malloc_r+0x140>
     65a:	e135      	b.n	8c8 <_malloc_r+0x3ac>
     65c:	68e4      	ldr	r4, [r4, #12]
     65e:	45a4      	cmp	ip, r4
     660:	d100      	bne.n	664 <_malloc_r+0x148>
     662:	e125      	b.n	8b0 <_malloc_r+0x394>
     664:	4642      	mov	r2, r8
     666:	6863      	ldr	r3, [r4, #4]
     668:	4393      	bics	r3, r2
     66a:	1b5a      	subs	r2, r3, r5
     66c:	2a0f      	cmp	r2, #15
     66e:	ddf2      	ble.n	656 <_malloc_r+0x13a>
     670:	2001      	movs	r0, #1
     672:	4680      	mov	r8, r0
     674:	1961      	adds	r1, r4, r5
     676:	4305      	orrs	r5, r0
     678:	6065      	str	r5, [r4, #4]
     67a:	68a0      	ldr	r0, [r4, #8]
     67c:	68e5      	ldr	r5, [r4, #12]
     67e:	3708      	adds	r7, #8
     680:	60c5      	str	r5, [r0, #12]
     682:	60a8      	str	r0, [r5, #8]
     684:	4640      	mov	r0, r8
     686:	4310      	orrs	r0, r2
     688:	60f9      	str	r1, [r7, #12]
     68a:	60b9      	str	r1, [r7, #8]
     68c:	6048      	str	r0, [r1, #4]
     68e:	60cf      	str	r7, [r1, #12]
     690:	0030      	movs	r0, r6
     692:	608f      	str	r7, [r1, #8]
     694:	50e2      	str	r2, [r4, r3]
     696:	f000 fab1 	bl	bfc <__malloc_unlock>
     69a:	0020      	movs	r0, r4
     69c:	3008      	adds	r0, #8
     69e:	e002      	b.n	6a6 <_malloc_r+0x18a>
     6a0:	230c      	movs	r3, #12
     6a2:	2000      	movs	r0, #0
     6a4:	6033      	str	r3, [r6, #0]
     6a6:	b003      	add	sp, #12
     6a8:	bcf0      	pop	{r4, r5, r6, r7}
     6aa:	46bb      	mov	fp, r7
     6ac:	46b2      	mov	sl, r6
     6ae:	46a9      	mov	r9, r5
     6b0:	46a0      	mov	r8, r4
     6b2:	bdf0      	pop	{r4, r5, r6, r7, pc}
     6b4:	2180      	movs	r1, #128	; 0x80
     6b6:	233f      	movs	r3, #63	; 0x3f
     6b8:	2040      	movs	r0, #64	; 0x40
     6ba:	4698      	mov	r8, r3
     6bc:	0089      	lsls	r1, r1, #2
     6be:	e776      	b.n	5ae <_malloc_r+0x92>
     6c0:	68dc      	ldr	r4, [r3, #12]
     6c2:	3002      	adds	r0, #2
     6c4:	42a3      	cmp	r3, r4
     6c6:	d000      	beq.n	6ca <_malloc_r+0x1ae>
     6c8:	e744      	b.n	554 <_malloc_r+0x38>
     6ca:	003a      	movs	r2, r7
     6cc:	693c      	ldr	r4, [r7, #16]
     6ce:	3208      	adds	r2, #8
     6d0:	4294      	cmp	r4, r2
     6d2:	d000      	beq.n	6d6 <_malloc_r+0x1ba>
     6d4:	e786      	b.n	5e4 <_malloc_r+0xc8>
     6d6:	2101      	movs	r1, #1
     6d8:	687b      	ldr	r3, [r7, #4]
     6da:	1082      	asrs	r2, r0, #2
     6dc:	4091      	lsls	r1, r2
     6de:	4299      	cmp	r1, r3
     6e0:	d9a5      	bls.n	62e <_malloc_r+0x112>
     6e2:	2303      	movs	r3, #3
     6e4:	68bc      	ldr	r4, [r7, #8]
     6e6:	6862      	ldr	r2, [r4, #4]
     6e8:	439a      	bics	r2, r3
     6ea:	4691      	mov	r9, r2
     6ec:	4295      	cmp	r5, r2
     6ee:	d803      	bhi.n	6f8 <_malloc_r+0x1dc>
     6f0:	1b53      	subs	r3, r2, r5
     6f2:	2b0f      	cmp	r3, #15
     6f4:	dd00      	ble.n	6f8 <_malloc_r+0x1dc>
     6f6:	e089      	b.n	80c <_malloc_r+0x2f0>
     6f8:	0023      	movs	r3, r4
     6fa:	444b      	add	r3, r9
     6fc:	4a5f      	ldr	r2, [pc, #380]	; (87c <_malloc_r+0x360>)
     6fe:	9301      	str	r3, [sp, #4]
     700:	4b5f      	ldr	r3, [pc, #380]	; (880 <_malloc_r+0x364>)
     702:	4693      	mov	fp, r2
     704:	681b      	ldr	r3, [r3, #0]
     706:	6812      	ldr	r2, [r2, #0]
     708:	18eb      	adds	r3, r5, r3
     70a:	3201      	adds	r2, #1
     70c:	d100      	bne.n	710 <_malloc_r+0x1f4>
     70e:	e13d      	b.n	98c <_malloc_r+0x470>
     710:	4a5c      	ldr	r2, [pc, #368]	; (884 <_malloc_r+0x368>)
     712:	4694      	mov	ip, r2
     714:	4463      	add	r3, ip
     716:	0b1b      	lsrs	r3, r3, #12
     718:	031b      	lsls	r3, r3, #12
     71a:	9300      	str	r3, [sp, #0]
     71c:	0030      	movs	r0, r6
     71e:	9900      	ldr	r1, [sp, #0]
     720:	f000 fa74 	bl	c0c <_sbrk_r>
     724:	0003      	movs	r3, r0
     726:	4680      	mov	r8, r0
     728:	3301      	adds	r3, #1
     72a:	d100      	bne.n	72e <_malloc_r+0x212>
     72c:	e0fa      	b.n	924 <_malloc_r+0x408>
     72e:	9b01      	ldr	r3, [sp, #4]
     730:	4283      	cmp	r3, r0
     732:	d900      	bls.n	736 <_malloc_r+0x21a>
     734:	e0f4      	b.n	920 <_malloc_r+0x404>
     736:	4b54      	ldr	r3, [pc, #336]	; (888 <_malloc_r+0x36c>)
     738:	9800      	ldr	r0, [sp, #0]
     73a:	001a      	movs	r2, r3
     73c:	469a      	mov	sl, r3
     73e:	6812      	ldr	r2, [r2, #0]
     740:	0003      	movs	r3, r0
     742:	4694      	mov	ip, r2
     744:	4651      	mov	r1, sl
     746:	4463      	add	r3, ip
     748:	600b      	str	r3, [r1, #0]
     74a:	9901      	ldr	r1, [sp, #4]
     74c:	001a      	movs	r2, r3
     74e:	4541      	cmp	r1, r8
     750:	d100      	bne.n	754 <_malloc_r+0x238>
     752:	e151      	b.n	9f8 <_malloc_r+0x4dc>
     754:	465b      	mov	r3, fp
     756:	681b      	ldr	r3, [r3, #0]
     758:	3301      	adds	r3, #1
     75a:	d100      	bne.n	75e <_malloc_r+0x242>
     75c:	e156      	b.n	a0c <_malloc_r+0x4f0>
     75e:	4643      	mov	r3, r8
     760:	9901      	ldr	r1, [sp, #4]
     762:	1a5b      	subs	r3, r3, r1
     764:	189a      	adds	r2, r3, r2
     766:	4653      	mov	r3, sl
     768:	601a      	str	r2, [r3, #0]
     76a:	2307      	movs	r3, #7
     76c:	4642      	mov	r2, r8
     76e:	4641      	mov	r1, r8
     770:	401a      	ands	r2, r3
     772:	9201      	str	r2, [sp, #4]
     774:	4219      	tst	r1, r3
     776:	d100      	bne.n	77a <_malloc_r+0x25e>
     778:	e112      	b.n	9a0 <_malloc_r+0x484>
     77a:	2308      	movs	r3, #8
     77c:	4698      	mov	r8, r3
     77e:	1a88      	subs	r0, r1, r2
     780:	4b42      	ldr	r3, [pc, #264]	; (88c <_malloc_r+0x370>)
     782:	9900      	ldr	r1, [sp, #0]
     784:	4480      	add	r8, r0
     786:	4441      	add	r1, r8
     788:	1a9b      	subs	r3, r3, r2
     78a:	1a5b      	subs	r3, r3, r1
     78c:	051b      	lsls	r3, r3, #20
     78e:	0d1b      	lsrs	r3, r3, #20
     790:	9100      	str	r1, [sp, #0]
     792:	0030      	movs	r0, r6
     794:	0019      	movs	r1, r3
     796:	469b      	mov	fp, r3
     798:	f000 fa38 	bl	c0c <_sbrk_r>
     79c:	1c43      	adds	r3, r0, #1
     79e:	d100      	bne.n	7a2 <_malloc_r+0x286>
     7a0:	e150      	b.n	a44 <_malloc_r+0x528>
     7a2:	4643      	mov	r3, r8
     7a4:	1ac0      	subs	r0, r0, r3
     7a6:	0003      	movs	r3, r0
     7a8:	445b      	add	r3, fp
     7aa:	9300      	str	r3, [sp, #0]
     7ac:	4653      	mov	r3, sl
     7ae:	4652      	mov	r2, sl
     7b0:	681b      	ldr	r3, [r3, #0]
     7b2:	2101      	movs	r1, #1
     7b4:	445b      	add	r3, fp
     7b6:	6013      	str	r3, [r2, #0]
     7b8:	4642      	mov	r2, r8
     7ba:	4640      	mov	r0, r8
     7bc:	60ba      	str	r2, [r7, #8]
     7be:	9a00      	ldr	r2, [sp, #0]
     7c0:	430a      	orrs	r2, r1
     7c2:	6042      	str	r2, [r0, #4]
     7c4:	42bc      	cmp	r4, r7
     7c6:	d100      	bne.n	7ca <_malloc_r+0x2ae>
     7c8:	e124      	b.n	a14 <_malloc_r+0x4f8>
     7ca:	464a      	mov	r2, r9
     7cc:	2a0f      	cmp	r2, #15
     7ce:	d800      	bhi.n	7d2 <_malloc_r+0x2b6>
     7d0:	e122      	b.n	a18 <_malloc_r+0x4fc>
     7d2:	2007      	movs	r0, #7
     7d4:	3a0c      	subs	r2, #12
     7d6:	4382      	bics	r2, r0
     7d8:	6860      	ldr	r0, [r4, #4]
     7da:	4001      	ands	r1, r0
     7dc:	2005      	movs	r0, #5
     7de:	4311      	orrs	r1, r2
     7e0:	6061      	str	r1, [r4, #4]
     7e2:	18a1      	adds	r1, r4, r2
     7e4:	6048      	str	r0, [r1, #4]
     7e6:	6088      	str	r0, [r1, #8]
     7e8:	2a0f      	cmp	r2, #15
     7ea:	d900      	bls.n	7ee <_malloc_r+0x2d2>
     7ec:	e135      	b.n	a5a <_malloc_r+0x53e>
     7ee:	4642      	mov	r2, r8
     7f0:	4644      	mov	r4, r8
     7f2:	6852      	ldr	r2, [r2, #4]
     7f4:	4926      	ldr	r1, [pc, #152]	; (890 <_malloc_r+0x374>)
     7f6:	6808      	ldr	r0, [r1, #0]
     7f8:	4298      	cmp	r0, r3
     7fa:	d200      	bcs.n	7fe <_malloc_r+0x2e2>
     7fc:	600b      	str	r3, [r1, #0]
     7fe:	4925      	ldr	r1, [pc, #148]	; (894 <_malloc_r+0x378>)
     800:	6808      	ldr	r0, [r1, #0]
     802:	4298      	cmp	r0, r3
     804:	d300      	bcc.n	808 <_malloc_r+0x2ec>
     806:	e08f      	b.n	928 <_malloc_r+0x40c>
     808:	600b      	str	r3, [r1, #0]
     80a:	e08d      	b.n	928 <_malloc_r+0x40c>
     80c:	2201      	movs	r2, #1
     80e:	0029      	movs	r1, r5
     810:	4313      	orrs	r3, r2
     812:	4311      	orrs	r1, r2
     814:	1965      	adds	r5, r4, r5
     816:	6061      	str	r1, [r4, #4]
     818:	0030      	movs	r0, r6
     81a:	60bd      	str	r5, [r7, #8]
     81c:	606b      	str	r3, [r5, #4]
     81e:	f000 f9ed 	bl	bfc <__malloc_unlock>
     822:	0020      	movs	r0, r4
     824:	3008      	adds	r0, #8
     826:	e73e      	b.n	6a6 <_malloc_r+0x18a>
     828:	0a5a      	lsrs	r2, r3, #9
     82a:	2a04      	cmp	r2, #4
     82c:	d972      	bls.n	914 <_malloc_r+0x3f8>
     82e:	2a14      	cmp	r2, #20
     830:	d900      	bls.n	834 <_malloc_r+0x318>
     832:	e0c5      	b.n	9c0 <_malloc_r+0x4a4>
     834:	0011      	movs	r1, r2
     836:	325c      	adds	r2, #92	; 0x5c
     838:	315b      	adds	r1, #91	; 0x5b
     83a:	00d2      	lsls	r2, r2, #3
     83c:	2308      	movs	r3, #8
     83e:	425b      	negs	r3, r3
     840:	469c      	mov	ip, r3
     842:	18ba      	adds	r2, r7, r2
     844:	4494      	add	ip, r2
     846:	4663      	mov	r3, ip
     848:	689a      	ldr	r2, [r3, #8]
     84a:	2303      	movs	r3, #3
     84c:	4698      	mov	r8, r3
     84e:	4594      	cmp	ip, r2
     850:	d100      	bne.n	854 <_malloc_r+0x338>
     852:	e09e      	b.n	992 <_malloc_r+0x476>
     854:	4643      	mov	r3, r8
     856:	6851      	ldr	r1, [r2, #4]
     858:	4399      	bics	r1, r3
     85a:	4549      	cmp	r1, r9
     85c:	d902      	bls.n	864 <_malloc_r+0x348>
     85e:	6892      	ldr	r2, [r2, #8]
     860:	4594      	cmp	ip, r2
     862:	d1f7      	bne.n	854 <_malloc_r+0x338>
     864:	68d3      	ldr	r3, [r2, #12]
     866:	469c      	mov	ip, r3
     868:	687b      	ldr	r3, [r7, #4]
     86a:	4661      	mov	r1, ip
     86c:	60a2      	str	r2, [r4, #8]
     86e:	60e1      	str	r1, [r4, #12]
     870:	608c      	str	r4, [r1, #8]
     872:	60d4      	str	r4, [r2, #12]
     874:	e6d6      	b.n	624 <_malloc_r+0x108>
     876:	46c0      	nop			; (mov r8, r8)
     878:	00010b20 	.word	0x00010b20
     87c:	00010f28 	.word	0x00010f28
     880:	40000030 	.word	0x40000030
     884:	0000100f 	.word	0x0000100f
     888:	40000000 	.word	0x40000000
     88c:	00001008 	.word	0x00001008
     890:	40000028 	.word	0x40000028
     894:	4000002c 	.word	0x4000002c
     898:	2814      	cmp	r0, #20
     89a:	d952      	bls.n	942 <_malloc_r+0x426>
     89c:	2854      	cmp	r0, #84	; 0x54
     89e:	d900      	bls.n	8a2 <_malloc_r+0x386>
     8a0:	e096      	b.n	9d0 <_malloc_r+0x4b4>
     8a2:	236e      	movs	r3, #110	; 0x6e
     8a4:	4698      	mov	r8, r3
     8a6:	0b28      	lsrs	r0, r5, #12
     8a8:	4480      	add	r8, r0
     8aa:	306f      	adds	r0, #111	; 0x6f
     8ac:	00c1      	lsls	r1, r0, #3
     8ae:	e67e      	b.n	5ae <_malloc_r+0x92>
     8b0:	2308      	movs	r3, #8
     8b2:	469b      	mov	fp, r3
     8b4:	3b07      	subs	r3, #7
     8b6:	44dc      	add	ip, fp
     8b8:	469b      	mov	fp, r3
     8ba:	44da      	add	sl, fp
     8bc:	4643      	mov	r3, r8
     8be:	4652      	mov	r2, sl
     8c0:	4213      	tst	r3, r2
     8c2:	d000      	beq.n	8c6 <_malloc_r+0x3aa>
     8c4:	e6c2      	b.n	64c <_malloc_r+0x130>
     8c6:	e04c      	b.n	962 <_malloc_r+0x446>
     8c8:	2201      	movs	r2, #1
     8ca:	18e3      	adds	r3, r4, r3
     8cc:	6859      	ldr	r1, [r3, #4]
     8ce:	0030      	movs	r0, r6
     8d0:	430a      	orrs	r2, r1
     8d2:	605a      	str	r2, [r3, #4]
     8d4:	68e3      	ldr	r3, [r4, #12]
     8d6:	68a2      	ldr	r2, [r4, #8]
     8d8:	60d3      	str	r3, [r2, #12]
     8da:	609a      	str	r2, [r3, #8]
     8dc:	f000 f98e 	bl	bfc <__malloc_unlock>
     8e0:	0020      	movs	r0, r4
     8e2:	3008      	adds	r0, #8
     8e4:	e6df      	b.n	6a6 <_malloc_r+0x18a>
     8e6:	002b      	movs	r3, r5
     8e8:	08e8      	lsrs	r0, r5, #3
     8ea:	3308      	adds	r3, #8
     8ec:	e62a      	b.n	544 <_malloc_r+0x28>
     8ee:	2301      	movs	r3, #1
     8f0:	1960      	adds	r0, r4, r5
     8f2:	431d      	orrs	r5, r3
     8f4:	6065      	str	r5, [r4, #4]
     8f6:	6178      	str	r0, [r7, #20]
     8f8:	6138      	str	r0, [r7, #16]
     8fa:	60c2      	str	r2, [r0, #12]
     8fc:	6082      	str	r2, [r0, #8]
     8fe:	001a      	movs	r2, r3
     900:	464b      	mov	r3, r9
     902:	430a      	orrs	r2, r1
     904:	6042      	str	r2, [r0, #4]
     906:	0030      	movs	r0, r6
     908:	50e1      	str	r1, [r4, r3]
     90a:	f000 f977 	bl	bfc <__malloc_unlock>
     90e:	0020      	movs	r0, r4
     910:	3008      	adds	r0, #8
     912:	e6c8      	b.n	6a6 <_malloc_r+0x18a>
     914:	099a      	lsrs	r2, r3, #6
     916:	0011      	movs	r1, r2
     918:	3239      	adds	r2, #57	; 0x39
     91a:	3138      	adds	r1, #56	; 0x38
     91c:	00d2      	lsls	r2, r2, #3
     91e:	e78d      	b.n	83c <_malloc_r+0x320>
     920:	42bc      	cmp	r4, r7
     922:	d060      	beq.n	9e6 <_malloc_r+0x4ca>
     924:	68bc      	ldr	r4, [r7, #8]
     926:	6862      	ldr	r2, [r4, #4]
     928:	2303      	movs	r3, #3
     92a:	439a      	bics	r2, r3
     92c:	1b53      	subs	r3, r2, r5
     92e:	4295      	cmp	r5, r2
     930:	d802      	bhi.n	938 <_malloc_r+0x41c>
     932:	2b0f      	cmp	r3, #15
     934:	dd00      	ble.n	938 <_malloc_r+0x41c>
     936:	e769      	b.n	80c <_malloc_r+0x2f0>
     938:	0030      	movs	r0, r6
     93a:	f000 f95f 	bl	bfc <__malloc_unlock>
     93e:	2000      	movs	r0, #0
     940:	e6b1      	b.n	6a6 <_malloc_r+0x18a>
     942:	235b      	movs	r3, #91	; 0x5b
     944:	4698      	mov	r8, r3
     946:	4480      	add	r8, r0
     948:	305c      	adds	r0, #92	; 0x5c
     94a:	00c1      	lsls	r1, r0, #3
     94c:	e62f      	b.n	5ae <_malloc_r+0x92>
     94e:	2308      	movs	r3, #8
     950:	425b      	negs	r3, r3
     952:	469c      	mov	ip, r3
     954:	44e1      	add	r9, ip
     956:	464b      	mov	r3, r9
     958:	689b      	ldr	r3, [r3, #8]
     95a:	3801      	subs	r0, #1
     95c:	454b      	cmp	r3, r9
     95e:	d000      	beq.n	962 <_malloc_r+0x446>
     960:	e098      	b.n	a94 <_malloc_r+0x578>
     962:	4643      	mov	r3, r8
     964:	4203      	tst	r3, r0
     966:	d1f2      	bne.n	94e <_malloc_r+0x432>
     968:	687b      	ldr	r3, [r7, #4]
     96a:	438b      	bics	r3, r1
     96c:	607b      	str	r3, [r7, #4]
     96e:	0049      	lsls	r1, r1, #1
     970:	4299      	cmp	r1, r3
     972:	d900      	bls.n	976 <_malloc_r+0x45a>
     974:	e6b5      	b.n	6e2 <_malloc_r+0x1c6>
     976:	2900      	cmp	r1, #0
     978:	d104      	bne.n	984 <_malloc_r+0x468>
     97a:	e6b2      	b.n	6e2 <_malloc_r+0x1c6>
     97c:	2204      	movs	r2, #4
     97e:	4694      	mov	ip, r2
     980:	0049      	lsls	r1, r1, #1
     982:	44e2      	add	sl, ip
     984:	420b      	tst	r3, r1
     986:	d0f9      	beq.n	97c <_malloc_r+0x460>
     988:	4650      	mov	r0, sl
     98a:	e65a      	b.n	642 <_malloc_r+0x126>
     98c:	3310      	adds	r3, #16
     98e:	9300      	str	r3, [sp, #0]
     990:	e6c4      	b.n	71c <_malloc_r+0x200>
     992:	1089      	asrs	r1, r1, #2
     994:	3b02      	subs	r3, #2
     996:	408b      	lsls	r3, r1
     998:	6879      	ldr	r1, [r7, #4]
     99a:	430b      	orrs	r3, r1
     99c:	607b      	str	r3, [r7, #4]
     99e:	e764      	b.n	86a <_malloc_r+0x34e>
     9a0:	9b00      	ldr	r3, [sp, #0]
     9a2:	0030      	movs	r0, r6
     9a4:	4443      	add	r3, r8
     9a6:	425b      	negs	r3, r3
     9a8:	051b      	lsls	r3, r3, #20
     9aa:	0d1b      	lsrs	r3, r3, #20
     9ac:	0019      	movs	r1, r3
     9ae:	469b      	mov	fp, r3
     9b0:	f000 f92c 	bl	c0c <_sbrk_r>
     9b4:	1c43      	adds	r3, r0, #1
     9b6:	d000      	beq.n	9ba <_malloc_r+0x49e>
     9b8:	e6f3      	b.n	7a2 <_malloc_r+0x286>
     9ba:	2300      	movs	r3, #0
     9bc:	469b      	mov	fp, r3
     9be:	e6f5      	b.n	7ac <_malloc_r+0x290>
     9c0:	2a54      	cmp	r2, #84	; 0x54
     9c2:	d82b      	bhi.n	a1c <_malloc_r+0x500>
     9c4:	0b1a      	lsrs	r2, r3, #12
     9c6:	0011      	movs	r1, r2
     9c8:	326f      	adds	r2, #111	; 0x6f
     9ca:	316e      	adds	r1, #110	; 0x6e
     9cc:	00d2      	lsls	r2, r2, #3
     9ce:	e735      	b.n	83c <_malloc_r+0x320>
     9d0:	23aa      	movs	r3, #170	; 0xaa
     9d2:	005b      	lsls	r3, r3, #1
     9d4:	4298      	cmp	r0, r3
     9d6:	d82b      	bhi.n	a30 <_malloc_r+0x514>
     9d8:	3bdd      	subs	r3, #221	; 0xdd
     9da:	4698      	mov	r8, r3
     9dc:	0be8      	lsrs	r0, r5, #15
     9de:	4480      	add	r8, r0
     9e0:	3078      	adds	r0, #120	; 0x78
     9e2:	00c1      	lsls	r1, r0, #3
     9e4:	e5e3      	b.n	5ae <_malloc_r+0x92>
     9e6:	4b2c      	ldr	r3, [pc, #176]	; (a98 <_malloc_r+0x57c>)
     9e8:	9a00      	ldr	r2, [sp, #0]
     9ea:	469a      	mov	sl, r3
     9ec:	681b      	ldr	r3, [r3, #0]
     9ee:	469c      	mov	ip, r3
     9f0:	4653      	mov	r3, sl
     9f2:	4462      	add	r2, ip
     9f4:	601a      	str	r2, [r3, #0]
     9f6:	e6ad      	b.n	754 <_malloc_r+0x238>
     9f8:	0509      	lsls	r1, r1, #20
     9fa:	d000      	beq.n	9fe <_malloc_r+0x4e2>
     9fc:	e6aa      	b.n	754 <_malloc_r+0x238>
     9fe:	0002      	movs	r2, r0
     a00:	68bc      	ldr	r4, [r7, #8]
     a02:	444a      	add	r2, r9
     a04:	3101      	adds	r1, #1
     a06:	430a      	orrs	r2, r1
     a08:	6062      	str	r2, [r4, #4]
     a0a:	e6f3      	b.n	7f4 <_malloc_r+0x2d8>
     a0c:	465b      	mov	r3, fp
     a0e:	4642      	mov	r2, r8
     a10:	601a      	str	r2, [r3, #0]
     a12:	e6aa      	b.n	76a <_malloc_r+0x24e>
     a14:	4644      	mov	r4, r8
     a16:	e6ed      	b.n	7f4 <_malloc_r+0x2d8>
     a18:	6041      	str	r1, [r0, #4]
     a1a:	e78d      	b.n	938 <_malloc_r+0x41c>
     a1c:	21aa      	movs	r1, #170	; 0xaa
     a1e:	0049      	lsls	r1, r1, #1
     a20:	428a      	cmp	r2, r1
     a22:	d824      	bhi.n	a6e <_malloc_r+0x552>
     a24:	0bda      	lsrs	r2, r3, #15
     a26:	0011      	movs	r1, r2
     a28:	3278      	adds	r2, #120	; 0x78
     a2a:	3177      	adds	r1, #119	; 0x77
     a2c:	00d2      	lsls	r2, r2, #3
     a2e:	e705      	b.n	83c <_malloc_r+0x320>
     a30:	4b1a      	ldr	r3, [pc, #104]	; (a9c <_malloc_r+0x580>)
     a32:	4298      	cmp	r0, r3
     a34:	d824      	bhi.n	a80 <_malloc_r+0x564>
     a36:	237c      	movs	r3, #124	; 0x7c
     a38:	4698      	mov	r8, r3
     a3a:	0ca8      	lsrs	r0, r5, #18
     a3c:	4480      	add	r8, r0
     a3e:	307d      	adds	r0, #125	; 0x7d
     a40:	00c1      	lsls	r1, r0, #3
     a42:	e5b4      	b.n	5ae <_malloc_r+0x92>
     a44:	9a00      	ldr	r2, [sp, #0]
     a46:	9b01      	ldr	r3, [sp, #4]
     a48:	4694      	mov	ip, r2
     a4a:	4642      	mov	r2, r8
     a4c:	3b08      	subs	r3, #8
     a4e:	4463      	add	r3, ip
     a50:	1a9b      	subs	r3, r3, r2
     a52:	9300      	str	r3, [sp, #0]
     a54:	2300      	movs	r3, #0
     a56:	469b      	mov	fp, r3
     a58:	e6a8      	b.n	7ac <_malloc_r+0x290>
     a5a:	0021      	movs	r1, r4
     a5c:	0030      	movs	r0, r6
     a5e:	3108      	adds	r1, #8
     a60:	f003 fb2e 	bl	40c0 <_free_r>
     a64:	4653      	mov	r3, sl
     a66:	68bc      	ldr	r4, [r7, #8]
     a68:	681b      	ldr	r3, [r3, #0]
     a6a:	6862      	ldr	r2, [r4, #4]
     a6c:	e6c2      	b.n	7f4 <_malloc_r+0x2d8>
     a6e:	490b      	ldr	r1, [pc, #44]	; (a9c <_malloc_r+0x580>)
     a70:	428a      	cmp	r2, r1
     a72:	d80b      	bhi.n	a8c <_malloc_r+0x570>
     a74:	0c9a      	lsrs	r2, r3, #18
     a76:	0011      	movs	r1, r2
     a78:	327d      	adds	r2, #125	; 0x7d
     a7a:	317c      	adds	r1, #124	; 0x7c
     a7c:	00d2      	lsls	r2, r2, #3
     a7e:	e6dd      	b.n	83c <_malloc_r+0x320>
     a80:	21fe      	movs	r1, #254	; 0xfe
     a82:	237e      	movs	r3, #126	; 0x7e
     a84:	207f      	movs	r0, #127	; 0x7f
     a86:	4698      	mov	r8, r3
     a88:	0089      	lsls	r1, r1, #2
     a8a:	e590      	b.n	5ae <_malloc_r+0x92>
     a8c:	22fe      	movs	r2, #254	; 0xfe
     a8e:	217e      	movs	r1, #126	; 0x7e
     a90:	0092      	lsls	r2, r2, #2
     a92:	e6d3      	b.n	83c <_malloc_r+0x320>
     a94:	687b      	ldr	r3, [r7, #4]
     a96:	e76a      	b.n	96e <_malloc_r+0x452>
     a98:	40000000 	.word	0x40000000
     a9c:	00000554 	.word	0x00000554

00000aa0 <memcpy>:
     aa0:	b5f0      	push	{r4, r5, r6, r7, lr}
     aa2:	46c6      	mov	lr, r8
     aa4:	b500      	push	{lr}
     aa6:	2a0f      	cmp	r2, #15
     aa8:	d941      	bls.n	b2e <memcpy+0x8e>
     aaa:	2703      	movs	r7, #3
     aac:	000d      	movs	r5, r1
     aae:	003e      	movs	r6, r7
     ab0:	4305      	orrs	r5, r0
     ab2:	000c      	movs	r4, r1
     ab4:	0003      	movs	r3, r0
     ab6:	402e      	ands	r6, r5
     ab8:	422f      	tst	r7, r5
     aba:	d13d      	bne.n	b38 <memcpy+0x98>
     abc:	0015      	movs	r5, r2
     abe:	3d10      	subs	r5, #16
     ac0:	092d      	lsrs	r5, r5, #4
     ac2:	46a8      	mov	r8, r5
     ac4:	012d      	lsls	r5, r5, #4
     ac6:	46ac      	mov	ip, r5
     ac8:	4484      	add	ip, r0
     aca:	6827      	ldr	r7, [r4, #0]
     acc:	001d      	movs	r5, r3
     ace:	601f      	str	r7, [r3, #0]
     ad0:	6867      	ldr	r7, [r4, #4]
     ad2:	605f      	str	r7, [r3, #4]
     ad4:	68a7      	ldr	r7, [r4, #8]
     ad6:	609f      	str	r7, [r3, #8]
     ad8:	68e7      	ldr	r7, [r4, #12]
     ada:	3410      	adds	r4, #16
     adc:	60df      	str	r7, [r3, #12]
     ade:	3310      	adds	r3, #16
     ae0:	4565      	cmp	r5, ip
     ae2:	d1f2      	bne.n	aca <memcpy+0x2a>
     ae4:	4645      	mov	r5, r8
     ae6:	230f      	movs	r3, #15
     ae8:	240c      	movs	r4, #12
     aea:	3501      	adds	r5, #1
     aec:	012d      	lsls	r5, r5, #4
     aee:	1949      	adds	r1, r1, r5
     af0:	4013      	ands	r3, r2
     af2:	1945      	adds	r5, r0, r5
     af4:	4214      	tst	r4, r2
     af6:	d022      	beq.n	b3e <memcpy+0x9e>
     af8:	598c      	ldr	r4, [r1, r6]
     afa:	51ac      	str	r4, [r5, r6]
     afc:	3604      	adds	r6, #4
     afe:	1b9c      	subs	r4, r3, r6
     b00:	2c03      	cmp	r4, #3
     b02:	d8f9      	bhi.n	af8 <memcpy+0x58>
     b04:	3b04      	subs	r3, #4
     b06:	089b      	lsrs	r3, r3, #2
     b08:	3301      	adds	r3, #1
     b0a:	009b      	lsls	r3, r3, #2
     b0c:	18ed      	adds	r5, r5, r3
     b0e:	18c9      	adds	r1, r1, r3
     b10:	2303      	movs	r3, #3
     b12:	401a      	ands	r2, r3
     b14:	1e56      	subs	r6, r2, #1
     b16:	2a00      	cmp	r2, #0
     b18:	d006      	beq.n	b28 <memcpy+0x88>
     b1a:	2300      	movs	r3, #0
     b1c:	5ccc      	ldrb	r4, [r1, r3]
     b1e:	001a      	movs	r2, r3
     b20:	54ec      	strb	r4, [r5, r3]
     b22:	3301      	adds	r3, #1
     b24:	4296      	cmp	r6, r2
     b26:	d1f9      	bne.n	b1c <memcpy+0x7c>
     b28:	bc80      	pop	{r7}
     b2a:	46b8      	mov	r8, r7
     b2c:	bdf0      	pop	{r4, r5, r6, r7, pc}
     b2e:	0005      	movs	r5, r0
     b30:	1e56      	subs	r6, r2, #1
     b32:	2a00      	cmp	r2, #0
     b34:	d1f1      	bne.n	b1a <memcpy+0x7a>
     b36:	e7f7      	b.n	b28 <memcpy+0x88>
     b38:	0005      	movs	r5, r0
     b3a:	1e56      	subs	r6, r2, #1
     b3c:	e7ed      	b.n	b1a <memcpy+0x7a>
     b3e:	001a      	movs	r2, r3
     b40:	e7f6      	b.n	b30 <memcpy+0x90>
     b42:	46c0      	nop			; (mov r8, r8)

00000b44 <memset>:
     b44:	b5f0      	push	{r4, r5, r6, r7, lr}
     b46:	0005      	movs	r5, r0
     b48:	0783      	lsls	r3, r0, #30
     b4a:	d049      	beq.n	be0 <memset+0x9c>
     b4c:	1e54      	subs	r4, r2, #1
     b4e:	2a00      	cmp	r2, #0
     b50:	d045      	beq.n	bde <memset+0x9a>
     b52:	0003      	movs	r3, r0
     b54:	2603      	movs	r6, #3
     b56:	b2ca      	uxtb	r2, r1
     b58:	e002      	b.n	b60 <memset+0x1c>
     b5a:	3501      	adds	r5, #1
     b5c:	3c01      	subs	r4, #1
     b5e:	d33e      	bcc.n	bde <memset+0x9a>
     b60:	3301      	adds	r3, #1
     b62:	702a      	strb	r2, [r5, #0]
     b64:	4233      	tst	r3, r6
     b66:	d1f8      	bne.n	b5a <memset+0x16>
     b68:	2c03      	cmp	r4, #3
     b6a:	d930      	bls.n	bce <memset+0x8a>
     b6c:	22ff      	movs	r2, #255	; 0xff
     b6e:	400a      	ands	r2, r1
     b70:	0215      	lsls	r5, r2, #8
     b72:	4315      	orrs	r5, r2
     b74:	042a      	lsls	r2, r5, #16
     b76:	4315      	orrs	r5, r2
     b78:	2c0f      	cmp	r4, #15
     b7a:	d934      	bls.n	be6 <memset+0xa2>
     b7c:	0027      	movs	r7, r4
     b7e:	3f10      	subs	r7, #16
     b80:	093f      	lsrs	r7, r7, #4
     b82:	013e      	lsls	r6, r7, #4
     b84:	46b4      	mov	ip, r6
     b86:	001e      	movs	r6, r3
     b88:	001a      	movs	r2, r3
     b8a:	3610      	adds	r6, #16
     b8c:	4466      	add	r6, ip
     b8e:	6015      	str	r5, [r2, #0]
     b90:	6055      	str	r5, [r2, #4]
     b92:	6095      	str	r5, [r2, #8]
     b94:	60d5      	str	r5, [r2, #12]
     b96:	3210      	adds	r2, #16
     b98:	42b2      	cmp	r2, r6
     b9a:	d1f8      	bne.n	b8e <memset+0x4a>
     b9c:	3701      	adds	r7, #1
     b9e:	013f      	lsls	r7, r7, #4
     ba0:	19db      	adds	r3, r3, r7
     ba2:	270f      	movs	r7, #15
     ba4:	220c      	movs	r2, #12
     ba6:	4027      	ands	r7, r4
     ba8:	4022      	ands	r2, r4
     baa:	003c      	movs	r4, r7
     bac:	2a00      	cmp	r2, #0
     bae:	d00e      	beq.n	bce <memset+0x8a>
     bb0:	1f3e      	subs	r6, r7, #4
     bb2:	08b6      	lsrs	r6, r6, #2
     bb4:	00b4      	lsls	r4, r6, #2
     bb6:	46a4      	mov	ip, r4
     bb8:	001a      	movs	r2, r3
     bba:	1d1c      	adds	r4, r3, #4
     bbc:	4464      	add	r4, ip
     bbe:	c220      	stmia	r2!, {r5}
     bc0:	42a2      	cmp	r2, r4
     bc2:	d1fc      	bne.n	bbe <memset+0x7a>
     bc4:	2403      	movs	r4, #3
     bc6:	3601      	adds	r6, #1
     bc8:	00b6      	lsls	r6, r6, #2
     bca:	199b      	adds	r3, r3, r6
     bcc:	403c      	ands	r4, r7
     bce:	2c00      	cmp	r4, #0
     bd0:	d005      	beq.n	bde <memset+0x9a>
     bd2:	b2c9      	uxtb	r1, r1
     bd4:	191c      	adds	r4, r3, r4
     bd6:	7019      	strb	r1, [r3, #0]
     bd8:	3301      	adds	r3, #1
     bda:	429c      	cmp	r4, r3
     bdc:	d1fb      	bne.n	bd6 <memset+0x92>
     bde:	bdf0      	pop	{r4, r5, r6, r7, pc}
     be0:	0003      	movs	r3, r0
     be2:	0014      	movs	r4, r2
     be4:	e7c0      	b.n	b68 <memset+0x24>
     be6:	0027      	movs	r7, r4
     be8:	e7e2      	b.n	bb0 <memset+0x6c>
     bea:	46c0      	nop			; (mov r8, r8)

00000bec <__malloc_lock>:
     bec:	b510      	push	{r4, lr}
     bee:	4802      	ldr	r0, [pc, #8]	; (bf8 <__malloc_lock+0xc>)
     bf0:	f003 fba0 	bl	4334 <__retarget_lock_acquire_recursive>
     bf4:	bd10      	pop	{r4, pc}
     bf6:	46c0      	nop			; (mov r8, r8)
     bf8:	40000048 	.word	0x40000048

00000bfc <__malloc_unlock>:
     bfc:	b510      	push	{r4, lr}
     bfe:	4802      	ldr	r0, [pc, #8]	; (c08 <__malloc_unlock+0xc>)
     c00:	f003 fba0 	bl	4344 <__retarget_lock_release_recursive>
     c04:	bd10      	pop	{r4, pc}
     c06:	46c0      	nop			; (mov r8, r8)
     c08:	40000048 	.word	0x40000048

00000c0c <_sbrk_r>:
     c0c:	2300      	movs	r3, #0
     c0e:	b570      	push	{r4, r5, r6, lr}
     c10:	4d06      	ldr	r5, [pc, #24]	; (c2c <_sbrk_r+0x20>)
     c12:	0004      	movs	r4, r0
     c14:	0008      	movs	r0, r1
     c16:	602b      	str	r3, [r5, #0]
     c18:	f009 f846 	bl	9ca8 <_sbrk>
     c1c:	1c43      	adds	r3, r0, #1
     c1e:	d000      	beq.n	c22 <_sbrk_r+0x16>
     c20:	bd70      	pop	{r4, r5, r6, pc}
     c22:	682b      	ldr	r3, [r5, #0]
     c24:	2b00      	cmp	r3, #0
     c26:	d0fb      	beq.n	c20 <_sbrk_r+0x14>
     c28:	6023      	str	r3, [r4, #0]
     c2a:	e7f9      	b.n	c20 <_sbrk_r+0x14>
     c2c:	40000058 	.word	0x40000058

00000c30 <_vfprintf_r>:
     c30:	b5f0      	push	{r4, r5, r6, r7, lr}
     c32:	46de      	mov	lr, fp
     c34:	464e      	mov	r6, r9
     c36:	4645      	mov	r5, r8
     c38:	4657      	mov	r7, sl
     c3a:	b5e0      	push	{r5, r6, r7, lr}
     c3c:	b0d7      	sub	sp, #348	; 0x15c
     c3e:	4683      	mov	fp, r0
     c40:	4689      	mov	r9, r1
     c42:	4690      	mov	r8, r2
     c44:	001c      	movs	r4, r3
     c46:	930f      	str	r3, [sp, #60]	; 0x3c
     c48:	f003 fb62 	bl	4310 <_localeconv_r>
     c4c:	6803      	ldr	r3, [r0, #0]
     c4e:	0018      	movs	r0, r3
     c50:	931c      	str	r3, [sp, #112]	; 0x70
     c52:	f004 facf 	bl	51f4 <strlen>
     c56:	465b      	mov	r3, fp
     c58:	901b      	str	r0, [sp, #108]	; 0x6c
     c5a:	2b00      	cmp	r3, #0
     c5c:	d003      	beq.n	c66 <_vfprintf_r+0x36>
     c5e:	6b9b      	ldr	r3, [r3, #56]	; 0x38
     c60:	2b00      	cmp	r3, #0
     c62:	d100      	bne.n	c66 <_vfprintf_r+0x36>
     c64:	e25a      	b.n	111c <_vfprintf_r+0x4ec>
     c66:	464b      	mov	r3, r9
     c68:	6e5b      	ldr	r3, [r3, #100]	; 0x64
     c6a:	07db      	lsls	r3, r3, #31
     c6c:	d500      	bpl.n	c70 <_vfprintf_r+0x40>
     c6e:	e0b3      	b.n	dd8 <_vfprintf_r+0x1a8>
     c70:	464b      	mov	r3, r9
     c72:	210c      	movs	r1, #12
     c74:	5e59      	ldrsh	r1, [r3, r1]
     c76:	464b      	mov	r3, r9
     c78:	899b      	ldrh	r3, [r3, #12]
     c7a:	059a      	lsls	r2, r3, #22
     c7c:	d400      	bmi.n	c80 <_vfprintf_r+0x50>
     c7e:	e0a7      	b.n	dd0 <_vfprintf_r+0x1a0>
     c80:	2280      	movs	r2, #128	; 0x80
     c82:	0192      	lsls	r2, r2, #6
     c84:	4213      	tst	r3, r2
     c86:	d109      	bne.n	c9c <_vfprintf_r+0x6c>
     c88:	430a      	orrs	r2, r1
     c8a:	464b      	mov	r3, r9
     c8c:	4649      	mov	r1, r9
     c8e:	819a      	strh	r2, [r3, #12]
     c90:	6e49      	ldr	r1, [r1, #100]	; 0x64
     c92:	4bde      	ldr	r3, [pc, #888]	; (100c <_vfprintf_r+0x3dc>)
     c94:	400b      	ands	r3, r1
     c96:	4649      	mov	r1, r9
     c98:	664b      	str	r3, [r1, #100]	; 0x64
     c9a:	b293      	uxth	r3, r2
     c9c:	071a      	lsls	r2, r3, #28
     c9e:	d546      	bpl.n	d2e <_vfprintf_r+0xfe>
     ca0:	464a      	mov	r2, r9
     ca2:	6912      	ldr	r2, [r2, #16]
     ca4:	2a00      	cmp	r2, #0
     ca6:	d042      	beq.n	d2e <_vfprintf_r+0xfe>
     ca8:	221a      	movs	r2, #26
     caa:	401a      	ands	r2, r3
     cac:	2a0a      	cmp	r2, #10
     cae:	d04c      	beq.n	d4a <_vfprintf_r+0x11a>
     cb0:	ab2d      	add	r3, sp, #180	; 0xb4
     cb2:	932a      	str	r3, [sp, #168]	; 0xa8
     cb4:	2300      	movs	r3, #0
     cb6:	2400      	movs	r4, #0
     cb8:	932c      	str	r3, [sp, #176]	; 0xb0
     cba:	932b      	str	r3, [sp, #172]	; 0xac
     cbc:	9315      	str	r3, [sp, #84]	; 0x54
     cbe:	2300      	movs	r3, #0
     cc0:	4646      	mov	r6, r8
     cc2:	9316      	str	r3, [sp, #88]	; 0x58
     cc4:	9417      	str	r4, [sp, #92]	; 0x5c
     cc6:	2300      	movs	r3, #0
     cc8:	931d      	str	r3, [sp, #116]	; 0x74
     cca:	931e      	str	r3, [sp, #120]	; 0x78
     ccc:	931a      	str	r3, [sp, #104]	; 0x68
     cce:	931f      	str	r3, [sp, #124]	; 0x7c
     cd0:	9320      	str	r3, [sp, #128]	; 0x80
     cd2:	9309      	str	r3, [sp, #36]	; 0x24
     cd4:	7833      	ldrb	r3, [r6, #0]
     cd6:	46c8      	mov	r8, r9
     cd8:	af2d      	add	r7, sp, #180	; 0xb4
     cda:	2b00      	cmp	r3, #0
     cdc:	d100      	bne.n	ce0 <_vfprintf_r+0xb0>
     cde:	e123      	b.n	f28 <_vfprintf_r+0x2f8>
     ce0:	0034      	movs	r4, r6
     ce2:	e003      	b.n	cec <_vfprintf_r+0xbc>
     ce4:	7863      	ldrb	r3, [r4, #1]
     ce6:	3401      	adds	r4, #1
     ce8:	2b00      	cmp	r3, #0
     cea:	d05b      	beq.n	da4 <_vfprintf_r+0x174>
     cec:	2b25      	cmp	r3, #37	; 0x25
     cee:	d1f9      	bne.n	ce4 <_vfprintf_r+0xb4>
     cf0:	1ba5      	subs	r5, r4, r6
     cf2:	42b4      	cmp	r4, r6
     cf4:	d15a      	bne.n	dac <_vfprintf_r+0x17c>
     cf6:	7823      	ldrb	r3, [r4, #0]
     cf8:	2b00      	cmp	r3, #0
     cfa:	d100      	bne.n	cfe <_vfprintf_r+0xce>
     cfc:	e114      	b.n	f28 <_vfprintf_r+0x2f8>
     cfe:	1c63      	adds	r3, r4, #1
     d00:	9306      	str	r3, [sp, #24]
     d02:	2300      	movs	r3, #0
     d04:	aa1c      	add	r2, sp, #112	; 0x70
     d06:	76d3      	strb	r3, [r2, #27]
     d08:	2201      	movs	r2, #1
     d0a:	4252      	negs	r2, r2
     d0c:	9208      	str	r2, [sp, #32]
     d0e:	2200      	movs	r2, #0
     d10:	7863      	ldrb	r3, [r4, #1]
     d12:	465d      	mov	r5, fp
     d14:	0014      	movs	r4, r2
     d16:	920a      	str	r2, [sp, #40]	; 0x28
     d18:	9a06      	ldr	r2, [sp, #24]
     d1a:	3201      	adds	r2, #1
     d1c:	9206      	str	r2, [sp, #24]
     d1e:	001a      	movs	r2, r3
     d20:	3a20      	subs	r2, #32
     d22:	2a5a      	cmp	r2, #90	; 0x5a
     d24:	d869      	bhi.n	dfa <_vfprintf_r+0x1ca>
     d26:	49ba      	ldr	r1, [pc, #744]	; (1010 <_vfprintf_r+0x3e0>)
     d28:	0092      	lsls	r2, r2, #2
     d2a:	588a      	ldr	r2, [r1, r2]
     d2c:	4697      	mov	pc, r2
     d2e:	4649      	mov	r1, r9
     d30:	4658      	mov	r0, fp
     d32:	f001 fdf1 	bl	2918 <__swsetup_r>
     d36:	464b      	mov	r3, r9
     d38:	2800      	cmp	r0, #0
     d3a:	d001      	beq.n	d40 <_vfprintf_r+0x110>
     d3c:	f001 fc38 	bl	25b0 <_vfprintf_r+0x1980>
     d40:	221a      	movs	r2, #26
     d42:	899b      	ldrh	r3, [r3, #12]
     d44:	401a      	ands	r2, r3
     d46:	2a0a      	cmp	r2, #10
     d48:	d1b2      	bne.n	cb0 <_vfprintf_r+0x80>
     d4a:	464a      	mov	r2, r9
     d4c:	210e      	movs	r1, #14
     d4e:	5e52      	ldrsh	r2, [r2, r1]
     d50:	2a00      	cmp	r2, #0
     d52:	dbad      	blt.n	cb0 <_vfprintf_r+0x80>
     d54:	464a      	mov	r2, r9
     d56:	6e52      	ldr	r2, [r2, #100]	; 0x64
     d58:	07d2      	lsls	r2, r2, #31
     d5a:	d403      	bmi.n	d64 <_vfprintf_r+0x134>
     d5c:	059b      	lsls	r3, r3, #22
     d5e:	d401      	bmi.n	d64 <_vfprintf_r+0x134>
     d60:	f001 fa1b 	bl	219a <_vfprintf_r+0x156a>
     d64:	0023      	movs	r3, r4
     d66:	4642      	mov	r2, r8
     d68:	4649      	mov	r1, r9
     d6a:	4658      	mov	r0, fp
     d6c:	f001 fd8e 	bl	288c <__sbprintf>
     d70:	9009      	str	r0, [sp, #36]	; 0x24
     d72:	f000 fca7 	bl	16c4 <_vfprintf_r+0xa94>
     d76:	0028      	movs	r0, r5
     d78:	f003 faca 	bl	4310 <_localeconv_r>
     d7c:	6843      	ldr	r3, [r0, #4]
     d7e:	0018      	movs	r0, r3
     d80:	9320      	str	r3, [sp, #128]	; 0x80
     d82:	f004 fa37 	bl	51f4 <strlen>
     d86:	4681      	mov	r9, r0
     d88:	901f      	str	r0, [sp, #124]	; 0x7c
     d8a:	0028      	movs	r0, r5
     d8c:	f003 fac0 	bl	4310 <_localeconv_r>
     d90:	6883      	ldr	r3, [r0, #8]
     d92:	931a      	str	r3, [sp, #104]	; 0x68
     d94:	464b      	mov	r3, r9
     d96:	2b00      	cmp	r3, #0
     d98:	d001      	beq.n	d9e <_vfprintf_r+0x16e>
     d9a:	f000 fe54 	bl	1a46 <_vfprintf_r+0xe16>
     d9e:	9b06      	ldr	r3, [sp, #24]
     da0:	781b      	ldrb	r3, [r3, #0]
     da2:	e7b9      	b.n	d18 <_vfprintf_r+0xe8>
     da4:	1ba5      	subs	r5, r4, r6
     da6:	42b4      	cmp	r4, r6
     da8:	d100      	bne.n	dac <_vfprintf_r+0x17c>
     daa:	e0bd      	b.n	f28 <_vfprintf_r+0x2f8>
     dac:	9b2c      	ldr	r3, [sp, #176]	; 0xb0
     dae:	603e      	str	r6, [r7, #0]
     db0:	195b      	adds	r3, r3, r5
     db2:	932c      	str	r3, [sp, #176]	; 0xb0
     db4:	9b2b      	ldr	r3, [sp, #172]	; 0xac
     db6:	607d      	str	r5, [r7, #4]
     db8:	9306      	str	r3, [sp, #24]
     dba:	3301      	adds	r3, #1
     dbc:	932b      	str	r3, [sp, #172]	; 0xac
     dbe:	2b07      	cmp	r3, #7
     dc0:	dc10      	bgt.n	de4 <_vfprintf_r+0x1b4>
     dc2:	3708      	adds	r7, #8
     dc4:	9b09      	ldr	r3, [sp, #36]	; 0x24
     dc6:	469c      	mov	ip, r3
     dc8:	44ac      	add	ip, r5
     dca:	4663      	mov	r3, ip
     dcc:	9309      	str	r3, [sp, #36]	; 0x24
     dce:	e792      	b.n	cf6 <_vfprintf_r+0xc6>
     dd0:	464b      	mov	r3, r9
     dd2:	6d98      	ldr	r0, [r3, #88]	; 0x58
     dd4:	f003 faae 	bl	4334 <__retarget_lock_acquire_recursive>
     dd8:	464b      	mov	r3, r9
     dda:	210c      	movs	r1, #12
     ddc:	5e59      	ldrsh	r1, [r3, r1]
     dde:	464b      	mov	r3, r9
     de0:	899b      	ldrh	r3, [r3, #12]
     de2:	e74d      	b.n	c80 <_vfprintf_r+0x50>
     de4:	4641      	mov	r1, r8
     de6:	4658      	mov	r0, fp
     de8:	aa2a      	add	r2, sp, #168	; 0xa8
     dea:	f004 faab 	bl	5344 <__sprint_r>
     dee:	2800      	cmp	r0, #0
     df0:	d001      	beq.n	df6 <_vfprintf_r+0x1c6>
     df2:	f001 fca0 	bl	2736 <_vfprintf_r+0x1b06>
     df6:	af2d      	add	r7, sp, #180	; 0xb4
     df8:	e7e4      	b.n	dc4 <_vfprintf_r+0x194>
     dfa:	46a2      	mov	sl, r4
     dfc:	46ab      	mov	fp, r5
     dfe:	9312      	str	r3, [sp, #72]	; 0x48
     e00:	2b00      	cmp	r3, #0
     e02:	d100      	bne.n	e06 <_vfprintf_r+0x1d6>
     e04:	e090      	b.n	f28 <_vfprintf_r+0x2f8>
     e06:	ae3d      	add	r6, sp, #244	; 0xf4
     e08:	7033      	strb	r3, [r6, #0]
     e0a:	2300      	movs	r3, #0
     e0c:	aa1c      	add	r2, sp, #112	; 0x70
     e0e:	76d3      	strb	r3, [r2, #27]
     e10:	2200      	movs	r2, #0
     e12:	920e      	str	r2, [sp, #56]	; 0x38
     e14:	3201      	adds	r2, #1
     e16:	3301      	adds	r3, #1
     e18:	920b      	str	r2, [sp, #44]	; 0x2c
     e1a:	2200      	movs	r2, #0
     e1c:	9307      	str	r3, [sp, #28]
     e1e:	2300      	movs	r3, #0
     e20:	9208      	str	r2, [sp, #32]
     e22:	9218      	str	r2, [sp, #96]	; 0x60
     e24:	9213      	str	r2, [sp, #76]	; 0x4c
     e26:	9214      	str	r2, [sp, #80]	; 0x50
     e28:	2202      	movs	r2, #2
     e2a:	4651      	mov	r1, sl
     e2c:	4011      	ands	r1, r2
     e2e:	9110      	str	r1, [sp, #64]	; 0x40
     e30:	4651      	mov	r1, sl
     e32:	420a      	tst	r2, r1
     e34:	d002      	beq.n	e3c <_vfprintf_r+0x20c>
     e36:	9a07      	ldr	r2, [sp, #28]
     e38:	3202      	adds	r2, #2
     e3a:	9207      	str	r2, [sp, #28]
     e3c:	2284      	movs	r2, #132	; 0x84
     e3e:	4651      	mov	r1, sl
     e40:	4011      	ands	r1, r2
     e42:	9111      	str	r1, [sp, #68]	; 0x44
     e44:	4651      	mov	r1, sl
     e46:	420a      	tst	r2, r1
     e48:	d105      	bne.n	e56 <_vfprintf_r+0x226>
     e4a:	9a0a      	ldr	r2, [sp, #40]	; 0x28
     e4c:	9907      	ldr	r1, [sp, #28]
     e4e:	1a54      	subs	r4, r2, r1
     e50:	2c00      	cmp	r4, #0
     e52:	dd00      	ble.n	e56 <_vfprintf_r+0x226>
     e54:	e0cd      	b.n	ff2 <_vfprintf_r+0x3c2>
     e56:	9c2c      	ldr	r4, [sp, #176]	; 0xb0
     e58:	2b00      	cmp	r3, #0
     e5a:	d011      	beq.n	e80 <_vfprintf_r+0x250>
     e5c:	aa1c      	add	r2, sp, #112	; 0x70
     e5e:	231b      	movs	r3, #27
     e60:	4694      	mov	ip, r2
     e62:	4463      	add	r3, ip
     e64:	603b      	str	r3, [r7, #0]
     e66:	2301      	movs	r3, #1
     e68:	607b      	str	r3, [r7, #4]
     e6a:	9b2b      	ldr	r3, [sp, #172]	; 0xac
     e6c:	3401      	adds	r4, #1
     e6e:	9319      	str	r3, [sp, #100]	; 0x64
     e70:	3301      	adds	r3, #1
     e72:	942c      	str	r4, [sp, #176]	; 0xb0
     e74:	932b      	str	r3, [sp, #172]	; 0xac
     e76:	2b07      	cmp	r3, #7
     e78:	dd01      	ble.n	e7e <_vfprintf_r+0x24e>
     e7a:	f000 fc59 	bl	1730 <_vfprintf_r+0xb00>
     e7e:	3708      	adds	r7, #8
     e80:	9b10      	ldr	r3, [sp, #64]	; 0x40
     e82:	2b00      	cmp	r3, #0
     e84:	d00e      	beq.n	ea4 <_vfprintf_r+0x274>
     e86:	ab23      	add	r3, sp, #140	; 0x8c
     e88:	603b      	str	r3, [r7, #0]
     e8a:	2302      	movs	r3, #2
     e8c:	607b      	str	r3, [r7, #4]
     e8e:	9b2b      	ldr	r3, [sp, #172]	; 0xac
     e90:	3402      	adds	r4, #2
     e92:	9310      	str	r3, [sp, #64]	; 0x40
     e94:	3301      	adds	r3, #1
     e96:	942c      	str	r4, [sp, #176]	; 0xb0
     e98:	932b      	str	r3, [sp, #172]	; 0xac
     e9a:	2b07      	cmp	r3, #7
     e9c:	dd01      	ble.n	ea2 <_vfprintf_r+0x272>
     e9e:	f000 fc3c 	bl	171a <_vfprintf_r+0xaea>
     ea2:	3708      	adds	r7, #8
     ea4:	9b11      	ldr	r3, [sp, #68]	; 0x44
     ea6:	2b80      	cmp	r3, #128	; 0x80
     ea8:	d100      	bne.n	eac <_vfprintf_r+0x27c>
     eaa:	e373      	b.n	1594 <_vfprintf_r+0x964>
     eac:	9b08      	ldr	r3, [sp, #32]
     eae:	9a0b      	ldr	r2, [sp, #44]	; 0x2c
     eb0:	1a9d      	subs	r5, r3, r2
     eb2:	2d00      	cmp	r5, #0
     eb4:	dd00      	ble.n	eb8 <_vfprintf_r+0x288>
     eb6:	e3ad      	b.n	1614 <_vfprintf_r+0x9e4>
     eb8:	4653      	mov	r3, sl
     eba:	05db      	lsls	r3, r3, #23
     ebc:	d500      	bpl.n	ec0 <_vfprintf_r+0x290>
     ebe:	e30e      	b.n	14de <_vfprintf_r+0x8ae>
     ec0:	9b0b      	ldr	r3, [sp, #44]	; 0x2c
     ec2:	603e      	str	r6, [r7, #0]
     ec4:	469c      	mov	ip, r3
     ec6:	607b      	str	r3, [r7, #4]
     ec8:	9b2b      	ldr	r3, [sp, #172]	; 0xac
     eca:	4464      	add	r4, ip
     ecc:	9308      	str	r3, [sp, #32]
     ece:	3301      	adds	r3, #1
     ed0:	942c      	str	r4, [sp, #176]	; 0xb0
     ed2:	932b      	str	r3, [sp, #172]	; 0xac
     ed4:	2b07      	cmp	r3, #7
     ed6:	dd00      	ble.n	eda <_vfprintf_r+0x2aa>
     ed8:	e115      	b.n	1106 <_vfprintf_r+0x4d6>
     eda:	3708      	adds	r7, #8
     edc:	4653      	mov	r3, sl
     ede:	075b      	lsls	r3, r3, #29
     ee0:	d506      	bpl.n	ef0 <_vfprintf_r+0x2c0>
     ee2:	9b0a      	ldr	r3, [sp, #40]	; 0x28
     ee4:	9a07      	ldr	r2, [sp, #28]
     ee6:	1a9e      	subs	r6, r3, r2
     ee8:	2e00      	cmp	r6, #0
     eea:	dd01      	ble.n	ef0 <_vfprintf_r+0x2c0>
     eec:	f000 fc2b 	bl	1746 <_vfprintf_r+0xb16>
     ef0:	9b0a      	ldr	r3, [sp, #40]	; 0x28
     ef2:	9a07      	ldr	r2, [sp, #28]
     ef4:	4293      	cmp	r3, r2
     ef6:	da00      	bge.n	efa <_vfprintf_r+0x2ca>
     ef8:	0013      	movs	r3, r2
     efa:	9a09      	ldr	r2, [sp, #36]	; 0x24
     efc:	4694      	mov	ip, r2
     efe:	449c      	add	ip, r3
     f00:	4663      	mov	r3, ip
     f02:	9309      	str	r3, [sp, #36]	; 0x24
     f04:	2c00      	cmp	r4, #0
     f06:	d000      	beq.n	f0a <_vfprintf_r+0x2da>
     f08:	e3c1      	b.n	168e <_vfprintf_r+0xa5e>
     f0a:	2300      	movs	r3, #0
     f0c:	932b      	str	r3, [sp, #172]	; 0xac
     f0e:	9b0e      	ldr	r3, [sp, #56]	; 0x38
     f10:	2b00      	cmp	r3, #0
     f12:	d003      	beq.n	f1c <_vfprintf_r+0x2ec>
     f14:	4658      	mov	r0, fp
     f16:	990e      	ldr	r1, [sp, #56]	; 0x38
     f18:	f003 f8d2 	bl	40c0 <_free_r>
     f1c:	9e06      	ldr	r6, [sp, #24]
     f1e:	af2d      	add	r7, sp, #180	; 0xb4
     f20:	7833      	ldrb	r3, [r6, #0]
     f22:	2b00      	cmp	r3, #0
     f24:	d000      	beq.n	f28 <_vfprintf_r+0x2f8>
     f26:	e6db      	b.n	ce0 <_vfprintf_r+0xb0>
     f28:	9b2c      	ldr	r3, [sp, #176]	; 0xb0
     f2a:	46c1      	mov	r9, r8
     f2c:	9306      	str	r3, [sp, #24]
     f2e:	2b00      	cmp	r3, #0
     f30:	d001      	beq.n	f36 <_vfprintf_r+0x306>
     f32:	f001 f846 	bl	1fc2 <_vfprintf_r+0x1392>
     f36:	2300      	movs	r3, #0
     f38:	932b      	str	r3, [sp, #172]	; 0xac
     f3a:	e3b7      	b.n	16ac <_vfprintf_r+0xa7c>
     f3c:	3b30      	subs	r3, #48	; 0x30
     f3e:	2000      	movs	r0, #0
     f40:	001a      	movs	r2, r3
     f42:	9906      	ldr	r1, [sp, #24]
     f44:	0083      	lsls	r3, r0, #2
     f46:	1818      	adds	r0, r3, r0
     f48:	000b      	movs	r3, r1
     f4a:	781b      	ldrb	r3, [r3, #0]
     f4c:	0040      	lsls	r0, r0, #1
     f4e:	1810      	adds	r0, r2, r0
     f50:	001a      	movs	r2, r3
     f52:	3a30      	subs	r2, #48	; 0x30
     f54:	3101      	adds	r1, #1
     f56:	2a09      	cmp	r2, #9
     f58:	d9f4      	bls.n	f44 <_vfprintf_r+0x314>
     f5a:	9106      	str	r1, [sp, #24]
     f5c:	900a      	str	r0, [sp, #40]	; 0x28
     f5e:	e6de      	b.n	d1e <_vfprintf_r+0xee>
     f60:	9312      	str	r3, [sp, #72]	; 0x48
     f62:	2307      	movs	r3, #7
     f64:	46a2      	mov	sl, r4
     f66:	9c0f      	ldr	r4, [sp, #60]	; 0x3c
     f68:	46ab      	mov	fp, r5
     f6a:	3407      	adds	r4, #7
     f6c:	439c      	bics	r4, r3
     f6e:	0022      	movs	r2, r4
     f70:	ca18      	ldmia	r2!, {r3, r4}
     f72:	9316      	str	r3, [sp, #88]	; 0x58
     f74:	9417      	str	r4, [sp, #92]	; 0x5c
     f76:	9b16      	ldr	r3, [sp, #88]	; 0x58
     f78:	9c17      	ldr	r4, [sp, #92]	; 0x5c
     f7a:	920f      	str	r2, [sp, #60]	; 0x3c
     f7c:	001d      	movs	r5, r3
     f7e:	2201      	movs	r2, #1
     f80:	0064      	lsls	r4, r4, #1
     f82:	0864      	lsrs	r4, r4, #1
     f84:	0028      	movs	r0, r5
     f86:	0021      	movs	r1, r4
     f88:	4b22      	ldr	r3, [pc, #136]	; (1014 <_vfprintf_r+0x3e4>)
     f8a:	4252      	negs	r2, r2
     f8c:	f008 fd80 	bl	9a90 <__aeabi_dcmpun>
     f90:	2800      	cmp	r0, #0
     f92:	d001      	beq.n	f98 <_vfprintf_r+0x368>
     f94:	f000 fd98 	bl	1ac8 <_vfprintf_r+0xe98>
     f98:	2201      	movs	r2, #1
     f9a:	0028      	movs	r0, r5
     f9c:	0021      	movs	r1, r4
     f9e:	4b1d      	ldr	r3, [pc, #116]	; (1014 <_vfprintf_r+0x3e4>)
     fa0:	4252      	negs	r2, r2
     fa2:	f006 fae5 	bl	7570 <__aeabi_dcmple>
     fa6:	2800      	cmp	r0, #0
     fa8:	d001      	beq.n	fae <_vfprintf_r+0x37e>
     faa:	f000 fd8d 	bl	1ac8 <_vfprintf_r+0xe98>
     fae:	9816      	ldr	r0, [sp, #88]	; 0x58
     fb0:	9917      	ldr	r1, [sp, #92]	; 0x5c
     fb2:	2200      	movs	r2, #0
     fb4:	2300      	movs	r3, #0
     fb6:	f006 fad1 	bl	755c <__aeabi_dcmplt>
     fba:	2800      	cmp	r0, #0
     fbc:	d001      	beq.n	fc2 <_vfprintf_r+0x392>
     fbe:	f000 fffb 	bl	1fb8 <_vfprintf_r+0x1388>
     fc2:	ab1c      	add	r3, sp, #112	; 0x70
     fc4:	7edb      	ldrb	r3, [r3, #27]
     fc6:	9a12      	ldr	r2, [sp, #72]	; 0x48
     fc8:	2a47      	cmp	r2, #71	; 0x47
     fca:	dc01      	bgt.n	fd0 <_vfprintf_r+0x3a0>
     fcc:	f000 ffe1 	bl	1f92 <_vfprintf_r+0x1362>
     fd0:	4e11      	ldr	r6, [pc, #68]	; (1018 <_vfprintf_r+0x3e8>)
     fd2:	2280      	movs	r2, #128	; 0x80
     fd4:	4651      	mov	r1, sl
     fd6:	4391      	bics	r1, r2
     fd8:	3a7d      	subs	r2, #125	; 0x7d
     fda:	9207      	str	r2, [sp, #28]
     fdc:	2200      	movs	r2, #0
     fde:	468a      	mov	sl, r1
     fe0:	920e      	str	r2, [sp, #56]	; 0x38
     fe2:	3203      	adds	r2, #3
     fe4:	920b      	str	r2, [sp, #44]	; 0x2c
     fe6:	2200      	movs	r2, #0
     fe8:	9208      	str	r2, [sp, #32]
     fea:	9218      	str	r2, [sp, #96]	; 0x60
     fec:	9213      	str	r2, [sp, #76]	; 0x4c
     fee:	9214      	str	r2, [sp, #80]	; 0x50
     ff0:	e168      	b.n	12c4 <_vfprintf_r+0x694>
     ff2:	9a2c      	ldr	r2, [sp, #176]	; 0xb0
     ff4:	9b2b      	ldr	r3, [sp, #172]	; 0xac
     ff6:	4d09      	ldr	r5, [pc, #36]	; (101c <_vfprintf_r+0x3ec>)
     ff8:	2c10      	cmp	r4, #16
     ffa:	dd31      	ble.n	1060 <_vfprintf_r+0x430>
     ffc:	2110      	movs	r1, #16
     ffe:	4689      	mov	r9, r1
    1000:	0039      	movs	r1, r7
    1002:	4647      	mov	r7, r8
    1004:	46b0      	mov	r8, r6
    1006:	465e      	mov	r6, fp
    1008:	e00e      	b.n	1028 <_vfprintf_r+0x3f8>
    100a:	46c0      	nop			; (mov r8, r8)
    100c:	ffffdfff 	.word	0xffffdfff
    1010:	00009fe0 	.word	0x00009fe0
    1014:	7fefffff 	.word	0x7fefffff
    1018:	00009fa0 	.word	0x00009fa0
    101c:	0000a14c 	.word	0x0000a14c
    1020:	3c10      	subs	r4, #16
    1022:	3108      	adds	r1, #8
    1024:	2c10      	cmp	r4, #16
    1026:	dd17      	ble.n	1058 <_vfprintf_r+0x428>
    1028:	4648      	mov	r0, r9
    102a:	3210      	adds	r2, #16
    102c:	3301      	adds	r3, #1
    102e:	600d      	str	r5, [r1, #0]
    1030:	6048      	str	r0, [r1, #4]
    1032:	922c      	str	r2, [sp, #176]	; 0xb0
    1034:	932b      	str	r3, [sp, #172]	; 0xac
    1036:	2b07      	cmp	r3, #7
    1038:	ddf2      	ble.n	1020 <_vfprintf_r+0x3f0>
    103a:	0039      	movs	r1, r7
    103c:	0030      	movs	r0, r6
    103e:	aa2a      	add	r2, sp, #168	; 0xa8
    1040:	f004 f980 	bl	5344 <__sprint_r>
    1044:	2800      	cmp	r0, #0
    1046:	d001      	beq.n	104c <_vfprintf_r+0x41c>
    1048:	f000 fee5 	bl	1e16 <_vfprintf_r+0x11e6>
    104c:	3c10      	subs	r4, #16
    104e:	9a2c      	ldr	r2, [sp, #176]	; 0xb0
    1050:	9b2b      	ldr	r3, [sp, #172]	; 0xac
    1052:	a92d      	add	r1, sp, #180	; 0xb4
    1054:	2c10      	cmp	r4, #16
    1056:	dce7      	bgt.n	1028 <_vfprintf_r+0x3f8>
    1058:	46b3      	mov	fp, r6
    105a:	4646      	mov	r6, r8
    105c:	46b8      	mov	r8, r7
    105e:	000f      	movs	r7, r1
    1060:	607c      	str	r4, [r7, #4]
    1062:	3301      	adds	r3, #1
    1064:	18a4      	adds	r4, r4, r2
    1066:	603d      	str	r5, [r7, #0]
    1068:	942c      	str	r4, [sp, #176]	; 0xb0
    106a:	932b      	str	r3, [sp, #172]	; 0xac
    106c:	2b07      	cmp	r3, #7
    106e:	dd01      	ble.n	1074 <_vfprintf_r+0x444>
    1070:	f000 fec3 	bl	1dfa <_vfprintf_r+0x11ca>
    1074:	ab1c      	add	r3, sp, #112	; 0x70
    1076:	7edb      	ldrb	r3, [r3, #27]
    1078:	3708      	adds	r7, #8
    107a:	e6ed      	b.n	e58 <_vfprintf_r+0x228>
    107c:	9b15      	ldr	r3, [sp, #84]	; 0x54
    107e:	603e      	str	r6, [r7, #0]
    1080:	2b01      	cmp	r3, #1
    1082:	dc01      	bgt.n	1088 <_vfprintf_r+0x458>
    1084:	f000 fc1d 	bl	18c2 <_vfprintf_r+0xc92>
    1088:	2301      	movs	r3, #1
    108a:	607b      	str	r3, [r7, #4]
    108c:	9b2b      	ldr	r3, [sp, #172]	; 0xac
    108e:	3401      	adds	r4, #1
    1090:	1c5d      	adds	r5, r3, #1
    1092:	942c      	str	r4, [sp, #176]	; 0xb0
    1094:	9308      	str	r3, [sp, #32]
    1096:	952b      	str	r5, [sp, #172]	; 0xac
    1098:	2d07      	cmp	r5, #7
    109a:	dd01      	ble.n	10a0 <_vfprintf_r+0x470>
    109c:	f000 fe93 	bl	1dc6 <_vfprintf_r+0x1196>
    10a0:	3708      	adds	r7, #8
    10a2:	9b1c      	ldr	r3, [sp, #112]	; 0x70
    10a4:	3501      	adds	r5, #1
    10a6:	603b      	str	r3, [r7, #0]
    10a8:	9b1b      	ldr	r3, [sp, #108]	; 0x6c
    10aa:	952b      	str	r5, [sp, #172]	; 0xac
    10ac:	469c      	mov	ip, r3
    10ae:	4464      	add	r4, ip
    10b0:	607b      	str	r3, [r7, #4]
    10b2:	942c      	str	r4, [sp, #176]	; 0xb0
    10b4:	2d07      	cmp	r5, #7
    10b6:	dd01      	ble.n	10bc <_vfprintf_r+0x48c>
    10b8:	f000 fe92 	bl	1de0 <_vfprintf_r+0x11b0>
    10bc:	3708      	adds	r7, #8
    10be:	2200      	movs	r2, #0
    10c0:	9816      	ldr	r0, [sp, #88]	; 0x58
    10c2:	9917      	ldr	r1, [sp, #92]	; 0x5c
    10c4:	2300      	movs	r3, #0
    10c6:	f006 fa43 	bl	7550 <__aeabi_dcmpeq>
    10ca:	2800      	cmp	r0, #0
    10cc:	d001      	beq.n	10d2 <_vfprintf_r+0x4a2>
    10ce:	f000 fc16 	bl	18fe <_vfprintf_r+0xcce>
    10d2:	9b15      	ldr	r3, [sp, #84]	; 0x54
    10d4:	3601      	adds	r6, #1
    10d6:	3b01      	subs	r3, #1
    10d8:	18e4      	adds	r4, r4, r3
    10da:	3501      	adds	r5, #1
    10dc:	603e      	str	r6, [r7, #0]
    10de:	607b      	str	r3, [r7, #4]
    10e0:	942c      	str	r4, [sp, #176]	; 0xb0
    10e2:	952b      	str	r5, [sp, #172]	; 0xac
    10e4:	2d07      	cmp	r5, #7
    10e6:	dd01      	ble.n	10ec <_vfprintf_r+0x4bc>
    10e8:	f000 fbfc 	bl	18e4 <_vfprintf_r+0xcb4>
    10ec:	3708      	adds	r7, #8
    10ee:	ab26      	add	r3, sp, #152	; 0x98
    10f0:	603b      	str	r3, [r7, #0]
    10f2:	9b1e      	ldr	r3, [sp, #120]	; 0x78
    10f4:	3501      	adds	r5, #1
    10f6:	469c      	mov	ip, r3
    10f8:	4464      	add	r4, ip
    10fa:	607b      	str	r3, [r7, #4]
    10fc:	942c      	str	r4, [sp, #176]	; 0xb0
    10fe:	952b      	str	r5, [sp, #172]	; 0xac
    1100:	2d07      	cmp	r5, #7
    1102:	dc00      	bgt.n	1106 <_vfprintf_r+0x4d6>
    1104:	e6e9      	b.n	eda <_vfprintf_r+0x2aa>
    1106:	4641      	mov	r1, r8
    1108:	4658      	mov	r0, fp
    110a:	aa2a      	add	r2, sp, #168	; 0xa8
    110c:	f004 f91a 	bl	5344 <__sprint_r>
    1110:	2800      	cmp	r0, #0
    1112:	d000      	beq.n	1116 <_vfprintf_r+0x4e6>
    1114:	e2c3      	b.n	169e <_vfprintf_r+0xa6e>
    1116:	9c2c      	ldr	r4, [sp, #176]	; 0xb0
    1118:	af2d      	add	r7, sp, #180	; 0xb4
    111a:	e6df      	b.n	edc <_vfprintf_r+0x2ac>
    111c:	4658      	mov	r0, fp
    111e:	f002 fe45 	bl	3dac <__sinit>
    1122:	e5a0      	b.n	c66 <_vfprintf_r+0x36>
    1124:	2320      	movs	r3, #32
    1126:	431c      	orrs	r4, r3
    1128:	9b06      	ldr	r3, [sp, #24]
    112a:	781b      	ldrb	r3, [r3, #0]
    112c:	e5f4      	b.n	d18 <_vfprintf_r+0xe8>
    112e:	9312      	str	r3, [sp, #72]	; 0x48
    1130:	2300      	movs	r3, #0
    1132:	46a2      	mov	sl, r4
    1134:	9c0f      	ldr	r4, [sp, #60]	; 0x3c
    1136:	aa1c      	add	r2, sp, #112	; 0x70
    1138:	cc40      	ldmia	r4!, {r6}
    113a:	46ab      	mov	fp, r5
    113c:	76d3      	strb	r3, [r2, #27]
    113e:	2e00      	cmp	r6, #0
    1140:	d101      	bne.n	1146 <_vfprintf_r+0x516>
    1142:	f000 fe0b 	bl	1d5c <_vfprintf_r+0x112c>
    1146:	9a08      	ldr	r2, [sp, #32]
    1148:	1c53      	adds	r3, r2, #1
    114a:	d101      	bne.n	1150 <_vfprintf_r+0x520>
    114c:	f000 fe9c 	bl	1e88 <_vfprintf_r+0x1258>
    1150:	2100      	movs	r1, #0
    1152:	0030      	movs	r0, r6
    1154:	f003 f99a 	bl	448c <memchr>
    1158:	900e      	str	r0, [sp, #56]	; 0x38
    115a:	2800      	cmp	r0, #0
    115c:	d101      	bne.n	1162 <_vfprintf_r+0x532>
    115e:	f001 f9bd 	bl	24dc <_vfprintf_r+0x18ac>
    1162:	9b0e      	ldr	r3, [sp, #56]	; 0x38
    1164:	1b99      	subs	r1, r3, r6
    1166:	43ca      	mvns	r2, r1
    1168:	17d2      	asrs	r2, r2, #31
    116a:	910b      	str	r1, [sp, #44]	; 0x2c
    116c:	4011      	ands	r1, r2
    116e:	2200      	movs	r2, #0
    1170:	ab1c      	add	r3, sp, #112	; 0x70
    1172:	7edb      	ldrb	r3, [r3, #27]
    1174:	9107      	str	r1, [sp, #28]
    1176:	940f      	str	r4, [sp, #60]	; 0x3c
    1178:	920e      	str	r2, [sp, #56]	; 0x38
    117a:	9208      	str	r2, [sp, #32]
    117c:	9218      	str	r2, [sp, #96]	; 0x60
    117e:	9213      	str	r2, [sp, #76]	; 0x4c
    1180:	9214      	str	r2, [sp, #80]	; 0x50
    1182:	e09f      	b.n	12c4 <_vfprintf_r+0x694>
    1184:	46a2      	mov	sl, r4
    1186:	9c0f      	ldr	r4, [sp, #60]	; 0x3c
    1188:	9312      	str	r3, [sp, #72]	; 0x48
    118a:	cc08      	ldmia	r4!, {r3}
    118c:	ae3d      	add	r6, sp, #244	; 0xf4
    118e:	7033      	strb	r3, [r6, #0]
    1190:	2300      	movs	r3, #0
    1192:	aa1c      	add	r2, sp, #112	; 0x70
    1194:	46ab      	mov	fp, r5
    1196:	76d3      	strb	r3, [r2, #27]
    1198:	940f      	str	r4, [sp, #60]	; 0x3c
    119a:	e639      	b.n	e10 <_vfprintf_r+0x1e0>
    119c:	9a0f      	ldr	r2, [sp, #60]	; 0x3c
    119e:	ca08      	ldmia	r2!, {r3}
    11a0:	930a      	str	r3, [sp, #40]	; 0x28
    11a2:	2b00      	cmp	r3, #0
    11a4:	db01      	blt.n	11aa <_vfprintf_r+0x57a>
    11a6:	f000 fc15 	bl	19d4 <_vfprintf_r+0xda4>
    11aa:	9b0a      	ldr	r3, [sp, #40]	; 0x28
    11ac:	920f      	str	r2, [sp, #60]	; 0x3c
    11ae:	425b      	negs	r3, r3
    11b0:	930a      	str	r3, [sp, #40]	; 0x28
    11b2:	2304      	movs	r3, #4
    11b4:	431c      	orrs	r4, r3
    11b6:	9b06      	ldr	r3, [sp, #24]
    11b8:	781b      	ldrb	r3, [r3, #0]
    11ba:	e5ad      	b.n	d18 <_vfprintf_r+0xe8>
    11bc:	232b      	movs	r3, #43	; 0x2b
    11be:	aa1c      	add	r2, sp, #112	; 0x70
    11c0:	76d3      	strb	r3, [r2, #27]
    11c2:	9b06      	ldr	r3, [sp, #24]
    11c4:	781b      	ldrb	r3, [r3, #0]
    11c6:	e5a7      	b.n	d18 <_vfprintf_r+0xe8>
    11c8:	2380      	movs	r3, #128	; 0x80
    11ca:	431c      	orrs	r4, r3
    11cc:	9b06      	ldr	r3, [sp, #24]
    11ce:	781b      	ldrb	r3, [r3, #0]
    11d0:	e5a2      	b.n	d18 <_vfprintf_r+0xe8>
    11d2:	9b06      	ldr	r3, [sp, #24]
    11d4:	1c58      	adds	r0, r3, #1
    11d6:	781b      	ldrb	r3, [r3, #0]
    11d8:	2b2a      	cmp	r3, #42	; 0x2a
    11da:	d101      	bne.n	11e0 <_vfprintf_r+0x5b0>
    11dc:	f001 fb1d 	bl	281a <_vfprintf_r+0x1bea>
    11e0:	001a      	movs	r2, r3
    11e2:	2100      	movs	r1, #0
    11e4:	3a30      	subs	r2, #48	; 0x30
    11e6:	4684      	mov	ip, r0
    11e8:	9108      	str	r1, [sp, #32]
    11ea:	2a09      	cmp	r2, #9
    11ec:	d901      	bls.n	11f2 <_vfprintf_r+0x5c2>
    11ee:	f001 f9af 	bl	2550 <_vfprintf_r+0x1920>
    11f2:	2000      	movs	r0, #0
    11f4:	4661      	mov	r1, ip
    11f6:	0083      	lsls	r3, r0, #2
    11f8:	1818      	adds	r0, r3, r0
    11fa:	000b      	movs	r3, r1
    11fc:	781b      	ldrb	r3, [r3, #0]
    11fe:	0040      	lsls	r0, r0, #1
    1200:	1880      	adds	r0, r0, r2
    1202:	001a      	movs	r2, r3
    1204:	3a30      	subs	r2, #48	; 0x30
    1206:	3101      	adds	r1, #1
    1208:	2a09      	cmp	r2, #9
    120a:	d9f4      	bls.n	11f6 <_vfprintf_r+0x5c6>
    120c:	9106      	str	r1, [sp, #24]
    120e:	9008      	str	r0, [sp, #32]
    1210:	e585      	b.n	d1e <_vfprintf_r+0xee>
    1212:	2301      	movs	r3, #1
    1214:	431c      	orrs	r4, r3
    1216:	9b06      	ldr	r3, [sp, #24]
    1218:	781b      	ldrb	r3, [r3, #0]
    121a:	e57d      	b.n	d18 <_vfprintf_r+0xe8>
    121c:	ab1c      	add	r3, sp, #112	; 0x70
    121e:	7edb      	ldrb	r3, [r3, #27]
    1220:	2b00      	cmp	r3, #0
    1222:	d000      	beq.n	1226 <_vfprintf_r+0x5f6>
    1224:	e5bb      	b.n	d9e <_vfprintf_r+0x16e>
    1226:	2320      	movs	r3, #32
    1228:	aa1c      	add	r2, sp, #112	; 0x70
    122a:	76d3      	strb	r3, [r2, #27]
    122c:	9b06      	ldr	r3, [sp, #24]
    122e:	781b      	ldrb	r3, [r3, #0]
    1230:	e572      	b.n	d18 <_vfprintf_r+0xe8>
    1232:	9b06      	ldr	r3, [sp, #24]
    1234:	781b      	ldrb	r3, [r3, #0]
    1236:	2b68      	cmp	r3, #104	; 0x68
    1238:	d101      	bne.n	123e <_vfprintf_r+0x60e>
    123a:	f000 fd80 	bl	1d3e <_vfprintf_r+0x110e>
    123e:	2240      	movs	r2, #64	; 0x40
    1240:	4314      	orrs	r4, r2
    1242:	e569      	b.n	d18 <_vfprintf_r+0xe8>
    1244:	46a2      	mov	sl, r4
    1246:	9312      	str	r3, [sp, #72]	; 0x48
    1248:	2410      	movs	r4, #16
    124a:	4653      	mov	r3, sl
    124c:	4323      	orrs	r3, r4
    124e:	46ab      	mov	fp, r5
    1250:	001c      	movs	r4, r3
    1252:	06a3      	lsls	r3, r4, #26
    1254:	d400      	bmi.n	1258 <_vfprintf_r+0x628>
    1256:	e38f      	b.n	1978 <_vfprintf_r+0xd48>
    1258:	2207      	movs	r2, #7
    125a:	9b0f      	ldr	r3, [sp, #60]	; 0x3c
    125c:	3307      	adds	r3, #7
    125e:	4393      	bics	r3, r2
    1260:	0019      	movs	r1, r3
    1262:	c90c      	ldmia	r1!, {r2, r3}
    1264:	920c      	str	r2, [sp, #48]	; 0x30
    1266:	930d      	str	r3, [sp, #52]	; 0x34
    1268:	2301      	movs	r3, #1
    126a:	910f      	str	r1, [sp, #60]	; 0x3c
    126c:	2200      	movs	r2, #0
    126e:	a91c      	add	r1, sp, #112	; 0x70
    1270:	76ca      	strb	r2, [r1, #27]
    1272:	9808      	ldr	r0, [sp, #32]
    1274:	1c42      	adds	r2, r0, #1
    1276:	d100      	bne.n	127a <_vfprintf_r+0x64a>
    1278:	e0c6      	b.n	1408 <_vfprintf_r+0x7d8>
    127a:	2280      	movs	r2, #128	; 0x80
    127c:	0021      	movs	r1, r4
    127e:	4391      	bics	r1, r2
    1280:	468a      	mov	sl, r1
    1282:	990c      	ldr	r1, [sp, #48]	; 0x30
    1284:	9a0d      	ldr	r2, [sp, #52]	; 0x34
    1286:	000d      	movs	r5, r1
    1288:	4315      	orrs	r5, r2
    128a:	d000      	beq.n	128e <_vfprintf_r+0x65e>
    128c:	e0bb      	b.n	1406 <_vfprintf_r+0x7d6>
    128e:	2800      	cmp	r0, #0
    1290:	d001      	beq.n	1296 <_vfprintf_r+0x666>
    1292:	f000 fdea 	bl	1e6a <_vfprintf_r+0x123a>
    1296:	2b00      	cmp	r3, #0
    1298:	d162      	bne.n	1360 <_vfprintf_r+0x730>
    129a:	3301      	adds	r3, #1
    129c:	001a      	movs	r2, r3
    129e:	4022      	ands	r2, r4
    12a0:	920b      	str	r2, [sp, #44]	; 0x2c
    12a2:	ae56      	add	r6, sp, #344	; 0x158
    12a4:	4223      	tst	r3, r4
    12a6:	d000      	beq.n	12aa <_vfprintf_r+0x67a>
    12a8:	e3c4      	b.n	1a34 <_vfprintf_r+0xe04>
    12aa:	9a08      	ldr	r2, [sp, #32]
    12ac:	990b      	ldr	r1, [sp, #44]	; 0x2c
    12ae:	ab1c      	add	r3, sp, #112	; 0x70
    12b0:	7edb      	ldrb	r3, [r3, #27]
    12b2:	9207      	str	r2, [sp, #28]
    12b4:	428a      	cmp	r2, r1
    12b6:	da00      	bge.n	12ba <_vfprintf_r+0x68a>
    12b8:	9107      	str	r1, [sp, #28]
    12ba:	2200      	movs	r2, #0
    12bc:	920e      	str	r2, [sp, #56]	; 0x38
    12be:	9218      	str	r2, [sp, #96]	; 0x60
    12c0:	9213      	str	r2, [sp, #76]	; 0x4c
    12c2:	9214      	str	r2, [sp, #80]	; 0x50
    12c4:	2b00      	cmp	r3, #0
    12c6:	d100      	bne.n	12ca <_vfprintf_r+0x69a>
    12c8:	e5ae      	b.n	e28 <_vfprintf_r+0x1f8>
    12ca:	9a07      	ldr	r2, [sp, #28]
    12cc:	3201      	adds	r2, #1
    12ce:	9207      	str	r2, [sp, #28]
    12d0:	e5aa      	b.n	e28 <_vfprintf_r+0x1f8>
    12d2:	0022      	movs	r2, r4
    12d4:	9312      	str	r3, [sp, #72]	; 0x48
    12d6:	2310      	movs	r3, #16
    12d8:	431a      	orrs	r2, r3
    12da:	46ab      	mov	fp, r5
    12dc:	4692      	mov	sl, r2
    12de:	4653      	mov	r3, sl
    12e0:	069b      	lsls	r3, r3, #26
    12e2:	d400      	bmi.n	12e6 <_vfprintf_r+0x6b6>
    12e4:	e33d      	b.n	1962 <_vfprintf_r+0xd32>
    12e6:	2307      	movs	r3, #7
    12e8:	9c0f      	ldr	r4, [sp, #60]	; 0x3c
    12ea:	3407      	adds	r4, #7
    12ec:	439c      	bics	r4, r3
    12ee:	0022      	movs	r2, r4
    12f0:	ca18      	ldmia	r2!, {r3, r4}
    12f2:	930c      	str	r3, [sp, #48]	; 0x30
    12f4:	940d      	str	r4, [sp, #52]	; 0x34
    12f6:	920f      	str	r2, [sp, #60]	; 0x3c
    12f8:	4653      	mov	r3, sl
    12fa:	4ccb      	ldr	r4, [pc, #812]	; (1628 <_vfprintf_r+0x9f8>)
    12fc:	4023      	ands	r3, r4
    12fe:	001c      	movs	r4, r3
    1300:	2300      	movs	r3, #0
    1302:	e7b3      	b.n	126c <_vfprintf_r+0x63c>
    1304:	2308      	movs	r3, #8
    1306:	431c      	orrs	r4, r3
    1308:	9b06      	ldr	r3, [sp, #24]
    130a:	781b      	ldrb	r3, [r3, #0]
    130c:	e504      	b.n	d18 <_vfprintf_r+0xe8>
    130e:	0022      	movs	r2, r4
    1310:	9312      	str	r3, [sp, #72]	; 0x48
    1312:	2310      	movs	r3, #16
    1314:	431a      	orrs	r2, r3
    1316:	46ab      	mov	fp, r5
    1318:	4692      	mov	sl, r2
    131a:	4653      	mov	r3, sl
    131c:	069b      	lsls	r3, r3, #26
    131e:	d400      	bmi.n	1322 <_vfprintf_r+0x6f2>
    1320:	e335      	b.n	198e <_vfprintf_r+0xd5e>
    1322:	2307      	movs	r3, #7
    1324:	9c0f      	ldr	r4, [sp, #60]	; 0x3c
    1326:	3407      	adds	r4, #7
    1328:	439c      	bics	r4, r3
    132a:	3301      	adds	r3, #1
    132c:	469c      	mov	ip, r3
    132e:	44a4      	add	ip, r4
    1330:	4663      	mov	r3, ip
    1332:	6822      	ldr	r2, [r4, #0]
    1334:	930f      	str	r3, [sp, #60]	; 0x3c
    1336:	6863      	ldr	r3, [r4, #4]
    1338:	920c      	str	r2, [sp, #48]	; 0x30
    133a:	930d      	str	r3, [sp, #52]	; 0x34
    133c:	2b00      	cmp	r3, #0
    133e:	da00      	bge.n	1342 <_vfprintf_r+0x712>
    1340:	e331      	b.n	19a6 <_vfprintf_r+0xd76>
    1342:	9b08      	ldr	r3, [sp, #32]
    1344:	4654      	mov	r4, sl
    1346:	3301      	adds	r3, #1
    1348:	d00f      	beq.n	136a <_vfprintf_r+0x73a>
    134a:	2380      	movs	r3, #128	; 0x80
    134c:	439c      	bics	r4, r3
    134e:	9a0c      	ldr	r2, [sp, #48]	; 0x30
    1350:	9b0d      	ldr	r3, [sp, #52]	; 0x34
    1352:	0011      	movs	r1, r2
    1354:	4319      	orrs	r1, r3
    1356:	d108      	bne.n	136a <_vfprintf_r+0x73a>
    1358:	9b08      	ldr	r3, [sp, #32]
    135a:	2b00      	cmp	r3, #0
    135c:	d10b      	bne.n	1376 <_vfprintf_r+0x746>
    135e:	46a2      	mov	sl, r4
    1360:	2300      	movs	r3, #0
    1362:	ae56      	add	r6, sp, #344	; 0x158
    1364:	9308      	str	r3, [sp, #32]
    1366:	930b      	str	r3, [sp, #44]	; 0x2c
    1368:	e79f      	b.n	12aa <_vfprintf_r+0x67a>
    136a:	9a0c      	ldr	r2, [sp, #48]	; 0x30
    136c:	9b0d      	ldr	r3, [sp, #52]	; 0x34
    136e:	2b00      	cmp	r3, #0
    1370:	d178      	bne.n	1464 <_vfprintf_r+0x834>
    1372:	2a09      	cmp	r2, #9
    1374:	d876      	bhi.n	1464 <_vfprintf_r+0x834>
    1376:	2263      	movs	r2, #99	; 0x63
    1378:	9b0c      	ldr	r3, [sp, #48]	; 0x30
    137a:	a93d      	add	r1, sp, #244	; 0xf4
    137c:	3330      	adds	r3, #48	; 0x30
    137e:	548b      	strb	r3, [r1, r2]
    1380:	2301      	movs	r3, #1
    1382:	930b      	str	r3, [sp, #44]	; 0x2c
    1384:	ab1c      	add	r3, sp, #112	; 0x70
    1386:	26e7      	movs	r6, #231	; 0xe7
    1388:	469c      	mov	ip, r3
    138a:	46a2      	mov	sl, r4
    138c:	4466      	add	r6, ip
    138e:	e78c      	b.n	12aa <_vfprintf_r+0x67a>
    1390:	9b0f      	ldr	r3, [sp, #60]	; 0x3c
    1392:	46a2      	mov	sl, r4
    1394:	cb04      	ldmia	r3!, {r2}
    1396:	2402      	movs	r4, #2
    1398:	920c      	str	r2, [sp, #48]	; 0x30
    139a:	2200      	movs	r2, #0
    139c:	920d      	str	r2, [sp, #52]	; 0x34
    139e:	4652      	mov	r2, sl
    13a0:	2130      	movs	r1, #48	; 0x30
    13a2:	4322      	orrs	r2, r4
    13a4:	0014      	movs	r4, r2
    13a6:	aa23      	add	r2, sp, #140	; 0x8c
    13a8:	7011      	strb	r1, [r2, #0]
    13aa:	3148      	adds	r1, #72	; 0x48
    13ac:	7051      	strb	r1, [r2, #1]
    13ae:	2278      	movs	r2, #120	; 0x78
    13b0:	930f      	str	r3, [sp, #60]	; 0x3c
    13b2:	4b9e      	ldr	r3, [pc, #632]	; (162c <_vfprintf_r+0x9fc>)
    13b4:	46ab      	mov	fp, r5
    13b6:	931d      	str	r3, [sp, #116]	; 0x74
    13b8:	9212      	str	r2, [sp, #72]	; 0x48
    13ba:	2302      	movs	r3, #2
    13bc:	e756      	b.n	126c <_vfprintf_r+0x63c>
    13be:	0023      	movs	r3, r4
    13c0:	46ab      	mov	fp, r5
    13c2:	069b      	lsls	r3, r3, #26
    13c4:	d500      	bpl.n	13c8 <_vfprintf_r+0x798>
    13c6:	e350      	b.n	1a6a <_vfprintf_r+0xe3a>
    13c8:	0023      	movs	r3, r4
    13ca:	06db      	lsls	r3, r3, #27
    13cc:	d501      	bpl.n	13d2 <_vfprintf_r+0x7a2>
    13ce:	f000 fd53 	bl	1e78 <_vfprintf_r+0x1248>
    13d2:	0023      	movs	r3, r4
    13d4:	065b      	lsls	r3, r3, #25
    13d6:	d501      	bpl.n	13dc <_vfprintf_r+0x7ac>
    13d8:	f000 fe0b 	bl	1ff2 <_vfprintf_r+0x13c2>
    13dc:	0023      	movs	r3, r4
    13de:	059b      	lsls	r3, r3, #22
    13e0:	d401      	bmi.n	13e6 <_vfprintf_r+0x7b6>
    13e2:	f000 fd49 	bl	1e78 <_vfprintf_r+0x1248>
    13e6:	9c0f      	ldr	r4, [sp, #60]	; 0x3c
    13e8:	9a09      	ldr	r2, [sp, #36]	; 0x24
    13ea:	cc08      	ldmia	r4!, {r3}
    13ec:	9e06      	ldr	r6, [sp, #24]
    13ee:	701a      	strb	r2, [r3, #0]
    13f0:	940f      	str	r4, [sp, #60]	; 0x3c
    13f2:	e595      	b.n	f20 <_vfprintf_r+0x2f0>
    13f4:	9b06      	ldr	r3, [sp, #24]
    13f6:	781b      	ldrb	r3, [r3, #0]
    13f8:	2b6c      	cmp	r3, #108	; 0x6c
    13fa:	d101      	bne.n	1400 <_vfprintf_r+0x7d0>
    13fc:	f000 fc97 	bl	1d2e <_vfprintf_r+0x10fe>
    1400:	2210      	movs	r2, #16
    1402:	4314      	orrs	r4, r2
    1404:	e488      	b.n	d18 <_vfprintf_r+0xe8>
    1406:	4654      	mov	r4, sl
    1408:	2b01      	cmp	r3, #1
    140a:	d0ae      	beq.n	136a <_vfprintf_r+0x73a>
    140c:	ae56      	add	r6, sp, #344	; 0x158
    140e:	2b02      	cmp	r3, #2
    1410:	d100      	bne.n	1414 <_vfprintf_r+0x7e4>
    1412:	e166      	b.n	16e2 <_vfprintf_r+0xab2>
    1414:	2307      	movs	r3, #7
    1416:	46a1      	mov	r9, r4
    1418:	46ba      	mov	sl, r7
    141a:	469c      	mov	ip, r3
    141c:	9a0c      	ldr	r2, [sp, #48]	; 0x30
    141e:	9b0d      	ldr	r3, [sp, #52]	; 0x34
    1420:	075f      	lsls	r7, r3, #29
    1422:	08d5      	lsrs	r5, r2, #3
    1424:	4661      	mov	r1, ip
    1426:	08d8      	lsrs	r0, r3, #3
    1428:	432f      	orrs	r7, r5
    142a:	0003      	movs	r3, r0
    142c:	0038      	movs	r0, r7
    142e:	4011      	ands	r1, r2
    1430:	0034      	movs	r4, r6
    1432:	3130      	adds	r1, #48	; 0x30
    1434:	3e01      	subs	r6, #1
    1436:	003a      	movs	r2, r7
    1438:	7031      	strb	r1, [r6, #0]
    143a:	4318      	orrs	r0, r3
    143c:	d1f0      	bne.n	1420 <_vfprintf_r+0x7f0>
    143e:	0025      	movs	r5, r4
    1440:	464c      	mov	r4, r9
    1442:	4657      	mov	r7, sl
    1444:	920c      	str	r2, [sp, #48]	; 0x30
    1446:	930d      	str	r3, [sp, #52]	; 0x34
    1448:	07e2      	lsls	r2, r4, #31
    144a:	d543      	bpl.n	14d4 <_vfprintf_r+0x8a4>
    144c:	2930      	cmp	r1, #48	; 0x30
    144e:	d041      	beq.n	14d4 <_vfprintf_r+0x8a4>
    1450:	2330      	movs	r3, #48	; 0x30
    1452:	3e01      	subs	r6, #1
    1454:	3d02      	subs	r5, #2
    1456:	7033      	strb	r3, [r6, #0]
    1458:	ab56      	add	r3, sp, #344	; 0x158
    145a:	1b5b      	subs	r3, r3, r5
    145c:	46ca      	mov	sl, r9
    145e:	002e      	movs	r6, r5
    1460:	930b      	str	r3, [sp, #44]	; 0x2c
    1462:	e722      	b.n	12aa <_vfprintf_r+0x67a>
    1464:	2580      	movs	r5, #128	; 0x80
    1466:	2300      	movs	r3, #0
    1468:	00ed      	lsls	r5, r5, #3
    146a:	4025      	ands	r5, r4
    146c:	46ba      	mov	sl, r7
    146e:	46a9      	mov	r9, r5
    1470:	9407      	str	r4, [sp, #28]
    1472:	001f      	movs	r7, r3
    1474:	9c0c      	ldr	r4, [sp, #48]	; 0x30
    1476:	9d0d      	ldr	r5, [sp, #52]	; 0x34
    1478:	ae56      	add	r6, sp, #344	; 0x158
    147a:	e00b      	b.n	1494 <_vfprintf_r+0x864>
    147c:	220a      	movs	r2, #10
    147e:	2300      	movs	r3, #0
    1480:	0020      	movs	r0, r4
    1482:	0029      	movs	r1, r5
    1484:	f006 f892 	bl	75ac <__aeabi_uldivmod>
    1488:	2d00      	cmp	r5, #0
    148a:	d101      	bne.n	1490 <_vfprintf_r+0x860>
    148c:	f000 ff80 	bl	2390 <_vfprintf_r+0x1760>
    1490:	0004      	movs	r4, r0
    1492:	000d      	movs	r5, r1
    1494:	220a      	movs	r2, #10
    1496:	2300      	movs	r3, #0
    1498:	0020      	movs	r0, r4
    149a:	0029      	movs	r1, r5
    149c:	f006 f886 	bl	75ac <__aeabi_uldivmod>
    14a0:	464b      	mov	r3, r9
    14a2:	3e01      	subs	r6, #1
    14a4:	3230      	adds	r2, #48	; 0x30
    14a6:	7032      	strb	r2, [r6, #0]
    14a8:	3701      	adds	r7, #1
    14aa:	2b00      	cmp	r3, #0
    14ac:	d0e6      	beq.n	147c <_vfprintf_r+0x84c>
    14ae:	9b1a      	ldr	r3, [sp, #104]	; 0x68
    14b0:	781b      	ldrb	r3, [r3, #0]
    14b2:	429f      	cmp	r7, r3
    14b4:	d1e2      	bne.n	147c <_vfprintf_r+0x84c>
    14b6:	2fff      	cmp	r7, #255	; 0xff
    14b8:	d0e0      	beq.n	147c <_vfprintf_r+0x84c>
    14ba:	2d00      	cmp	r5, #0
    14bc:	d001      	beq.n	14c2 <_vfprintf_r+0x892>
    14be:	f000 fc60 	bl	1d82 <_vfprintf_r+0x1152>
    14c2:	2c09      	cmp	r4, #9
    14c4:	d901      	bls.n	14ca <_vfprintf_r+0x89a>
    14c6:	f000 fc5c 	bl	1d82 <_vfprintf_r+0x1152>
    14ca:	9715      	str	r7, [sp, #84]	; 0x54
    14cc:	4657      	mov	r7, sl
    14ce:	940c      	str	r4, [sp, #48]	; 0x30
    14d0:	950d      	str	r5, [sp, #52]	; 0x34
    14d2:	9c07      	ldr	r4, [sp, #28]
    14d4:	ab56      	add	r3, sp, #344	; 0x158
    14d6:	1b9b      	subs	r3, r3, r6
    14d8:	46a2      	mov	sl, r4
    14da:	930b      	str	r3, [sp, #44]	; 0x2c
    14dc:	e6e5      	b.n	12aa <_vfprintf_r+0x67a>
    14de:	9b12      	ldr	r3, [sp, #72]	; 0x48
    14e0:	2b65      	cmp	r3, #101	; 0x65
    14e2:	dc00      	bgt.n	14e6 <_vfprintf_r+0x8b6>
    14e4:	e5ca      	b.n	107c <_vfprintf_r+0x44c>
    14e6:	9816      	ldr	r0, [sp, #88]	; 0x58
    14e8:	9917      	ldr	r1, [sp, #92]	; 0x5c
    14ea:	2200      	movs	r2, #0
    14ec:	2300      	movs	r3, #0
    14ee:	f006 f82f 	bl	7550 <__aeabi_dcmpeq>
    14f2:	2800      	cmp	r0, #0
    14f4:	d100      	bne.n	14f8 <_vfprintf_r+0x8c8>
    14f6:	e15f      	b.n	17b8 <_vfprintf_r+0xb88>
    14f8:	4b4d      	ldr	r3, [pc, #308]	; (1630 <_vfprintf_r+0xa00>)
    14fa:	3401      	adds	r4, #1
    14fc:	603b      	str	r3, [r7, #0]
    14fe:	2301      	movs	r3, #1
    1500:	607b      	str	r3, [r7, #4]
    1502:	9b2b      	ldr	r3, [sp, #172]	; 0xac
    1504:	942c      	str	r4, [sp, #176]	; 0xb0
    1506:	9308      	str	r3, [sp, #32]
    1508:	3301      	adds	r3, #1
    150a:	932b      	str	r3, [sp, #172]	; 0xac
    150c:	2b07      	cmp	r3, #7
    150e:	dd01      	ble.n	1514 <_vfprintf_r+0x8e4>
    1510:	f000 fc90 	bl	1e34 <_vfprintf_r+0x1204>
    1514:	3708      	adds	r7, #8
    1516:	9b24      	ldr	r3, [sp, #144]	; 0x90
    1518:	9a15      	ldr	r2, [sp, #84]	; 0x54
    151a:	4293      	cmp	r3, r2
    151c:	db00      	blt.n	1520 <_vfprintf_r+0x8f0>
    151e:	e24f      	b.n	19c0 <_vfprintf_r+0xd90>
    1520:	9b1c      	ldr	r3, [sp, #112]	; 0x70
    1522:	603b      	str	r3, [r7, #0]
    1524:	9b1b      	ldr	r3, [sp, #108]	; 0x6c
    1526:	469c      	mov	ip, r3
    1528:	607b      	str	r3, [r7, #4]
    152a:	9b2b      	ldr	r3, [sp, #172]	; 0xac
    152c:	4464      	add	r4, ip
    152e:	9308      	str	r3, [sp, #32]
    1530:	3301      	adds	r3, #1
    1532:	942c      	str	r4, [sp, #176]	; 0xb0
    1534:	932b      	str	r3, [sp, #172]	; 0xac
    1536:	2b07      	cmp	r3, #7
    1538:	dd01      	ble.n	153e <_vfprintf_r+0x90e>
    153a:	f000 fc03 	bl	1d44 <_vfprintf_r+0x1114>
    153e:	3708      	adds	r7, #8
    1540:	9b15      	ldr	r3, [sp, #84]	; 0x54
    1542:	1e5d      	subs	r5, r3, #1
    1544:	2d00      	cmp	r5, #0
    1546:	dc00      	bgt.n	154a <_vfprintf_r+0x91a>
    1548:	e4c8      	b.n	edc <_vfprintf_r+0x2ac>
    154a:	4a3a      	ldr	r2, [pc, #232]	; (1634 <_vfprintf_r+0xa04>)
    154c:	9b2b      	ldr	r3, [sp, #172]	; 0xac
    154e:	4691      	mov	r9, r2
    1550:	2d10      	cmp	r5, #16
    1552:	dc01      	bgt.n	1558 <_vfprintf_r+0x928>
    1554:	f000 fc7c 	bl	1e50 <_vfprintf_r+0x1220>
    1558:	0022      	movs	r2, r4
    155a:	2610      	movs	r6, #16
    155c:	464c      	mov	r4, r9
    155e:	e005      	b.n	156c <_vfprintf_r+0x93c>
    1560:	3708      	adds	r7, #8
    1562:	3d10      	subs	r5, #16
    1564:	2d10      	cmp	r5, #16
    1566:	dc01      	bgt.n	156c <_vfprintf_r+0x93c>
    1568:	f000 fc70 	bl	1e4c <_vfprintf_r+0x121c>
    156c:	3210      	adds	r2, #16
    156e:	3301      	adds	r3, #1
    1570:	603c      	str	r4, [r7, #0]
    1572:	607e      	str	r6, [r7, #4]
    1574:	922c      	str	r2, [sp, #176]	; 0xb0
    1576:	932b      	str	r3, [sp, #172]	; 0xac
    1578:	2b07      	cmp	r3, #7
    157a:	ddf1      	ble.n	1560 <_vfprintf_r+0x930>
    157c:	4641      	mov	r1, r8
    157e:	4658      	mov	r0, fp
    1580:	aa2a      	add	r2, sp, #168	; 0xa8
    1582:	f003 fedf 	bl	5344 <__sprint_r>
    1586:	2800      	cmp	r0, #0
    1588:	d000      	beq.n	158c <_vfprintf_r+0x95c>
    158a:	e088      	b.n	169e <_vfprintf_r+0xa6e>
    158c:	9a2c      	ldr	r2, [sp, #176]	; 0xb0
    158e:	9b2b      	ldr	r3, [sp, #172]	; 0xac
    1590:	af2d      	add	r7, sp, #180	; 0xb4
    1592:	e7e6      	b.n	1562 <_vfprintf_r+0x932>
    1594:	9b0a      	ldr	r3, [sp, #40]	; 0x28
    1596:	9a07      	ldr	r2, [sp, #28]
    1598:	1a9d      	subs	r5, r3, r2
    159a:	2d00      	cmp	r5, #0
    159c:	dc00      	bgt.n	15a0 <_vfprintf_r+0x970>
    159e:	e485      	b.n	eac <_vfprintf_r+0x27c>
    15a0:	4a24      	ldr	r2, [pc, #144]	; (1634 <_vfprintf_r+0xa04>)
    15a2:	9b2b      	ldr	r3, [sp, #172]	; 0xac
    15a4:	4691      	mov	r9, r2
    15a6:	2d10      	cmp	r5, #16
    15a8:	dd23      	ble.n	15f2 <_vfprintf_r+0x9c2>
    15aa:	0022      	movs	r2, r4
    15ac:	464c      	mov	r4, r9
    15ae:	46b1      	mov	r9, r6
    15b0:	465e      	mov	r6, fp
    15b2:	e003      	b.n	15bc <_vfprintf_r+0x98c>
    15b4:	3d10      	subs	r5, #16
    15b6:	3708      	adds	r7, #8
    15b8:	2d10      	cmp	r5, #16
    15ba:	dd16      	ble.n	15ea <_vfprintf_r+0x9ba>
    15bc:	2110      	movs	r1, #16
    15be:	3210      	adds	r2, #16
    15c0:	3301      	adds	r3, #1
    15c2:	603c      	str	r4, [r7, #0]
    15c4:	6079      	str	r1, [r7, #4]
    15c6:	922c      	str	r2, [sp, #176]	; 0xb0
    15c8:	932b      	str	r3, [sp, #172]	; 0xac
    15ca:	2b07      	cmp	r3, #7
    15cc:	ddf2      	ble.n	15b4 <_vfprintf_r+0x984>
    15ce:	4641      	mov	r1, r8
    15d0:	0030      	movs	r0, r6
    15d2:	aa2a      	add	r2, sp, #168	; 0xa8
    15d4:	f003 feb6 	bl	5344 <__sprint_r>
    15d8:	2800      	cmp	r0, #0
    15da:	d000      	beq.n	15de <_vfprintf_r+0x9ae>
    15dc:	e0e9      	b.n	17b2 <_vfprintf_r+0xb82>
    15de:	3d10      	subs	r5, #16
    15e0:	9a2c      	ldr	r2, [sp, #176]	; 0xb0
    15e2:	9b2b      	ldr	r3, [sp, #172]	; 0xac
    15e4:	af2d      	add	r7, sp, #180	; 0xb4
    15e6:	2d10      	cmp	r5, #16
    15e8:	dce8      	bgt.n	15bc <_vfprintf_r+0x98c>
    15ea:	46b3      	mov	fp, r6
    15ec:	464e      	mov	r6, r9
    15ee:	46a1      	mov	r9, r4
    15f0:	0014      	movs	r4, r2
    15f2:	464a      	mov	r2, r9
    15f4:	1964      	adds	r4, r4, r5
    15f6:	3301      	adds	r3, #1
    15f8:	603a      	str	r2, [r7, #0]
    15fa:	607d      	str	r5, [r7, #4]
    15fc:	942c      	str	r4, [sp, #176]	; 0xb0
    15fe:	932b      	str	r3, [sp, #172]	; 0xac
    1600:	2b07      	cmp	r3, #7
    1602:	dd00      	ble.n	1606 <_vfprintf_r+0x9d6>
    1604:	e34f      	b.n	1ca6 <_vfprintf_r+0x1076>
    1606:	9b08      	ldr	r3, [sp, #32]
    1608:	9a0b      	ldr	r2, [sp, #44]	; 0x2c
    160a:	3708      	adds	r7, #8
    160c:	1a9d      	subs	r5, r3, r2
    160e:	2d00      	cmp	r5, #0
    1610:	dc00      	bgt.n	1614 <_vfprintf_r+0x9e4>
    1612:	e451      	b.n	eb8 <_vfprintf_r+0x288>
    1614:	4a07      	ldr	r2, [pc, #28]	; (1634 <_vfprintf_r+0xa04>)
    1616:	9b2b      	ldr	r3, [sp, #172]	; 0xac
    1618:	4691      	mov	r9, r2
    161a:	2d10      	cmp	r5, #16
    161c:	dd2b      	ble.n	1676 <_vfprintf_r+0xa46>
    161e:	0022      	movs	r2, r4
    1620:	464c      	mov	r4, r9
    1622:	46b1      	mov	r9, r6
    1624:	465e      	mov	r6, fp
    1626:	e00b      	b.n	1640 <_vfprintf_r+0xa10>
    1628:	fffffbff 	.word	0xfffffbff
    162c:	00009fac 	.word	0x00009fac
    1630:	00009fdc 	.word	0x00009fdc
    1634:	0000a16c 	.word	0x0000a16c
    1638:	3d10      	subs	r5, #16
    163a:	3708      	adds	r7, #8
    163c:	2d10      	cmp	r5, #16
    163e:	dd16      	ble.n	166e <_vfprintf_r+0xa3e>
    1640:	2110      	movs	r1, #16
    1642:	3210      	adds	r2, #16
    1644:	3301      	adds	r3, #1
    1646:	603c      	str	r4, [r7, #0]
    1648:	6079      	str	r1, [r7, #4]
    164a:	922c      	str	r2, [sp, #176]	; 0xb0
    164c:	932b      	str	r3, [sp, #172]	; 0xac
    164e:	2b07      	cmp	r3, #7
    1650:	ddf2      	ble.n	1638 <_vfprintf_r+0xa08>
    1652:	4641      	mov	r1, r8
    1654:	0030      	movs	r0, r6
    1656:	aa2a      	add	r2, sp, #168	; 0xa8
    1658:	f003 fe74 	bl	5344 <__sprint_r>
    165c:	2800      	cmp	r0, #0
    165e:	d000      	beq.n	1662 <_vfprintf_r+0xa32>
    1660:	e0a7      	b.n	17b2 <_vfprintf_r+0xb82>
    1662:	3d10      	subs	r5, #16
    1664:	9a2c      	ldr	r2, [sp, #176]	; 0xb0
    1666:	9b2b      	ldr	r3, [sp, #172]	; 0xac
    1668:	af2d      	add	r7, sp, #180	; 0xb4
    166a:	2d10      	cmp	r5, #16
    166c:	dce8      	bgt.n	1640 <_vfprintf_r+0xa10>
    166e:	46b3      	mov	fp, r6
    1670:	464e      	mov	r6, r9
    1672:	46a1      	mov	r9, r4
    1674:	0014      	movs	r4, r2
    1676:	464a      	mov	r2, r9
    1678:	1964      	adds	r4, r4, r5
    167a:	3301      	adds	r3, #1
    167c:	603a      	str	r2, [r7, #0]
    167e:	607d      	str	r5, [r7, #4]
    1680:	942c      	str	r4, [sp, #176]	; 0xb0
    1682:	932b      	str	r3, [sp, #172]	; 0xac
    1684:	2b07      	cmp	r3, #7
    1686:	dd00      	ble.n	168a <_vfprintf_r+0xa5a>
    1688:	e15f      	b.n	194a <_vfprintf_r+0xd1a>
    168a:	3708      	adds	r7, #8
    168c:	e414      	b.n	eb8 <_vfprintf_r+0x288>
    168e:	4641      	mov	r1, r8
    1690:	4658      	mov	r0, fp
    1692:	aa2a      	add	r2, sp, #168	; 0xa8
    1694:	f003 fe56 	bl	5344 <__sprint_r>
    1698:	2800      	cmp	r0, #0
    169a:	d100      	bne.n	169e <_vfprintf_r+0xa6e>
    169c:	e435      	b.n	f0a <_vfprintf_r+0x2da>
    169e:	46c1      	mov	r9, r8
    16a0:	990e      	ldr	r1, [sp, #56]	; 0x38
    16a2:	2900      	cmp	r1, #0
    16a4:	d002      	beq.n	16ac <_vfprintf_r+0xa7c>
    16a6:	4658      	mov	r0, fp
    16a8:	f002 fd0a 	bl	40c0 <_free_r>
    16ac:	464b      	mov	r3, r9
    16ae:	6e5b      	ldr	r3, [r3, #100]	; 0x64
    16b0:	07db      	lsls	r3, r3, #31
    16b2:	d413      	bmi.n	16dc <_vfprintf_r+0xaac>
    16b4:	464b      	mov	r3, r9
    16b6:	899b      	ldrh	r3, [r3, #12]
    16b8:	059a      	lsls	r2, r3, #22
    16ba:	d50b      	bpl.n	16d4 <_vfprintf_r+0xaa4>
    16bc:	065b      	lsls	r3, r3, #25
    16be:	d501      	bpl.n	16c4 <_vfprintf_r+0xa94>
    16c0:	f000 ff81 	bl	25c6 <_vfprintf_r+0x1996>
    16c4:	9809      	ldr	r0, [sp, #36]	; 0x24
    16c6:	b057      	add	sp, #348	; 0x15c
    16c8:	bcf0      	pop	{r4, r5, r6, r7}
    16ca:	46bb      	mov	fp, r7
    16cc:	46b2      	mov	sl, r6
    16ce:	46a9      	mov	r9, r5
    16d0:	46a0      	mov	r8, r4
    16d2:	bdf0      	pop	{r4, r5, r6, r7, pc}
    16d4:	464b      	mov	r3, r9
    16d6:	6d98      	ldr	r0, [r3, #88]	; 0x58
    16d8:	f002 fe34 	bl	4344 <__retarget_lock_release_recursive>
    16dc:	464b      	mov	r3, r9
    16de:	899b      	ldrh	r3, [r3, #12]
    16e0:	e7ec      	b.n	16bc <_vfprintf_r+0xa8c>
    16e2:	200f      	movs	r0, #15
    16e4:	9a0c      	ldr	r2, [sp, #48]	; 0x30
    16e6:	9b0d      	ldr	r3, [sp, #52]	; 0x34
    16e8:	46a4      	mov	ip, r4
    16ea:	46b9      	mov	r9, r7
    16ec:	9f1d      	ldr	r7, [sp, #116]	; 0x74
    16ee:	0001      	movs	r1, r0
    16f0:	4011      	ands	r1, r2
    16f2:	5c79      	ldrb	r1, [r7, r1]
    16f4:	071c      	lsls	r4, r3, #28
    16f6:	0915      	lsrs	r5, r2, #4
    16f8:	3e01      	subs	r6, #1
    16fa:	432c      	orrs	r4, r5
    16fc:	7031      	strb	r1, [r6, #0]
    16fe:	0919      	lsrs	r1, r3, #4
    1700:	000b      	movs	r3, r1
    1702:	0021      	movs	r1, r4
    1704:	0022      	movs	r2, r4
    1706:	4319      	orrs	r1, r3
    1708:	d1f1      	bne.n	16ee <_vfprintf_r+0xabe>
    170a:	920c      	str	r2, [sp, #48]	; 0x30
    170c:	930d      	str	r3, [sp, #52]	; 0x34
    170e:	ab56      	add	r3, sp, #344	; 0x158
    1710:	1b9b      	subs	r3, r3, r6
    1712:	464f      	mov	r7, r9
    1714:	46e2      	mov	sl, ip
    1716:	930b      	str	r3, [sp, #44]	; 0x2c
    1718:	e5c7      	b.n	12aa <_vfprintf_r+0x67a>
    171a:	4641      	mov	r1, r8
    171c:	4658      	mov	r0, fp
    171e:	aa2a      	add	r2, sp, #168	; 0xa8
    1720:	f003 fe10 	bl	5344 <__sprint_r>
    1724:	2800      	cmp	r0, #0
    1726:	d1ba      	bne.n	169e <_vfprintf_r+0xa6e>
    1728:	9c2c      	ldr	r4, [sp, #176]	; 0xb0
    172a:	af2d      	add	r7, sp, #180	; 0xb4
    172c:	f7ff fbba 	bl	ea4 <_vfprintf_r+0x274>
    1730:	4641      	mov	r1, r8
    1732:	4658      	mov	r0, fp
    1734:	aa2a      	add	r2, sp, #168	; 0xa8
    1736:	f003 fe05 	bl	5344 <__sprint_r>
    173a:	2800      	cmp	r0, #0
    173c:	d1af      	bne.n	169e <_vfprintf_r+0xa6e>
    173e:	9c2c      	ldr	r4, [sp, #176]	; 0xb0
    1740:	af2d      	add	r7, sp, #180	; 0xb4
    1742:	f7ff fb9d 	bl	e80 <_vfprintf_r+0x250>
    1746:	9b2b      	ldr	r3, [sp, #172]	; 0xac
    1748:	4ddc      	ldr	r5, [pc, #880]	; (1abc <_vfprintf_r+0xe8c>)
    174a:	2e10      	cmp	r6, #16
    174c:	dd1d      	ble.n	178a <_vfprintf_r+0xb5a>
    174e:	2210      	movs	r2, #16
    1750:	4691      	mov	r9, r2
    1752:	e003      	b.n	175c <_vfprintf_r+0xb2c>
    1754:	3e10      	subs	r6, #16
    1756:	3708      	adds	r7, #8
    1758:	2e10      	cmp	r6, #16
    175a:	dd16      	ble.n	178a <_vfprintf_r+0xb5a>
    175c:	464a      	mov	r2, r9
    175e:	3410      	adds	r4, #16
    1760:	3301      	adds	r3, #1
    1762:	603d      	str	r5, [r7, #0]
    1764:	607a      	str	r2, [r7, #4]
    1766:	942c      	str	r4, [sp, #176]	; 0xb0
    1768:	932b      	str	r3, [sp, #172]	; 0xac
    176a:	2b07      	cmp	r3, #7
    176c:	ddf2      	ble.n	1754 <_vfprintf_r+0xb24>
    176e:	4641      	mov	r1, r8
    1770:	4658      	mov	r0, fp
    1772:	aa2a      	add	r2, sp, #168	; 0xa8
    1774:	f003 fde6 	bl	5344 <__sprint_r>
    1778:	2800      	cmp	r0, #0
    177a:	d000      	beq.n	177e <_vfprintf_r+0xb4e>
    177c:	e78f      	b.n	169e <_vfprintf_r+0xa6e>
    177e:	3e10      	subs	r6, #16
    1780:	9c2c      	ldr	r4, [sp, #176]	; 0xb0
    1782:	9b2b      	ldr	r3, [sp, #172]	; 0xac
    1784:	af2d      	add	r7, sp, #180	; 0xb4
    1786:	2e10      	cmp	r6, #16
    1788:	dce8      	bgt.n	175c <_vfprintf_r+0xb2c>
    178a:	19a4      	adds	r4, r4, r6
    178c:	3301      	adds	r3, #1
    178e:	c760      	stmia	r7!, {r5, r6}
    1790:	942c      	str	r4, [sp, #176]	; 0xb0
    1792:	932b      	str	r3, [sp, #172]	; 0xac
    1794:	2b07      	cmp	r3, #7
    1796:	dc01      	bgt.n	179c <_vfprintf_r+0xb6c>
    1798:	f7ff fbaa 	bl	ef0 <_vfprintf_r+0x2c0>
    179c:	4641      	mov	r1, r8
    179e:	4658      	mov	r0, fp
    17a0:	aa2a      	add	r2, sp, #168	; 0xa8
    17a2:	f003 fdcf 	bl	5344 <__sprint_r>
    17a6:	2800      	cmp	r0, #0
    17a8:	d000      	beq.n	17ac <_vfprintf_r+0xb7c>
    17aa:	e778      	b.n	169e <_vfprintf_r+0xa6e>
    17ac:	9c2c      	ldr	r4, [sp, #176]	; 0xb0
    17ae:	f7ff fb9f 	bl	ef0 <_vfprintf_r+0x2c0>
    17b2:	46b3      	mov	fp, r6
    17b4:	46c1      	mov	r9, r8
    17b6:	e773      	b.n	16a0 <_vfprintf_r+0xa70>
    17b8:	9924      	ldr	r1, [sp, #144]	; 0x90
    17ba:	2900      	cmp	r1, #0
    17bc:	dc00      	bgt.n	17c0 <_vfprintf_r+0xb90>
    17be:	e10e      	b.n	19de <_vfprintf_r+0xdae>
    17c0:	9a14      	ldr	r2, [sp, #80]	; 0x50
    17c2:	9b15      	ldr	r3, [sp, #84]	; 0x54
    17c4:	0015      	movs	r5, r2
    17c6:	429a      	cmp	r2, r3
    17c8:	dd00      	ble.n	17cc <_vfprintf_r+0xb9c>
    17ca:	001d      	movs	r5, r3
    17cc:	2d00      	cmp	r5, #0
    17ce:	dd0c      	ble.n	17ea <_vfprintf_r+0xbba>
    17d0:	9b2b      	ldr	r3, [sp, #172]	; 0xac
    17d2:	1964      	adds	r4, r4, r5
    17d4:	9308      	str	r3, [sp, #32]
    17d6:	3301      	adds	r3, #1
    17d8:	603e      	str	r6, [r7, #0]
    17da:	607d      	str	r5, [r7, #4]
    17dc:	942c      	str	r4, [sp, #176]	; 0xb0
    17de:	932b      	str	r3, [sp, #172]	; 0xac
    17e0:	2b07      	cmp	r3, #7
    17e2:	dd01      	ble.n	17e8 <_vfprintf_r+0xbb8>
    17e4:	f000 fdfa 	bl	23dc <_vfprintf_r+0x17ac>
    17e8:	3708      	adds	r7, #8
    17ea:	43eb      	mvns	r3, r5
    17ec:	17db      	asrs	r3, r3, #31
    17ee:	401d      	ands	r5, r3
    17f0:	9b14      	ldr	r3, [sp, #80]	; 0x50
    17f2:	1b5d      	subs	r5, r3, r5
    17f4:	2d00      	cmp	r5, #0
    17f6:	dd00      	ble.n	17fa <_vfprintf_r+0xbca>
    17f8:	e37b      	b.n	1ef2 <_vfprintf_r+0x12c2>
    17fa:	9b14      	ldr	r3, [sp, #80]	; 0x50
    17fc:	469c      	mov	ip, r3
    17fe:	4653      	mov	r3, sl
    1800:	44b4      	add	ip, r6
    1802:	4665      	mov	r5, ip
    1804:	055b      	lsls	r3, r3, #21
    1806:	d501      	bpl.n	180c <_vfprintf_r+0xbdc>
    1808:	f000 fd0f 	bl	222a <_vfprintf_r+0x15fa>
    180c:	9b24      	ldr	r3, [sp, #144]	; 0x90
    180e:	9a15      	ldr	r2, [sp, #84]	; 0x54
    1810:	4293      	cmp	r3, r2
    1812:	db03      	blt.n	181c <_vfprintf_r+0xbec>
    1814:	4652      	mov	r2, sl
    1816:	07d2      	lsls	r2, r2, #31
    1818:	d400      	bmi.n	181c <_vfprintf_r+0xbec>
    181a:	e3e0      	b.n	1fde <_vfprintf_r+0x13ae>
    181c:	9a1c      	ldr	r2, [sp, #112]	; 0x70
    181e:	603a      	str	r2, [r7, #0]
    1820:	9a1b      	ldr	r2, [sp, #108]	; 0x6c
    1822:	4694      	mov	ip, r2
    1824:	607a      	str	r2, [r7, #4]
    1826:	9a2b      	ldr	r2, [sp, #172]	; 0xac
    1828:	4464      	add	r4, ip
    182a:	9208      	str	r2, [sp, #32]
    182c:	3201      	adds	r2, #1
    182e:	942c      	str	r4, [sp, #176]	; 0xb0
    1830:	922b      	str	r2, [sp, #172]	; 0xac
    1832:	2a07      	cmp	r2, #7
    1834:	dd01      	ble.n	183a <_vfprintf_r+0xc0a>
    1836:	f000 fdde 	bl	23f6 <_vfprintf_r+0x17c6>
    183a:	3708      	adds	r7, #8
    183c:	9915      	ldr	r1, [sp, #84]	; 0x54
    183e:	468c      	mov	ip, r1
    1840:	1acb      	subs	r3, r1, r3
    1842:	4466      	add	r6, ip
    1844:	1b72      	subs	r2, r6, r5
    1846:	001e      	movs	r6, r3
    1848:	4293      	cmp	r3, r2
    184a:	dd00      	ble.n	184e <_vfprintf_r+0xc1e>
    184c:	0016      	movs	r6, r2
    184e:	2e00      	cmp	r6, #0
    1850:	dd0c      	ble.n	186c <_vfprintf_r+0xc3c>
    1852:	9a2b      	ldr	r2, [sp, #172]	; 0xac
    1854:	19a4      	adds	r4, r4, r6
    1856:	9208      	str	r2, [sp, #32]
    1858:	3201      	adds	r2, #1
    185a:	603d      	str	r5, [r7, #0]
    185c:	607e      	str	r6, [r7, #4]
    185e:	942c      	str	r4, [sp, #176]	; 0xb0
    1860:	922b      	str	r2, [sp, #172]	; 0xac
    1862:	2a07      	cmp	r2, #7
    1864:	dd01      	ble.n	186a <_vfprintf_r+0xc3a>
    1866:	f000 fe51 	bl	250c <_vfprintf_r+0x18dc>
    186a:	3708      	adds	r7, #8
    186c:	43f5      	mvns	r5, r6
    186e:	17ed      	asrs	r5, r5, #31
    1870:	4035      	ands	r5, r6
    1872:	1b5d      	subs	r5, r3, r5
    1874:	2d00      	cmp	r5, #0
    1876:	dc01      	bgt.n	187c <_vfprintf_r+0xc4c>
    1878:	f7ff fb30 	bl	edc <_vfprintf_r+0x2ac>
    187c:	4a90      	ldr	r2, [pc, #576]	; (1ac0 <_vfprintf_r+0xe90>)
    187e:	9b2b      	ldr	r3, [sp, #172]	; 0xac
    1880:	4691      	mov	r9, r2
    1882:	2d10      	cmp	r5, #16
    1884:	dc00      	bgt.n	1888 <_vfprintf_r+0xc58>
    1886:	e2e3      	b.n	1e50 <_vfprintf_r+0x1220>
    1888:	0022      	movs	r2, r4
    188a:	2610      	movs	r6, #16
    188c:	464c      	mov	r4, r9
    188e:	e004      	b.n	189a <_vfprintf_r+0xc6a>
    1890:	3708      	adds	r7, #8
    1892:	3d10      	subs	r5, #16
    1894:	2d10      	cmp	r5, #16
    1896:	dc00      	bgt.n	189a <_vfprintf_r+0xc6a>
    1898:	e2d8      	b.n	1e4c <_vfprintf_r+0x121c>
    189a:	3210      	adds	r2, #16
    189c:	3301      	adds	r3, #1
    189e:	603c      	str	r4, [r7, #0]
    18a0:	607e      	str	r6, [r7, #4]
    18a2:	922c      	str	r2, [sp, #176]	; 0xb0
    18a4:	932b      	str	r3, [sp, #172]	; 0xac
    18a6:	2b07      	cmp	r3, #7
    18a8:	ddf2      	ble.n	1890 <_vfprintf_r+0xc60>
    18aa:	4641      	mov	r1, r8
    18ac:	4658      	mov	r0, fp
    18ae:	aa2a      	add	r2, sp, #168	; 0xa8
    18b0:	f003 fd48 	bl	5344 <__sprint_r>
    18b4:	2800      	cmp	r0, #0
    18b6:	d000      	beq.n	18ba <_vfprintf_r+0xc8a>
    18b8:	e6f1      	b.n	169e <_vfprintf_r+0xa6e>
    18ba:	9a2c      	ldr	r2, [sp, #176]	; 0xb0
    18bc:	9b2b      	ldr	r3, [sp, #172]	; 0xac
    18be:	af2d      	add	r7, sp, #180	; 0xb4
    18c0:	e7e7      	b.n	1892 <_vfprintf_r+0xc62>
    18c2:	2301      	movs	r3, #1
    18c4:	4652      	mov	r2, sl
    18c6:	4213      	tst	r3, r2
    18c8:	d001      	beq.n	18ce <_vfprintf_r+0xc9e>
    18ca:	f7ff fbdd 	bl	1088 <_vfprintf_r+0x458>
    18ce:	607b      	str	r3, [r7, #4]
    18d0:	9b2b      	ldr	r3, [sp, #172]	; 0xac
    18d2:	3401      	adds	r4, #1
    18d4:	1c5d      	adds	r5, r3, #1
    18d6:	942c      	str	r4, [sp, #176]	; 0xb0
    18d8:	9308      	str	r3, [sp, #32]
    18da:	952b      	str	r5, [sp, #172]	; 0xac
    18dc:	2d07      	cmp	r5, #7
    18de:	dc01      	bgt.n	18e4 <_vfprintf_r+0xcb4>
    18e0:	f7ff fc04 	bl	10ec <_vfprintf_r+0x4bc>
    18e4:	4641      	mov	r1, r8
    18e6:	4658      	mov	r0, fp
    18e8:	aa2a      	add	r2, sp, #168	; 0xa8
    18ea:	f003 fd2b 	bl	5344 <__sprint_r>
    18ee:	2800      	cmp	r0, #0
    18f0:	d000      	beq.n	18f4 <_vfprintf_r+0xcc4>
    18f2:	e6d4      	b.n	169e <_vfprintf_r+0xa6e>
    18f4:	9c2c      	ldr	r4, [sp, #176]	; 0xb0
    18f6:	9d2b      	ldr	r5, [sp, #172]	; 0xac
    18f8:	af2d      	add	r7, sp, #180	; 0xb4
    18fa:	f7ff fbf8 	bl	10ee <_vfprintf_r+0x4be>
    18fe:	9b15      	ldr	r3, [sp, #84]	; 0x54
    1900:	1e5e      	subs	r6, r3, #1
    1902:	2e00      	cmp	r6, #0
    1904:	dc01      	bgt.n	190a <_vfprintf_r+0xcda>
    1906:	f7ff fbf2 	bl	10ee <_vfprintf_r+0x4be>
    190a:	4b6d      	ldr	r3, [pc, #436]	; (1ac0 <_vfprintf_r+0xe90>)
    190c:	4699      	mov	r9, r3
    190e:	2e10      	cmp	r6, #16
    1910:	dc05      	bgt.n	191e <_vfprintf_r+0xcee>
    1912:	e2bf      	b.n	1e94 <_vfprintf_r+0x1264>
    1914:	3708      	adds	r7, #8
    1916:	3e10      	subs	r6, #16
    1918:	2e10      	cmp	r6, #16
    191a:	dc00      	bgt.n	191e <_vfprintf_r+0xcee>
    191c:	e2ba      	b.n	1e94 <_vfprintf_r+0x1264>
    191e:	464b      	mov	r3, r9
    1920:	603b      	str	r3, [r7, #0]
    1922:	2310      	movs	r3, #16
    1924:	3410      	adds	r4, #16
    1926:	3501      	adds	r5, #1
    1928:	607b      	str	r3, [r7, #4]
    192a:	942c      	str	r4, [sp, #176]	; 0xb0
    192c:	952b      	str	r5, [sp, #172]	; 0xac
    192e:	2d07      	cmp	r5, #7
    1930:	ddf0      	ble.n	1914 <_vfprintf_r+0xce4>
    1932:	4641      	mov	r1, r8
    1934:	4658      	mov	r0, fp
    1936:	aa2a      	add	r2, sp, #168	; 0xa8
    1938:	f003 fd04 	bl	5344 <__sprint_r>
    193c:	2800      	cmp	r0, #0
    193e:	d000      	beq.n	1942 <_vfprintf_r+0xd12>
    1940:	e6ad      	b.n	169e <_vfprintf_r+0xa6e>
    1942:	9c2c      	ldr	r4, [sp, #176]	; 0xb0
    1944:	9d2b      	ldr	r5, [sp, #172]	; 0xac
    1946:	af2d      	add	r7, sp, #180	; 0xb4
    1948:	e7e5      	b.n	1916 <_vfprintf_r+0xce6>
    194a:	4641      	mov	r1, r8
    194c:	4658      	mov	r0, fp
    194e:	aa2a      	add	r2, sp, #168	; 0xa8
    1950:	f003 fcf8 	bl	5344 <__sprint_r>
    1954:	2800      	cmp	r0, #0
    1956:	d000      	beq.n	195a <_vfprintf_r+0xd2a>
    1958:	e6a1      	b.n	169e <_vfprintf_r+0xa6e>
    195a:	9c2c      	ldr	r4, [sp, #176]	; 0xb0
    195c:	af2d      	add	r7, sp, #180	; 0xb4
    195e:	f7ff faab 	bl	eb8 <_vfprintf_r+0x288>
    1962:	4653      	mov	r3, sl
    1964:	06db      	lsls	r3, r3, #27
    1966:	d400      	bmi.n	196a <_vfprintf_r+0xd3a>
    1968:	e090      	b.n	1a8c <_vfprintf_r+0xe5c>
    196a:	9c0f      	ldr	r4, [sp, #60]	; 0x3c
    196c:	cc08      	ldmia	r4!, {r3}
    196e:	930c      	str	r3, [sp, #48]	; 0x30
    1970:	2300      	movs	r3, #0
    1972:	940f      	str	r4, [sp, #60]	; 0x3c
    1974:	930d      	str	r3, [sp, #52]	; 0x34
    1976:	e4bf      	b.n	12f8 <_vfprintf_r+0x6c8>
    1978:	06e3      	lsls	r3, r4, #27
    197a:	d400      	bmi.n	197e <_vfprintf_r+0xd4e>
    197c:	e07f      	b.n	1a7e <_vfprintf_r+0xe4e>
    197e:	9b0f      	ldr	r3, [sp, #60]	; 0x3c
    1980:	cb04      	ldmia	r3!, {r2}
    1982:	920c      	str	r2, [sp, #48]	; 0x30
    1984:	2200      	movs	r2, #0
    1986:	930f      	str	r3, [sp, #60]	; 0x3c
    1988:	920d      	str	r2, [sp, #52]	; 0x34
    198a:	2301      	movs	r3, #1
    198c:	e46e      	b.n	126c <_vfprintf_r+0x63c>
    198e:	4653      	mov	r3, sl
    1990:	06db      	lsls	r3, r3, #27
    1992:	d400      	bmi.n	1996 <_vfprintf_r+0xd66>
    1994:	e086      	b.n	1aa4 <_vfprintf_r+0xe74>
    1996:	9c0f      	ldr	r4, [sp, #60]	; 0x3c
    1998:	cc08      	ldmia	r4!, {r3}
    199a:	930c      	str	r3, [sp, #48]	; 0x30
    199c:	17db      	asrs	r3, r3, #31
    199e:	930d      	str	r3, [sp, #52]	; 0x34
    19a0:	940f      	str	r4, [sp, #60]	; 0x3c
    19a2:	d400      	bmi.n	19a6 <_vfprintf_r+0xd76>
    19a4:	e4cd      	b.n	1342 <_vfprintf_r+0x712>
    19a6:	990c      	ldr	r1, [sp, #48]	; 0x30
    19a8:	9a0d      	ldr	r2, [sp, #52]	; 0x34
    19aa:	2400      	movs	r4, #0
    19ac:	424b      	negs	r3, r1
    19ae:	4194      	sbcs	r4, r2
    19b0:	930c      	str	r3, [sp, #48]	; 0x30
    19b2:	940d      	str	r4, [sp, #52]	; 0x34
    19b4:	232d      	movs	r3, #45	; 0x2d
    19b6:	aa1c      	add	r2, sp, #112	; 0x70
    19b8:	76d3      	strb	r3, [r2, #27]
    19ba:	4654      	mov	r4, sl
    19bc:	3b2c      	subs	r3, #44	; 0x2c
    19be:	e458      	b.n	1272 <_vfprintf_r+0x642>
    19c0:	4653      	mov	r3, sl
    19c2:	07db      	lsls	r3, r3, #31
    19c4:	d401      	bmi.n	19ca <_vfprintf_r+0xd9a>
    19c6:	f7ff fa89 	bl	edc <_vfprintf_r+0x2ac>
    19ca:	e5a9      	b.n	1520 <_vfprintf_r+0x8f0>
    19cc:	46a2      	mov	sl, r4
    19ce:	46ab      	mov	fp, r5
    19d0:	9312      	str	r3, [sp, #72]	; 0x48
    19d2:	e4a2      	b.n	131a <_vfprintf_r+0x6ea>
    19d4:	9b06      	ldr	r3, [sp, #24]
    19d6:	920f      	str	r2, [sp, #60]	; 0x3c
    19d8:	781b      	ldrb	r3, [r3, #0]
    19da:	f7ff f99d 	bl	d18 <_vfprintf_r+0xe8>
    19de:	4b39      	ldr	r3, [pc, #228]	; (1ac4 <_vfprintf_r+0xe94>)
    19e0:	3401      	adds	r4, #1
    19e2:	603b      	str	r3, [r7, #0]
    19e4:	2301      	movs	r3, #1
    19e6:	607b      	str	r3, [r7, #4]
    19e8:	9b2b      	ldr	r3, [sp, #172]	; 0xac
    19ea:	942c      	str	r4, [sp, #176]	; 0xb0
    19ec:	9308      	str	r3, [sp, #32]
    19ee:	3301      	adds	r3, #1
    19f0:	932b      	str	r3, [sp, #172]	; 0xac
    19f2:	2b07      	cmp	r3, #7
    19f4:	dd01      	ble.n	19fa <_vfprintf_r+0xdca>
    19f6:	f000 fcd1 	bl	239c <_vfprintf_r+0x176c>
    19fa:	3708      	adds	r7, #8
    19fc:	2900      	cmp	r1, #0
    19fe:	d000      	beq.n	1a02 <_vfprintf_r+0xdd2>
    1a00:	e254      	b.n	1eac <_vfprintf_r+0x127c>
    1a02:	4652      	mov	r2, sl
    1a04:	2301      	movs	r3, #1
    1a06:	4013      	ands	r3, r2
    1a08:	9a15      	ldr	r2, [sp, #84]	; 0x54
    1a0a:	4313      	orrs	r3, r2
    1a0c:	d101      	bne.n	1a12 <_vfprintf_r+0xde2>
    1a0e:	f7ff fa65 	bl	edc <_vfprintf_r+0x2ac>
    1a12:	9b1c      	ldr	r3, [sp, #112]	; 0x70
    1a14:	603b      	str	r3, [r7, #0]
    1a16:	9b1b      	ldr	r3, [sp, #108]	; 0x6c
    1a18:	469c      	mov	ip, r3
    1a1a:	607b      	str	r3, [r7, #4]
    1a1c:	9b2b      	ldr	r3, [sp, #172]	; 0xac
    1a1e:	4464      	add	r4, ip
    1a20:	9308      	str	r3, [sp, #32]
    1a22:	3301      	adds	r3, #1
    1a24:	942c      	str	r4, [sp, #176]	; 0xb0
    1a26:	932b      	str	r3, [sp, #172]	; 0xac
    1a28:	2b07      	cmp	r3, #7
    1a2a:	dd00      	ble.n	1a2e <_vfprintf_r+0xdfe>
    1a2c:	e3a7      	b.n	217e <_vfprintf_r+0x154e>
    1a2e:	003a      	movs	r2, r7
    1a30:	3208      	adds	r2, #8
    1a32:	e24e      	b.n	1ed2 <_vfprintf_r+0x12a2>
    1a34:	2130      	movs	r1, #48	; 0x30
    1a36:	3362      	adds	r3, #98	; 0x62
    1a38:	aa3d      	add	r2, sp, #244	; 0xf4
    1a3a:	54d1      	strb	r1, [r2, r3]
    1a3c:	ab1c      	add	r3, sp, #112	; 0x70
    1a3e:	26e7      	movs	r6, #231	; 0xe7
    1a40:	469c      	mov	ip, r3
    1a42:	4466      	add	r6, ip
    1a44:	e431      	b.n	12aa <_vfprintf_r+0x67a>
    1a46:	9b1a      	ldr	r3, [sp, #104]	; 0x68
    1a48:	2b00      	cmp	r3, #0
    1a4a:	d101      	bne.n	1a50 <_vfprintf_r+0xe20>
    1a4c:	f7ff f9a7 	bl	d9e <_vfprintf_r+0x16e>
    1a50:	9b1a      	ldr	r3, [sp, #104]	; 0x68
    1a52:	781b      	ldrb	r3, [r3, #0]
    1a54:	2b00      	cmp	r3, #0
    1a56:	d101      	bne.n	1a5c <_vfprintf_r+0xe2c>
    1a58:	f7ff f9a1 	bl	d9e <_vfprintf_r+0x16e>
    1a5c:	2380      	movs	r3, #128	; 0x80
    1a5e:	00db      	lsls	r3, r3, #3
    1a60:	431c      	orrs	r4, r3
    1a62:	9b06      	ldr	r3, [sp, #24]
    1a64:	781b      	ldrb	r3, [r3, #0]
    1a66:	f7ff f957 	bl	d18 <_vfprintf_r+0xe8>
    1a6a:	9c0f      	ldr	r4, [sp, #60]	; 0x3c
    1a6c:	9a09      	ldr	r2, [sp, #36]	; 0x24
    1a6e:	cc08      	ldmia	r4!, {r3}
    1a70:	9e06      	ldr	r6, [sp, #24]
    1a72:	601a      	str	r2, [r3, #0]
    1a74:	17d2      	asrs	r2, r2, #31
    1a76:	605a      	str	r2, [r3, #4]
    1a78:	940f      	str	r4, [sp, #60]	; 0x3c
    1a7a:	f7ff fa51 	bl	f20 <_vfprintf_r+0x2f0>
    1a7e:	0663      	lsls	r3, r4, #25
    1a80:	d400      	bmi.n	1a84 <_vfprintf_r+0xe54>
    1a82:	e266      	b.n	1f52 <_vfprintf_r+0x1322>
    1a84:	9b0f      	ldr	r3, [sp, #60]	; 0x3c
    1a86:	cb04      	ldmia	r3!, {r2}
    1a88:	b292      	uxth	r2, r2
    1a8a:	e77a      	b.n	1982 <_vfprintf_r+0xd52>
    1a8c:	4653      	mov	r3, sl
    1a8e:	065b      	lsls	r3, r3, #25
    1a90:	d400      	bmi.n	1a94 <_vfprintf_r+0xe64>
    1a92:	e251      	b.n	1f38 <_vfprintf_r+0x1308>
    1a94:	9c0f      	ldr	r4, [sp, #60]	; 0x3c
    1a96:	cc08      	ldmia	r4!, {r3}
    1a98:	b29b      	uxth	r3, r3
    1a9a:	930c      	str	r3, [sp, #48]	; 0x30
    1a9c:	2300      	movs	r3, #0
    1a9e:	940f      	str	r4, [sp, #60]	; 0x3c
    1aa0:	930d      	str	r3, [sp, #52]	; 0x34
    1aa2:	e429      	b.n	12f8 <_vfprintf_r+0x6c8>
    1aa4:	4653      	mov	r3, sl
    1aa6:	065b      	lsls	r3, r3, #25
    1aa8:	d400      	bmi.n	1aac <_vfprintf_r+0xe7c>
    1aaa:	e259      	b.n	1f60 <_vfprintf_r+0x1330>
    1aac:	9c0f      	ldr	r4, [sp, #60]	; 0x3c
    1aae:	cc08      	ldmia	r4!, {r3}
    1ab0:	b21b      	sxth	r3, r3
    1ab2:	930c      	str	r3, [sp, #48]	; 0x30
    1ab4:	17db      	asrs	r3, r3, #31
    1ab6:	930d      	str	r3, [sp, #52]	; 0x34
    1ab8:	940f      	str	r4, [sp, #60]	; 0x3c
    1aba:	e43f      	b.n	133c <_vfprintf_r+0x70c>
    1abc:	0000a14c 	.word	0x0000a14c
    1ac0:	0000a16c 	.word	0x0000a16c
    1ac4:	00009fdc 	.word	0x00009fdc
    1ac8:	9816      	ldr	r0, [sp, #88]	; 0x58
    1aca:	9917      	ldr	r1, [sp, #92]	; 0x5c
    1acc:	0002      	movs	r2, r0
    1ace:	000b      	movs	r3, r1
    1ad0:	f007 ffde 	bl	9a90 <__aeabi_dcmpun>
    1ad4:	2800      	cmp	r0, #0
    1ad6:	d001      	beq.n	1adc <_vfprintf_r+0xeac>
    1ad8:	f000 fe30 	bl	273c <_vfprintf_r+0x1b0c>
    1adc:	9b12      	ldr	r3, [sp, #72]	; 0x48
    1ade:	2b61      	cmp	r3, #97	; 0x61
    1ae0:	d101      	bne.n	1ae6 <_vfprintf_r+0xeb6>
    1ae2:	f000 fdab 	bl	263c <_vfprintf_r+0x1a0c>
    1ae6:	2b41      	cmp	r3, #65	; 0x41
    1ae8:	d100      	bne.n	1aec <_vfprintf_r+0xebc>
    1aea:	e297      	b.n	201c <_vfprintf_r+0x13ec>
    1aec:	9b08      	ldr	r3, [sp, #32]
    1aee:	3301      	adds	r3, #1
    1af0:	d101      	bne.n	1af6 <_vfprintf_r+0xec6>
    1af2:	f000 fdc8 	bl	2686 <_vfprintf_r+0x1a56>
    1af6:	2320      	movs	r3, #32
    1af8:	9a12      	ldr	r2, [sp, #72]	; 0x48
    1afa:	439a      	bics	r2, r3
    1afc:	920b      	str	r2, [sp, #44]	; 0x2c
    1afe:	2a47      	cmp	r2, #71	; 0x47
    1b00:	d101      	bne.n	1b06 <_vfprintf_r+0xed6>
    1b02:	f000 fdab 	bl	265c <_vfprintf_r+0x1a2c>
    1b06:	2380      	movs	r3, #128	; 0x80
    1b08:	4652      	mov	r2, sl
    1b0a:	005b      	lsls	r3, r3, #1
    1b0c:	431a      	orrs	r2, r3
    1b0e:	9218      	str	r2, [sp, #96]	; 0x60
    1b10:	9916      	ldr	r1, [sp, #88]	; 0x58
    1b12:	9a17      	ldr	r2, [sp, #92]	; 0x5c
    1b14:	2a00      	cmp	r2, #0
    1b16:	da01      	bge.n	1b1c <_vfprintf_r+0xeec>
    1b18:	f000 fd5a 	bl	25d0 <_vfprintf_r+0x19a0>
    1b1c:	2300      	movs	r3, #0
    1b1e:	000d      	movs	r5, r1
    1b20:	4691      	mov	r9, r2
    1b22:	9319      	str	r3, [sp, #100]	; 0x64
    1b24:	930e      	str	r3, [sp, #56]	; 0x38
    1b26:	9b0b      	ldr	r3, [sp, #44]	; 0x2c
    1b28:	2b46      	cmp	r3, #70	; 0x46
    1b2a:	d101      	bne.n	1b30 <_vfprintf_r+0xf00>
    1b2c:	f000 fc7a 	bl	2424 <_vfprintf_r+0x17f4>
    1b30:	2b45      	cmp	r3, #69	; 0x45
    1b32:	d101      	bne.n	1b38 <_vfprintf_r+0xf08>
    1b34:	f000 fd67 	bl	2606 <_vfprintf_r+0x19d6>
    1b38:	ab28      	add	r3, sp, #160	; 0xa0
    1b3a:	9304      	str	r3, [sp, #16]
    1b3c:	ab25      	add	r3, sp, #148	; 0x94
    1b3e:	9303      	str	r3, [sp, #12]
    1b40:	ab24      	add	r3, sp, #144	; 0x90
    1b42:	9302      	str	r3, [sp, #8]
    1b44:	9b08      	ldr	r3, [sp, #32]
    1b46:	002a      	movs	r2, r5
    1b48:	9301      	str	r3, [sp, #4]
    1b4a:	2302      	movs	r3, #2
    1b4c:	4658      	mov	r0, fp
    1b4e:	9300      	str	r3, [sp, #0]
    1b50:	464b      	mov	r3, r9
    1b52:	f000 fff3 	bl	2b3c <_dtoa_r>
    1b56:	9b0b      	ldr	r3, [sp, #44]	; 0x2c
    1b58:	0006      	movs	r6, r0
    1b5a:	2b47      	cmp	r3, #71	; 0x47
    1b5c:	d001      	beq.n	1b62 <_vfprintf_r+0xf32>
    1b5e:	f000 fe75 	bl	284c <_vfprintf_r+0x1c1c>
    1b62:	4653      	mov	r3, sl
    1b64:	07db      	lsls	r3, r3, #31
    1b66:	d501      	bpl.n	1b6c <_vfprintf_r+0xf3c>
    1b68:	f000 fd1b 	bl	25a2 <_vfprintf_r+0x1972>
    1b6c:	4652      	mov	r2, sl
    1b6e:	9207      	str	r2, [sp, #28]
    1b70:	9a18      	ldr	r2, [sp, #96]	; 0x60
    1b72:	9b28      	ldr	r3, [sp, #160]	; 0xa0
    1b74:	4692      	mov	sl, r2
    1b76:	1b9b      	subs	r3, r3, r6
    1b78:	9315      	str	r3, [sp, #84]	; 0x54
    1b7a:	9b0b      	ldr	r3, [sp, #44]	; 0x2c
    1b7c:	2b47      	cmp	r3, #71	; 0x47
    1b7e:	d100      	bne.n	1b82 <_vfprintf_r+0xf52>
    1b80:	e31e      	b.n	21c0 <_vfprintf_r+0x1590>
    1b82:	9b0b      	ldr	r3, [sp, #44]	; 0x2c
    1b84:	2b46      	cmp	r3, #70	; 0x46
    1b86:	d101      	bne.n	1b8c <_vfprintf_r+0xf5c>
    1b88:	f000 fc8e 	bl	24a8 <_vfprintf_r+0x1878>
    1b8c:	9b24      	ldr	r3, [sp, #144]	; 0x90
    1b8e:	9314      	str	r3, [sp, #80]	; 0x50
    1b90:	9b14      	ldr	r3, [sp, #80]	; 0x50
    1b92:	1e5c      	subs	r4, r3, #1
    1b94:	9b0b      	ldr	r3, [sp, #44]	; 0x2c
    1b96:	9424      	str	r4, [sp, #144]	; 0x90
    1b98:	2b41      	cmp	r3, #65	; 0x41
    1b9a:	d101      	bne.n	1ba0 <_vfprintf_r+0xf70>
    1b9c:	f000 fdae 	bl	26fc <_vfprintf_r+0x1acc>
    1ba0:	2248      	movs	r2, #72	; 0x48
    1ba2:	466b      	mov	r3, sp
    1ba4:	189b      	adds	r3, r3, r2
    1ba6:	2200      	movs	r2, #0
    1ba8:	781b      	ldrb	r3, [r3, #0]
    1baa:	2028      	movs	r0, #40	; 0x28
    1bac:	a91c      	add	r1, sp, #112	; 0x70
    1bae:	1809      	adds	r1, r1, r0
    1bb0:	700b      	strb	r3, [r1, #0]
    1bb2:	232b      	movs	r3, #43	; 0x2b
    1bb4:	2c00      	cmp	r4, #0
    1bb6:	da03      	bge.n	1bc0 <_vfprintf_r+0xf90>
    1bb8:	2401      	movs	r4, #1
    1bba:	9b14      	ldr	r3, [sp, #80]	; 0x50
    1bbc:	1ae4      	subs	r4, r4, r3
    1bbe:	232d      	movs	r3, #45	; 0x2d
    1bc0:	2029      	movs	r0, #41	; 0x29
    1bc2:	a91c      	add	r1, sp, #112	; 0x70
    1bc4:	1809      	adds	r1, r1, r0
    1bc6:	700b      	strb	r3, [r1, #0]
    1bc8:	2c09      	cmp	r4, #9
    1bca:	dc01      	bgt.n	1bd0 <_vfprintf_r+0xfa0>
    1bcc:	f000 fd80 	bl	26d0 <_vfprintf_r+0x1aa0>
    1bd0:	aa1c      	add	r2, sp, #112	; 0x70
    1bd2:	2337      	movs	r3, #55	; 0x37
    1bd4:	4694      	mov	ip, r2
    1bd6:	4463      	add	r3, ip
    1bd8:	001d      	movs	r5, r3
    1bda:	46ba      	mov	sl, r7
    1bdc:	46b1      	mov	r9, r6
    1bde:	0020      	movs	r0, r4
    1be0:	210a      	movs	r1, #10
    1be2:	f005 fc9f 	bl	7524 <__aeabi_idivmod>
    1be6:	002e      	movs	r6, r5
    1be8:	3130      	adds	r1, #48	; 0x30
    1bea:	3d01      	subs	r5, #1
    1bec:	0020      	movs	r0, r4
    1bee:	7029      	strb	r1, [r5, #0]
    1bf0:	210a      	movs	r1, #10
    1bf2:	f005 fbb1 	bl	7358 <__divsi3>
    1bf6:	0027      	movs	r7, r4
    1bf8:	0004      	movs	r4, r0
    1bfa:	2f63      	cmp	r7, #99	; 0x63
    1bfc:	dcef      	bgt.n	1bde <_vfprintf_r+0xfae>
    1bfe:	464b      	mov	r3, r9
    1c00:	46b1      	mov	r9, r6
    1c02:	0001      	movs	r1, r0
    1c04:	a81c      	add	r0, sp, #112	; 0x70
    1c06:	001e      	movs	r6, r3
    1c08:	2237      	movs	r2, #55	; 0x37
    1c0a:	464b      	mov	r3, r9
    1c0c:	4684      	mov	ip, r0
    1c0e:	3130      	adds	r1, #48	; 0x30
    1c10:	3b02      	subs	r3, #2
    1c12:	b2c9      	uxtb	r1, r1
    1c14:	4462      	add	r2, ip
    1c16:	4657      	mov	r7, sl
    1c18:	7019      	strb	r1, [r3, #0]
    1c1a:	4293      	cmp	r3, r2
    1c1c:	d301      	bcc.n	1c22 <_vfprintf_r+0xff2>
    1c1e:	f000 fe0e 	bl	283e <_vfprintf_r+0x1c0e>
    1c22:	222a      	movs	r2, #42	; 0x2a
    1c24:	4462      	add	r2, ip
    1c26:	e000      	b.n	1c2a <_vfprintf_r+0xffa>
    1c28:	7819      	ldrb	r1, [r3, #0]
    1c2a:	a81c      	add	r0, sp, #112	; 0x70
    1c2c:	7011      	strb	r1, [r2, #0]
    1c2e:	4684      	mov	ip, r0
    1c30:	2137      	movs	r1, #55	; 0x37
    1c32:	3301      	adds	r3, #1
    1c34:	4461      	add	r1, ip
    1c36:	3201      	adds	r2, #1
    1c38:	428b      	cmp	r3, r1
    1c3a:	d1f5      	bne.n	1c28 <_vfprintf_r+0xff8>
    1c3c:	2339      	movs	r3, #57	; 0x39
    1c3e:	464a      	mov	r2, r9
    1c40:	4463      	add	r3, ip
    1c42:	1a9b      	subs	r3, r3, r2
    1c44:	222a      	movs	r2, #42	; 0x2a
    1c46:	4462      	add	r2, ip
    1c48:	4694      	mov	ip, r2
    1c4a:	aa26      	add	r2, sp, #152	; 0x98
    1c4c:	4463      	add	r3, ip
    1c4e:	1a9b      	subs	r3, r3, r2
    1c50:	931e      	str	r3, [sp, #120]	; 0x78
    1c52:	9b15      	ldr	r3, [sp, #84]	; 0x54
    1c54:	991e      	ldr	r1, [sp, #120]	; 0x78
    1c56:	001a      	movs	r2, r3
    1c58:	468c      	mov	ip, r1
    1c5a:	4462      	add	r2, ip
    1c5c:	920b      	str	r2, [sp, #44]	; 0x2c
    1c5e:	2b01      	cmp	r3, #1
    1c60:	dc01      	bgt.n	1c66 <_vfprintf_r+0x1036>
    1c62:	f000 fdaf 	bl	27c4 <_vfprintf_r+0x1b94>
    1c66:	9a1b      	ldr	r2, [sp, #108]	; 0x6c
    1c68:	9b0b      	ldr	r3, [sp, #44]	; 0x2c
    1c6a:	4694      	mov	ip, r2
    1c6c:	4463      	add	r3, ip
    1c6e:	930b      	str	r3, [sp, #44]	; 0x2c
    1c70:	4be4      	ldr	r3, [pc, #912]	; (2004 <_vfprintf_r+0x13d4>)
    1c72:	9a07      	ldr	r2, [sp, #28]
    1c74:	401a      	ands	r2, r3
    1c76:	0013      	movs	r3, r2
    1c78:	2280      	movs	r2, #128	; 0x80
    1c7a:	0052      	lsls	r2, r2, #1
    1c7c:	431a      	orrs	r2, r3
    1c7e:	4692      	mov	sl, r2
    1c80:	9a0b      	ldr	r2, [sp, #44]	; 0x2c
    1c82:	43d3      	mvns	r3, r2
    1c84:	17db      	asrs	r3, r3, #31
    1c86:	401a      	ands	r2, r3
    1c88:	2300      	movs	r3, #0
    1c8a:	9207      	str	r2, [sp, #28]
    1c8c:	9318      	str	r3, [sp, #96]	; 0x60
    1c8e:	9313      	str	r3, [sp, #76]	; 0x4c
    1c90:	9314      	str	r3, [sp, #80]	; 0x50
    1c92:	9b19      	ldr	r3, [sp, #100]	; 0x64
    1c94:	2b00      	cmp	r3, #0
    1c96:	d000      	beq.n	1c9a <_vfprintf_r+0x106a>
    1c98:	e2c0      	b.n	221c <_vfprintf_r+0x15ec>
    1c9a:	2200      	movs	r2, #0
    1c9c:	ab1c      	add	r3, sp, #112	; 0x70
    1c9e:	7edb      	ldrb	r3, [r3, #27]
    1ca0:	9208      	str	r2, [sp, #32]
    1ca2:	f7ff fb0f 	bl	12c4 <_vfprintf_r+0x694>
    1ca6:	4641      	mov	r1, r8
    1ca8:	4658      	mov	r0, fp
    1caa:	aa2a      	add	r2, sp, #168	; 0xa8
    1cac:	f003 fb4a 	bl	5344 <__sprint_r>
    1cb0:	2800      	cmp	r0, #0
    1cb2:	d000      	beq.n	1cb6 <_vfprintf_r+0x1086>
    1cb4:	e4f3      	b.n	169e <_vfprintf_r+0xa6e>
    1cb6:	9c2c      	ldr	r4, [sp, #176]	; 0xb0
    1cb8:	af2d      	add	r7, sp, #180	; 0xb4
    1cba:	f7ff f8f7 	bl	eac <_vfprintf_r+0x27c>
    1cbe:	46a2      	mov	sl, r4
    1cc0:	46ab      	mov	fp, r5
    1cc2:	9312      	str	r3, [sp, #72]	; 0x48
    1cc4:	4bd0      	ldr	r3, [pc, #832]	; (2008 <_vfprintf_r+0x13d8>)
    1cc6:	931d      	str	r3, [sp, #116]	; 0x74
    1cc8:	4653      	mov	r3, sl
    1cca:	069b      	lsls	r3, r3, #26
    1ccc:	d571      	bpl.n	1db2 <_vfprintf_r+0x1182>
    1cce:	2307      	movs	r3, #7
    1cd0:	9c0f      	ldr	r4, [sp, #60]	; 0x3c
    1cd2:	3407      	adds	r4, #7
    1cd4:	439c      	bics	r4, r3
    1cd6:	0022      	movs	r2, r4
    1cd8:	ca18      	ldmia	r2!, {r3, r4}
    1cda:	930c      	str	r3, [sp, #48]	; 0x30
    1cdc:	940d      	str	r4, [sp, #52]	; 0x34
    1cde:	920f      	str	r2, [sp, #60]	; 0x3c
    1ce0:	4653      	mov	r3, sl
    1ce2:	07db      	lsls	r3, r3, #31
    1ce4:	d50d      	bpl.n	1d02 <_vfprintf_r+0x10d2>
    1ce6:	9a0c      	ldr	r2, [sp, #48]	; 0x30
    1ce8:	9b0d      	ldr	r3, [sp, #52]	; 0x34
    1cea:	0011      	movs	r1, r2
    1cec:	4319      	orrs	r1, r3
    1cee:	d008      	beq.n	1d02 <_vfprintf_r+0x10d2>
    1cf0:	2230      	movs	r2, #48	; 0x30
    1cf2:	ab23      	add	r3, sp, #140	; 0x8c
    1cf4:	701a      	strb	r2, [r3, #0]
    1cf6:	9a12      	ldr	r2, [sp, #72]	; 0x48
    1cf8:	705a      	strb	r2, [r3, #1]
    1cfa:	4652      	mov	r2, sl
    1cfc:	2302      	movs	r3, #2
    1cfe:	431a      	orrs	r2, r3
    1d00:	4692      	mov	sl, r2
    1d02:	4653      	mov	r3, sl
    1d04:	4cbf      	ldr	r4, [pc, #764]	; (2004 <_vfprintf_r+0x13d4>)
    1d06:	4023      	ands	r3, r4
    1d08:	001c      	movs	r4, r3
    1d0a:	2302      	movs	r3, #2
    1d0c:	f7ff faae 	bl	126c <_vfprintf_r+0x63c>
    1d10:	46ab      	mov	fp, r5
    1d12:	9312      	str	r3, [sp, #72]	; 0x48
    1d14:	f7ff fa9d 	bl	1252 <_vfprintf_r+0x622>
    1d18:	46a2      	mov	sl, r4
    1d1a:	46ab      	mov	fp, r5
    1d1c:	9312      	str	r3, [sp, #72]	; 0x48
    1d1e:	f7ff fade 	bl	12de <_vfprintf_r+0x6ae>
    1d22:	9312      	str	r3, [sp, #72]	; 0x48
    1d24:	4bb9      	ldr	r3, [pc, #740]	; (200c <_vfprintf_r+0x13dc>)
    1d26:	46a2      	mov	sl, r4
    1d28:	46ab      	mov	fp, r5
    1d2a:	931d      	str	r3, [sp, #116]	; 0x74
    1d2c:	e7cc      	b.n	1cc8 <_vfprintf_r+0x1098>
    1d2e:	3b4c      	subs	r3, #76	; 0x4c
    1d30:	9a06      	ldr	r2, [sp, #24]
    1d32:	431c      	orrs	r4, r3
    1d34:	3201      	adds	r2, #1
    1d36:	7813      	ldrb	r3, [r2, #0]
    1d38:	9206      	str	r2, [sp, #24]
    1d3a:	f7fe ffed 	bl	d18 <_vfprintf_r+0xe8>
    1d3e:	3399      	adds	r3, #153	; 0x99
    1d40:	33ff      	adds	r3, #255	; 0xff
    1d42:	e7f5      	b.n	1d30 <_vfprintf_r+0x1100>
    1d44:	4641      	mov	r1, r8
    1d46:	4658      	mov	r0, fp
    1d48:	aa2a      	add	r2, sp, #168	; 0xa8
    1d4a:	f003 fafb 	bl	5344 <__sprint_r>
    1d4e:	2800      	cmp	r0, #0
    1d50:	d000      	beq.n	1d54 <_vfprintf_r+0x1124>
    1d52:	e4a4      	b.n	169e <_vfprintf_r+0xa6e>
    1d54:	9c2c      	ldr	r4, [sp, #176]	; 0xb0
    1d56:	af2d      	add	r7, sp, #180	; 0xb4
    1d58:	f7ff fbf2 	bl	1540 <_vfprintf_r+0x910>
    1d5c:	9b08      	ldr	r3, [sp, #32]
    1d5e:	9307      	str	r3, [sp, #28]
    1d60:	2b06      	cmp	r3, #6
    1d62:	d900      	bls.n	1d66 <_vfprintf_r+0x1136>
    1d64:	e138      	b.n	1fd8 <_vfprintf_r+0x13a8>
    1d66:	2300      	movs	r3, #0
    1d68:	2200      	movs	r2, #0
    1d6a:	930e      	str	r3, [sp, #56]	; 0x38
    1d6c:	9b07      	ldr	r3, [sp, #28]
    1d6e:	4ea8      	ldr	r6, [pc, #672]	; (2010 <_vfprintf_r+0x13e0>)
    1d70:	930b      	str	r3, [sp, #44]	; 0x2c
    1d72:	940f      	str	r4, [sp, #60]	; 0x3c
    1d74:	2300      	movs	r3, #0
    1d76:	9208      	str	r2, [sp, #32]
    1d78:	9218      	str	r2, [sp, #96]	; 0x60
    1d7a:	9213      	str	r2, [sp, #76]	; 0x4c
    1d7c:	9214      	str	r2, [sp, #80]	; 0x50
    1d7e:	f7ff f853 	bl	e28 <_vfprintf_r+0x1f8>
    1d82:	9b1f      	ldr	r3, [sp, #124]	; 0x7c
    1d84:	9920      	ldr	r1, [sp, #128]	; 0x80
    1d86:	1af6      	subs	r6, r6, r3
    1d88:	001a      	movs	r2, r3
    1d8a:	0030      	movs	r0, r6
    1d8c:	f003 fa60 	bl	5250 <strncpy>
    1d90:	991a      	ldr	r1, [sp, #104]	; 0x68
    1d92:	0020      	movs	r0, r4
    1d94:	784b      	ldrb	r3, [r1, #1]
    1d96:	468c      	mov	ip, r1
    1d98:	1e5a      	subs	r2, r3, #1
    1d9a:	4193      	sbcs	r3, r2
    1d9c:	449c      	add	ip, r3
    1d9e:	4663      	mov	r3, ip
    1da0:	220a      	movs	r2, #10
    1da2:	931a      	str	r3, [sp, #104]	; 0x68
    1da4:	0029      	movs	r1, r5
    1da6:	2300      	movs	r3, #0
    1da8:	f005 fc00 	bl	75ac <__aeabi_uldivmod>
    1dac:	2700      	movs	r7, #0
    1dae:	f7ff fb6f 	bl	1490 <_vfprintf_r+0x860>
    1db2:	4653      	mov	r3, sl
    1db4:	06db      	lsls	r3, r3, #27
    1db6:	d531      	bpl.n	1e1c <_vfprintf_r+0x11ec>
    1db8:	9c0f      	ldr	r4, [sp, #60]	; 0x3c
    1dba:	cc08      	ldmia	r4!, {r3}
    1dbc:	930c      	str	r3, [sp, #48]	; 0x30
    1dbe:	2300      	movs	r3, #0
    1dc0:	940f      	str	r4, [sp, #60]	; 0x3c
    1dc2:	930d      	str	r3, [sp, #52]	; 0x34
    1dc4:	e78c      	b.n	1ce0 <_vfprintf_r+0x10b0>
    1dc6:	4641      	mov	r1, r8
    1dc8:	4658      	mov	r0, fp
    1dca:	aa2a      	add	r2, sp, #168	; 0xa8
    1dcc:	f003 faba 	bl	5344 <__sprint_r>
    1dd0:	2800      	cmp	r0, #0
    1dd2:	d000      	beq.n	1dd6 <_vfprintf_r+0x11a6>
    1dd4:	e463      	b.n	169e <_vfprintf_r+0xa6e>
    1dd6:	9c2c      	ldr	r4, [sp, #176]	; 0xb0
    1dd8:	9d2b      	ldr	r5, [sp, #172]	; 0xac
    1dda:	af2d      	add	r7, sp, #180	; 0xb4
    1ddc:	f7ff f961 	bl	10a2 <_vfprintf_r+0x472>
    1de0:	4641      	mov	r1, r8
    1de2:	4658      	mov	r0, fp
    1de4:	aa2a      	add	r2, sp, #168	; 0xa8
    1de6:	f003 faad 	bl	5344 <__sprint_r>
    1dea:	2800      	cmp	r0, #0
    1dec:	d000      	beq.n	1df0 <_vfprintf_r+0x11c0>
    1dee:	e456      	b.n	169e <_vfprintf_r+0xa6e>
    1df0:	9c2c      	ldr	r4, [sp, #176]	; 0xb0
    1df2:	9d2b      	ldr	r5, [sp, #172]	; 0xac
    1df4:	af2d      	add	r7, sp, #180	; 0xb4
    1df6:	f7ff f962 	bl	10be <_vfprintf_r+0x48e>
    1dfa:	4641      	mov	r1, r8
    1dfc:	4658      	mov	r0, fp
    1dfe:	aa2a      	add	r2, sp, #168	; 0xa8
    1e00:	f003 faa0 	bl	5344 <__sprint_r>
    1e04:	2800      	cmp	r0, #0
    1e06:	d000      	beq.n	1e0a <_vfprintf_r+0x11da>
    1e08:	e449      	b.n	169e <_vfprintf_r+0xa6e>
    1e0a:	ab1c      	add	r3, sp, #112	; 0x70
    1e0c:	7edb      	ldrb	r3, [r3, #27]
    1e0e:	9c2c      	ldr	r4, [sp, #176]	; 0xb0
    1e10:	af2d      	add	r7, sp, #180	; 0xb4
    1e12:	f7ff f821 	bl	e58 <_vfprintf_r+0x228>
    1e16:	46b3      	mov	fp, r6
    1e18:	46b9      	mov	r9, r7
    1e1a:	e441      	b.n	16a0 <_vfprintf_r+0xa70>
    1e1c:	4653      	mov	r3, sl
    1e1e:	065b      	lsls	r3, r3, #25
    1e20:	d400      	bmi.n	1e24 <_vfprintf_r+0x11f4>
    1e22:	e0aa      	b.n	1f7a <_vfprintf_r+0x134a>
    1e24:	9c0f      	ldr	r4, [sp, #60]	; 0x3c
    1e26:	cc08      	ldmia	r4!, {r3}
    1e28:	b29b      	uxth	r3, r3
    1e2a:	930c      	str	r3, [sp, #48]	; 0x30
    1e2c:	2300      	movs	r3, #0
    1e2e:	940f      	str	r4, [sp, #60]	; 0x3c
    1e30:	930d      	str	r3, [sp, #52]	; 0x34
    1e32:	e755      	b.n	1ce0 <_vfprintf_r+0x10b0>
    1e34:	4641      	mov	r1, r8
    1e36:	4658      	mov	r0, fp
    1e38:	aa2a      	add	r2, sp, #168	; 0xa8
    1e3a:	f003 fa83 	bl	5344 <__sprint_r>
    1e3e:	2800      	cmp	r0, #0
    1e40:	d000      	beq.n	1e44 <_vfprintf_r+0x1214>
    1e42:	e42c      	b.n	169e <_vfprintf_r+0xa6e>
    1e44:	9c2c      	ldr	r4, [sp, #176]	; 0xb0
    1e46:	af2d      	add	r7, sp, #180	; 0xb4
    1e48:	f7ff fb65 	bl	1516 <_vfprintf_r+0x8e6>
    1e4c:	46a1      	mov	r9, r4
    1e4e:	0014      	movs	r4, r2
    1e50:	464a      	mov	r2, r9
    1e52:	1964      	adds	r4, r4, r5
    1e54:	3301      	adds	r3, #1
    1e56:	603a      	str	r2, [r7, #0]
    1e58:	607d      	str	r5, [r7, #4]
    1e5a:	942c      	str	r4, [sp, #176]	; 0xb0
    1e5c:	932b      	str	r3, [sp, #172]	; 0xac
    1e5e:	2b07      	cmp	r3, #7
    1e60:	dc01      	bgt.n	1e66 <_vfprintf_r+0x1236>
    1e62:	f7ff f83a 	bl	eda <_vfprintf_r+0x2aa>
    1e66:	f7ff f94e 	bl	1106 <_vfprintf_r+0x4d6>
    1e6a:	4654      	mov	r4, sl
    1e6c:	2b01      	cmp	r3, #1
    1e6e:	d001      	beq.n	1e74 <_vfprintf_r+0x1244>
    1e70:	f7ff facc 	bl	140c <_vfprintf_r+0x7dc>
    1e74:	f7ff fa7f 	bl	1376 <_vfprintf_r+0x746>
    1e78:	9c0f      	ldr	r4, [sp, #60]	; 0x3c
    1e7a:	9a09      	ldr	r2, [sp, #36]	; 0x24
    1e7c:	cc08      	ldmia	r4!, {r3}
    1e7e:	601a      	str	r2, [r3, #0]
    1e80:	9e06      	ldr	r6, [sp, #24]
    1e82:	940f      	str	r4, [sp, #60]	; 0x3c
    1e84:	f7ff f84c 	bl	f20 <_vfprintf_r+0x2f0>
    1e88:	0030      	movs	r0, r6
    1e8a:	f003 f9b3 	bl	51f4 <strlen>
    1e8e:	0001      	movs	r1, r0
    1e90:	f7ff f969 	bl	1166 <_vfprintf_r+0x536>
    1e94:	464b      	mov	r3, r9
    1e96:	19a4      	adds	r4, r4, r6
    1e98:	3501      	adds	r5, #1
    1e9a:	603b      	str	r3, [r7, #0]
    1e9c:	607e      	str	r6, [r7, #4]
    1e9e:	942c      	str	r4, [sp, #176]	; 0xb0
    1ea0:	952b      	str	r5, [sp, #172]	; 0xac
    1ea2:	2d07      	cmp	r5, #7
    1ea4:	dc01      	bgt.n	1eaa <_vfprintf_r+0x127a>
    1ea6:	f7ff f921 	bl	10ec <_vfprintf_r+0x4bc>
    1eaa:	e51b      	b.n	18e4 <_vfprintf_r+0xcb4>
    1eac:	9b1c      	ldr	r3, [sp, #112]	; 0x70
    1eae:	603b      	str	r3, [r7, #0]
    1eb0:	9b1b      	ldr	r3, [sp, #108]	; 0x6c
    1eb2:	469c      	mov	ip, r3
    1eb4:	607b      	str	r3, [r7, #4]
    1eb6:	9b2b      	ldr	r3, [sp, #172]	; 0xac
    1eb8:	4464      	add	r4, ip
    1eba:	9308      	str	r3, [sp, #32]
    1ebc:	3301      	adds	r3, #1
    1ebe:	942c      	str	r4, [sp, #176]	; 0xb0
    1ec0:	932b      	str	r3, [sp, #172]	; 0xac
    1ec2:	2b07      	cmp	r3, #7
    1ec4:	dd00      	ble.n	1ec8 <_vfprintf_r+0x1298>
    1ec6:	e15a      	b.n	217e <_vfprintf_r+0x154e>
    1ec8:	003a      	movs	r2, r7
    1eca:	3208      	adds	r2, #8
    1ecc:	2900      	cmp	r1, #0
    1ece:	da00      	bge.n	1ed2 <_vfprintf_r+0x12a2>
    1ed0:	e341      	b.n	2556 <_vfprintf_r+0x1926>
    1ed2:	9915      	ldr	r1, [sp, #84]	; 0x54
    1ed4:	3301      	adds	r3, #1
    1ed6:	468c      	mov	ip, r1
    1ed8:	4464      	add	r4, ip
    1eda:	6016      	str	r6, [r2, #0]
    1edc:	6051      	str	r1, [r2, #4]
    1ede:	942c      	str	r4, [sp, #176]	; 0xb0
    1ee0:	932b      	str	r3, [sp, #172]	; 0xac
    1ee2:	2b07      	cmp	r3, #7
    1ee4:	dd01      	ble.n	1eea <_vfprintf_r+0x12ba>
    1ee6:	f7ff f90e 	bl	1106 <_vfprintf_r+0x4d6>
    1eea:	3208      	adds	r2, #8
    1eec:	0017      	movs	r7, r2
    1eee:	f7fe fff5 	bl	edc <_vfprintf_r+0x2ac>
    1ef2:	4a48      	ldr	r2, [pc, #288]	; (2014 <_vfprintf_r+0x13e4>)
    1ef4:	9b2b      	ldr	r3, [sp, #172]	; 0xac
    1ef6:	4691      	mov	r9, r2
    1ef8:	2d10      	cmp	r5, #16
    1efa:	dd51      	ble.n	1fa0 <_vfprintf_r+0x1370>
    1efc:	0022      	movs	r2, r4
    1efe:	464c      	mov	r4, r9
    1f00:	46b1      	mov	r9, r6
    1f02:	465e      	mov	r6, fp
    1f04:	e003      	b.n	1f0e <_vfprintf_r+0x12de>
    1f06:	3708      	adds	r7, #8
    1f08:	3d10      	subs	r5, #16
    1f0a:	2d10      	cmp	r5, #16
    1f0c:	dd44      	ble.n	1f98 <_vfprintf_r+0x1368>
    1f0e:	2110      	movs	r1, #16
    1f10:	3210      	adds	r2, #16
    1f12:	3301      	adds	r3, #1
    1f14:	603c      	str	r4, [r7, #0]
    1f16:	6079      	str	r1, [r7, #4]
    1f18:	922c      	str	r2, [sp, #176]	; 0xb0
    1f1a:	932b      	str	r3, [sp, #172]	; 0xac
    1f1c:	2b07      	cmp	r3, #7
    1f1e:	ddf2      	ble.n	1f06 <_vfprintf_r+0x12d6>
    1f20:	4641      	mov	r1, r8
    1f22:	0030      	movs	r0, r6
    1f24:	aa2a      	add	r2, sp, #168	; 0xa8
    1f26:	f003 fa0d 	bl	5344 <__sprint_r>
    1f2a:	2800      	cmp	r0, #0
    1f2c:	d000      	beq.n	1f30 <_vfprintf_r+0x1300>
    1f2e:	e440      	b.n	17b2 <_vfprintf_r+0xb82>
    1f30:	9a2c      	ldr	r2, [sp, #176]	; 0xb0
    1f32:	9b2b      	ldr	r3, [sp, #172]	; 0xac
    1f34:	af2d      	add	r7, sp, #180	; 0xb4
    1f36:	e7e7      	b.n	1f08 <_vfprintf_r+0x12d8>
    1f38:	4653      	mov	r3, sl
    1f3a:	9c0f      	ldr	r4, [sp, #60]	; 0x3c
    1f3c:	059b      	lsls	r3, r3, #22
    1f3e:	d400      	bmi.n	1f42 <_vfprintf_r+0x1312>
    1f40:	e514      	b.n	196c <_vfprintf_r+0xd3c>
    1f42:	cc08      	ldmia	r4!, {r3}
    1f44:	b2db      	uxtb	r3, r3
    1f46:	930c      	str	r3, [sp, #48]	; 0x30
    1f48:	2300      	movs	r3, #0
    1f4a:	940f      	str	r4, [sp, #60]	; 0x3c
    1f4c:	930d      	str	r3, [sp, #52]	; 0x34
    1f4e:	f7ff f9d3 	bl	12f8 <_vfprintf_r+0x6c8>
    1f52:	05a3      	lsls	r3, r4, #22
    1f54:	d400      	bmi.n	1f58 <_vfprintf_r+0x1328>
    1f56:	e512      	b.n	197e <_vfprintf_r+0xd4e>
    1f58:	9b0f      	ldr	r3, [sp, #60]	; 0x3c
    1f5a:	cb04      	ldmia	r3!, {r2}
    1f5c:	b2d2      	uxtb	r2, r2
    1f5e:	e510      	b.n	1982 <_vfprintf_r+0xd52>
    1f60:	4653      	mov	r3, sl
    1f62:	9c0f      	ldr	r4, [sp, #60]	; 0x3c
    1f64:	059b      	lsls	r3, r3, #22
    1f66:	d400      	bmi.n	1f6a <_vfprintf_r+0x133a>
    1f68:	e516      	b.n	1998 <_vfprintf_r+0xd68>
    1f6a:	cc08      	ldmia	r4!, {r3}
    1f6c:	b25b      	sxtb	r3, r3
    1f6e:	930c      	str	r3, [sp, #48]	; 0x30
    1f70:	17db      	asrs	r3, r3, #31
    1f72:	930d      	str	r3, [sp, #52]	; 0x34
    1f74:	940f      	str	r4, [sp, #60]	; 0x3c
    1f76:	f7ff f9e1 	bl	133c <_vfprintf_r+0x70c>
    1f7a:	4653      	mov	r3, sl
    1f7c:	9c0f      	ldr	r4, [sp, #60]	; 0x3c
    1f7e:	059b      	lsls	r3, r3, #22
    1f80:	d400      	bmi.n	1f84 <_vfprintf_r+0x1354>
    1f82:	e71a      	b.n	1dba <_vfprintf_r+0x118a>
    1f84:	cc08      	ldmia	r4!, {r3}
    1f86:	b2db      	uxtb	r3, r3
    1f88:	930c      	str	r3, [sp, #48]	; 0x30
    1f8a:	2300      	movs	r3, #0
    1f8c:	940f      	str	r4, [sp, #60]	; 0x3c
    1f8e:	930d      	str	r3, [sp, #52]	; 0x34
    1f90:	e6a6      	b.n	1ce0 <_vfprintf_r+0x10b0>
    1f92:	4e21      	ldr	r6, [pc, #132]	; (2018 <_vfprintf_r+0x13e8>)
    1f94:	f7ff f81d 	bl	fd2 <_vfprintf_r+0x3a2>
    1f98:	46b3      	mov	fp, r6
    1f9a:	464e      	mov	r6, r9
    1f9c:	46a1      	mov	r9, r4
    1f9e:	0014      	movs	r4, r2
    1fa0:	464a      	mov	r2, r9
    1fa2:	1964      	adds	r4, r4, r5
    1fa4:	3301      	adds	r3, #1
    1fa6:	603a      	str	r2, [r7, #0]
    1fa8:	607d      	str	r5, [r7, #4]
    1faa:	942c      	str	r4, [sp, #176]	; 0xb0
    1fac:	932b      	str	r3, [sp, #172]	; 0xac
    1fae:	2b07      	cmp	r3, #7
    1fb0:	dd00      	ble.n	1fb4 <_vfprintf_r+0x1384>
    1fb2:	e0f8      	b.n	21a6 <_vfprintf_r+0x1576>
    1fb4:	3708      	adds	r7, #8
    1fb6:	e420      	b.n	17fa <_vfprintf_r+0xbca>
    1fb8:	232d      	movs	r3, #45	; 0x2d
    1fba:	aa1c      	add	r2, sp, #112	; 0x70
    1fbc:	76d3      	strb	r3, [r2, #27]
    1fbe:	f7ff f802 	bl	fc6 <_vfprintf_r+0x396>
    1fc2:	4641      	mov	r1, r8
    1fc4:	4658      	mov	r0, fp
    1fc6:	aa2a      	add	r2, sp, #168	; 0xa8
    1fc8:	f003 f9bc 	bl	5344 <__sprint_r>
    1fcc:	2800      	cmp	r0, #0
    1fce:	d101      	bne.n	1fd4 <_vfprintf_r+0x13a4>
    1fd0:	f7fe ffb1 	bl	f36 <_vfprintf_r+0x306>
    1fd4:	f7ff fb6a 	bl	16ac <_vfprintf_r+0xa7c>
    1fd8:	2306      	movs	r3, #6
    1fda:	9307      	str	r3, [sp, #28]
    1fdc:	e6c3      	b.n	1d66 <_vfprintf_r+0x1136>
    1fde:	9a15      	ldr	r2, [sp, #84]	; 0x54
    1fe0:	4694      	mov	ip, r2
    1fe2:	4466      	add	r6, ip
    1fe4:	1ad3      	subs	r3, r2, r3
    1fe6:	1b76      	subs	r6, r6, r5
    1fe8:	429e      	cmp	r6, r3
    1fea:	dc00      	bgt.n	1fee <_vfprintf_r+0x13be>
    1fec:	e43e      	b.n	186c <_vfprintf_r+0xc3c>
    1fee:	001e      	movs	r6, r3
    1ff0:	e43c      	b.n	186c <_vfprintf_r+0xc3c>
    1ff2:	9c0f      	ldr	r4, [sp, #60]	; 0x3c
    1ff4:	9a09      	ldr	r2, [sp, #36]	; 0x24
    1ff6:	cc08      	ldmia	r4!, {r3}
    1ff8:	9e06      	ldr	r6, [sp, #24]
    1ffa:	801a      	strh	r2, [r3, #0]
    1ffc:	940f      	str	r4, [sp, #60]	; 0x3c
    1ffe:	f7fe ff8f 	bl	f20 <_vfprintf_r+0x2f0>
    2002:	46c0      	nop			; (mov r8, r8)
    2004:	fffffbff 	.word	0xfffffbff
    2008:	00009fac 	.word	0x00009fac
    200c:	00009fc0 	.word	0x00009fc0
    2010:	00009fd4 	.word	0x00009fd4
    2014:	0000a16c 	.word	0x0000a16c
    2018:	00009f9c 	.word	0x00009f9c
    201c:	2230      	movs	r2, #48	; 0x30
    201e:	ab23      	add	r3, sp, #140	; 0x8c
    2020:	701a      	strb	r2, [r3, #0]
    2022:	3228      	adds	r2, #40	; 0x28
    2024:	2402      	movs	r4, #2
    2026:	705a      	strb	r2, [r3, #1]
    2028:	4653      	mov	r3, sl
    202a:	431c      	orrs	r4, r3
    202c:	9b08      	ldr	r3, [sp, #32]
    202e:	2b63      	cmp	r3, #99	; 0x63
    2030:	dd00      	ble.n	2034 <_vfprintf_r+0x1404>
    2032:	e2fa      	b.n	262a <_vfprintf_r+0x19fa>
    2034:	2300      	movs	r3, #0
    2036:	ae3d      	add	r6, sp, #244	; 0xf4
    2038:	930e      	str	r3, [sp, #56]	; 0x38
    203a:	2381      	movs	r3, #129	; 0x81
    203c:	9816      	ldr	r0, [sp, #88]	; 0x58
    203e:	9917      	ldr	r1, [sp, #92]	; 0x5c
    2040:	4652      	mov	r2, sl
    2042:	005b      	lsls	r3, r3, #1
    2044:	431a      	orrs	r2, r3
    2046:	9218      	str	r2, [sp, #96]	; 0x60
    2048:	2900      	cmp	r1, #0
    204a:	da00      	bge.n	204e <_vfprintf_r+0x141e>
    204c:	e24d      	b.n	24ea <_vfprintf_r+0x18ba>
    204e:	2220      	movs	r2, #32
    2050:	9d12      	ldr	r5, [sp, #72]	; 0x48
    2052:	2300      	movs	r3, #0
    2054:	4395      	bics	r5, r2
    2056:	950b      	str	r5, [sp, #44]	; 0x2c
    2058:	46a2      	mov	sl, r4
    205a:	0005      	movs	r5, r0
    205c:	4689      	mov	r9, r1
    205e:	9319      	str	r3, [sp, #100]	; 0x64
    2060:	9b12      	ldr	r3, [sp, #72]	; 0x48
    2062:	2b61      	cmp	r3, #97	; 0x61
    2064:	d100      	bne.n	2068 <_vfprintf_r+0x1438>
    2066:	e34f      	b.n	2708 <_vfprintf_r+0x1ad8>
    2068:	2b41      	cmp	r3, #65	; 0x41
    206a:	d000      	beq.n	206e <_vfprintf_r+0x143e>
    206c:	e55b      	b.n	1b26 <_vfprintf_r+0xef6>
    206e:	0028      	movs	r0, r5
    2070:	aa24      	add	r2, sp, #144	; 0x90
    2072:	4649      	mov	r1, r9
    2074:	f003 f83a 	bl	50ec <frexp>
    2078:	23ff      	movs	r3, #255	; 0xff
    207a:	2200      	movs	r2, #0
    207c:	059b      	lsls	r3, r3, #22
    207e:	f006 ff09 	bl	8e94 <__aeabi_dmul>
    2082:	2200      	movs	r2, #0
    2084:	2300      	movs	r3, #0
    2086:	0004      	movs	r4, r0
    2088:	000d      	movs	r5, r1
    208a:	f005 fa61 	bl	7550 <__aeabi_dcmpeq>
    208e:	2800      	cmp	r0, #0
    2090:	d001      	beq.n	2096 <_vfprintf_r+0x1466>
    2092:	2301      	movs	r3, #1
    2094:	9324      	str	r3, [sp, #144]	; 0x90
    2096:	4bdf      	ldr	r3, [pc, #892]	; (2414 <_vfprintf_r+0x17e4>)
    2098:	9307      	str	r3, [sp, #28]
    209a:	9b08      	ldr	r3, [sp, #32]
    209c:	46b1      	mov	r9, r6
    209e:	469c      	mov	ip, r3
    20a0:	44b4      	add	ip, r6
    20a2:	4663      	mov	r3, ip
    20a4:	9313      	str	r3, [sp, #76]	; 0x4c
    20a6:	3b01      	subs	r3, #1
    20a8:	9314      	str	r3, [sp, #80]	; 0x50
    20aa:	4653      	mov	r3, sl
    20ac:	9721      	str	r7, [sp, #132]	; 0x84
    20ae:	46c2      	mov	sl, r8
    20b0:	9315      	str	r3, [sp, #84]	; 0x54
    20b2:	e006      	b.n	20c2 <_vfprintf_r+0x1492>
    20b4:	2200      	movs	r2, #0
    20b6:	2300      	movs	r3, #0
    20b8:	f005 fa4a 	bl	7550 <__aeabi_dcmpeq>
    20bc:	2800      	cmp	r0, #0
    20be:	d000      	beq.n	20c2 <_vfprintf_r+0x1492>
    20c0:	e2c1      	b.n	2646 <_vfprintf_r+0x1a16>
    20c2:	2200      	movs	r2, #0
    20c4:	4bd4      	ldr	r3, [pc, #848]	; (2418 <_vfprintf_r+0x17e8>)
    20c6:	0020      	movs	r0, r4
    20c8:	0029      	movs	r1, r5
    20ca:	f006 fee3 	bl	8e94 <__aeabi_dmul>
    20ce:	000d      	movs	r5, r1
    20d0:	0004      	movs	r4, r0
    20d2:	f007 fcfb 	bl	9acc <__aeabi_d2iz>
    20d6:	0007      	movs	r7, r0
    20d8:	f007 fd2e 	bl	9b38 <__aeabi_i2d>
    20dc:	46b0      	mov	r8, r6
    20de:	0002      	movs	r2, r0
    20e0:	000b      	movs	r3, r1
    20e2:	0020      	movs	r0, r4
    20e4:	0029      	movs	r1, r5
    20e6:	f007 f941 	bl	936c <__aeabi_dsub>
    20ea:	4642      	mov	r2, r8
    20ec:	9b07      	ldr	r3, [sp, #28]
    20ee:	3601      	adds	r6, #1
    20f0:	5ddb      	ldrb	r3, [r3, r7]
    20f2:	0004      	movs	r4, r0
    20f4:	7013      	strb	r3, [r2, #0]
    20f6:	9b14      	ldr	r3, [sp, #80]	; 0x50
    20f8:	000d      	movs	r5, r1
    20fa:	1a9b      	subs	r3, r3, r2
    20fc:	9310      	str	r3, [sp, #64]	; 0x40
    20fe:	9b13      	ldr	r3, [sp, #76]	; 0x4c
    2100:	9611      	str	r6, [sp, #68]	; 0x44
    2102:	4543      	cmp	r3, r8
    2104:	d1d6      	bne.n	20b4 <_vfprintf_r+0x1484>
    2106:	9b15      	ldr	r3, [sp, #84]	; 0x54
    2108:	46d0      	mov	r8, sl
    210a:	469a      	mov	sl, r3
    210c:	464b      	mov	r3, r9
    210e:	46b1      	mov	r9, r6
    2110:	001e      	movs	r6, r3
    2112:	2301      	movs	r3, #1
    2114:	9713      	str	r7, [sp, #76]	; 0x4c
    2116:	425b      	negs	r3, r3
    2118:	9f21      	ldr	r7, [sp, #132]	; 0x84
    211a:	9214      	str	r2, [sp, #80]	; 0x50
    211c:	9310      	str	r3, [sp, #64]	; 0x40
    211e:	2200      	movs	r2, #0
    2120:	0020      	movs	r0, r4
    2122:	0029      	movs	r1, r5
    2124:	4bbd      	ldr	r3, [pc, #756]	; (241c <_vfprintf_r+0x17ec>)
    2126:	f005 fa2d 	bl	7584 <__aeabi_dcmpgt>
    212a:	2800      	cmp	r0, #0
    212c:	d000      	beq.n	2130 <_vfprintf_r+0x1500>
    212e:	e252      	b.n	25d6 <_vfprintf_r+0x19a6>
    2130:	2200      	movs	r2, #0
    2132:	0020      	movs	r0, r4
    2134:	0029      	movs	r1, r5
    2136:	4bb9      	ldr	r3, [pc, #740]	; (241c <_vfprintf_r+0x17ec>)
    2138:	f005 fa0a 	bl	7550 <__aeabi_dcmpeq>
    213c:	2800      	cmp	r0, #0
    213e:	d003      	beq.n	2148 <_vfprintf_r+0x1518>
    2140:	9b13      	ldr	r3, [sp, #76]	; 0x4c
    2142:	07db      	lsls	r3, r3, #31
    2144:	d500      	bpl.n	2148 <_vfprintf_r+0x1518>
    2146:	e246      	b.n	25d6 <_vfprintf_r+0x19a6>
    2148:	9b10      	ldr	r3, [sp, #64]	; 0x40
    214a:	2230      	movs	r2, #48	; 0x30
    214c:	0019      	movs	r1, r3
    214e:	4449      	add	r1, r9
    2150:	2b00      	cmp	r3, #0
    2152:	db0c      	blt.n	216e <_vfprintf_r+0x153e>
    2154:	464b      	mov	r3, r9
    2156:	0018      	movs	r0, r3
    2158:	701a      	strb	r2, [r3, #0]
    215a:	3301      	adds	r3, #1
    215c:	4281      	cmp	r1, r0
    215e:	d1fa      	bne.n	2156 <_vfprintf_r+0x1526>
    2160:	9a11      	ldr	r2, [sp, #68]	; 0x44
    2162:	9b10      	ldr	r3, [sp, #64]	; 0x40
    2164:	4694      	mov	ip, r2
    2166:	3301      	adds	r3, #1
    2168:	449c      	add	ip, r3
    216a:	4663      	mov	r3, ip
    216c:	9311      	str	r3, [sp, #68]	; 0x44
    216e:	9b11      	ldr	r3, [sp, #68]	; 0x44
    2170:	1b9b      	subs	r3, r3, r6
    2172:	9315      	str	r3, [sp, #84]	; 0x54
    2174:	4653      	mov	r3, sl
    2176:	9307      	str	r3, [sp, #28]
    2178:	9b18      	ldr	r3, [sp, #96]	; 0x60
    217a:	469a      	mov	sl, r3
    217c:	e4fd      	b.n	1b7a <_vfprintf_r+0xf4a>
    217e:	4641      	mov	r1, r8
    2180:	4658      	mov	r0, fp
    2182:	aa2a      	add	r2, sp, #168	; 0xa8
    2184:	f003 f8de 	bl	5344 <__sprint_r>
    2188:	2800      	cmp	r0, #0
    218a:	d001      	beq.n	2190 <_vfprintf_r+0x1560>
    218c:	f7ff fa87 	bl	169e <_vfprintf_r+0xa6e>
    2190:	9924      	ldr	r1, [sp, #144]	; 0x90
    2192:	9c2c      	ldr	r4, [sp, #176]	; 0xb0
    2194:	9b2b      	ldr	r3, [sp, #172]	; 0xac
    2196:	aa2d      	add	r2, sp, #180	; 0xb4
    2198:	e698      	b.n	1ecc <_vfprintf_r+0x129c>
    219a:	464b      	mov	r3, r9
    219c:	6d98      	ldr	r0, [r3, #88]	; 0x58
    219e:	f002 f8d1 	bl	4344 <__retarget_lock_release_recursive>
    21a2:	f7fe fddf 	bl	d64 <_vfprintf_r+0x134>
    21a6:	4641      	mov	r1, r8
    21a8:	4658      	mov	r0, fp
    21aa:	aa2a      	add	r2, sp, #168	; 0xa8
    21ac:	f003 f8ca 	bl	5344 <__sprint_r>
    21b0:	2800      	cmp	r0, #0
    21b2:	d001      	beq.n	21b8 <_vfprintf_r+0x1588>
    21b4:	f7ff fa73 	bl	169e <_vfprintf_r+0xa6e>
    21b8:	9c2c      	ldr	r4, [sp, #176]	; 0xb0
    21ba:	af2d      	add	r7, sp, #180	; 0xb4
    21bc:	f7ff fb1d 	bl	17fa <_vfprintf_r+0xbca>
    21c0:	9b24      	ldr	r3, [sp, #144]	; 0x90
    21c2:	9314      	str	r3, [sp, #80]	; 0x50
    21c4:	1cda      	adds	r2, r3, #3
    21c6:	db02      	blt.n	21ce <_vfprintf_r+0x159e>
    21c8:	9a08      	ldr	r2, [sp, #32]
    21ca:	4293      	cmp	r3, r2
    21cc:	dd07      	ble.n	21de <_vfprintf_r+0x15ae>
    21ce:	9b12      	ldr	r3, [sp, #72]	; 0x48
    21d0:	3b02      	subs	r3, #2
    21d2:	001a      	movs	r2, r3
    21d4:	9312      	str	r3, [sp, #72]	; 0x48
    21d6:	2320      	movs	r3, #32
    21d8:	439a      	bics	r2, r3
    21da:	920b      	str	r2, [sp, #44]	; 0x2c
    21dc:	e4d8      	b.n	1b90 <_vfprintf_r+0xf60>
    21de:	9b14      	ldr	r3, [sp, #80]	; 0x50
    21e0:	9a15      	ldr	r2, [sp, #84]	; 0x54
    21e2:	4293      	cmp	r3, r2
    21e4:	da00      	bge.n	21e8 <_vfprintf_r+0x15b8>
    21e6:	e1a1      	b.n	252c <_vfprintf_r+0x18fc>
    21e8:	9a07      	ldr	r2, [sp, #28]
    21ea:	930b      	str	r3, [sp, #44]	; 0x2c
    21ec:	07d2      	lsls	r2, r2, #31
    21ee:	d503      	bpl.n	21f8 <_vfprintf_r+0x15c8>
    21f0:	9a1b      	ldr	r2, [sp, #108]	; 0x6c
    21f2:	4694      	mov	ip, r2
    21f4:	4463      	add	r3, ip
    21f6:	930b      	str	r3, [sp, #44]	; 0x2c
    21f8:	9b07      	ldr	r3, [sp, #28]
    21fa:	055b      	lsls	r3, r3, #21
    21fc:	d503      	bpl.n	2206 <_vfprintf_r+0x15d6>
    21fe:	9b14      	ldr	r3, [sp, #80]	; 0x50
    2200:	2b00      	cmp	r3, #0
    2202:	dd00      	ble.n	2206 <_vfprintf_r+0x15d6>
    2204:	e2a5      	b.n	2752 <_vfprintf_r+0x1b22>
    2206:	9a0b      	ldr	r2, [sp, #44]	; 0x2c
    2208:	43d3      	mvns	r3, r2
    220a:	17db      	asrs	r3, r3, #31
    220c:	401a      	ands	r2, r3
    220e:	2367      	movs	r3, #103	; 0x67
    2210:	9207      	str	r2, [sp, #28]
    2212:	9312      	str	r3, [sp, #72]	; 0x48
    2214:	2300      	movs	r3, #0
    2216:	9318      	str	r3, [sp, #96]	; 0x60
    2218:	9313      	str	r3, [sp, #76]	; 0x4c
    221a:	e53a      	b.n	1c92 <_vfprintf_r+0x1062>
    221c:	232d      	movs	r3, #45	; 0x2d
    221e:	aa1c      	add	r2, sp, #112	; 0x70
    2220:	76d3      	strb	r3, [r2, #27]
    2222:	2200      	movs	r2, #0
    2224:	9208      	str	r2, [sp, #32]
    2226:	f7ff f850 	bl	12ca <_vfprintf_r+0x69a>
    222a:	9b15      	ldr	r3, [sp, #84]	; 0x54
    222c:	9913      	ldr	r1, [sp, #76]	; 0x4c
    222e:	469c      	mov	ip, r3
    2230:	44b4      	add	ip, r6
    2232:	4663      	mov	r3, ip
    2234:	930b      	str	r3, [sp, #44]	; 0x2c
    2236:	4b7a      	ldr	r3, [pc, #488]	; (2420 <_vfprintf_r+0x17f0>)
    2238:	0022      	movs	r2, r4
    223a:	4699      	mov	r9, r3
    223c:	4653      	mov	r3, sl
    223e:	9310      	str	r3, [sp, #64]	; 0x40
    2240:	9b18      	ldr	r3, [sp, #96]	; 0x60
    2242:	002c      	movs	r4, r5
    2244:	469a      	mov	sl, r3
    2246:	9611      	str	r6, [sp, #68]	; 0x44
    2248:	003b      	movs	r3, r7
    224a:	9f1a      	ldr	r7, [sp, #104]	; 0x68
    224c:	2900      	cmp	r1, #0
    224e:	d033      	beq.n	22b8 <_vfprintf_r+0x1688>
    2250:	4651      	mov	r1, sl
    2252:	2900      	cmp	r1, #0
    2254:	d17e      	bne.n	2354 <_vfprintf_r+0x1724>
    2256:	9913      	ldr	r1, [sp, #76]	; 0x4c
    2258:	3f01      	subs	r7, #1
    225a:	3901      	subs	r1, #1
    225c:	9113      	str	r1, [sp, #76]	; 0x4c
    225e:	9920      	ldr	r1, [sp, #128]	; 0x80
    2260:	6019      	str	r1, [r3, #0]
    2262:	991f      	ldr	r1, [sp, #124]	; 0x7c
    2264:	468c      	mov	ip, r1
    2266:	6059      	str	r1, [r3, #4]
    2268:	992b      	ldr	r1, [sp, #172]	; 0xac
    226a:	4462      	add	r2, ip
    226c:	9108      	str	r1, [sp, #32]
    226e:	3101      	adds	r1, #1
    2270:	922c      	str	r2, [sp, #176]	; 0xb0
    2272:	912b      	str	r1, [sp, #172]	; 0xac
    2274:	2907      	cmp	r1, #7
    2276:	dc72      	bgt.n	235e <_vfprintf_r+0x172e>
    2278:	3308      	adds	r3, #8
    227a:	990b      	ldr	r1, [sp, #44]	; 0x2c
    227c:	1b08      	subs	r0, r1, r4
    227e:	7839      	ldrb	r1, [r7, #0]
    2280:	000d      	movs	r5, r1
    2282:	4281      	cmp	r1, r0
    2284:	dd00      	ble.n	2288 <_vfprintf_r+0x1658>
    2286:	0005      	movs	r5, r0
    2288:	2d00      	cmp	r5, #0
    228a:	dd0b      	ble.n	22a4 <_vfprintf_r+0x1674>
    228c:	992b      	ldr	r1, [sp, #172]	; 0xac
    228e:	1952      	adds	r2, r2, r5
    2290:	9108      	str	r1, [sp, #32]
    2292:	3101      	adds	r1, #1
    2294:	601c      	str	r4, [r3, #0]
    2296:	605d      	str	r5, [r3, #4]
    2298:	922c      	str	r2, [sp, #176]	; 0xb0
    229a:	912b      	str	r1, [sp, #172]	; 0xac
    229c:	2907      	cmp	r1, #7
    229e:	dc6a      	bgt.n	2376 <_vfprintf_r+0x1746>
    22a0:	7839      	ldrb	r1, [r7, #0]
    22a2:	3308      	adds	r3, #8
    22a4:	43e8      	mvns	r0, r5
    22a6:	17c0      	asrs	r0, r0, #31
    22a8:	4005      	ands	r5, r0
    22aa:	1b4d      	subs	r5, r1, r5
    22ac:	2d00      	cmp	r5, #0
    22ae:	dc17      	bgt.n	22e0 <_vfprintf_r+0x16b0>
    22b0:	1864      	adds	r4, r4, r1
    22b2:	9913      	ldr	r1, [sp, #76]	; 0x4c
    22b4:	2900      	cmp	r1, #0
    22b6:	d1cb      	bne.n	2250 <_vfprintf_r+0x1620>
    22b8:	4651      	mov	r1, sl
    22ba:	2900      	cmp	r1, #0
    22bc:	d14a      	bne.n	2354 <_vfprintf_r+0x1724>
    22be:	9e11      	ldr	r6, [sp, #68]	; 0x44
    22c0:	971a      	str	r7, [sp, #104]	; 0x68
    22c2:	001f      	movs	r7, r3
    22c4:	9b15      	ldr	r3, [sp, #84]	; 0x54
    22c6:	9910      	ldr	r1, [sp, #64]	; 0x40
    22c8:	18f3      	adds	r3, r6, r3
    22ca:	0020      	movs	r0, r4
    22cc:	0025      	movs	r5, r4
    22ce:	468a      	mov	sl, r1
    22d0:	0014      	movs	r4, r2
    22d2:	4298      	cmp	r0, r3
    22d4:	d801      	bhi.n	22da <_vfprintf_r+0x16aa>
    22d6:	f7ff fa99 	bl	180c <_vfprintf_r+0xbdc>
    22da:	001d      	movs	r5, r3
    22dc:	f7ff fa96 	bl	180c <_vfprintf_r+0xbdc>
    22e0:	4648      	mov	r0, r9
    22e2:	992b      	ldr	r1, [sp, #172]	; 0xac
    22e4:	9008      	str	r0, [sp, #32]
    22e6:	2d10      	cmp	r5, #16
    22e8:	dd27      	ble.n	233a <_vfprintf_r+0x170a>
    22ea:	4658      	mov	r0, fp
    22ec:	46a3      	mov	fp, r4
    22ee:	4644      	mov	r4, r8
    22f0:	2610      	movs	r6, #16
    22f2:	46b8      	mov	r8, r7
    22f4:	0027      	movs	r7, r4
    22f6:	0004      	movs	r4, r0
    22f8:	e003      	b.n	2302 <_vfprintf_r+0x16d2>
    22fa:	3d10      	subs	r5, #16
    22fc:	3308      	adds	r3, #8
    22fe:	2d10      	cmp	r5, #16
    2300:	dd15      	ble.n	232e <_vfprintf_r+0x16fe>
    2302:	4648      	mov	r0, r9
    2304:	3210      	adds	r2, #16
    2306:	3101      	adds	r1, #1
    2308:	6018      	str	r0, [r3, #0]
    230a:	605e      	str	r6, [r3, #4]
    230c:	922c      	str	r2, [sp, #176]	; 0xb0
    230e:	912b      	str	r1, [sp, #172]	; 0xac
    2310:	2907      	cmp	r1, #7
    2312:	ddf2      	ble.n	22fa <_vfprintf_r+0x16ca>
    2314:	0039      	movs	r1, r7
    2316:	0020      	movs	r0, r4
    2318:	aa2a      	add	r2, sp, #168	; 0xa8
    231a:	f003 f813 	bl	5344 <__sprint_r>
    231e:	2800      	cmp	r0, #0
    2320:	d158      	bne.n	23d4 <_vfprintf_r+0x17a4>
    2322:	3d10      	subs	r5, #16
    2324:	9a2c      	ldr	r2, [sp, #176]	; 0xb0
    2326:	992b      	ldr	r1, [sp, #172]	; 0xac
    2328:	ab2d      	add	r3, sp, #180	; 0xb4
    232a:	2d10      	cmp	r5, #16
    232c:	dce9      	bgt.n	2302 <_vfprintf_r+0x16d2>
    232e:	0026      	movs	r6, r4
    2330:	0038      	movs	r0, r7
    2332:	465c      	mov	r4, fp
    2334:	4647      	mov	r7, r8
    2336:	46b3      	mov	fp, r6
    2338:	4680      	mov	r8, r0
    233a:	9808      	ldr	r0, [sp, #32]
    233c:	1952      	adds	r2, r2, r5
    233e:	3101      	adds	r1, #1
    2340:	6018      	str	r0, [r3, #0]
    2342:	605d      	str	r5, [r3, #4]
    2344:	922c      	str	r2, [sp, #176]	; 0xb0
    2346:	912b      	str	r1, [sp, #172]	; 0xac
    2348:	2907      	cmp	r1, #7
    234a:	dc35      	bgt.n	23b8 <_vfprintf_r+0x1788>
    234c:	7839      	ldrb	r1, [r7, #0]
    234e:	3308      	adds	r3, #8
    2350:	1864      	adds	r4, r4, r1
    2352:	e7ae      	b.n	22b2 <_vfprintf_r+0x1682>
    2354:	2101      	movs	r1, #1
    2356:	4249      	negs	r1, r1
    2358:	468c      	mov	ip, r1
    235a:	44e2      	add	sl, ip
    235c:	e77f      	b.n	225e <_vfprintf_r+0x162e>
    235e:	4641      	mov	r1, r8
    2360:	4658      	mov	r0, fp
    2362:	aa2a      	add	r2, sp, #168	; 0xa8
    2364:	f002 ffee 	bl	5344 <__sprint_r>
    2368:	2800      	cmp	r0, #0
    236a:	d001      	beq.n	2370 <_vfprintf_r+0x1740>
    236c:	f7ff f997 	bl	169e <_vfprintf_r+0xa6e>
    2370:	9a2c      	ldr	r2, [sp, #176]	; 0xb0
    2372:	ab2d      	add	r3, sp, #180	; 0xb4
    2374:	e781      	b.n	227a <_vfprintf_r+0x164a>
    2376:	4641      	mov	r1, r8
    2378:	4658      	mov	r0, fp
    237a:	aa2a      	add	r2, sp, #168	; 0xa8
    237c:	f002 ffe2 	bl	5344 <__sprint_r>
    2380:	2800      	cmp	r0, #0
    2382:	d001      	beq.n	2388 <_vfprintf_r+0x1758>
    2384:	f7ff f98b 	bl	169e <_vfprintf_r+0xa6e>
    2388:	7839      	ldrb	r1, [r7, #0]
    238a:	9a2c      	ldr	r2, [sp, #176]	; 0xb0
    238c:	ab2d      	add	r3, sp, #180	; 0xb4
    238e:	e789      	b.n	22a4 <_vfprintf_r+0x1674>
    2390:	2c09      	cmp	r4, #9
    2392:	d901      	bls.n	2398 <_vfprintf_r+0x1768>
    2394:	f7ff f87c 	bl	1490 <_vfprintf_r+0x860>
    2398:	f7ff f897 	bl	14ca <_vfprintf_r+0x89a>
    239c:	4641      	mov	r1, r8
    239e:	4658      	mov	r0, fp
    23a0:	aa2a      	add	r2, sp, #168	; 0xa8
    23a2:	f002 ffcf 	bl	5344 <__sprint_r>
    23a6:	2800      	cmp	r0, #0
    23a8:	d001      	beq.n	23ae <_vfprintf_r+0x177e>
    23aa:	f7ff f978 	bl	169e <_vfprintf_r+0xa6e>
    23ae:	9924      	ldr	r1, [sp, #144]	; 0x90
    23b0:	9c2c      	ldr	r4, [sp, #176]	; 0xb0
    23b2:	af2d      	add	r7, sp, #180	; 0xb4
    23b4:	f7ff fb22 	bl	19fc <_vfprintf_r+0xdcc>
    23b8:	4641      	mov	r1, r8
    23ba:	4658      	mov	r0, fp
    23bc:	aa2a      	add	r2, sp, #168	; 0xa8
    23be:	f002 ffc1 	bl	5344 <__sprint_r>
    23c2:	2800      	cmp	r0, #0
    23c4:	d001      	beq.n	23ca <_vfprintf_r+0x179a>
    23c6:	f7ff f96a 	bl	169e <_vfprintf_r+0xa6e>
    23ca:	7839      	ldrb	r1, [r7, #0]
    23cc:	9a2c      	ldr	r2, [sp, #176]	; 0xb0
    23ce:	ab2d      	add	r3, sp, #180	; 0xb4
    23d0:	1864      	adds	r4, r4, r1
    23d2:	e76e      	b.n	22b2 <_vfprintf_r+0x1682>
    23d4:	46a3      	mov	fp, r4
    23d6:	46b9      	mov	r9, r7
    23d8:	f7ff f962 	bl	16a0 <_vfprintf_r+0xa70>
    23dc:	4641      	mov	r1, r8
    23de:	4658      	mov	r0, fp
    23e0:	aa2a      	add	r2, sp, #168	; 0xa8
    23e2:	f002 ffaf 	bl	5344 <__sprint_r>
    23e6:	2800      	cmp	r0, #0
    23e8:	d001      	beq.n	23ee <_vfprintf_r+0x17be>
    23ea:	f7ff f958 	bl	169e <_vfprintf_r+0xa6e>
    23ee:	9c2c      	ldr	r4, [sp, #176]	; 0xb0
    23f0:	af2d      	add	r7, sp, #180	; 0xb4
    23f2:	f7ff f9fa 	bl	17ea <_vfprintf_r+0xbba>
    23f6:	4641      	mov	r1, r8
    23f8:	4658      	mov	r0, fp
    23fa:	aa2a      	add	r2, sp, #168	; 0xa8
    23fc:	f002 ffa2 	bl	5344 <__sprint_r>
    2400:	2800      	cmp	r0, #0
    2402:	d001      	beq.n	2408 <_vfprintf_r+0x17d8>
    2404:	f7ff f94b 	bl	169e <_vfprintf_r+0xa6e>
    2408:	9b24      	ldr	r3, [sp, #144]	; 0x90
    240a:	9c2c      	ldr	r4, [sp, #176]	; 0xb0
    240c:	af2d      	add	r7, sp, #180	; 0xb4
    240e:	f7ff fa15 	bl	183c <_vfprintf_r+0xc0c>
    2412:	46c0      	nop			; (mov r8, r8)
    2414:	00009fc0 	.word	0x00009fc0
    2418:	40300000 	.word	0x40300000
    241c:	3fe00000 	.word	0x3fe00000
    2420:	0000a16c 	.word	0x0000a16c
    2424:	ab28      	add	r3, sp, #160	; 0xa0
    2426:	9304      	str	r3, [sp, #16]
    2428:	ab25      	add	r3, sp, #148	; 0x94
    242a:	9303      	str	r3, [sp, #12]
    242c:	ab24      	add	r3, sp, #144	; 0x90
    242e:	9302      	str	r3, [sp, #8]
    2430:	9b08      	ldr	r3, [sp, #32]
    2432:	002a      	movs	r2, r5
    2434:	9301      	str	r3, [sp, #4]
    2436:	2303      	movs	r3, #3
    2438:	4658      	mov	r0, fp
    243a:	9300      	str	r3, [sp, #0]
    243c:	464b      	mov	r3, r9
    243e:	f000 fb7d 	bl	2b3c <_dtoa_r>
    2442:	7803      	ldrb	r3, [r0, #0]
    2444:	0006      	movs	r6, r0
    2446:	2b30      	cmp	r3, #48	; 0x30
    2448:	d021      	beq.n	248e <_vfprintf_r+0x185e>
    244a:	9c24      	ldr	r4, [sp, #144]	; 0x90
    244c:	9b08      	ldr	r3, [sp, #32]
    244e:	469c      	mov	ip, r3
    2450:	4464      	add	r4, ip
    2452:	4653      	mov	r3, sl
    2454:	9307      	str	r3, [sp, #28]
    2456:	9b18      	ldr	r3, [sp, #96]	; 0x60
    2458:	1934      	adds	r4, r6, r4
    245a:	469a      	mov	sl, r3
    245c:	2300      	movs	r3, #0
    245e:	2200      	movs	r2, #0
    2460:	0028      	movs	r0, r5
    2462:	4649      	mov	r1, r9
    2464:	f005 f874 	bl	7550 <__aeabi_dcmpeq>
    2468:	0023      	movs	r3, r4
    246a:	2800      	cmp	r0, #0
    246c:	d001      	beq.n	2472 <_vfprintf_r+0x1842>
    246e:	f7ff fb82 	bl	1b76 <_vfprintf_r+0xf46>
    2472:	9b28      	ldr	r3, [sp, #160]	; 0xa0
    2474:	42a3      	cmp	r3, r4
    2476:	d301      	bcc.n	247c <_vfprintf_r+0x184c>
    2478:	f7ff fb7d 	bl	1b76 <_vfprintf_r+0xf46>
    247c:	2130      	movs	r1, #48	; 0x30
    247e:	1c5a      	adds	r2, r3, #1
    2480:	9228      	str	r2, [sp, #160]	; 0xa0
    2482:	7019      	strb	r1, [r3, #0]
    2484:	9b28      	ldr	r3, [sp, #160]	; 0xa0
    2486:	429c      	cmp	r4, r3
    2488:	d8f9      	bhi.n	247e <_vfprintf_r+0x184e>
    248a:	f7ff fb74 	bl	1b76 <_vfprintf_r+0xf46>
    248e:	2200      	movs	r2, #0
    2490:	2300      	movs	r3, #0
    2492:	0028      	movs	r0, r5
    2494:	4649      	mov	r1, r9
    2496:	f005 f85b 	bl	7550 <__aeabi_dcmpeq>
    249a:	2800      	cmp	r0, #0
    249c:	d1d5      	bne.n	244a <_vfprintf_r+0x181a>
    249e:	2401      	movs	r4, #1
    24a0:	9b08      	ldr	r3, [sp, #32]
    24a2:	1ae4      	subs	r4, r4, r3
    24a4:	9424      	str	r4, [sp, #144]	; 0x90
    24a6:	e7d1      	b.n	244c <_vfprintf_r+0x181c>
    24a8:	9a24      	ldr	r2, [sp, #144]	; 0x90
    24aa:	2301      	movs	r3, #1
    24ac:	9214      	str	r2, [sp, #80]	; 0x50
    24ae:	2a00      	cmp	r2, #0
    24b0:	dc00      	bgt.n	24b4 <_vfprintf_r+0x1884>
    24b2:	e192      	b.n	27da <_vfprintf_r+0x1baa>
    24b4:	9907      	ldr	r1, [sp, #28]
    24b6:	400b      	ands	r3, r1
    24b8:	9908      	ldr	r1, [sp, #32]
    24ba:	430b      	orrs	r3, r1
    24bc:	d000      	beq.n	24c0 <_vfprintf_r+0x1890>
    24be:	e177      	b.n	27b0 <_vfprintf_r+0x1b80>
    24c0:	9b14      	ldr	r3, [sp, #80]	; 0x50
    24c2:	930b      	str	r3, [sp, #44]	; 0x2c
    24c4:	2366      	movs	r3, #102	; 0x66
    24c6:	9312      	str	r3, [sp, #72]	; 0x48
    24c8:	9b07      	ldr	r3, [sp, #28]
    24ca:	055b      	lsls	r3, r3, #21
    24cc:	d500      	bpl.n	24d0 <_vfprintf_r+0x18a0>
    24ce:	e142      	b.n	2756 <_vfprintf_r+0x1b26>
    24d0:	9a0b      	ldr	r2, [sp, #44]	; 0x2c
    24d2:	43d3      	mvns	r3, r2
    24d4:	17db      	asrs	r3, r3, #31
    24d6:	401a      	ands	r2, r3
    24d8:	9207      	str	r2, [sp, #28]
    24da:	e69b      	b.n	2214 <_vfprintf_r+0x15e4>
    24dc:	9a08      	ldr	r2, [sp, #32]
    24de:	ab1c      	add	r3, sp, #112	; 0x70
    24e0:	7edb      	ldrb	r3, [r3, #27]
    24e2:	9207      	str	r2, [sp, #28]
    24e4:	940f      	str	r4, [sp, #60]	; 0x3c
    24e6:	f7fe fd7d 	bl	fe4 <_vfprintf_r+0x3b4>
    24ea:	2320      	movs	r3, #32
    24ec:	46a2      	mov	sl, r4
    24ee:	9a12      	ldr	r2, [sp, #72]	; 0x48
    24f0:	439a      	bics	r2, r3
    24f2:	920b      	str	r2, [sp, #44]	; 0x2c
    24f4:	2280      	movs	r2, #128	; 0x80
    24f6:	9b16      	ldr	r3, [sp, #88]	; 0x58
    24f8:	9c17      	ldr	r4, [sp, #92]	; 0x5c
    24fa:	0612      	lsls	r2, r2, #24
    24fc:	001d      	movs	r5, r3
    24fe:	4694      	mov	ip, r2
    2500:	0023      	movs	r3, r4
    2502:	4463      	add	r3, ip
    2504:	4699      	mov	r9, r3
    2506:	232d      	movs	r3, #45	; 0x2d
    2508:	9319      	str	r3, [sp, #100]	; 0x64
    250a:	e5a9      	b.n	2060 <_vfprintf_r+0x1430>
    250c:	4641      	mov	r1, r8
    250e:	4658      	mov	r0, fp
    2510:	aa2a      	add	r2, sp, #168	; 0xa8
    2512:	f002 ff17 	bl	5344 <__sprint_r>
    2516:	2800      	cmp	r0, #0
    2518:	d001      	beq.n	251e <_vfprintf_r+0x18ee>
    251a:	f7ff f8c0 	bl	169e <_vfprintf_r+0xa6e>
    251e:	9b15      	ldr	r3, [sp, #84]	; 0x54
    2520:	9a24      	ldr	r2, [sp, #144]	; 0x90
    2522:	9c2c      	ldr	r4, [sp, #176]	; 0xb0
    2524:	1a9b      	subs	r3, r3, r2
    2526:	af2d      	add	r7, sp, #180	; 0xb4
    2528:	f7ff f9a0 	bl	186c <_vfprintf_r+0xc3c>
    252c:	9a1b      	ldr	r2, [sp, #108]	; 0x6c
    252e:	9b15      	ldr	r3, [sp, #84]	; 0x54
    2530:	4694      	mov	ip, r2
    2532:	2267      	movs	r2, #103	; 0x67
    2534:	9212      	str	r2, [sp, #72]	; 0x48
    2536:	9a14      	ldr	r2, [sp, #80]	; 0x50
    2538:	4463      	add	r3, ip
    253a:	930b      	str	r3, [sp, #44]	; 0x2c
    253c:	2a00      	cmp	r2, #0
    253e:	dcc3      	bgt.n	24c8 <_vfprintf_r+0x1898>
    2540:	1a98      	subs	r0, r3, r2
    2542:	1c42      	adds	r2, r0, #1
    2544:	43d3      	mvns	r3, r2
    2546:	17db      	asrs	r3, r3, #31
    2548:	920b      	str	r2, [sp, #44]	; 0x2c
    254a:	401a      	ands	r2, r3
    254c:	9207      	str	r2, [sp, #28]
    254e:	e661      	b.n	2214 <_vfprintf_r+0x15e4>
    2550:	9006      	str	r0, [sp, #24]
    2552:	f7fe fbe4 	bl	d1e <_vfprintf_r+0xee>
    2556:	424d      	negs	r5, r1
    2558:	3110      	adds	r1, #16
    255a:	db00      	blt.n	255e <_vfprintf_r+0x192e>
    255c:	e173      	b.n	2846 <_vfprintf_r+0x1c16>
    255e:	49c1      	ldr	r1, [pc, #772]	; (2864 <_vfprintf_r+0x1c34>)
    2560:	2710      	movs	r7, #16
    2562:	4689      	mov	r9, r1
    2564:	0021      	movs	r1, r4
    2566:	464c      	mov	r4, r9
    2568:	46b1      	mov	r9, r6
    256a:	465e      	mov	r6, fp
    256c:	e004      	b.n	2578 <_vfprintf_r+0x1948>
    256e:	3208      	adds	r2, #8
    2570:	3d10      	subs	r5, #16
    2572:	2d10      	cmp	r5, #16
    2574:	dc00      	bgt.n	2578 <_vfprintf_r+0x1948>
    2576:	e08e      	b.n	2696 <_vfprintf_r+0x1a66>
    2578:	3110      	adds	r1, #16
    257a:	3301      	adds	r3, #1
    257c:	6014      	str	r4, [r2, #0]
    257e:	6057      	str	r7, [r2, #4]
    2580:	912c      	str	r1, [sp, #176]	; 0xb0
    2582:	932b      	str	r3, [sp, #172]	; 0xac
    2584:	2b07      	cmp	r3, #7
    2586:	ddf2      	ble.n	256e <_vfprintf_r+0x193e>
    2588:	4641      	mov	r1, r8
    258a:	0030      	movs	r0, r6
    258c:	aa2a      	add	r2, sp, #168	; 0xa8
    258e:	f002 fed9 	bl	5344 <__sprint_r>
    2592:	2800      	cmp	r0, #0
    2594:	d001      	beq.n	259a <_vfprintf_r+0x196a>
    2596:	f7ff f90c 	bl	17b2 <_vfprintf_r+0xb82>
    259a:	992c      	ldr	r1, [sp, #176]	; 0xb0
    259c:	9b2b      	ldr	r3, [sp, #172]	; 0xac
    259e:	aa2d      	add	r2, sp, #180	; 0xb4
    25a0:	e7e6      	b.n	2570 <_vfprintf_r+0x1940>
    25a2:	9b08      	ldr	r3, [sp, #32]
    25a4:	18f4      	adds	r4, r6, r3
    25a6:	4653      	mov	r3, sl
    25a8:	9307      	str	r3, [sp, #28]
    25aa:	9b18      	ldr	r3, [sp, #96]	; 0x60
    25ac:	469a      	mov	sl, r3
    25ae:	e755      	b.n	245c <_vfprintf_r+0x182c>
    25b0:	6e5b      	ldr	r3, [r3, #100]	; 0x64
    25b2:	07db      	lsls	r3, r3, #31
    25b4:	d407      	bmi.n	25c6 <_vfprintf_r+0x1996>
    25b6:	464b      	mov	r3, r9
    25b8:	899b      	ldrh	r3, [r3, #12]
    25ba:	059b      	lsls	r3, r3, #22
    25bc:	d403      	bmi.n	25c6 <_vfprintf_r+0x1996>
    25be:	464b      	mov	r3, r9
    25c0:	6d98      	ldr	r0, [r3, #88]	; 0x58
    25c2:	f001 febf 	bl	4344 <__retarget_lock_release_recursive>
    25c6:	2301      	movs	r3, #1
    25c8:	425b      	negs	r3, r3
    25ca:	9309      	str	r3, [sp, #36]	; 0x24
    25cc:	f7ff f87a 	bl	16c4 <_vfprintf_r+0xa94>
    25d0:	2300      	movs	r3, #0
    25d2:	930e      	str	r3, [sp, #56]	; 0x38
    25d4:	e78e      	b.n	24f4 <_vfprintf_r+0x18c4>
    25d6:	9b14      	ldr	r3, [sp, #80]	; 0x50
    25d8:	9907      	ldr	r1, [sp, #28]
    25da:	9328      	str	r3, [sp, #160]	; 0xa0
    25dc:	464b      	mov	r3, r9
    25de:	3b01      	subs	r3, #1
    25e0:	781a      	ldrb	r2, [r3, #0]
    25e2:	7bc9      	ldrb	r1, [r1, #15]
    25e4:	428a      	cmp	r2, r1
    25e6:	d107      	bne.n	25f8 <_vfprintf_r+0x19c8>
    25e8:	2030      	movs	r0, #48	; 0x30
    25ea:	7018      	strb	r0, [r3, #0]
    25ec:	9b28      	ldr	r3, [sp, #160]	; 0xa0
    25ee:	3b01      	subs	r3, #1
    25f0:	9328      	str	r3, [sp, #160]	; 0xa0
    25f2:	781a      	ldrb	r2, [r3, #0]
    25f4:	4291      	cmp	r1, r2
    25f6:	d0f8      	beq.n	25ea <_vfprintf_r+0x19ba>
    25f8:	2a39      	cmp	r2, #57	; 0x39
    25fa:	d100      	bne.n	25fe <_vfprintf_r+0x19ce>
    25fc:	e0e9      	b.n	27d2 <_vfprintf_r+0x1ba2>
    25fe:	3201      	adds	r2, #1
    2600:	b2d2      	uxtb	r2, r2
    2602:	701a      	strb	r2, [r3, #0]
    2604:	e5b3      	b.n	216e <_vfprintf_r+0x153e>
    2606:	9b08      	ldr	r3, [sp, #32]
    2608:	002a      	movs	r2, r5
    260a:	1c5c      	adds	r4, r3, #1
    260c:	ab28      	add	r3, sp, #160	; 0xa0
    260e:	9304      	str	r3, [sp, #16]
    2610:	ab25      	add	r3, sp, #148	; 0x94
    2612:	9303      	str	r3, [sp, #12]
    2614:	ab24      	add	r3, sp, #144	; 0x90
    2616:	9302      	str	r3, [sp, #8]
    2618:	2302      	movs	r3, #2
    261a:	4658      	mov	r0, fp
    261c:	9300      	str	r3, [sp, #0]
    261e:	9401      	str	r4, [sp, #4]
    2620:	464b      	mov	r3, r9
    2622:	f000 fa8b 	bl	2b3c <_dtoa_r>
    2626:	0006      	movs	r6, r0
    2628:	e713      	b.n	2452 <_vfprintf_r+0x1822>
    262a:	4658      	mov	r0, fp
    262c:	1c59      	adds	r1, r3, #1
    262e:	f7fd ff75 	bl	51c <_malloc_r>
    2632:	1e06      	subs	r6, r0, #0
    2634:	d100      	bne.n	2638 <_vfprintf_r+0x1a08>
    2636:	e10b      	b.n	2850 <_vfprintf_r+0x1c20>
    2638:	900e      	str	r0, [sp, #56]	; 0x38
    263a:	e4fe      	b.n	203a <_vfprintf_r+0x140a>
    263c:	2230      	movs	r2, #48	; 0x30
    263e:	ab23      	add	r3, sp, #140	; 0x8c
    2640:	701a      	strb	r2, [r3, #0]
    2642:	3248      	adds	r2, #72	; 0x48
    2644:	e4ee      	b.n	2024 <_vfprintf_r+0x13f4>
    2646:	4643      	mov	r3, r8
    2648:	9314      	str	r3, [sp, #80]	; 0x50
    264a:	9b15      	ldr	r3, [sp, #84]	; 0x54
    264c:	46d0      	mov	r8, sl
    264e:	469a      	mov	sl, r3
    2650:	464b      	mov	r3, r9
    2652:	9713      	str	r7, [sp, #76]	; 0x4c
    2654:	46b1      	mov	r9, r6
    2656:	9f21      	ldr	r7, [sp, #132]	; 0x84
    2658:	001e      	movs	r6, r3
    265a:	e560      	b.n	211e <_vfprintf_r+0x14ee>
    265c:	9b08      	ldr	r3, [sp, #32]
    265e:	2b00      	cmp	r3, #0
    2660:	d101      	bne.n	2666 <_vfprintf_r+0x1a36>
    2662:	2301      	movs	r3, #1
    2664:	9308      	str	r3, [sp, #32]
    2666:	2380      	movs	r3, #128	; 0x80
    2668:	4652      	mov	r2, sl
    266a:	005b      	lsls	r3, r3, #1
    266c:	431a      	orrs	r2, r3
    266e:	9218      	str	r2, [sp, #96]	; 0x60
    2670:	9916      	ldr	r1, [sp, #88]	; 0x58
    2672:	9a17      	ldr	r2, [sp, #92]	; 0x5c
    2674:	2a00      	cmp	r2, #0
    2676:	dbab      	blt.n	25d0 <_vfprintf_r+0x19a0>
    2678:	2300      	movs	r3, #0
    267a:	000d      	movs	r5, r1
    267c:	4691      	mov	r9, r2
    267e:	9319      	str	r3, [sp, #100]	; 0x64
    2680:	930e      	str	r3, [sp, #56]	; 0x38
    2682:	f7ff fa59 	bl	1b38 <_vfprintf_r+0xf08>
    2686:	2320      	movs	r3, #32
    2688:	9a12      	ldr	r2, [sp, #72]	; 0x48
    268a:	439a      	bics	r2, r3
    268c:	3b1a      	subs	r3, #26
    268e:	920b      	str	r2, [sp, #44]	; 0x2c
    2690:	9308      	str	r3, [sp, #32]
    2692:	f7ff fa38 	bl	1b06 <_vfprintf_r+0xed6>
    2696:	46b3      	mov	fp, r6
    2698:	464e      	mov	r6, r9
    269a:	46a1      	mov	r9, r4
    269c:	000c      	movs	r4, r1
    269e:	4649      	mov	r1, r9
    26a0:	1964      	adds	r4, r4, r5
    26a2:	3301      	adds	r3, #1
    26a4:	6011      	str	r1, [r2, #0]
    26a6:	6055      	str	r5, [r2, #4]
    26a8:	942c      	str	r4, [sp, #176]	; 0xb0
    26aa:	932b      	str	r3, [sp, #172]	; 0xac
    26ac:	2b07      	cmp	r3, #7
    26ae:	dc01      	bgt.n	26b4 <_vfprintf_r+0x1a84>
    26b0:	f7ff f9be 	bl	1a30 <_vfprintf_r+0xe00>
    26b4:	4641      	mov	r1, r8
    26b6:	4658      	mov	r0, fp
    26b8:	aa2a      	add	r2, sp, #168	; 0xa8
    26ba:	f002 fe43 	bl	5344 <__sprint_r>
    26be:	2800      	cmp	r0, #0
    26c0:	d001      	beq.n	26c6 <_vfprintf_r+0x1a96>
    26c2:	f7fe ffec 	bl	169e <_vfprintf_r+0xa6e>
    26c6:	9c2c      	ldr	r4, [sp, #176]	; 0xb0
    26c8:	9b2b      	ldr	r3, [sp, #172]	; 0xac
    26ca:	aa2d      	add	r2, sp, #180	; 0xb4
    26cc:	f7ff fc01 	bl	1ed2 <_vfprintf_r+0x12a2>
    26d0:	a91c      	add	r1, sp, #112	; 0x70
    26d2:	232a      	movs	r3, #42	; 0x2a
    26d4:	468c      	mov	ip, r1
    26d6:	4463      	add	r3, ip
    26d8:	2a00      	cmp	r2, #0
    26da:	d106      	bne.n	26ea <_vfprintf_r+0x1aba>
    26dc:	000a      	movs	r2, r1
    26de:	212a      	movs	r1, #42	; 0x2a
    26e0:	2330      	movs	r3, #48	; 0x30
    26e2:	1852      	adds	r2, r2, r1
    26e4:	7013      	strb	r3, [r2, #0]
    26e6:	3b05      	subs	r3, #5
    26e8:	4463      	add	r3, ip
    26ea:	0020      	movs	r0, r4
    26ec:	3030      	adds	r0, #48	; 0x30
    26ee:	7018      	strb	r0, [r3, #0]
    26f0:	aa26      	add	r2, sp, #152	; 0x98
    26f2:	3301      	adds	r3, #1
    26f4:	1a9b      	subs	r3, r3, r2
    26f6:	931e      	str	r3, [sp, #120]	; 0x78
    26f8:	f7ff faab 	bl	1c52 <_vfprintf_r+0x1022>
    26fc:	9b12      	ldr	r3, [sp, #72]	; 0x48
    26fe:	2201      	movs	r2, #1
    2700:	330f      	adds	r3, #15
    2702:	b2db      	uxtb	r3, r3
    2704:	f7ff fa51 	bl	1baa <_vfprintf_r+0xf7a>
    2708:	0028      	movs	r0, r5
    270a:	aa24      	add	r2, sp, #144	; 0x90
    270c:	4649      	mov	r1, r9
    270e:	f002 fced 	bl	50ec <frexp>
    2712:	23ff      	movs	r3, #255	; 0xff
    2714:	2200      	movs	r2, #0
    2716:	059b      	lsls	r3, r3, #22
    2718:	f006 fbbc 	bl	8e94 <__aeabi_dmul>
    271c:	2200      	movs	r2, #0
    271e:	2300      	movs	r3, #0
    2720:	0004      	movs	r4, r0
    2722:	000d      	movs	r5, r1
    2724:	f004 ff14 	bl	7550 <__aeabi_dcmpeq>
    2728:	2800      	cmp	r0, #0
    272a:	d001      	beq.n	2730 <_vfprintf_r+0x1b00>
    272c:	2301      	movs	r3, #1
    272e:	9324      	str	r3, [sp, #144]	; 0x90
    2730:	4b4d      	ldr	r3, [pc, #308]	; (2868 <_vfprintf_r+0x1c38>)
    2732:	9307      	str	r3, [sp, #28]
    2734:	e4b1      	b.n	209a <_vfprintf_r+0x146a>
    2736:	46c1      	mov	r9, r8
    2738:	f7fe ffb8 	bl	16ac <_vfprintf_r+0xa7c>
    273c:	9b17      	ldr	r3, [sp, #92]	; 0x5c
    273e:	2b00      	cmp	r3, #0
    2740:	db67      	blt.n	2812 <_vfprintf_r+0x1be2>
    2742:	ab1c      	add	r3, sp, #112	; 0x70
    2744:	7edb      	ldrb	r3, [r3, #27]
    2746:	9a12      	ldr	r2, [sp, #72]	; 0x48
    2748:	2a47      	cmp	r2, #71	; 0x47
    274a:	dd5f      	ble.n	280c <_vfprintf_r+0x1bdc>
    274c:	4e47      	ldr	r6, [pc, #284]	; (286c <_vfprintf_r+0x1c3c>)
    274e:	f7fe fc40 	bl	fd2 <_vfprintf_r+0x3a2>
    2752:	2367      	movs	r3, #103	; 0x67
    2754:	9312      	str	r3, [sp, #72]	; 0x48
    2756:	991a      	ldr	r1, [sp, #104]	; 0x68
    2758:	780b      	ldrb	r3, [r1, #0]
    275a:	2bff      	cmp	r3, #255	; 0xff
    275c:	d06b      	beq.n	2836 <_vfprintf_r+0x1c06>
    275e:	2200      	movs	r2, #0
    2760:	9218      	str	r2, [sp, #96]	; 0x60
    2762:	9213      	str	r2, [sp, #76]	; 0x4c
    2764:	9a14      	ldr	r2, [sp, #80]	; 0x50
    2766:	e005      	b.n	2774 <_vfprintf_r+0x1b44>
    2768:	9813      	ldr	r0, [sp, #76]	; 0x4c
    276a:	3101      	adds	r1, #1
    276c:	3001      	adds	r0, #1
    276e:	9013      	str	r0, [sp, #76]	; 0x4c
    2770:	2bff      	cmp	r3, #255	; 0xff
    2772:	d00a      	beq.n	278a <_vfprintf_r+0x1b5a>
    2774:	4293      	cmp	r3, r2
    2776:	da08      	bge.n	278a <_vfprintf_r+0x1b5a>
    2778:	1ad2      	subs	r2, r2, r3
    277a:	784b      	ldrb	r3, [r1, #1]
    277c:	2b00      	cmp	r3, #0
    277e:	d1f3      	bne.n	2768 <_vfprintf_r+0x1b38>
    2780:	9b18      	ldr	r3, [sp, #96]	; 0x60
    2782:	3301      	adds	r3, #1
    2784:	9318      	str	r3, [sp, #96]	; 0x60
    2786:	780b      	ldrb	r3, [r1, #0]
    2788:	e7f2      	b.n	2770 <_vfprintf_r+0x1b40>
    278a:	911a      	str	r1, [sp, #104]	; 0x68
    278c:	9214      	str	r2, [sp, #80]	; 0x50
    278e:	9a18      	ldr	r2, [sp, #96]	; 0x60
    2790:	9b13      	ldr	r3, [sp, #76]	; 0x4c
    2792:	4694      	mov	ip, r2
    2794:	9a1f      	ldr	r2, [sp, #124]	; 0x7c
    2796:	4463      	add	r3, ip
    2798:	4353      	muls	r3, r2
    279a:	9a0b      	ldr	r2, [sp, #44]	; 0x2c
    279c:	4694      	mov	ip, r2
    279e:	449c      	add	ip, r3
    27a0:	4662      	mov	r2, ip
    27a2:	43d3      	mvns	r3, r2
    27a4:	17db      	asrs	r3, r3, #31
    27a6:	920b      	str	r2, [sp, #44]	; 0x2c
    27a8:	401a      	ands	r2, r3
    27aa:	9207      	str	r2, [sp, #28]
    27ac:	f7ff fa71 	bl	1c92 <_vfprintf_r+0x1062>
    27b0:	9b1b      	ldr	r3, [sp, #108]	; 0x6c
    27b2:	469c      	mov	ip, r3
    27b4:	4462      	add	r2, ip
    27b6:	468c      	mov	ip, r1
    27b8:	4494      	add	ip, r2
    27ba:	4663      	mov	r3, ip
    27bc:	930b      	str	r3, [sp, #44]	; 0x2c
    27be:	2366      	movs	r3, #102	; 0x66
    27c0:	9312      	str	r3, [sp, #72]	; 0x48
    27c2:	e681      	b.n	24c8 <_vfprintf_r+0x1898>
    27c4:	9b07      	ldr	r3, [sp, #28]
    27c6:	07db      	lsls	r3, r3, #31
    27c8:	d401      	bmi.n	27ce <_vfprintf_r+0x1b9e>
    27ca:	f7ff fa51 	bl	1c70 <_vfprintf_r+0x1040>
    27ce:	f7ff fa4a 	bl	1c66 <_vfprintf_r+0x1036>
    27d2:	9a07      	ldr	r2, [sp, #28]
    27d4:	7a92      	ldrb	r2, [r2, #10]
    27d6:	701a      	strb	r2, [r3, #0]
    27d8:	e4c9      	b.n	216e <_vfprintf_r+0x153e>
    27da:	9a07      	ldr	r2, [sp, #28]
    27dc:	4013      	ands	r3, r2
    27de:	9a08      	ldr	r2, [sp, #32]
    27e0:	4313      	orrs	r3, r2
    27e2:	d106      	bne.n	27f2 <_vfprintf_r+0x1bc2>
    27e4:	2301      	movs	r3, #1
    27e6:	9307      	str	r3, [sp, #28]
    27e8:	3365      	adds	r3, #101	; 0x65
    27ea:	9312      	str	r3, [sp, #72]	; 0x48
    27ec:	3b65      	subs	r3, #101	; 0x65
    27ee:	930b      	str	r3, [sp, #44]	; 0x2c
    27f0:	e510      	b.n	2214 <_vfprintf_r+0x15e4>
    27f2:	4694      	mov	ip, r2
    27f4:	9b1b      	ldr	r3, [sp, #108]	; 0x6c
    27f6:	1c58      	adds	r0, r3, #1
    27f8:	4484      	add	ip, r0
    27fa:	4662      	mov	r2, ip
    27fc:	43d3      	mvns	r3, r2
    27fe:	17db      	asrs	r3, r3, #31
    2800:	920b      	str	r2, [sp, #44]	; 0x2c
    2802:	401a      	ands	r2, r3
    2804:	2366      	movs	r3, #102	; 0x66
    2806:	9207      	str	r2, [sp, #28]
    2808:	9312      	str	r3, [sp, #72]	; 0x48
    280a:	e503      	b.n	2214 <_vfprintf_r+0x15e4>
    280c:	4e18      	ldr	r6, [pc, #96]	; (2870 <_vfprintf_r+0x1c40>)
    280e:	f7fe fbe0 	bl	fd2 <_vfprintf_r+0x3a2>
    2812:	232d      	movs	r3, #45	; 0x2d
    2814:	aa1c      	add	r2, sp, #112	; 0x70
    2816:	76d3      	strb	r3, [r2, #27]
    2818:	e795      	b.n	2746 <_vfprintf_r+0x1b16>
    281a:	9a0f      	ldr	r2, [sp, #60]	; 0x3c
    281c:	ca08      	ldmia	r2!, {r3}
    281e:	9308      	str	r3, [sp, #32]
    2820:	2b00      	cmp	r3, #0
    2822:	da02      	bge.n	282a <_vfprintf_r+0x1bfa>
    2824:	2301      	movs	r3, #1
    2826:	425b      	negs	r3, r3
    2828:	9308      	str	r3, [sp, #32]
    282a:	9b06      	ldr	r3, [sp, #24]
    282c:	920f      	str	r2, [sp, #60]	; 0x3c
    282e:	785b      	ldrb	r3, [r3, #1]
    2830:	9006      	str	r0, [sp, #24]
    2832:	f7fe fa71 	bl	d18 <_vfprintf_r+0xe8>
    2836:	2300      	movs	r3, #0
    2838:	9318      	str	r3, [sp, #96]	; 0x60
    283a:	9313      	str	r3, [sp, #76]	; 0x4c
    283c:	e7a7      	b.n	278e <_vfprintf_r+0x1b5e>
    283e:	2302      	movs	r3, #2
    2840:	931e      	str	r3, [sp, #120]	; 0x78
    2842:	f7ff fa06 	bl	1c52 <_vfprintf_r+0x1022>
    2846:	4907      	ldr	r1, [pc, #28]	; (2864 <_vfprintf_r+0x1c34>)
    2848:	4689      	mov	r9, r1
    284a:	e728      	b.n	269e <_vfprintf_r+0x1a6e>
    284c:	9c08      	ldr	r4, [sp, #32]
    284e:	e600      	b.n	2452 <_vfprintf_r+0x1822>
    2850:	4643      	mov	r3, r8
    2852:	899a      	ldrh	r2, [r3, #12]
    2854:	2340      	movs	r3, #64	; 0x40
    2856:	4313      	orrs	r3, r2
    2858:	4642      	mov	r2, r8
    285a:	46c1      	mov	r9, r8
    285c:	8193      	strh	r3, [r2, #12]
    285e:	f7fe ff25 	bl	16ac <_vfprintf_r+0xa7c>
    2862:	46c0      	nop			; (mov r8, r8)
    2864:	0000a16c 	.word	0x0000a16c
    2868:	00009fac 	.word	0x00009fac
    286c:	00009fa8 	.word	0x00009fa8
    2870:	00009fa4 	.word	0x00009fa4

00002874 <vfprintf>:
    2874:	b510      	push	{r4, lr}
    2876:	0004      	movs	r4, r0
    2878:	0013      	movs	r3, r2
    287a:	4a03      	ldr	r2, [pc, #12]	; (2888 <vfprintf+0x14>)
    287c:	6810      	ldr	r0, [r2, #0]
    287e:	000a      	movs	r2, r1
    2880:	0021      	movs	r1, r4
    2882:	f7fe f9d5 	bl	c30 <_vfprintf_r>
    2886:	bd10      	pop	{r4, pc}
    2888:	000106f0 	.word	0x000106f0

0000288c <__sbprintf>:
    288c:	b5f0      	push	{r4, r5, r6, r7, lr}
    288e:	001f      	movs	r7, r3
    2890:	2302      	movs	r3, #2
    2892:	4c1f      	ldr	r4, [pc, #124]	; (2910 <__sbprintf+0x84>)
    2894:	0015      	movs	r5, r2
    2896:	44a5      	add	sp, r4
    2898:	000c      	movs	r4, r1
    289a:	8989      	ldrh	r1, [r1, #12]
    289c:	466a      	mov	r2, sp
    289e:	4399      	bics	r1, r3
    28a0:	466b      	mov	r3, sp
    28a2:	8199      	strh	r1, [r3, #12]
    28a4:	6e63      	ldr	r3, [r4, #100]	; 0x64
    28a6:	2180      	movs	r1, #128	; 0x80
    28a8:	9319      	str	r3, [sp, #100]	; 0x64
    28aa:	89e3      	ldrh	r3, [r4, #14]
    28ac:	0006      	movs	r6, r0
    28ae:	81d3      	strh	r3, [r2, #14]
    28b0:	69e3      	ldr	r3, [r4, #28]
    28b2:	00c9      	lsls	r1, r1, #3
    28b4:	9307      	str	r3, [sp, #28]
    28b6:	6a63      	ldr	r3, [r4, #36]	; 0x24
    28b8:	a816      	add	r0, sp, #88	; 0x58
    28ba:	9309      	str	r3, [sp, #36]	; 0x24
    28bc:	ab1a      	add	r3, sp, #104	; 0x68
    28be:	9300      	str	r3, [sp, #0]
    28c0:	9304      	str	r3, [sp, #16]
    28c2:	2300      	movs	r3, #0
    28c4:	9102      	str	r1, [sp, #8]
    28c6:	9105      	str	r1, [sp, #20]
    28c8:	9306      	str	r3, [sp, #24]
    28ca:	f001 fd2b 	bl	4324 <__retarget_lock_init_recursive>
    28ce:	002a      	movs	r2, r5
    28d0:	003b      	movs	r3, r7
    28d2:	4669      	mov	r1, sp
    28d4:	0030      	movs	r0, r6
    28d6:	f7fe f9ab 	bl	c30 <_vfprintf_r>
    28da:	1e05      	subs	r5, r0, #0
    28dc:	da0e      	bge.n	28fc <__sbprintf+0x70>
    28de:	466b      	mov	r3, sp
    28e0:	899b      	ldrh	r3, [r3, #12]
    28e2:	065b      	lsls	r3, r3, #25
    28e4:	d503      	bpl.n	28ee <__sbprintf+0x62>
    28e6:	2240      	movs	r2, #64	; 0x40
    28e8:	89a3      	ldrh	r3, [r4, #12]
    28ea:	4313      	orrs	r3, r2
    28ec:	81a3      	strh	r3, [r4, #12]
    28ee:	9816      	ldr	r0, [sp, #88]	; 0x58
    28f0:	f001 fd1c 	bl	432c <__retarget_lock_close_recursive>
    28f4:	0028      	movs	r0, r5
    28f6:	4b07      	ldr	r3, [pc, #28]	; (2914 <__sbprintf+0x88>)
    28f8:	449d      	add	sp, r3
    28fa:	bdf0      	pop	{r4, r5, r6, r7, pc}
    28fc:	4669      	mov	r1, sp
    28fe:	0030      	movs	r0, r6
    2900:	f001 f99a 	bl	3c38 <_fflush_r>
    2904:	2800      	cmp	r0, #0
    2906:	d0ea      	beq.n	28de <__sbprintf+0x52>
    2908:	2501      	movs	r5, #1
    290a:	426d      	negs	r5, r5
    290c:	e7e7      	b.n	28de <__sbprintf+0x52>
    290e:	46c0      	nop			; (mov r8, r8)
    2910:	fffffb94 	.word	0xfffffb94
    2914:	0000046c 	.word	0x0000046c

00002918 <__swsetup_r>:
    2918:	4b35      	ldr	r3, [pc, #212]	; (29f0 <__swsetup_r+0xd8>)
    291a:	b570      	push	{r4, r5, r6, lr}
    291c:	0005      	movs	r5, r0
    291e:	6818      	ldr	r0, [r3, #0]
    2920:	000c      	movs	r4, r1
    2922:	2800      	cmp	r0, #0
    2924:	d002      	beq.n	292c <__swsetup_r+0x14>
    2926:	6b83      	ldr	r3, [r0, #56]	; 0x38
    2928:	2b00      	cmp	r3, #0
    292a:	d021      	beq.n	2970 <__swsetup_r+0x58>
    292c:	230c      	movs	r3, #12
    292e:	5ee2      	ldrsh	r2, [r4, r3]
    2930:	89a3      	ldrh	r3, [r4, #12]
    2932:	0719      	lsls	r1, r3, #28
    2934:	d523      	bpl.n	297e <__swsetup_r+0x66>
    2936:	6921      	ldr	r1, [r4, #16]
    2938:	2900      	cmp	r1, #0
    293a:	d02b      	beq.n	2994 <__swsetup_r+0x7c>
    293c:	07d8      	lsls	r0, r3, #31
    293e:	d508      	bpl.n	2952 <__swsetup_r+0x3a>
    2940:	2000      	movs	r0, #0
    2942:	60a0      	str	r0, [r4, #8]
    2944:	6960      	ldr	r0, [r4, #20]
    2946:	4240      	negs	r0, r0
    2948:	61a0      	str	r0, [r4, #24]
    294a:	2000      	movs	r0, #0
    294c:	2900      	cmp	r1, #0
    294e:	d008      	beq.n	2962 <__swsetup_r+0x4a>
    2950:	bd70      	pop	{r4, r5, r6, pc}
    2952:	2000      	movs	r0, #0
    2954:	079d      	lsls	r5, r3, #30
    2956:	d400      	bmi.n	295a <__swsetup_r+0x42>
    2958:	6960      	ldr	r0, [r4, #20]
    295a:	60a0      	str	r0, [r4, #8]
    295c:	2000      	movs	r0, #0
    295e:	2900      	cmp	r1, #0
    2960:	d1f6      	bne.n	2950 <__swsetup_r+0x38>
    2962:	061b      	lsls	r3, r3, #24
    2964:	d5f4      	bpl.n	2950 <__swsetup_r+0x38>
    2966:	2340      	movs	r3, #64	; 0x40
    2968:	431a      	orrs	r2, r3
    296a:	81a2      	strh	r2, [r4, #12]
    296c:	3801      	subs	r0, #1
    296e:	e7ef      	b.n	2950 <__swsetup_r+0x38>
    2970:	f001 fa1c 	bl	3dac <__sinit>
    2974:	230c      	movs	r3, #12
    2976:	5ee2      	ldrsh	r2, [r4, r3]
    2978:	89a3      	ldrh	r3, [r4, #12]
    297a:	0719      	lsls	r1, r3, #28
    297c:	d4db      	bmi.n	2936 <__swsetup_r+0x1e>
    297e:	06d9      	lsls	r1, r3, #27
    2980:	d52d      	bpl.n	29de <__swsetup_r+0xc6>
    2982:	075b      	lsls	r3, r3, #29
    2984:	d416      	bmi.n	29b4 <__swsetup_r+0x9c>
    2986:	6921      	ldr	r1, [r4, #16]
    2988:	2308      	movs	r3, #8
    298a:	431a      	orrs	r2, r3
    298c:	81a2      	strh	r2, [r4, #12]
    298e:	b293      	uxth	r3, r2
    2990:	2900      	cmp	r1, #0
    2992:	d1d3      	bne.n	293c <__swsetup_r+0x24>
    2994:	20a0      	movs	r0, #160	; 0xa0
    2996:	2680      	movs	r6, #128	; 0x80
    2998:	0080      	lsls	r0, r0, #2
    299a:	00b6      	lsls	r6, r6, #2
    299c:	4018      	ands	r0, r3
    299e:	42b0      	cmp	r0, r6
    29a0:	d0cc      	beq.n	293c <__swsetup_r+0x24>
    29a2:	0021      	movs	r1, r4
    29a4:	0028      	movs	r0, r5
    29a6:	f001 fccf 	bl	4348 <__smakebuf_r>
    29aa:	230c      	movs	r3, #12
    29ac:	5ee2      	ldrsh	r2, [r4, r3]
    29ae:	6921      	ldr	r1, [r4, #16]
    29b0:	89a3      	ldrh	r3, [r4, #12]
    29b2:	e7c3      	b.n	293c <__swsetup_r+0x24>
    29b4:	6b21      	ldr	r1, [r4, #48]	; 0x30
    29b6:	2900      	cmp	r1, #0
    29b8:	d00a      	beq.n	29d0 <__swsetup_r+0xb8>
    29ba:	0023      	movs	r3, r4
    29bc:	3340      	adds	r3, #64	; 0x40
    29be:	4299      	cmp	r1, r3
    29c0:	d004      	beq.n	29cc <__swsetup_r+0xb4>
    29c2:	0028      	movs	r0, r5
    29c4:	f001 fb7c 	bl	40c0 <_free_r>
    29c8:	230c      	movs	r3, #12
    29ca:	5ee2      	ldrsh	r2, [r4, r3]
    29cc:	2300      	movs	r3, #0
    29ce:	6323      	str	r3, [r4, #48]	; 0x30
    29d0:	2324      	movs	r3, #36	; 0x24
    29d2:	439a      	bics	r2, r3
    29d4:	2300      	movs	r3, #0
    29d6:	6921      	ldr	r1, [r4, #16]
    29d8:	6063      	str	r3, [r4, #4]
    29da:	6021      	str	r1, [r4, #0]
    29dc:	e7d4      	b.n	2988 <__swsetup_r+0x70>
    29de:	2309      	movs	r3, #9
    29e0:	602b      	str	r3, [r5, #0]
    29e2:	2340      	movs	r3, #64	; 0x40
    29e4:	2001      	movs	r0, #1
    29e6:	431a      	orrs	r2, r3
    29e8:	81a2      	strh	r2, [r4, #12]
    29ea:	4240      	negs	r0, r0
    29ec:	e7b0      	b.n	2950 <__swsetup_r+0x38>
    29ee:	46c0      	nop			; (mov r8, r8)
    29f0:	000106f0 	.word	0x000106f0

000029f4 <quorem>:
    29f4:	b5f0      	push	{r4, r5, r6, r7, lr}
    29f6:	4645      	mov	r5, r8
    29f8:	46de      	mov	lr, fp
    29fa:	4657      	mov	r7, sl
    29fc:	464e      	mov	r6, r9
    29fe:	b5e0      	push	{r5, r6, r7, lr}
    2a00:	6903      	ldr	r3, [r0, #16]
    2a02:	690d      	ldr	r5, [r1, #16]
    2a04:	b085      	sub	sp, #20
    2a06:	4680      	mov	r8, r0
    2a08:	000a      	movs	r2, r1
    2a0a:	9101      	str	r1, [sp, #4]
    2a0c:	42ab      	cmp	r3, r5
    2a0e:	da00      	bge.n	2a12 <quorem+0x1e>
    2a10:	e091      	b.n	2b36 <quorem+0x142>
    2a12:	2114      	movs	r1, #20
    2a14:	4441      	add	r1, r8
    2a16:	468c      	mov	ip, r1
    2a18:	3d01      	subs	r5, #1
    2a1a:	3214      	adds	r2, #20
    2a1c:	00ab      	lsls	r3, r5, #2
    2a1e:	18d6      	adds	r6, r2, r3
    2a20:	4463      	add	r3, ip
    2a22:	9303      	str	r3, [sp, #12]
    2a24:	681b      	ldr	r3, [r3, #0]
    2a26:	9100      	str	r1, [sp, #0]
    2a28:	469a      	mov	sl, r3
    2a2a:	6833      	ldr	r3, [r6, #0]
    2a2c:	4650      	mov	r0, sl
    2a2e:	1c5f      	adds	r7, r3, #1
    2a30:	0039      	movs	r1, r7
    2a32:	9202      	str	r2, [sp, #8]
    2a34:	f004 fc06 	bl	7244 <__udivsi3>
    2a38:	0004      	movs	r4, r0
    2a3a:	45ba      	cmp	sl, r7
    2a3c:	d33c      	bcc.n	2ab8 <quorem+0xc4>
    2a3e:	2300      	movs	r3, #0
    2a40:	2100      	movs	r1, #0
    2a42:	0018      	movs	r0, r3
    2a44:	468c      	mov	ip, r1
    2a46:	46a9      	mov	r9, r5
    2a48:	9f00      	ldr	r7, [sp, #0]
    2a4a:	9a02      	ldr	r2, [sp, #8]
    2a4c:	ca08      	ldmia	r2!, {r3}
    2a4e:	0419      	lsls	r1, r3, #16
    2a50:	0c09      	lsrs	r1, r1, #16
    2a52:	4361      	muls	r1, r4
    2a54:	0c1b      	lsrs	r3, r3, #16
    2a56:	4363      	muls	r3, r4
    2a58:	1809      	adds	r1, r1, r0
    2a5a:	0c0d      	lsrs	r5, r1, #16
    2a5c:	195d      	adds	r5, r3, r5
    2a5e:	683b      	ldr	r3, [r7, #0]
    2a60:	0409      	lsls	r1, r1, #16
    2a62:	041b      	lsls	r3, r3, #16
    2a64:	0c1b      	lsrs	r3, r3, #16
    2a66:	4463      	add	r3, ip
    2a68:	0c09      	lsrs	r1, r1, #16
    2a6a:	1a59      	subs	r1, r3, r1
    2a6c:	683b      	ldr	r3, [r7, #0]
    2a6e:	0c28      	lsrs	r0, r5, #16
    2a70:	042d      	lsls	r5, r5, #16
    2a72:	0c2d      	lsrs	r5, r5, #16
    2a74:	0c1b      	lsrs	r3, r3, #16
    2a76:	1b5b      	subs	r3, r3, r5
    2a78:	140d      	asrs	r5, r1, #16
    2a7a:	195b      	adds	r3, r3, r5
    2a7c:	0409      	lsls	r1, r1, #16
    2a7e:	141d      	asrs	r5, r3, #16
    2a80:	0c09      	lsrs	r1, r1, #16
    2a82:	041b      	lsls	r3, r3, #16
    2a84:	430b      	orrs	r3, r1
    2a86:	46ac      	mov	ip, r5
    2a88:	c708      	stmia	r7!, {r3}
    2a8a:	4296      	cmp	r6, r2
    2a8c:	d2de      	bcs.n	2a4c <quorem+0x58>
    2a8e:	9b03      	ldr	r3, [sp, #12]
    2a90:	464d      	mov	r5, r9
    2a92:	681a      	ldr	r2, [r3, #0]
    2a94:	9203      	str	r2, [sp, #12]
    2a96:	2a00      	cmp	r2, #0
    2a98:	d10e      	bne.n	2ab8 <quorem+0xc4>
    2a9a:	9a00      	ldr	r2, [sp, #0]
    2a9c:	3b04      	subs	r3, #4
    2a9e:	4293      	cmp	r3, r2
    2aa0:	d908      	bls.n	2ab4 <quorem+0xc0>
    2aa2:	9a00      	ldr	r2, [sp, #0]
    2aa4:	e003      	b.n	2aae <quorem+0xba>
    2aa6:	3b04      	subs	r3, #4
    2aa8:	3d01      	subs	r5, #1
    2aaa:	4293      	cmp	r3, r2
    2aac:	d902      	bls.n	2ab4 <quorem+0xc0>
    2aae:	6819      	ldr	r1, [r3, #0]
    2ab0:	2900      	cmp	r1, #0
    2ab2:	d0f8      	beq.n	2aa6 <quorem+0xb2>
    2ab4:	4643      	mov	r3, r8
    2ab6:	611d      	str	r5, [r3, #16]
    2ab8:	4640      	mov	r0, r8
    2aba:	9901      	ldr	r1, [sp, #4]
    2abc:	f002 f834 	bl	4b28 <__mcmp>
    2ac0:	2800      	cmp	r0, #0
    2ac2:	db30      	blt.n	2b26 <quorem+0x132>
    2ac4:	2300      	movs	r3, #0
    2ac6:	3401      	adds	r4, #1
    2ac8:	001f      	movs	r7, r3
    2aca:	46a4      	mov	ip, r4
    2acc:	9900      	ldr	r1, [sp, #0]
    2ace:	9802      	ldr	r0, [sp, #8]
    2ad0:	680b      	ldr	r3, [r1, #0]
    2ad2:	c810      	ldmia	r0!, {r4}
    2ad4:	041a      	lsls	r2, r3, #16
    2ad6:	0c12      	lsrs	r2, r2, #16
    2ad8:	19d7      	adds	r7, r2, r7
    2ada:	0422      	lsls	r2, r4, #16
    2adc:	0c12      	lsrs	r2, r2, #16
    2ade:	1aba      	subs	r2, r7, r2
    2ae0:	0c1b      	lsrs	r3, r3, #16
    2ae2:	0c27      	lsrs	r7, r4, #16
    2ae4:	1bdb      	subs	r3, r3, r7
    2ae6:	1417      	asrs	r7, r2, #16
    2ae8:	19db      	adds	r3, r3, r7
    2aea:	0412      	lsls	r2, r2, #16
    2aec:	141f      	asrs	r7, r3, #16
    2aee:	0c12      	lsrs	r2, r2, #16
    2af0:	041b      	lsls	r3, r3, #16
    2af2:	4313      	orrs	r3, r2
    2af4:	c108      	stmia	r1!, {r3}
    2af6:	4286      	cmp	r6, r0
    2af8:	d2ea      	bcs.n	2ad0 <quorem+0xdc>
    2afa:	9a00      	ldr	r2, [sp, #0]
    2afc:	4664      	mov	r4, ip
    2afe:	4694      	mov	ip, r2
    2b00:	00ab      	lsls	r3, r5, #2
    2b02:	4463      	add	r3, ip
    2b04:	6819      	ldr	r1, [r3, #0]
    2b06:	2900      	cmp	r1, #0
    2b08:	d10d      	bne.n	2b26 <quorem+0x132>
    2b0a:	3b04      	subs	r3, #4
    2b0c:	4293      	cmp	r3, r2
    2b0e:	d908      	bls.n	2b22 <quorem+0x12e>
    2b10:	9a00      	ldr	r2, [sp, #0]
    2b12:	e003      	b.n	2b1c <quorem+0x128>
    2b14:	3b04      	subs	r3, #4
    2b16:	3d01      	subs	r5, #1
    2b18:	4293      	cmp	r3, r2
    2b1a:	d902      	bls.n	2b22 <quorem+0x12e>
    2b1c:	6819      	ldr	r1, [r3, #0]
    2b1e:	2900      	cmp	r1, #0
    2b20:	d0f8      	beq.n	2b14 <quorem+0x120>
    2b22:	4643      	mov	r3, r8
    2b24:	611d      	str	r5, [r3, #16]
    2b26:	0020      	movs	r0, r4
    2b28:	b005      	add	sp, #20
    2b2a:	bcf0      	pop	{r4, r5, r6, r7}
    2b2c:	46bb      	mov	fp, r7
    2b2e:	46b2      	mov	sl, r6
    2b30:	46a9      	mov	r9, r5
    2b32:	46a0      	mov	r8, r4
    2b34:	bdf0      	pop	{r4, r5, r6, r7, pc}
    2b36:	2000      	movs	r0, #0
    2b38:	e7f6      	b.n	2b28 <quorem+0x134>
    2b3a:	46c0      	nop			; (mov r8, r8)

00002b3c <_dtoa_r>:
    2b3c:	b5f0      	push	{r4, r5, r6, r7, lr}
    2b3e:	4657      	mov	r7, sl
    2b40:	464e      	mov	r6, r9
    2b42:	4645      	mov	r5, r8
    2b44:	46de      	mov	lr, fp
    2b46:	0014      	movs	r4, r2
    2b48:	b5e0      	push	{r5, r6, r7, lr}
    2b4a:	001d      	movs	r5, r3
    2b4c:	6c01      	ldr	r1, [r0, #64]	; 0x40
    2b4e:	b09b      	sub	sp, #108	; 0x6c
    2b50:	4682      	mov	sl, r0
    2b52:	9404      	str	r4, [sp, #16]
    2b54:	9505      	str	r5, [sp, #20]
    2b56:	9e27      	ldr	r6, [sp, #156]	; 0x9c
    2b58:	2900      	cmp	r1, #0
    2b5a:	d009      	beq.n	2b70 <_dtoa_r+0x34>
    2b5c:	2301      	movs	r3, #1
    2b5e:	6c42      	ldr	r2, [r0, #68]	; 0x44
    2b60:	4093      	lsls	r3, r2
    2b62:	604a      	str	r2, [r1, #4]
    2b64:	608b      	str	r3, [r1, #8]
    2b66:	f001 fcf3 	bl	4550 <_Bfree>
    2b6a:	2300      	movs	r3, #0
    2b6c:	4652      	mov	r2, sl
    2b6e:	6413      	str	r3, [r2, #64]	; 0x40
    2b70:	1e2f      	subs	r7, r5, #0
    2b72:	da00      	bge.n	2b76 <_dtoa_r+0x3a>
    2b74:	e16b      	b.n	2e4e <_dtoa_r+0x312>
    2b76:	2300      	movs	r3, #0
    2b78:	003a      	movs	r2, r7
    2b7a:	6033      	str	r3, [r6, #0]
    2b7c:	4bce      	ldr	r3, [pc, #824]	; (2eb8 <_dtoa_r+0x37c>)
    2b7e:	401a      	ands	r2, r3
    2b80:	429a      	cmp	r2, r3
    2b82:	d100      	bne.n	2b86 <_dtoa_r+0x4a>
    2b84:	e16e      	b.n	2e64 <_dtoa_r+0x328>
    2b86:	9a04      	ldr	r2, [sp, #16]
    2b88:	9b05      	ldr	r3, [sp, #20]
    2b8a:	0010      	movs	r0, r2
    2b8c:	0019      	movs	r1, r3
    2b8e:	2200      	movs	r2, #0
    2b90:	2300      	movs	r3, #0
    2b92:	900a      	str	r0, [sp, #40]	; 0x28
    2b94:	910b      	str	r1, [sp, #44]	; 0x2c
    2b96:	f004 fcdb 	bl	7550 <__aeabi_dcmpeq>
    2b9a:	2800      	cmp	r0, #0
    2b9c:	d012      	beq.n	2bc4 <_dtoa_r+0x88>
    2b9e:	2301      	movs	r3, #1
    2ba0:	9a26      	ldr	r2, [sp, #152]	; 0x98
    2ba2:	6013      	str	r3, [r2, #0]
    2ba4:	9b28      	ldr	r3, [sp, #160]	; 0xa0
    2ba6:	2b00      	cmp	r3, #0
    2ba8:	d100      	bne.n	2bac <_dtoa_r+0x70>
    2baa:	e2b5      	b.n	3118 <_dtoa_r+0x5dc>
    2bac:	48c3      	ldr	r0, [pc, #780]	; (2ebc <_dtoa_r+0x380>)
    2bae:	6018      	str	r0, [r3, #0]
    2bb0:	1e43      	subs	r3, r0, #1
    2bb2:	9303      	str	r3, [sp, #12]
    2bb4:	9803      	ldr	r0, [sp, #12]
    2bb6:	b01b      	add	sp, #108	; 0x6c
    2bb8:	bcf0      	pop	{r4, r5, r6, r7}
    2bba:	46bb      	mov	fp, r7
    2bbc:	46b2      	mov	sl, r6
    2bbe:	46a9      	mov	r9, r5
    2bc0:	46a0      	mov	r8, r4
    2bc2:	bdf0      	pop	{r4, r5, r6, r7, pc}
    2bc4:	ab18      	add	r3, sp, #96	; 0x60
    2bc6:	9301      	str	r3, [sp, #4]
    2bc8:	ab19      	add	r3, sp, #100	; 0x64
    2bca:	9300      	str	r3, [sp, #0]
    2bcc:	4650      	mov	r0, sl
    2bce:	9a0a      	ldr	r2, [sp, #40]	; 0x28
    2bd0:	9b0b      	ldr	r3, [sp, #44]	; 0x2c
    2bd2:	f002 f911 	bl	4df8 <__d2b>
    2bd6:	0d3e      	lsrs	r6, r7, #20
    2bd8:	4683      	mov	fp, r0
    2bda:	d000      	beq.n	2bde <_dtoa_r+0xa2>
    2bdc:	e154      	b.n	2e88 <_dtoa_r+0x34c>
    2bde:	9b18      	ldr	r3, [sp, #96]	; 0x60
    2be0:	9e19      	ldr	r6, [sp, #100]	; 0x64
    2be2:	4698      	mov	r8, r3
    2be4:	4bb6      	ldr	r3, [pc, #728]	; (2ec0 <_dtoa_r+0x384>)
    2be6:	4446      	add	r6, r8
    2be8:	18f3      	adds	r3, r6, r3
    2bea:	2b20      	cmp	r3, #32
    2bec:	dc00      	bgt.n	2bf0 <_dtoa_r+0xb4>
    2bee:	e396      	b.n	331e <_dtoa_r+0x7e2>
    2bf0:	2240      	movs	r2, #64	; 0x40
    2bf2:	0038      	movs	r0, r7
    2bf4:	1ad3      	subs	r3, r2, r3
    2bf6:	4098      	lsls	r0, r3
    2bf8:	4bb2      	ldr	r3, [pc, #712]	; (2ec4 <_dtoa_r+0x388>)
    2bfa:	18f2      	adds	r2, r6, r3
    2bfc:	40d4      	lsrs	r4, r2
    2bfe:	4320      	orrs	r0, r4
    2c00:	f006 ffca 	bl	9b98 <__aeabi_ui2d>
    2c04:	2301      	movs	r3, #1
    2c06:	4cb0      	ldr	r4, [pc, #704]	; (2ec8 <_dtoa_r+0x38c>)
    2c08:	3e01      	subs	r6, #1
    2c0a:	1909      	adds	r1, r1, r4
    2c0c:	930f      	str	r3, [sp, #60]	; 0x3c
    2c0e:	2200      	movs	r2, #0
    2c10:	4bae      	ldr	r3, [pc, #696]	; (2ecc <_dtoa_r+0x390>)
    2c12:	f006 fbab 	bl	936c <__aeabi_dsub>
    2c16:	4aae      	ldr	r2, [pc, #696]	; (2ed0 <_dtoa_r+0x394>)
    2c18:	4bae      	ldr	r3, [pc, #696]	; (2ed4 <_dtoa_r+0x398>)
    2c1a:	f006 f93b 	bl	8e94 <__aeabi_dmul>
    2c1e:	4aae      	ldr	r2, [pc, #696]	; (2ed8 <_dtoa_r+0x39c>)
    2c20:	4bae      	ldr	r3, [pc, #696]	; (2edc <_dtoa_r+0x3a0>)
    2c22:	f005 f9f9 	bl	8018 <__aeabi_dadd>
    2c26:	0004      	movs	r4, r0
    2c28:	0030      	movs	r0, r6
    2c2a:	000d      	movs	r5, r1
    2c2c:	f006 ff84 	bl	9b38 <__aeabi_i2d>
    2c30:	4aab      	ldr	r2, [pc, #684]	; (2ee0 <_dtoa_r+0x3a4>)
    2c32:	4bac      	ldr	r3, [pc, #688]	; (2ee4 <_dtoa_r+0x3a8>)
    2c34:	f006 f92e 	bl	8e94 <__aeabi_dmul>
    2c38:	0002      	movs	r2, r0
    2c3a:	000b      	movs	r3, r1
    2c3c:	0020      	movs	r0, r4
    2c3e:	0029      	movs	r1, r5
    2c40:	f005 f9ea 	bl	8018 <__aeabi_dadd>
    2c44:	0004      	movs	r4, r0
    2c46:	000d      	movs	r5, r1
    2c48:	f006 ff40 	bl	9acc <__aeabi_d2iz>
    2c4c:	2200      	movs	r2, #0
    2c4e:	0007      	movs	r7, r0
    2c50:	9006      	str	r0, [sp, #24]
    2c52:	2300      	movs	r3, #0
    2c54:	0020      	movs	r0, r4
    2c56:	0029      	movs	r1, r5
    2c58:	f004 fc80 	bl	755c <__aeabi_dcmplt>
    2c5c:	2800      	cmp	r0, #0
    2c5e:	d00a      	beq.n	2c76 <_dtoa_r+0x13a>
    2c60:	0038      	movs	r0, r7
    2c62:	f006 ff69 	bl	9b38 <__aeabi_i2d>
    2c66:	002b      	movs	r3, r5
    2c68:	0022      	movs	r2, r4
    2c6a:	f004 fc71 	bl	7550 <__aeabi_dcmpeq>
    2c6e:	4243      	negs	r3, r0
    2c70:	4158      	adcs	r0, r3
    2c72:	1a3b      	subs	r3, r7, r0
    2c74:	9306      	str	r3, [sp, #24]
    2c76:	9c06      	ldr	r4, [sp, #24]
    2c78:	2c16      	cmp	r4, #22
    2c7a:	d900      	bls.n	2c7e <_dtoa_r+0x142>
    2c7c:	e228      	b.n	30d0 <_dtoa_r+0x594>
    2c7e:	980a      	ldr	r0, [sp, #40]	; 0x28
    2c80:	990b      	ldr	r1, [sp, #44]	; 0x2c
    2c82:	4b99      	ldr	r3, [pc, #612]	; (2ee8 <_dtoa_r+0x3ac>)
    2c84:	00e2      	lsls	r2, r4, #3
    2c86:	189b      	adds	r3, r3, r2
    2c88:	681a      	ldr	r2, [r3, #0]
    2c8a:	685b      	ldr	r3, [r3, #4]
    2c8c:	f004 fc66 	bl	755c <__aeabi_dcmplt>
    2c90:	2800      	cmp	r0, #0
    2c92:	d100      	bne.n	2c96 <_dtoa_r+0x15a>
    2c94:	e1f7      	b.n	3086 <_dtoa_r+0x54a>
    2c96:	2300      	movs	r3, #0
    2c98:	930e      	str	r3, [sp, #56]	; 0x38
    2c9a:	4643      	mov	r3, r8
    2c9c:	1b9e      	subs	r6, r3, r6
    2c9e:	2300      	movs	r3, #0
    2ca0:	930c      	str	r3, [sp, #48]	; 0x30
    2ca2:	0033      	movs	r3, r6
    2ca4:	3c01      	subs	r4, #1
    2ca6:	9406      	str	r4, [sp, #24]
    2ca8:	3b01      	subs	r3, #1
    2caa:	9308      	str	r3, [sp, #32]
    2cac:	d500      	bpl.n	2cb0 <_dtoa_r+0x174>
    2cae:	e21a      	b.n	30e6 <_dtoa_r+0x5aa>
    2cb0:	9b06      	ldr	r3, [sp, #24]
    2cb2:	2b00      	cmp	r3, #0
    2cb4:	db00      	blt.n	2cb8 <_dtoa_r+0x17c>
    2cb6:	e1f0      	b.n	309a <_dtoa_r+0x55e>
    2cb8:	9b06      	ldr	r3, [sp, #24]
    2cba:	9a0c      	ldr	r2, [sp, #48]	; 0x30
    2cbc:	9309      	str	r3, [sp, #36]	; 0x24
    2cbe:	1ad2      	subs	r2, r2, r3
    2cc0:	920c      	str	r2, [sp, #48]	; 0x30
    2cc2:	425a      	negs	r2, r3
    2cc4:	2300      	movs	r3, #0
    2cc6:	9306      	str	r3, [sp, #24]
    2cc8:	9b24      	ldr	r3, [sp, #144]	; 0x90
    2cca:	4691      	mov	r9, r2
    2ccc:	2401      	movs	r4, #1
    2cce:	2b09      	cmp	r3, #9
    2cd0:	d900      	bls.n	2cd4 <_dtoa_r+0x198>
    2cd2:	e1ef      	b.n	30b4 <_dtoa_r+0x578>
    2cd4:	2b05      	cmp	r3, #5
    2cd6:	dd02      	ble.n	2cde <_dtoa_r+0x1a2>
    2cd8:	2400      	movs	r4, #0
    2cda:	3b04      	subs	r3, #4
    2cdc:	9324      	str	r3, [sp, #144]	; 0x90
    2cde:	9b24      	ldr	r3, [sp, #144]	; 0x90
    2ce0:	2b04      	cmp	r3, #4
    2ce2:	d101      	bne.n	2ce8 <_dtoa_r+0x1ac>
    2ce4:	f000 fc5b 	bl	359e <_dtoa_r+0xa62>
    2ce8:	2b05      	cmp	r3, #5
    2cea:	d101      	bne.n	2cf0 <_dtoa_r+0x1b4>
    2cec:	f000 fbf2 	bl	34d4 <_dtoa_r+0x998>
    2cf0:	2b02      	cmp	r3, #2
    2cf2:	d000      	beq.n	2cf6 <_dtoa_r+0x1ba>
    2cf4:	e1fd      	b.n	30f2 <_dtoa_r+0x5b6>
    2cf6:	2300      	movs	r3, #0
    2cf8:	930d      	str	r3, [sp, #52]	; 0x34
    2cfa:	9b25      	ldr	r3, [sp, #148]	; 0x94
    2cfc:	2b00      	cmp	r3, #0
    2cfe:	dc01      	bgt.n	2d04 <_dtoa_r+0x1c8>
    2d00:	f000 fbf5 	bl	34ee <_dtoa_r+0x9b2>
    2d04:	001d      	movs	r5, r3
    2d06:	9314      	str	r3, [sp, #80]	; 0x50
    2d08:	9307      	str	r3, [sp, #28]
    2d0a:	2300      	movs	r3, #0
    2d0c:	4652      	mov	r2, sl
    2d0e:	6453      	str	r3, [r2, #68]	; 0x44
    2d10:	2d17      	cmp	r5, #23
    2d12:	dc01      	bgt.n	2d18 <_dtoa_r+0x1dc>
    2d14:	f000 fed4 	bl	3ac0 <_dtoa_r+0xf84>
    2d18:	2201      	movs	r2, #1
    2d1a:	3304      	adds	r3, #4
    2d1c:	005b      	lsls	r3, r3, #1
    2d1e:	0018      	movs	r0, r3
    2d20:	3014      	adds	r0, #20
    2d22:	0011      	movs	r1, r2
    2d24:	3201      	adds	r2, #1
    2d26:	42a8      	cmp	r0, r5
    2d28:	d9f8      	bls.n	2d1c <_dtoa_r+0x1e0>
    2d2a:	4653      	mov	r3, sl
    2d2c:	6459      	str	r1, [r3, #68]	; 0x44
    2d2e:	4650      	mov	r0, sl
    2d30:	f001 fbe6 	bl	4500 <_Balloc>
    2d34:	9003      	str	r0, [sp, #12]
    2d36:	2800      	cmp	r0, #0
    2d38:	d101      	bne.n	2d3e <_dtoa_r+0x202>
    2d3a:	f000 feaf 	bl	3a9c <_dtoa_r+0xf60>
    2d3e:	4653      	mov	r3, sl
    2d40:	9a03      	ldr	r2, [sp, #12]
    2d42:	641a      	str	r2, [r3, #64]	; 0x40
    2d44:	9b07      	ldr	r3, [sp, #28]
    2d46:	2b0e      	cmp	r3, #14
    2d48:	d900      	bls.n	2d4c <_dtoa_r+0x210>
    2d4a:	e0e5      	b.n	2f18 <_dtoa_r+0x3dc>
    2d4c:	2c00      	cmp	r4, #0
    2d4e:	d100      	bne.n	2d52 <_dtoa_r+0x216>
    2d50:	e0e2      	b.n	2f18 <_dtoa_r+0x3dc>
    2d52:	9809      	ldr	r0, [sp, #36]	; 0x24
    2d54:	2800      	cmp	r0, #0
    2d56:	dc01      	bgt.n	2d5c <_dtoa_r+0x220>
    2d58:	f000 fd0b 	bl	3772 <_dtoa_r+0xc36>
    2d5c:	210f      	movs	r1, #15
    2d5e:	0002      	movs	r2, r0
    2d60:	4b61      	ldr	r3, [pc, #388]	; (2ee8 <_dtoa_r+0x3ac>)
    2d62:	400a      	ands	r2, r1
    2d64:	00d2      	lsls	r2, r2, #3
    2d66:	189b      	adds	r3, r3, r2
    2d68:	1106      	asrs	r6, r0, #4
    2d6a:	681c      	ldr	r4, [r3, #0]
    2d6c:	685d      	ldr	r5, [r3, #4]
    2d6e:	05c3      	lsls	r3, r0, #23
    2d70:	d501      	bpl.n	2d76 <_dtoa_r+0x23a>
    2d72:	f000 fc06 	bl	3582 <_dtoa_r+0xa46>
    2d76:	9a0a      	ldr	r2, [sp, #40]	; 0x28
    2d78:	9b0b      	ldr	r3, [sp, #44]	; 0x2c
    2d7a:	9210      	str	r2, [sp, #64]	; 0x40
    2d7c:	9311      	str	r3, [sp, #68]	; 0x44
    2d7e:	2302      	movs	r3, #2
    2d80:	4698      	mov	r8, r3
    2d82:	2e00      	cmp	r6, #0
    2d84:	d011      	beq.n	2daa <_dtoa_r+0x26e>
    2d86:	4f59      	ldr	r7, [pc, #356]	; (2eec <_dtoa_r+0x3b0>)
    2d88:	2301      	movs	r3, #1
    2d8a:	4233      	tst	r3, r6
    2d8c:	d009      	beq.n	2da2 <_dtoa_r+0x266>
    2d8e:	469c      	mov	ip, r3
    2d90:	683a      	ldr	r2, [r7, #0]
    2d92:	687b      	ldr	r3, [r7, #4]
    2d94:	0020      	movs	r0, r4
    2d96:	0029      	movs	r1, r5
    2d98:	44e0      	add	r8, ip
    2d9a:	f006 f87b 	bl	8e94 <__aeabi_dmul>
    2d9e:	0004      	movs	r4, r0
    2da0:	000d      	movs	r5, r1
    2da2:	1076      	asrs	r6, r6, #1
    2da4:	3708      	adds	r7, #8
    2da6:	2e00      	cmp	r6, #0
    2da8:	d1ee      	bne.n	2d88 <_dtoa_r+0x24c>
    2daa:	9810      	ldr	r0, [sp, #64]	; 0x40
    2dac:	9911      	ldr	r1, [sp, #68]	; 0x44
    2dae:	0022      	movs	r2, r4
    2db0:	002b      	movs	r3, r5
    2db2:	f005 fc6d 	bl	8690 <__aeabi_ddiv>
    2db6:	0006      	movs	r6, r0
    2db8:	000f      	movs	r7, r1
    2dba:	9b0e      	ldr	r3, [sp, #56]	; 0x38
    2dbc:	2b00      	cmp	r3, #0
    2dbe:	d009      	beq.n	2dd4 <_dtoa_r+0x298>
    2dc0:	2200      	movs	r2, #0
    2dc2:	0030      	movs	r0, r6
    2dc4:	0039      	movs	r1, r7
    2dc6:	4b4a      	ldr	r3, [pc, #296]	; (2ef0 <_dtoa_r+0x3b4>)
    2dc8:	f004 fbc8 	bl	755c <__aeabi_dcmplt>
    2dcc:	2800      	cmp	r0, #0
    2dce:	d001      	beq.n	2dd4 <_dtoa_r+0x298>
    2dd0:	f000 fbfd 	bl	35ce <_dtoa_r+0xa92>
    2dd4:	4640      	mov	r0, r8
    2dd6:	f006 feaf 	bl	9b38 <__aeabi_i2d>
    2dda:	0032      	movs	r2, r6
    2ddc:	003b      	movs	r3, r7
    2dde:	f006 f859 	bl	8e94 <__aeabi_dmul>
    2de2:	2200      	movs	r2, #0
    2de4:	4b43      	ldr	r3, [pc, #268]	; (2ef4 <_dtoa_r+0x3b8>)
    2de6:	f005 f917 	bl	8018 <__aeabi_dadd>
    2dea:	4a43      	ldr	r2, [pc, #268]	; (2ef8 <_dtoa_r+0x3bc>)
    2dec:	000b      	movs	r3, r1
    2dee:	4694      	mov	ip, r2
    2df0:	4463      	add	r3, ip
    2df2:	9012      	str	r0, [sp, #72]	; 0x48
    2df4:	9113      	str	r1, [sp, #76]	; 0x4c
    2df6:	9313      	str	r3, [sp, #76]	; 0x4c
    2df8:	9b09      	ldr	r3, [sp, #36]	; 0x24
    2dfa:	9315      	str	r3, [sp, #84]	; 0x54
    2dfc:	9b07      	ldr	r3, [sp, #28]
    2dfe:	9310      	str	r3, [sp, #64]	; 0x40
    2e00:	2b00      	cmp	r3, #0
    2e02:	d001      	beq.n	2e08 <_dtoa_r+0x2cc>
    2e04:	f000 fc0a 	bl	361c <_dtoa_r+0xae0>
    2e08:	2200      	movs	r2, #0
    2e0a:	0030      	movs	r0, r6
    2e0c:	0039      	movs	r1, r7
    2e0e:	4b3b      	ldr	r3, [pc, #236]	; (2efc <_dtoa_r+0x3c0>)
    2e10:	f006 faac 	bl	936c <__aeabi_dsub>
    2e14:	9e12      	ldr	r6, [sp, #72]	; 0x48
    2e16:	9f13      	ldr	r7, [sp, #76]	; 0x4c
    2e18:	0032      	movs	r2, r6
    2e1a:	003b      	movs	r3, r7
    2e1c:	0004      	movs	r4, r0
    2e1e:	000d      	movs	r5, r1
    2e20:	f004 fbb0 	bl	7584 <__aeabi_dcmpgt>
    2e24:	2800      	cmp	r0, #0
    2e26:	d001      	beq.n	2e2c <_dtoa_r+0x2f0>
    2e28:	f000 fde0 	bl	39ec <_dtoa_r+0xeb0>
    2e2c:	2080      	movs	r0, #128	; 0x80
    2e2e:	0600      	lsls	r0, r0, #24
    2e30:	4684      	mov	ip, r0
    2e32:	0039      	movs	r1, r7
    2e34:	4461      	add	r1, ip
    2e36:	000b      	movs	r3, r1
    2e38:	0032      	movs	r2, r6
    2e3a:	0020      	movs	r0, r4
    2e3c:	0029      	movs	r1, r5
    2e3e:	f004 fb8d 	bl	755c <__aeabi_dcmplt>
    2e42:	2800      	cmp	r0, #0
    2e44:	d068      	beq.n	2f18 <_dtoa_r+0x3dc>
    2e46:	2300      	movs	r3, #0
    2e48:	2700      	movs	r7, #0
    2e4a:	4699      	mov	r9, r3
    2e4c:	e08d      	b.n	2f6a <_dtoa_r+0x42e>
    2e4e:	2301      	movs	r3, #1
    2e50:	006f      	lsls	r7, r5, #1
    2e52:	087f      	lsrs	r7, r7, #1
    2e54:	003a      	movs	r2, r7
    2e56:	6033      	str	r3, [r6, #0]
    2e58:	4b17      	ldr	r3, [pc, #92]	; (2eb8 <_dtoa_r+0x37c>)
    2e5a:	9705      	str	r7, [sp, #20]
    2e5c:	401a      	ands	r2, r3
    2e5e:	429a      	cmp	r2, r3
    2e60:	d000      	beq.n	2e64 <_dtoa_r+0x328>
    2e62:	e690      	b.n	2b86 <_dtoa_r+0x4a>
    2e64:	9a26      	ldr	r2, [sp, #152]	; 0x98
    2e66:	4b26      	ldr	r3, [pc, #152]	; (2f00 <_dtoa_r+0x3c4>)
    2e68:	6013      	str	r3, [r2, #0]
    2e6a:	033a      	lsls	r2, r7, #12
    2e6c:	0b12      	lsrs	r2, r2, #12
    2e6e:	4314      	orrs	r4, r2
    2e70:	d11a      	bne.n	2ea8 <_dtoa_r+0x36c>
    2e72:	9b28      	ldr	r3, [sp, #160]	; 0xa0
    2e74:	2b00      	cmp	r3, #0
    2e76:	d101      	bne.n	2e7c <_dtoa_r+0x340>
    2e78:	f000 fe1e 	bl	3ab8 <_dtoa_r+0xf7c>
    2e7c:	4b21      	ldr	r3, [pc, #132]	; (2f04 <_dtoa_r+0x3c8>)
    2e7e:	9303      	str	r3, [sp, #12]
    2e80:	3308      	adds	r3, #8
    2e82:	9a28      	ldr	r2, [sp, #160]	; 0xa0
    2e84:	6013      	str	r3, [r2, #0]
    2e86:	e695      	b.n	2bb4 <_dtoa_r+0x78>
    2e88:	9b0a      	ldr	r3, [sp, #40]	; 0x28
    2e8a:	9c0b      	ldr	r4, [sp, #44]	; 0x2c
    2e8c:	4a18      	ldr	r2, [pc, #96]	; (2ef0 <_dtoa_r+0x3b4>)
    2e8e:	0018      	movs	r0, r3
    2e90:	0323      	lsls	r3, r4, #12
    2e92:	0b1b      	lsrs	r3, r3, #12
    2e94:	431a      	orrs	r2, r3
    2e96:	4b1c      	ldr	r3, [pc, #112]	; (2f08 <_dtoa_r+0x3cc>)
    2e98:	0011      	movs	r1, r2
    2e9a:	469c      	mov	ip, r3
    2e9c:	9b18      	ldr	r3, [sp, #96]	; 0x60
    2e9e:	4466      	add	r6, ip
    2ea0:	4698      	mov	r8, r3
    2ea2:	2300      	movs	r3, #0
    2ea4:	930f      	str	r3, [sp, #60]	; 0x3c
    2ea6:	e6b2      	b.n	2c0e <_dtoa_r+0xd2>
    2ea8:	9b28      	ldr	r3, [sp, #160]	; 0xa0
    2eaa:	2b00      	cmp	r3, #0
    2eac:	d000      	beq.n	2eb0 <_dtoa_r+0x374>
    2eae:	e30d      	b.n	34cc <_dtoa_r+0x990>
    2eb0:	4b16      	ldr	r3, [pc, #88]	; (2f0c <_dtoa_r+0x3d0>)
    2eb2:	9303      	str	r3, [sp, #12]
    2eb4:	e67e      	b.n	2bb4 <_dtoa_r+0x78>
    2eb6:	46c0      	nop			; (mov r8, r8)
    2eb8:	7ff00000 	.word	0x7ff00000
    2ebc:	0000a19d 	.word	0x0000a19d
    2ec0:	00000432 	.word	0x00000432
    2ec4:	00000412 	.word	0x00000412
    2ec8:	fe100000 	.word	0xfe100000
    2ecc:	3ff80000 	.word	0x3ff80000
    2ed0:	636f4361 	.word	0x636f4361
    2ed4:	3fd287a7 	.word	0x3fd287a7
    2ed8:	8b60c8b3 	.word	0x8b60c8b3
    2edc:	3fc68a28 	.word	0x3fc68a28
    2ee0:	509f79fb 	.word	0x509f79fb
    2ee4:	3fd34413 	.word	0x3fd34413
    2ee8:	0000a2f0 	.word	0x0000a2f0
    2eec:	0000a2c8 	.word	0x0000a2c8
    2ef0:	3ff00000 	.word	0x3ff00000
    2ef4:	401c0000 	.word	0x401c0000
    2ef8:	fcc00000 	.word	0xfcc00000
    2efc:	40140000 	.word	0x40140000
    2f00:	0000270f 	.word	0x0000270f
    2f04:	0000a190 	.word	0x0000a190
    2f08:	fffffc01 	.word	0xfffffc01
    2f0c:	0000a18c 	.word	0x0000a18c
    2f10:	9b17      	ldr	r3, [sp, #92]	; 0x5c
    2f12:	4699      	mov	r9, r3
    2f14:	9b16      	ldr	r3, [sp, #88]	; 0x58
    2f16:	469b      	mov	fp, r3
    2f18:	9b19      	ldr	r3, [sp, #100]	; 0x64
    2f1a:	2b00      	cmp	r3, #0
    2f1c:	da00      	bge.n	2f20 <_dtoa_r+0x3e4>
    2f1e:	e08b      	b.n	3038 <_dtoa_r+0x4fc>
    2f20:	9a09      	ldr	r2, [sp, #36]	; 0x24
    2f22:	2a0e      	cmp	r2, #14
    2f24:	dd00      	ble.n	2f28 <_dtoa_r+0x3ec>
    2f26:	e087      	b.n	3038 <_dtoa_r+0x4fc>
    2f28:	4bdc      	ldr	r3, [pc, #880]	; (329c <_dtoa_r+0x760>)
    2f2a:	00d2      	lsls	r2, r2, #3
    2f2c:	189b      	adds	r3, r3, r2
    2f2e:	681e      	ldr	r6, [r3, #0]
    2f30:	685f      	ldr	r7, [r3, #4]
    2f32:	9b25      	ldr	r3, [sp, #148]	; 0x94
    2f34:	2b00      	cmp	r3, #0
    2f36:	da1c      	bge.n	2f72 <_dtoa_r+0x436>
    2f38:	9b07      	ldr	r3, [sp, #28]
    2f3a:	2b00      	cmp	r3, #0
    2f3c:	dc19      	bgt.n	2f72 <_dtoa_r+0x436>
    2f3e:	9b07      	ldr	r3, [sp, #28]
    2f40:	2b00      	cmp	r3, #0
    2f42:	d000      	beq.n	2f46 <_dtoa_r+0x40a>
    2f44:	e77f      	b.n	2e46 <_dtoa_r+0x30a>
    2f46:	2200      	movs	r2, #0
    2f48:	0039      	movs	r1, r7
    2f4a:	4bd5      	ldr	r3, [pc, #852]	; (32a0 <_dtoa_r+0x764>)
    2f4c:	0030      	movs	r0, r6
    2f4e:	f005 ffa1 	bl	8e94 <__aeabi_dmul>
    2f52:	000b      	movs	r3, r1
    2f54:	0002      	movs	r2, r0
    2f56:	980a      	ldr	r0, [sp, #40]	; 0x28
    2f58:	990b      	ldr	r1, [sp, #44]	; 0x2c
    2f5a:	f004 fb09 	bl	7570 <__aeabi_dcmple>
    2f5e:	2300      	movs	r3, #0
    2f60:	2700      	movs	r7, #0
    2f62:	4699      	mov	r9, r3
    2f64:	2800      	cmp	r0, #0
    2f66:	d100      	bne.n	2f6a <_dtoa_r+0x42e>
    2f68:	e2dc      	b.n	3524 <_dtoa_r+0x9e8>
    2f6a:	9b25      	ldr	r3, [sp, #148]	; 0x94
    2f6c:	9d03      	ldr	r5, [sp, #12]
    2f6e:	43dc      	mvns	r4, r3
    2f70:	e2e0      	b.n	3534 <_dtoa_r+0x9f8>
    2f72:	0032      	movs	r2, r6
    2f74:	9c0a      	ldr	r4, [sp, #40]	; 0x28
    2f76:	9d0b      	ldr	r5, [sp, #44]	; 0x2c
    2f78:	003b      	movs	r3, r7
    2f7a:	0020      	movs	r0, r4
    2f7c:	0029      	movs	r1, r5
    2f7e:	f005 fb87 	bl	8690 <__aeabi_ddiv>
    2f82:	f006 fda3 	bl	9acc <__aeabi_d2iz>
    2f86:	4681      	mov	r9, r0
    2f88:	f006 fdd6 	bl	9b38 <__aeabi_i2d>
    2f8c:	0032      	movs	r2, r6
    2f8e:	003b      	movs	r3, r7
    2f90:	f005 ff80 	bl	8e94 <__aeabi_dmul>
    2f94:	0002      	movs	r2, r0
    2f96:	000b      	movs	r3, r1
    2f98:	0020      	movs	r0, r4
    2f9a:	0029      	movs	r1, r5
    2f9c:	f006 f9e6 	bl	936c <__aeabi_dsub>
    2fa0:	9a03      	ldr	r2, [sp, #12]
    2fa2:	1c53      	adds	r3, r2, #1
    2fa4:	4698      	mov	r8, r3
    2fa6:	464b      	mov	r3, r9
    2fa8:	3330      	adds	r3, #48	; 0x30
    2faa:	7013      	strb	r3, [r2, #0]
    2fac:	9b07      	ldr	r3, [sp, #28]
    2fae:	2b01      	cmp	r3, #1
    2fb0:	d101      	bne.n	2fb6 <_dtoa_r+0x47a>
    2fb2:	f000 fc4c 	bl	384e <_dtoa_r+0xd12>
    2fb6:	3a01      	subs	r2, #1
    2fb8:	2301      	movs	r3, #1
    2fba:	9204      	str	r2, [sp, #16]
    2fbc:	4652      	mov	r2, sl
    2fbe:	46c2      	mov	sl, r8
    2fc0:	9206      	str	r2, [sp, #24]
    2fc2:	4698      	mov	r8, r3
    2fc4:	e024      	b.n	3010 <_dtoa_r+0x4d4>
    2fc6:	2301      	movs	r3, #1
    2fc8:	469c      	mov	ip, r3
    2fca:	0032      	movs	r2, r6
    2fcc:	003b      	movs	r3, r7
    2fce:	0020      	movs	r0, r4
    2fd0:	0029      	movs	r1, r5
    2fd2:	44e0      	add	r8, ip
    2fd4:	f005 fb5c 	bl	8690 <__aeabi_ddiv>
    2fd8:	f006 fd78 	bl	9acc <__aeabi_d2iz>
    2fdc:	4681      	mov	r9, r0
    2fde:	f006 fdab 	bl	9b38 <__aeabi_i2d>
    2fe2:	0032      	movs	r2, r6
    2fe4:	003b      	movs	r3, r7
    2fe6:	f005 ff55 	bl	8e94 <__aeabi_dmul>
    2fea:	0002      	movs	r2, r0
    2fec:	000b      	movs	r3, r1
    2fee:	0020      	movs	r0, r4
    2ff0:	0029      	movs	r1, r5
    2ff2:	f006 f9bb 	bl	936c <__aeabi_dsub>
    2ff6:	2301      	movs	r3, #1
    2ff8:	469c      	mov	ip, r3
    2ffa:	464b      	mov	r3, r9
    2ffc:	4644      	mov	r4, r8
    2ffe:	9a04      	ldr	r2, [sp, #16]
    3000:	3330      	adds	r3, #48	; 0x30
    3002:	5513      	strb	r3, [r2, r4]
    3004:	9b07      	ldr	r3, [sp, #28]
    3006:	44e2      	add	sl, ip
    3008:	4598      	cmp	r8, r3
    300a:	d101      	bne.n	3010 <_dtoa_r+0x4d4>
    300c:	f000 fc1c 	bl	3848 <_dtoa_r+0xd0c>
    3010:	2200      	movs	r2, #0
    3012:	4ba4      	ldr	r3, [pc, #656]	; (32a4 <_dtoa_r+0x768>)
    3014:	f005 ff3e 	bl	8e94 <__aeabi_dmul>
    3018:	2200      	movs	r2, #0
    301a:	2300      	movs	r3, #0
    301c:	0004      	movs	r4, r0
    301e:	000d      	movs	r5, r1
    3020:	f004 fa96 	bl	7550 <__aeabi_dcmpeq>
    3024:	2800      	cmp	r0, #0
    3026:	d0ce      	beq.n	2fc6 <_dtoa_r+0x48a>
    3028:	9b06      	ldr	r3, [sp, #24]
    302a:	46d0      	mov	r8, sl
    302c:	469a      	mov	sl, r3
    302e:	9b09      	ldr	r3, [sp, #36]	; 0x24
    3030:	4644      	mov	r4, r8
    3032:	3301      	adds	r3, #1
    3034:	9309      	str	r3, [sp, #36]	; 0x24
    3036:	e156      	b.n	32e6 <_dtoa_r+0x7aa>
    3038:	9a0d      	ldr	r2, [sp, #52]	; 0x34
    303a:	2a00      	cmp	r2, #0
    303c:	d06f      	beq.n	311e <_dtoa_r+0x5e2>
    303e:	9a24      	ldr	r2, [sp, #144]	; 0x90
    3040:	2a01      	cmp	r2, #1
    3042:	dc00      	bgt.n	3046 <_dtoa_r+0x50a>
    3044:	e2af      	b.n	35a6 <_dtoa_r+0xa6a>
    3046:	9b07      	ldr	r3, [sp, #28]
    3048:	1e5d      	subs	r5, r3, #1
    304a:	464b      	mov	r3, r9
    304c:	45a9      	cmp	r9, r5
    304e:	db00      	blt.n	3052 <_dtoa_r+0x516>
    3050:	e295      	b.n	357e <_dtoa_r+0xa42>
    3052:	9a06      	ldr	r2, [sp, #24]
    3054:	1aeb      	subs	r3, r5, r3
    3056:	4694      	mov	ip, r2
    3058:	449c      	add	ip, r3
    305a:	4663      	mov	r3, ip
    305c:	46a9      	mov	r9, r5
    305e:	2500      	movs	r5, #0
    3060:	9306      	str	r3, [sp, #24]
    3062:	990c      	ldr	r1, [sp, #48]	; 0x30
    3064:	9b07      	ldr	r3, [sp, #28]
    3066:	1acc      	subs	r4, r1, r3
    3068:	2b00      	cmp	r3, #0
    306a:	db06      	blt.n	307a <_dtoa_r+0x53e>
    306c:	469c      	mov	ip, r3
    306e:	9808      	ldr	r0, [sp, #32]
    3070:	000c      	movs	r4, r1
    3072:	4460      	add	r0, ip
    3074:	4461      	add	r1, ip
    3076:	9008      	str	r0, [sp, #32]
    3078:	910c      	str	r1, [sp, #48]	; 0x30
    307a:	2101      	movs	r1, #1
    307c:	4650      	mov	r0, sl
    307e:	f001 fb67 	bl	4750 <__i2b>
    3082:	0007      	movs	r7, r0
    3084:	e04e      	b.n	3124 <_dtoa_r+0x5e8>
    3086:	4643      	mov	r3, r8
    3088:	1b9e      	subs	r6, r3, r6
    308a:	0033      	movs	r3, r6
    308c:	3b01      	subs	r3, #1
    308e:	9308      	str	r3, [sp, #32]
    3090:	d500      	bpl.n	3094 <_dtoa_r+0x558>
    3092:	e36b      	b.n	376c <_dtoa_r+0xc30>
    3094:	2300      	movs	r3, #0
    3096:	930e      	str	r3, [sp, #56]	; 0x38
    3098:	930c      	str	r3, [sp, #48]	; 0x30
    309a:	9a06      	ldr	r2, [sp, #24]
    309c:	9b08      	ldr	r3, [sp, #32]
    309e:	4694      	mov	ip, r2
    30a0:	4463      	add	r3, ip
    30a2:	9308      	str	r3, [sp, #32]
    30a4:	2300      	movs	r3, #0
    30a6:	4699      	mov	r9, r3
    30a8:	9b24      	ldr	r3, [sp, #144]	; 0x90
    30aa:	2401      	movs	r4, #1
    30ac:	9209      	str	r2, [sp, #36]	; 0x24
    30ae:	2b09      	cmp	r3, #9
    30b0:	d800      	bhi.n	30b4 <_dtoa_r+0x578>
    30b2:	e60f      	b.n	2cd4 <_dtoa_r+0x198>
    30b4:	2201      	movs	r2, #1
    30b6:	2300      	movs	r3, #0
    30b8:	920d      	str	r2, [sp, #52]	; 0x34
    30ba:	3a02      	subs	r2, #2
    30bc:	9324      	str	r3, [sp, #144]	; 0x90
    30be:	9207      	str	r2, [sp, #28]
    30c0:	9325      	str	r3, [sp, #148]	; 0x94
    30c2:	2300      	movs	r3, #0
    30c4:	4652      	mov	r2, sl
    30c6:	6453      	str	r3, [r2, #68]	; 0x44
    30c8:	9b07      	ldr	r3, [sp, #28]
    30ca:	2100      	movs	r1, #0
    30cc:	9314      	str	r3, [sp, #80]	; 0x50
    30ce:	e62e      	b.n	2d2e <_dtoa_r+0x1f2>
    30d0:	2301      	movs	r3, #1
    30d2:	930e      	str	r3, [sp, #56]	; 0x38
    30d4:	4643      	mov	r3, r8
    30d6:	1b9e      	subs	r6, r3, r6
    30d8:	2300      	movs	r3, #0
    30da:	930c      	str	r3, [sp, #48]	; 0x30
    30dc:	0033      	movs	r3, r6
    30de:	3b01      	subs	r3, #1
    30e0:	9308      	str	r3, [sp, #32]
    30e2:	d400      	bmi.n	30e6 <_dtoa_r+0x5aa>
    30e4:	e5e4      	b.n	2cb0 <_dtoa_r+0x174>
    30e6:	2301      	movs	r3, #1
    30e8:	1b9b      	subs	r3, r3, r6
    30ea:	930c      	str	r3, [sp, #48]	; 0x30
    30ec:	2300      	movs	r3, #0
    30ee:	9308      	str	r3, [sp, #32]
    30f0:	e5de      	b.n	2cb0 <_dtoa_r+0x174>
    30f2:	2300      	movs	r3, #0
    30f4:	930d      	str	r3, [sp, #52]	; 0x34
    30f6:	9b24      	ldr	r3, [sp, #144]	; 0x90
    30f8:	2b03      	cmp	r3, #3
    30fa:	d001      	beq.n	3100 <_dtoa_r+0x5c4>
    30fc:	f000 fcb8 	bl	3a70 <_dtoa_r+0xf34>
    3100:	9a09      	ldr	r2, [sp, #36]	; 0x24
    3102:	9b25      	ldr	r3, [sp, #148]	; 0x94
    3104:	4694      	mov	ip, r2
    3106:	4463      	add	r3, ip
    3108:	9314      	str	r3, [sp, #80]	; 0x50
    310a:	3301      	adds	r3, #1
    310c:	1e1d      	subs	r5, r3, #0
    310e:	9307      	str	r3, [sp, #28]
    3110:	dd00      	ble.n	3114 <_dtoa_r+0x5d8>
    3112:	e5fa      	b.n	2d0a <_dtoa_r+0x1ce>
    3114:	2501      	movs	r5, #1
    3116:	e5f8      	b.n	2d0a <_dtoa_r+0x1ce>
    3118:	4b63      	ldr	r3, [pc, #396]	; (32a8 <_dtoa_r+0x76c>)
    311a:	9303      	str	r3, [sp, #12]
    311c:	e54a      	b.n	2bb4 <_dtoa_r+0x78>
    311e:	464d      	mov	r5, r9
    3120:	2700      	movs	r7, #0
    3122:	9c0c      	ldr	r4, [sp, #48]	; 0x30
    3124:	2c00      	cmp	r4, #0
    3126:	dd0d      	ble.n	3144 <_dtoa_r+0x608>
    3128:	9a08      	ldr	r2, [sp, #32]
    312a:	2a00      	cmp	r2, #0
    312c:	dd0a      	ble.n	3144 <_dtoa_r+0x608>
    312e:	0023      	movs	r3, r4
    3130:	4294      	cmp	r4, r2
    3132:	dd00      	ble.n	3136 <_dtoa_r+0x5fa>
    3134:	e20a      	b.n	354c <_dtoa_r+0xa10>
    3136:	9a0c      	ldr	r2, [sp, #48]	; 0x30
    3138:	1ae4      	subs	r4, r4, r3
    313a:	1ad2      	subs	r2, r2, r3
    313c:	920c      	str	r2, [sp, #48]	; 0x30
    313e:	9a08      	ldr	r2, [sp, #32]
    3140:	1ad3      	subs	r3, r2, r3
    3142:	9308      	str	r3, [sp, #32]
    3144:	464b      	mov	r3, r9
    3146:	2b00      	cmp	r3, #0
    3148:	d01b      	beq.n	3182 <_dtoa_r+0x646>
    314a:	9b0d      	ldr	r3, [sp, #52]	; 0x34
    314c:	2b00      	cmp	r3, #0
    314e:	d100      	bne.n	3152 <_dtoa_r+0x616>
    3150:	e1b5      	b.n	34be <_dtoa_r+0x982>
    3152:	2d00      	cmp	r5, #0
    3154:	dd10      	ble.n	3178 <_dtoa_r+0x63c>
    3156:	0039      	movs	r1, r7
    3158:	002a      	movs	r2, r5
    315a:	4650      	mov	r0, sl
    315c:	f001 fbfa 	bl	4954 <__pow5mult>
    3160:	465a      	mov	r2, fp
    3162:	0001      	movs	r1, r0
    3164:	0007      	movs	r7, r0
    3166:	4650      	mov	r0, sl
    3168:	f001 fb22 	bl	47b0 <__multiply>
    316c:	0006      	movs	r6, r0
    316e:	4659      	mov	r1, fp
    3170:	4650      	mov	r0, sl
    3172:	f001 f9ed 	bl	4550 <_Bfree>
    3176:	46b3      	mov	fp, r6
    3178:	464b      	mov	r3, r9
    317a:	1b5a      	subs	r2, r3, r5
    317c:	45a9      	cmp	r9, r5
    317e:	d000      	beq.n	3182 <_dtoa_r+0x646>
    3180:	e19e      	b.n	34c0 <_dtoa_r+0x984>
    3182:	2101      	movs	r1, #1
    3184:	4650      	mov	r0, sl
    3186:	f001 fae3 	bl	4750 <__i2b>
    318a:	9a06      	ldr	r2, [sp, #24]
    318c:	4681      	mov	r9, r0
    318e:	2a00      	cmp	r2, #0
    3190:	dd00      	ble.n	3194 <_dtoa_r+0x658>
    3192:	e0c9      	b.n	3328 <_dtoa_r+0x7ec>
    3194:	9b24      	ldr	r3, [sp, #144]	; 0x90
    3196:	2500      	movs	r5, #0
    3198:	2b01      	cmp	r3, #1
    319a:	dc00      	bgt.n	319e <_dtoa_r+0x662>
    319c:	e19d      	b.n	34da <_dtoa_r+0x99e>
    319e:	9b06      	ldr	r3, [sp, #24]
    31a0:	2001      	movs	r0, #1
    31a2:	2b00      	cmp	r3, #0
    31a4:	d000      	beq.n	31a8 <_dtoa_r+0x66c>
    31a6:	e0c9      	b.n	333c <_dtoa_r+0x800>
    31a8:	231f      	movs	r3, #31
    31aa:	9908      	ldr	r1, [sp, #32]
    31ac:	001a      	movs	r2, r3
    31ae:	468c      	mov	ip, r1
    31b0:	4460      	add	r0, ip
    31b2:	4002      	ands	r2, r0
    31b4:	4203      	tst	r3, r0
    31b6:	d100      	bne.n	31ba <_dtoa_r+0x67e>
    31b8:	e0a4      	b.n	3304 <_dtoa_r+0x7c8>
    31ba:	3301      	adds	r3, #1
    31bc:	1a9b      	subs	r3, r3, r2
    31be:	2b04      	cmp	r3, #4
    31c0:	dc01      	bgt.n	31c6 <_dtoa_r+0x68a>
    31c2:	f000 fc72 	bl	3aaa <_dtoa_r+0xf6e>
    31c6:	231c      	movs	r3, #28
    31c8:	1a9b      	subs	r3, r3, r2
    31ca:	9a0c      	ldr	r2, [sp, #48]	; 0x30
    31cc:	18e4      	adds	r4, r4, r3
    31ce:	4694      	mov	ip, r2
    31d0:	449c      	add	ip, r3
    31d2:	4662      	mov	r2, ip
    31d4:	468c      	mov	ip, r1
    31d6:	449c      	add	ip, r3
    31d8:	4663      	mov	r3, ip
    31da:	920c      	str	r2, [sp, #48]	; 0x30
    31dc:	9308      	str	r3, [sp, #32]
    31de:	9b0c      	ldr	r3, [sp, #48]	; 0x30
    31e0:	2b00      	cmp	r3, #0
    31e2:	dd05      	ble.n	31f0 <_dtoa_r+0x6b4>
    31e4:	4659      	mov	r1, fp
    31e6:	001a      	movs	r2, r3
    31e8:	4650      	mov	r0, sl
    31ea:	f001 fc1f 	bl	4a2c <__lshift>
    31ee:	4683      	mov	fp, r0
    31f0:	9b08      	ldr	r3, [sp, #32]
    31f2:	2b00      	cmp	r3, #0
    31f4:	dd05      	ble.n	3202 <_dtoa_r+0x6c6>
    31f6:	4649      	mov	r1, r9
    31f8:	001a      	movs	r2, r3
    31fa:	4650      	mov	r0, sl
    31fc:	f001 fc16 	bl	4a2c <__lshift>
    3200:	4681      	mov	r9, r0
    3202:	9b0e      	ldr	r3, [sp, #56]	; 0x38
    3204:	2b00      	cmp	r3, #0
    3206:	d000      	beq.n	320a <_dtoa_r+0x6ce>
    3208:	e140      	b.n	348c <_dtoa_r+0x950>
    320a:	9b07      	ldr	r3, [sp, #28]
    320c:	2b00      	cmp	r3, #0
    320e:	dc00      	bgt.n	3212 <_dtoa_r+0x6d6>
    3210:	e126      	b.n	3460 <_dtoa_r+0x924>
    3212:	9b0d      	ldr	r3, [sp, #52]	; 0x34
    3214:	2b00      	cmp	r3, #0
    3216:	d000      	beq.n	321a <_dtoa_r+0x6de>
    3218:	e0a8      	b.n	336c <_dtoa_r+0x830>
    321a:	9b09      	ldr	r3, [sp, #36]	; 0x24
    321c:	3301      	adds	r3, #1
    321e:	9309      	str	r3, [sp, #36]	; 0x24
    3220:	9b03      	ldr	r3, [sp, #12]
    3222:	9a07      	ldr	r2, [sp, #28]
    3224:	1e5d      	subs	r5, r3, #1
    3226:	464b      	mov	r3, r9
    3228:	46a8      	mov	r8, r5
    322a:	46b9      	mov	r9, r7
    322c:	4655      	mov	r5, sl
    322e:	2401      	movs	r4, #1
    3230:	465e      	mov	r6, fp
    3232:	4692      	mov	sl, r2
    3234:	001f      	movs	r7, r3
    3236:	e007      	b.n	3248 <_dtoa_r+0x70c>
    3238:	0031      	movs	r1, r6
    323a:	2300      	movs	r3, #0
    323c:	220a      	movs	r2, #10
    323e:	0028      	movs	r0, r5
    3240:	f001 f990 	bl	4564 <__multadd>
    3244:	0006      	movs	r6, r0
    3246:	3401      	adds	r4, #1
    3248:	0039      	movs	r1, r7
    324a:	0030      	movs	r0, r6
    324c:	f7ff fbd2 	bl	29f4 <quorem>
    3250:	4643      	mov	r3, r8
    3252:	3030      	adds	r0, #48	; 0x30
    3254:	5518      	strb	r0, [r3, r4]
    3256:	4554      	cmp	r4, sl
    3258:	dbee      	blt.n	3238 <_dtoa_r+0x6fc>
    325a:	003b      	movs	r3, r7
    325c:	464f      	mov	r7, r9
    325e:	4699      	mov	r9, r3
    3260:	9b07      	ldr	r3, [sp, #28]
    3262:	46b3      	mov	fp, r6
    3264:	46aa      	mov	sl, r5
    3266:	2401      	movs	r4, #1
    3268:	9006      	str	r0, [sp, #24]
    326a:	2b00      	cmp	r3, #0
    326c:	dd00      	ble.n	3270 <_dtoa_r+0x734>
    326e:	001c      	movs	r4, r3
    3270:	9b03      	ldr	r3, [sp, #12]
    3272:	2600      	movs	r6, #0
    3274:	469c      	mov	ip, r3
    3276:	4464      	add	r4, ip
    3278:	4659      	mov	r1, fp
    327a:	2201      	movs	r2, #1
    327c:	4650      	mov	r0, sl
    327e:	f001 fbd5 	bl	4a2c <__lshift>
    3282:	4649      	mov	r1, r9
    3284:	4683      	mov	fp, r0
    3286:	f001 fc4f 	bl	4b28 <__mcmp>
    328a:	2800      	cmp	r0, #0
    328c:	dc00      	bgt.n	3290 <_dtoa_r+0x754>
    328e:	e260      	b.n	3752 <_dtoa_r+0xc16>
    3290:	1e65      	subs	r5, r4, #1
    3292:	782a      	ldrb	r2, [r5, #0]
    3294:	002b      	movs	r3, r5
    3296:	9903      	ldr	r1, [sp, #12]
    3298:	e00f      	b.n	32ba <_dtoa_r+0x77e>
    329a:	46c0      	nop			; (mov r8, r8)
    329c:	0000a2f0 	.word	0x0000a2f0
    32a0:	40140000 	.word	0x40140000
    32a4:	40240000 	.word	0x40240000
    32a8:	0000a19c 	.word	0x0000a19c
    32ac:	3b01      	subs	r3, #1
    32ae:	428d      	cmp	r5, r1
    32b0:	d100      	bne.n	32b4 <_dtoa_r+0x778>
    32b2:	e247      	b.n	3744 <_dtoa_r+0xc08>
    32b4:	781a      	ldrb	r2, [r3, #0]
    32b6:	002c      	movs	r4, r5
    32b8:	3d01      	subs	r5, #1
    32ba:	2a39      	cmp	r2, #57	; 0x39
    32bc:	d0f6      	beq.n	32ac <_dtoa_r+0x770>
    32be:	3201      	adds	r2, #1
    32c0:	702a      	strb	r2, [r5, #0]
    32c2:	4649      	mov	r1, r9
    32c4:	4650      	mov	r0, sl
    32c6:	f001 f943 	bl	4550 <_Bfree>
    32ca:	2f00      	cmp	r7, #0
    32cc:	d00b      	beq.n	32e6 <_dtoa_r+0x7aa>
    32ce:	2e00      	cmp	r6, #0
    32d0:	d005      	beq.n	32de <_dtoa_r+0x7a2>
    32d2:	42be      	cmp	r6, r7
    32d4:	d003      	beq.n	32de <_dtoa_r+0x7a2>
    32d6:	0031      	movs	r1, r6
    32d8:	4650      	mov	r0, sl
    32da:	f001 f939 	bl	4550 <_Bfree>
    32de:	0039      	movs	r1, r7
    32e0:	4650      	mov	r0, sl
    32e2:	f001 f935 	bl	4550 <_Bfree>
    32e6:	4659      	mov	r1, fp
    32e8:	4650      	mov	r0, sl
    32ea:	f001 f931 	bl	4550 <_Bfree>
    32ee:	2300      	movs	r3, #0
    32f0:	9a09      	ldr	r2, [sp, #36]	; 0x24
    32f2:	7023      	strb	r3, [r4, #0]
    32f4:	9b26      	ldr	r3, [sp, #152]	; 0x98
    32f6:	601a      	str	r2, [r3, #0]
    32f8:	9b28      	ldr	r3, [sp, #160]	; 0xa0
    32fa:	2b00      	cmp	r3, #0
    32fc:	d100      	bne.n	3300 <_dtoa_r+0x7c4>
    32fe:	e459      	b.n	2bb4 <_dtoa_r+0x78>
    3300:	601c      	str	r4, [r3, #0]
    3302:	e457      	b.n	2bb4 <_dtoa_r+0x78>
    3304:	231c      	movs	r3, #28
    3306:	9a0c      	ldr	r2, [sp, #48]	; 0x30
    3308:	18e4      	adds	r4, r4, r3
    330a:	4694      	mov	ip, r2
    330c:	449c      	add	ip, r3
    330e:	4662      	mov	r2, ip
    3310:	920c      	str	r2, [sp, #48]	; 0x30
    3312:	9a08      	ldr	r2, [sp, #32]
    3314:	4694      	mov	ip, r2
    3316:	449c      	add	ip, r3
    3318:	4663      	mov	r3, ip
    331a:	9308      	str	r3, [sp, #32]
    331c:	e75f      	b.n	31de <_dtoa_r+0x6a2>
    331e:	2220      	movs	r2, #32
    3320:	0020      	movs	r0, r4
    3322:	1ad3      	subs	r3, r2, r3
    3324:	4098      	lsls	r0, r3
    3326:	e46b      	b.n	2c00 <_dtoa_r+0xc4>
    3328:	0001      	movs	r1, r0
    332a:	4650      	mov	r0, sl
    332c:	f001 fb12 	bl	4954 <__pow5mult>
    3330:	9b24      	ldr	r3, [sp, #144]	; 0x90
    3332:	4681      	mov	r9, r0
    3334:	2b01      	cmp	r3, #1
    3336:	dc00      	bgt.n	333a <_dtoa_r+0x7fe>
    3338:	e10a      	b.n	3550 <_dtoa_r+0xa14>
    333a:	2500      	movs	r5, #0
    333c:	464b      	mov	r3, r9
    333e:	691b      	ldr	r3, [r3, #16]
    3340:	3303      	adds	r3, #3
    3342:	009b      	lsls	r3, r3, #2
    3344:	444b      	add	r3, r9
    3346:	6858      	ldr	r0, [r3, #4]
    3348:	f001 f9b8 	bl	46bc <__hi0bits>
    334c:	2320      	movs	r3, #32
    334e:	1a18      	subs	r0, r3, r0
    3350:	e72a      	b.n	31a8 <_dtoa_r+0x66c>
    3352:	2300      	movs	r3, #0
    3354:	0039      	movs	r1, r7
    3356:	220a      	movs	r2, #10
    3358:	4650      	mov	r0, sl
    335a:	f001 f903 	bl	4564 <__multadd>
    335e:	9b14      	ldr	r3, [sp, #80]	; 0x50
    3360:	0007      	movs	r7, r0
    3362:	2b00      	cmp	r3, #0
    3364:	dc00      	bgt.n	3368 <_dtoa_r+0x82c>
    3366:	e377      	b.n	3a58 <_dtoa_r+0xf1c>
    3368:	9609      	str	r6, [sp, #36]	; 0x24
    336a:	9307      	str	r3, [sp, #28]
    336c:	2c00      	cmp	r4, #0
    336e:	dd05      	ble.n	337c <_dtoa_r+0x840>
    3370:	0039      	movs	r1, r7
    3372:	0022      	movs	r2, r4
    3374:	4650      	mov	r0, sl
    3376:	f001 fb59 	bl	4a2c <__lshift>
    337a:	0007      	movs	r7, r0
    337c:	46b8      	mov	r8, r7
    337e:	2d00      	cmp	r5, #0
    3380:	d000      	beq.n	3384 <_dtoa_r+0x848>
    3382:	e282      	b.n	388a <_dtoa_r+0xd4e>
    3384:	9a07      	ldr	r2, [sp, #28]
    3386:	9b03      	ldr	r3, [sp, #12]
    3388:	4694      	mov	ip, r2
    338a:	001d      	movs	r5, r3
    338c:	3b01      	subs	r3, #1
    338e:	449c      	add	ip, r3
    3390:	4663      	mov	r3, ip
    3392:	9308      	str	r3, [sp, #32]
    3394:	2301      	movs	r3, #1
    3396:	002e      	movs	r6, r5
    3398:	465d      	mov	r5, fp
    339a:	46cb      	mov	fp, r9
    339c:	9a04      	ldr	r2, [sp, #16]
    339e:	401a      	ands	r2, r3
    33a0:	9207      	str	r2, [sp, #28]
    33a2:	4659      	mov	r1, fp
    33a4:	0028      	movs	r0, r5
    33a6:	f7ff fb25 	bl	29f4 <quorem>
    33aa:	0003      	movs	r3, r0
    33ac:	0039      	movs	r1, r7
    33ae:	3330      	adds	r3, #48	; 0x30
    33b0:	900c      	str	r0, [sp, #48]	; 0x30
    33b2:	0028      	movs	r0, r5
    33b4:	9306      	str	r3, [sp, #24]
    33b6:	f001 fbb7 	bl	4b28 <__mcmp>
    33ba:	4659      	mov	r1, fp
    33bc:	0004      	movs	r4, r0
    33be:	4642      	mov	r2, r8
    33c0:	4650      	mov	r0, sl
    33c2:	f001 fbcb 	bl	4b5c <__mdiff>
    33c6:	68c3      	ldr	r3, [r0, #12]
    33c8:	4681      	mov	r9, r0
    33ca:	0001      	movs	r1, r0
    33cc:	2b00      	cmp	r3, #0
    33ce:	d13b      	bne.n	3448 <_dtoa_r+0x90c>
    33d0:	0028      	movs	r0, r5
    33d2:	f001 fba9 	bl	4b28 <__mcmp>
    33d6:	4649      	mov	r1, r9
    33d8:	9004      	str	r0, [sp, #16]
    33da:	4650      	mov	r0, sl
    33dc:	f001 f8b8 	bl	4550 <_Bfree>
    33e0:	9a24      	ldr	r2, [sp, #144]	; 0x90
    33e2:	9b04      	ldr	r3, [sp, #16]
    33e4:	4313      	orrs	r3, r2
    33e6:	9a07      	ldr	r2, [sp, #28]
    33e8:	4313      	orrs	r3, r2
    33ea:	d100      	bne.n	33ee <_dtoa_r+0x8b2>
    33ec:	e302      	b.n	39f4 <_dtoa_r+0xeb8>
    33ee:	2c00      	cmp	r4, #0
    33f0:	da00      	bge.n	33f4 <_dtoa_r+0x8b8>
    33f2:	e1f2      	b.n	37da <_dtoa_r+0xc9e>
    33f4:	9b24      	ldr	r3, [sp, #144]	; 0x90
    33f6:	431c      	orrs	r4, r3
    33f8:	9b07      	ldr	r3, [sp, #28]
    33fa:	431c      	orrs	r4, r3
    33fc:	d100      	bne.n	3400 <_dtoa_r+0x8c4>
    33fe:	e1ec      	b.n	37da <_dtoa_r+0xc9e>
    3400:	9b04      	ldr	r3, [sp, #16]
    3402:	2b00      	cmp	r3, #0
    3404:	dd00      	ble.n	3408 <_dtoa_r+0x8cc>
    3406:	e2c9      	b.n	399c <_dtoa_r+0xe60>
    3408:	9a06      	ldr	r2, [sp, #24]
    340a:	1c74      	adds	r4, r6, #1
    340c:	7032      	strb	r2, [r6, #0]
    340e:	9a08      	ldr	r2, [sp, #32]
    3410:	4296      	cmp	r6, r2
    3412:	d100      	bne.n	3416 <_dtoa_r+0x8da>
    3414:	e2cc      	b.n	39b0 <_dtoa_r+0xe74>
    3416:	0029      	movs	r1, r5
    3418:	2300      	movs	r3, #0
    341a:	220a      	movs	r2, #10
    341c:	4650      	mov	r0, sl
    341e:	f001 f8a1 	bl	4564 <__multadd>
    3422:	2300      	movs	r3, #0
    3424:	0005      	movs	r5, r0
    3426:	220a      	movs	r2, #10
    3428:	0039      	movs	r1, r7
    342a:	4650      	mov	r0, sl
    342c:	4547      	cmp	r7, r8
    342e:	d011      	beq.n	3454 <_dtoa_r+0x918>
    3430:	f001 f898 	bl	4564 <__multadd>
    3434:	4641      	mov	r1, r8
    3436:	0007      	movs	r7, r0
    3438:	2300      	movs	r3, #0
    343a:	220a      	movs	r2, #10
    343c:	4650      	mov	r0, sl
    343e:	f001 f891 	bl	4564 <__multadd>
    3442:	0026      	movs	r6, r4
    3444:	4680      	mov	r8, r0
    3446:	e7ac      	b.n	33a2 <_dtoa_r+0x866>
    3448:	4650      	mov	r0, sl
    344a:	f001 f881 	bl	4550 <_Bfree>
    344e:	2301      	movs	r3, #1
    3450:	9304      	str	r3, [sp, #16]
    3452:	e7cc      	b.n	33ee <_dtoa_r+0x8b2>
    3454:	f001 f886 	bl	4564 <__multadd>
    3458:	0026      	movs	r6, r4
    345a:	0007      	movs	r7, r0
    345c:	4680      	mov	r8, r0
    345e:	e7a0      	b.n	33a2 <_dtoa_r+0x866>
    3460:	9b24      	ldr	r3, [sp, #144]	; 0x90
    3462:	2b02      	cmp	r3, #2
    3464:	dc4d      	bgt.n	3502 <_dtoa_r+0x9c6>
    3466:	9b0d      	ldr	r3, [sp, #52]	; 0x34
    3468:	2b00      	cmp	r3, #0
    346a:	d000      	beq.n	346e <_dtoa_r+0x932>
    346c:	e77e      	b.n	336c <_dtoa_r+0x830>
    346e:	4649      	mov	r1, r9
    3470:	4658      	mov	r0, fp
    3472:	f7ff fabf 	bl	29f4 <quorem>
    3476:	0003      	movs	r3, r0
    3478:	9a03      	ldr	r2, [sp, #12]
    347a:	3330      	adds	r3, #48	; 0x30
    347c:	9306      	str	r3, [sp, #24]
    347e:	7013      	strb	r3, [r2, #0]
    3480:	9b09      	ldr	r3, [sp, #36]	; 0x24
    3482:	2600      	movs	r6, #0
    3484:	3301      	adds	r3, #1
    3486:	1c54      	adds	r4, r2, #1
    3488:	9309      	str	r3, [sp, #36]	; 0x24
    348a:	e6f5      	b.n	3278 <_dtoa_r+0x73c>
    348c:	4649      	mov	r1, r9
    348e:	4658      	mov	r0, fp
    3490:	f001 fb4a 	bl	4b28 <__mcmp>
    3494:	2800      	cmp	r0, #0
    3496:	db00      	blt.n	349a <_dtoa_r+0x95e>
    3498:	e6b7      	b.n	320a <_dtoa_r+0x6ce>
    349a:	9b09      	ldr	r3, [sp, #36]	; 0x24
    349c:	4659      	mov	r1, fp
    349e:	220a      	movs	r2, #10
    34a0:	4650      	mov	r0, sl
    34a2:	1e5e      	subs	r6, r3, #1
    34a4:	2300      	movs	r3, #0
    34a6:	f001 f85d 	bl	4564 <__multadd>
    34aa:	9b0d      	ldr	r3, [sp, #52]	; 0x34
    34ac:	4683      	mov	fp, r0
    34ae:	2b00      	cmp	r3, #0
    34b0:	d000      	beq.n	34b4 <_dtoa_r+0x978>
    34b2:	e74e      	b.n	3352 <_dtoa_r+0x816>
    34b4:	9b14      	ldr	r3, [sp, #80]	; 0x50
    34b6:	2b00      	cmp	r3, #0
    34b8:	dd1d      	ble.n	34f6 <_dtoa_r+0x9ba>
    34ba:	9307      	str	r3, [sp, #28]
    34bc:	e6b0      	b.n	3220 <_dtoa_r+0x6e4>
    34be:	464a      	mov	r2, r9
    34c0:	4659      	mov	r1, fp
    34c2:	4650      	mov	r0, sl
    34c4:	f001 fa46 	bl	4954 <__pow5mult>
    34c8:	4683      	mov	fp, r0
    34ca:	e65a      	b.n	3182 <_dtoa_r+0x646>
    34cc:	4bd4      	ldr	r3, [pc, #848]	; (3820 <_dtoa_r+0xce4>)
    34ce:	9303      	str	r3, [sp, #12]
    34d0:	3303      	adds	r3, #3
    34d2:	e4d6      	b.n	2e82 <_dtoa_r+0x346>
    34d4:	2301      	movs	r3, #1
    34d6:	930d      	str	r3, [sp, #52]	; 0x34
    34d8:	e612      	b.n	3100 <_dtoa_r+0x5c4>
    34da:	9904      	ldr	r1, [sp, #16]
    34dc:	9a05      	ldr	r2, [sp, #20]
    34de:	2900      	cmp	r1, #0
    34e0:	d000      	beq.n	34e4 <_dtoa_r+0x9a8>
    34e2:	e65c      	b.n	319e <_dtoa_r+0x662>
    34e4:	0013      	movs	r3, r2
    34e6:	0312      	lsls	r2, r2, #12
    34e8:	d000      	beq.n	34ec <_dtoa_r+0x9b0>
    34ea:	e658      	b.n	319e <_dtoa_r+0x662>
    34ec:	e03a      	b.n	3564 <_dtoa_r+0xa28>
    34ee:	2301      	movs	r3, #1
    34f0:	9307      	str	r3, [sp, #28]
    34f2:	9325      	str	r3, [sp, #148]	; 0x94
    34f4:	e5e5      	b.n	30c2 <_dtoa_r+0x586>
    34f6:	9b14      	ldr	r3, [sp, #80]	; 0x50
    34f8:	9609      	str	r6, [sp, #36]	; 0x24
    34fa:	9307      	str	r3, [sp, #28]
    34fc:	9b24      	ldr	r3, [sp, #144]	; 0x90
    34fe:	2b02      	cmp	r3, #2
    3500:	ddb5      	ble.n	346e <_dtoa_r+0x932>
    3502:	9b07      	ldr	r3, [sp, #28]
    3504:	2b00      	cmp	r3, #0
    3506:	d000      	beq.n	350a <_dtoa_r+0x9ce>
    3508:	e52f      	b.n	2f6a <_dtoa_r+0x42e>
    350a:	4649      	mov	r1, r9
    350c:	2205      	movs	r2, #5
    350e:	4650      	mov	r0, sl
    3510:	f001 f828 	bl	4564 <__multadd>
    3514:	4681      	mov	r9, r0
    3516:	0001      	movs	r1, r0
    3518:	4658      	mov	r0, fp
    351a:	f001 fb05 	bl	4b28 <__mcmp>
    351e:	2800      	cmp	r0, #0
    3520:	dc00      	bgt.n	3524 <_dtoa_r+0x9e8>
    3522:	e522      	b.n	2f6a <_dtoa_r+0x42e>
    3524:	9a03      	ldr	r2, [sp, #12]
    3526:	2331      	movs	r3, #49	; 0x31
    3528:	0015      	movs	r5, r2
    352a:	9c09      	ldr	r4, [sp, #36]	; 0x24
    352c:	7013      	strb	r3, [r2, #0]
    352e:	1c53      	adds	r3, r2, #1
    3530:	3401      	adds	r4, #1
    3532:	9303      	str	r3, [sp, #12]
    3534:	4649      	mov	r1, r9
    3536:	4650      	mov	r0, sl
    3538:	f001 f80a 	bl	4550 <_Bfree>
    353c:	1c63      	adds	r3, r4, #1
    353e:	9309      	str	r3, [sp, #36]	; 0x24
    3540:	9c03      	ldr	r4, [sp, #12]
    3542:	9503      	str	r5, [sp, #12]
    3544:	2f00      	cmp	r7, #0
    3546:	d000      	beq.n	354a <_dtoa_r+0xa0e>
    3548:	e6c9      	b.n	32de <_dtoa_r+0x7a2>
    354a:	e6cc      	b.n	32e6 <_dtoa_r+0x7aa>
    354c:	0013      	movs	r3, r2
    354e:	e5f2      	b.n	3136 <_dtoa_r+0x5fa>
    3550:	9b04      	ldr	r3, [sp, #16]
    3552:	2b00      	cmp	r3, #0
    3554:	d000      	beq.n	3558 <_dtoa_r+0xa1c>
    3556:	e6f0      	b.n	333a <_dtoa_r+0x7fe>
    3558:	9904      	ldr	r1, [sp, #16]
    355a:	9a05      	ldr	r2, [sp, #20]
    355c:	0013      	movs	r3, r2
    355e:	0312      	lsls	r2, r2, #12
    3560:	d000      	beq.n	3564 <_dtoa_r+0xa28>
    3562:	e6ea      	b.n	333a <_dtoa_r+0x7fe>
    3564:	4aaf      	ldr	r2, [pc, #700]	; (3824 <_dtoa_r+0xce8>)
    3566:	2500      	movs	r5, #0
    3568:	4213      	tst	r3, r2
    356a:	d100      	bne.n	356e <_dtoa_r+0xa32>
    356c:	e617      	b.n	319e <_dtoa_r+0x662>
    356e:	9b0c      	ldr	r3, [sp, #48]	; 0x30
    3570:	3501      	adds	r5, #1
    3572:	3301      	adds	r3, #1
    3574:	930c      	str	r3, [sp, #48]	; 0x30
    3576:	9b08      	ldr	r3, [sp, #32]
    3578:	3301      	adds	r3, #1
    357a:	9308      	str	r3, [sp, #32]
    357c:	e60f      	b.n	319e <_dtoa_r+0x662>
    357e:	1b5d      	subs	r5, r3, r5
    3580:	e56f      	b.n	3062 <_dtoa_r+0x526>
    3582:	4ba9      	ldr	r3, [pc, #676]	; (3828 <_dtoa_r+0xcec>)
    3584:	400e      	ands	r6, r1
    3586:	6a1a      	ldr	r2, [r3, #32]
    3588:	6a5b      	ldr	r3, [r3, #36]	; 0x24
    358a:	980a      	ldr	r0, [sp, #40]	; 0x28
    358c:	990b      	ldr	r1, [sp, #44]	; 0x2c
    358e:	f005 f87f 	bl	8690 <__aeabi_ddiv>
    3592:	2303      	movs	r3, #3
    3594:	9010      	str	r0, [sp, #64]	; 0x40
    3596:	9111      	str	r1, [sp, #68]	; 0x44
    3598:	4698      	mov	r8, r3
    359a:	f7ff fbf2 	bl	2d82 <_dtoa_r+0x246>
    359e:	2301      	movs	r3, #1
    35a0:	930d      	str	r3, [sp, #52]	; 0x34
    35a2:	f7ff fbaa 	bl	2cfa <_dtoa_r+0x1be>
    35a6:	9a0f      	ldr	r2, [sp, #60]	; 0x3c
    35a8:	2a00      	cmp	r2, #0
    35aa:	d100      	bne.n	35ae <_dtoa_r+0xa72>
    35ac:	e1f2      	b.n	3994 <_dtoa_r+0xe58>
    35ae:	4a9f      	ldr	r2, [pc, #636]	; (382c <_dtoa_r+0xcf0>)
    35b0:	4694      	mov	ip, r2
    35b2:	4463      	add	r3, ip
    35b4:	9a08      	ldr	r2, [sp, #32]
    35b6:	464d      	mov	r5, r9
    35b8:	4694      	mov	ip, r2
    35ba:	449c      	add	ip, r3
    35bc:	4662      	mov	r2, ip
    35be:	9208      	str	r2, [sp, #32]
    35c0:	9a0c      	ldr	r2, [sp, #48]	; 0x30
    35c2:	4694      	mov	ip, r2
    35c4:	449c      	add	ip, r3
    35c6:	4663      	mov	r3, ip
    35c8:	0014      	movs	r4, r2
    35ca:	930c      	str	r3, [sp, #48]	; 0x30
    35cc:	e555      	b.n	307a <_dtoa_r+0x53e>
    35ce:	9b07      	ldr	r3, [sp, #28]
    35d0:	2b00      	cmp	r3, #0
    35d2:	d100      	bne.n	35d6 <_dtoa_r+0xa9a>
    35d4:	e218      	b.n	3a08 <_dtoa_r+0xecc>
    35d6:	9c14      	ldr	r4, [sp, #80]	; 0x50
    35d8:	2c00      	cmp	r4, #0
    35da:	dc00      	bgt.n	35de <_dtoa_r+0xaa2>
    35dc:	e49c      	b.n	2f18 <_dtoa_r+0x3dc>
    35de:	9b09      	ldr	r3, [sp, #36]	; 0x24
    35e0:	2200      	movs	r2, #0
    35e2:	3b01      	subs	r3, #1
    35e4:	0030      	movs	r0, r6
    35e6:	0039      	movs	r1, r7
    35e8:	9315      	str	r3, [sp, #84]	; 0x54
    35ea:	4b91      	ldr	r3, [pc, #580]	; (3830 <_dtoa_r+0xcf4>)
    35ec:	f005 fc52 	bl	8e94 <__aeabi_dmul>
    35f0:	0006      	movs	r6, r0
    35f2:	4640      	mov	r0, r8
    35f4:	000f      	movs	r7, r1
    35f6:	3001      	adds	r0, #1
    35f8:	f006 fa9e 	bl	9b38 <__aeabi_i2d>
    35fc:	0032      	movs	r2, r6
    35fe:	003b      	movs	r3, r7
    3600:	f005 fc48 	bl	8e94 <__aeabi_dmul>
    3604:	2200      	movs	r2, #0
    3606:	4b8b      	ldr	r3, [pc, #556]	; (3834 <_dtoa_r+0xcf8>)
    3608:	f004 fd06 	bl	8018 <__aeabi_dadd>
    360c:	4a8a      	ldr	r2, [pc, #552]	; (3838 <_dtoa_r+0xcfc>)
    360e:	000b      	movs	r3, r1
    3610:	4694      	mov	ip, r2
    3612:	4463      	add	r3, ip
    3614:	9012      	str	r0, [sp, #72]	; 0x48
    3616:	9113      	str	r1, [sp, #76]	; 0x4c
    3618:	9410      	str	r4, [sp, #64]	; 0x40
    361a:	9313      	str	r3, [sp, #76]	; 0x4c
    361c:	9b0d      	ldr	r3, [sp, #52]	; 0x34
    361e:	2b00      	cmp	r3, #0
    3620:	d100      	bne.n	3624 <_dtoa_r+0xae8>
    3622:	e148      	b.n	38b6 <_dtoa_r+0xd7a>
    3624:	9b10      	ldr	r3, [sp, #64]	; 0x40
    3626:	2000      	movs	r0, #0
    3628:	1e5a      	subs	r2, r3, #1
    362a:	4b84      	ldr	r3, [pc, #528]	; (383c <_dtoa_r+0xd00>)
    362c:	00d2      	lsls	r2, r2, #3
    362e:	189b      	adds	r3, r3, r2
    3630:	681a      	ldr	r2, [r3, #0]
    3632:	685b      	ldr	r3, [r3, #4]
    3634:	4982      	ldr	r1, [pc, #520]	; (3840 <_dtoa_r+0xd04>)
    3636:	f005 f82b 	bl	8690 <__aeabi_ddiv>
    363a:	9a12      	ldr	r2, [sp, #72]	; 0x48
    363c:	9b13      	ldr	r3, [sp, #76]	; 0x4c
    363e:	f005 fe95 	bl	936c <__aeabi_dsub>
    3642:	9012      	str	r0, [sp, #72]	; 0x48
    3644:	9113      	str	r1, [sp, #76]	; 0x4c
    3646:	0030      	movs	r0, r6
    3648:	0039      	movs	r1, r7
    364a:	f006 fa3f 	bl	9acc <__aeabi_d2iz>
    364e:	9016      	str	r0, [sp, #88]	; 0x58
    3650:	f006 fa72 	bl	9b38 <__aeabi_i2d>
    3654:	0002      	movs	r2, r0
    3656:	000b      	movs	r3, r1
    3658:	0030      	movs	r0, r6
    365a:	0039      	movs	r1, r7
    365c:	f005 fe86 	bl	936c <__aeabi_dsub>
    3660:	9b03      	ldr	r3, [sp, #12]
    3662:	9e16      	ldr	r6, [sp, #88]	; 0x58
    3664:	1c5a      	adds	r2, r3, #1
    3666:	3630      	adds	r6, #48	; 0x30
    3668:	0004      	movs	r4, r0
    366a:	000d      	movs	r5, r1
    366c:	4690      	mov	r8, r2
    366e:	701e      	strb	r6, [r3, #0]
    3670:	0002      	movs	r2, r0
    3672:	000b      	movs	r3, r1
    3674:	9812      	ldr	r0, [sp, #72]	; 0x48
    3676:	9913      	ldr	r1, [sp, #76]	; 0x4c
    3678:	f003 ff84 	bl	7584 <__aeabi_dcmpgt>
    367c:	2800      	cmp	r0, #0
    367e:	d000      	beq.n	3682 <_dtoa_r+0xb46>
    3680:	e1dd      	b.n	3a3e <_dtoa_r+0xf02>
    3682:	464b      	mov	r3, r9
    3684:	2700      	movs	r7, #0
    3686:	9317      	str	r3, [sp, #92]	; 0x5c
    3688:	465b      	mov	r3, fp
    368a:	46bb      	mov	fp, r7
    368c:	9e12      	ldr	r6, [sp, #72]	; 0x48
    368e:	9f13      	ldr	r7, [sp, #76]	; 0x4c
    3690:	9316      	str	r3, [sp, #88]	; 0x58
    3692:	e033      	b.n	36fc <_dtoa_r+0xbc0>
    3694:	2301      	movs	r3, #1
    3696:	469c      	mov	ip, r3
    3698:	9b10      	ldr	r3, [sp, #64]	; 0x40
    369a:	44e3      	add	fp, ip
    369c:	459b      	cmp	fp, r3
    369e:	db00      	blt.n	36a2 <_dtoa_r+0xb66>
    36a0:	e436      	b.n	2f10 <_dtoa_r+0x3d4>
    36a2:	2200      	movs	r2, #0
    36a4:	0030      	movs	r0, r6
    36a6:	0039      	movs	r1, r7
    36a8:	4b61      	ldr	r3, [pc, #388]	; (3830 <_dtoa_r+0xcf4>)
    36aa:	f005 fbf3 	bl	8e94 <__aeabi_dmul>
    36ae:	2200      	movs	r2, #0
    36b0:	4b5f      	ldr	r3, [pc, #380]	; (3830 <_dtoa_r+0xcf4>)
    36b2:	0006      	movs	r6, r0
    36b4:	000f      	movs	r7, r1
    36b6:	0020      	movs	r0, r4
    36b8:	0029      	movs	r1, r5
    36ba:	f005 fbeb 	bl	8e94 <__aeabi_dmul>
    36be:	000d      	movs	r5, r1
    36c0:	0004      	movs	r4, r0
    36c2:	f006 fa03 	bl	9acc <__aeabi_d2iz>
    36c6:	4681      	mov	r9, r0
    36c8:	f006 fa36 	bl	9b38 <__aeabi_i2d>
    36cc:	0002      	movs	r2, r0
    36ce:	000b      	movs	r3, r1
    36d0:	0020      	movs	r0, r4
    36d2:	0029      	movs	r1, r5
    36d4:	f005 fe4a 	bl	936c <__aeabi_dsub>
    36d8:	2301      	movs	r3, #1
    36da:	0004      	movs	r4, r0
    36dc:	4648      	mov	r0, r9
    36de:	465a      	mov	r2, fp
    36e0:	469c      	mov	ip, r3
    36e2:	9b03      	ldr	r3, [sp, #12]
    36e4:	3030      	adds	r0, #48	; 0x30
    36e6:	5498      	strb	r0, [r3, r2]
    36e8:	0032      	movs	r2, r6
    36ea:	003b      	movs	r3, r7
    36ec:	0020      	movs	r0, r4
    36ee:	000d      	movs	r5, r1
    36f0:	44e0      	add	r8, ip
    36f2:	f003 ff33 	bl	755c <__aeabi_dcmplt>
    36f6:	2800      	cmp	r0, #0
    36f8:	d000      	beq.n	36fc <_dtoa_r+0xbc0>
    36fa:	e19e      	b.n	3a3a <_dtoa_r+0xefe>
    36fc:	0022      	movs	r2, r4
    36fe:	002b      	movs	r3, r5
    3700:	2000      	movs	r0, #0
    3702:	4950      	ldr	r1, [pc, #320]	; (3844 <_dtoa_r+0xd08>)
    3704:	f005 fe32 	bl	936c <__aeabi_dsub>
    3708:	0032      	movs	r2, r6
    370a:	003b      	movs	r3, r7
    370c:	f003 ff26 	bl	755c <__aeabi_dcmplt>
    3710:	2800      	cmp	r0, #0
    3712:	d0bf      	beq.n	3694 <_dtoa_r+0xb58>
    3714:	9b16      	ldr	r3, [sp, #88]	; 0x58
    3716:	4642      	mov	r2, r8
    3718:	469b      	mov	fp, r3
    371a:	9b15      	ldr	r3, [sp, #84]	; 0x54
    371c:	9903      	ldr	r1, [sp, #12]
    371e:	9309      	str	r3, [sp, #36]	; 0x24
    3720:	e002      	b.n	3728 <_dtoa_r+0xbec>
    3722:	428a      	cmp	r2, r1
    3724:	d100      	bne.n	3728 <_dtoa_r+0xbec>
    3726:	e151      	b.n	39cc <_dtoa_r+0xe90>
    3728:	0014      	movs	r4, r2
    372a:	3a01      	subs	r2, #1
    372c:	7813      	ldrb	r3, [r2, #0]
    372e:	2b39      	cmp	r3, #57	; 0x39
    3730:	d0f7      	beq.n	3722 <_dtoa_r+0xbe6>
    3732:	4690      	mov	r8, r2
    3734:	3301      	adds	r3, #1
    3736:	b2db      	uxtb	r3, r3
    3738:	4642      	mov	r2, r8
    373a:	7013      	strb	r3, [r2, #0]
    373c:	9b09      	ldr	r3, [sp, #36]	; 0x24
    373e:	3301      	adds	r3, #1
    3740:	9309      	str	r3, [sp, #36]	; 0x24
    3742:	e5d0      	b.n	32e6 <_dtoa_r+0x7aa>
    3744:	2331      	movs	r3, #49	; 0x31
    3746:	9a03      	ldr	r2, [sp, #12]
    3748:	7013      	strb	r3, [r2, #0]
    374a:	9b09      	ldr	r3, [sp, #36]	; 0x24
    374c:	3301      	adds	r3, #1
    374e:	9309      	str	r3, [sp, #36]	; 0x24
    3750:	e5b7      	b.n	32c2 <_dtoa_r+0x786>
    3752:	2800      	cmp	r0, #0
    3754:	d103      	bne.n	375e <_dtoa_r+0xc22>
    3756:	9b06      	ldr	r3, [sp, #24]
    3758:	07db      	lsls	r3, r3, #31
    375a:	d500      	bpl.n	375e <_dtoa_r+0xc22>
    375c:	e598      	b.n	3290 <_dtoa_r+0x754>
    375e:	0023      	movs	r3, r4
    3760:	001c      	movs	r4, r3
    3762:	3b01      	subs	r3, #1
    3764:	781a      	ldrb	r2, [r3, #0]
    3766:	2a30      	cmp	r2, #48	; 0x30
    3768:	d0fa      	beq.n	3760 <_dtoa_r+0xc24>
    376a:	e5aa      	b.n	32c2 <_dtoa_r+0x786>
    376c:	2300      	movs	r3, #0
    376e:	930e      	str	r3, [sp, #56]	; 0x38
    3770:	e4b9      	b.n	30e6 <_dtoa_r+0x5aa>
    3772:	9b09      	ldr	r3, [sp, #36]	; 0x24
    3774:	2b00      	cmp	r3, #0
    3776:	d100      	bne.n	377a <_dtoa_r+0xc3e>
    3778:	e122      	b.n	39c0 <_dtoa_r+0xe84>
    377a:	980a      	ldr	r0, [sp, #40]	; 0x28
    377c:	990b      	ldr	r1, [sp, #44]	; 0x2c
    377e:	425c      	negs	r4, r3
    3780:	230f      	movs	r3, #15
    3782:	4a2e      	ldr	r2, [pc, #184]	; (383c <_dtoa_r+0xd00>)
    3784:	4023      	ands	r3, r4
    3786:	00db      	lsls	r3, r3, #3
    3788:	18d3      	adds	r3, r2, r3
    378a:	681a      	ldr	r2, [r3, #0]
    378c:	685b      	ldr	r3, [r3, #4]
    378e:	f005 fb81 	bl	8e94 <__aeabi_dmul>
    3792:	1124      	asrs	r4, r4, #4
    3794:	0006      	movs	r6, r0
    3796:	000f      	movs	r7, r1
    3798:	2c00      	cmp	r4, #0
    379a:	d100      	bne.n	379e <_dtoa_r+0xc62>
    379c:	e164      	b.n	3a68 <_dtoa_r+0xf2c>
    379e:	2202      	movs	r2, #2
    37a0:	9610      	str	r6, [sp, #64]	; 0x40
    37a2:	9711      	str	r7, [sp, #68]	; 0x44
    37a4:	2300      	movs	r3, #0
    37a6:	0017      	movs	r7, r2
    37a8:	4d1f      	ldr	r5, [pc, #124]	; (3828 <_dtoa_r+0xcec>)
    37aa:	2201      	movs	r2, #1
    37ac:	4222      	tst	r2, r4
    37ae:	d005      	beq.n	37bc <_dtoa_r+0xc80>
    37b0:	682a      	ldr	r2, [r5, #0]
    37b2:	686b      	ldr	r3, [r5, #4]
    37b4:	f005 fb6e 	bl	8e94 <__aeabi_dmul>
    37b8:	2301      	movs	r3, #1
    37ba:	3701      	adds	r7, #1
    37bc:	1064      	asrs	r4, r4, #1
    37be:	3508      	adds	r5, #8
    37c0:	2c00      	cmp	r4, #0
    37c2:	d1f2      	bne.n	37aa <_dtoa_r+0xc6e>
    37c4:	46b8      	mov	r8, r7
    37c6:	9e10      	ldr	r6, [sp, #64]	; 0x40
    37c8:	9f11      	ldr	r7, [sp, #68]	; 0x44
    37ca:	2b00      	cmp	r3, #0
    37cc:	d101      	bne.n	37d2 <_dtoa_r+0xc96>
    37ce:	f7ff faf4 	bl	2dba <_dtoa_r+0x27e>
    37d2:	0006      	movs	r6, r0
    37d4:	000f      	movs	r7, r1
    37d6:	f7ff faf0 	bl	2dba <_dtoa_r+0x27e>
    37da:	9b04      	ldr	r3, [sp, #16]
    37dc:	46d9      	mov	r9, fp
    37de:	46ab      	mov	fp, r5
    37e0:	0035      	movs	r5, r6
    37e2:	2b00      	cmp	r3, #0
    37e4:	dd12      	ble.n	380c <_dtoa_r+0xcd0>
    37e6:	4659      	mov	r1, fp
    37e8:	2201      	movs	r2, #1
    37ea:	4650      	mov	r0, sl
    37ec:	f001 f91e 	bl	4a2c <__lshift>
    37f0:	4649      	mov	r1, r9
    37f2:	4683      	mov	fp, r0
    37f4:	f001 f998 	bl	4b28 <__mcmp>
    37f8:	2800      	cmp	r0, #0
    37fa:	dc00      	bgt.n	37fe <_dtoa_r+0xcc2>
    37fc:	e124      	b.n	3a48 <_dtoa_r+0xf0c>
    37fe:	9b06      	ldr	r3, [sp, #24]
    3800:	2b39      	cmp	r3, #57	; 0x39
    3802:	d100      	bne.n	3806 <_dtoa_r+0xcca>
    3804:	e0e8      	b.n	39d8 <_dtoa_r+0xe9c>
    3806:	9b0c      	ldr	r3, [sp, #48]	; 0x30
    3808:	3331      	adds	r3, #49	; 0x31
    380a:	9306      	str	r3, [sp, #24]
    380c:	9b06      	ldr	r3, [sp, #24]
    380e:	1c6c      	adds	r4, r5, #1
    3810:	702b      	strb	r3, [r5, #0]
    3812:	9b09      	ldr	r3, [sp, #36]	; 0x24
    3814:	003e      	movs	r6, r7
    3816:	3301      	adds	r3, #1
    3818:	4647      	mov	r7, r8
    381a:	9309      	str	r3, [sp, #36]	; 0x24
    381c:	e551      	b.n	32c2 <_dtoa_r+0x786>
    381e:	46c0      	nop			; (mov r8, r8)
    3820:	0000a18c 	.word	0x0000a18c
    3824:	7ff00000 	.word	0x7ff00000
    3828:	0000a2c8 	.word	0x0000a2c8
    382c:	00000433 	.word	0x00000433
    3830:	40240000 	.word	0x40240000
    3834:	401c0000 	.word	0x401c0000
    3838:	fcc00000 	.word	0xfcc00000
    383c:	0000a2f0 	.word	0x0000a2f0
    3840:	3fe00000 	.word	0x3fe00000
    3844:	3ff00000 	.word	0x3ff00000
    3848:	9b06      	ldr	r3, [sp, #24]
    384a:	46d0      	mov	r8, sl
    384c:	469a      	mov	sl, r3
    384e:	0002      	movs	r2, r0
    3850:	000b      	movs	r3, r1
    3852:	f004 fbe1 	bl	8018 <__aeabi_dadd>
    3856:	0032      	movs	r2, r6
    3858:	003b      	movs	r3, r7
    385a:	0004      	movs	r4, r0
    385c:	000d      	movs	r5, r1
    385e:	f003 fe91 	bl	7584 <__aeabi_dcmpgt>
    3862:	2800      	cmp	r0, #0
    3864:	d10e      	bne.n	3884 <_dtoa_r+0xd48>
    3866:	0032      	movs	r2, r6
    3868:	003b      	movs	r3, r7
    386a:	0020      	movs	r0, r4
    386c:	0029      	movs	r1, r5
    386e:	f003 fe6f 	bl	7550 <__aeabi_dcmpeq>
    3872:	2800      	cmp	r0, #0
    3874:	d101      	bne.n	387a <_dtoa_r+0xd3e>
    3876:	f7ff fbda 	bl	302e <_dtoa_r+0x4f2>
    387a:	464b      	mov	r3, r9
    387c:	07db      	lsls	r3, r3, #31
    387e:	d401      	bmi.n	3884 <_dtoa_r+0xd48>
    3880:	f7ff fbd5 	bl	302e <_dtoa_r+0x4f2>
    3884:	4642      	mov	r2, r8
    3886:	9903      	ldr	r1, [sp, #12]
    3888:	e74e      	b.n	3728 <_dtoa_r+0xbec>
    388a:	4650      	mov	r0, sl
    388c:	6879      	ldr	r1, [r7, #4]
    388e:	f000 fe37 	bl	4500 <_Balloc>
    3892:	1e04      	subs	r4, r0, #0
    3894:	d100      	bne.n	3898 <_dtoa_r+0xd5c>
    3896:	e116      	b.n	3ac6 <_dtoa_r+0xf8a>
    3898:	0039      	movs	r1, r7
    389a:	693b      	ldr	r3, [r7, #16]
    389c:	310c      	adds	r1, #12
    389e:	1c9a      	adds	r2, r3, #2
    38a0:	0092      	lsls	r2, r2, #2
    38a2:	300c      	adds	r0, #12
    38a4:	f7fd f8fc 	bl	aa0 <memcpy>
    38a8:	2201      	movs	r2, #1
    38aa:	0021      	movs	r1, r4
    38ac:	4650      	mov	r0, sl
    38ae:	f001 f8bd 	bl	4a2c <__lshift>
    38b2:	4680      	mov	r8, r0
    38b4:	e566      	b.n	3384 <_dtoa_r+0x848>
    38b6:	9b10      	ldr	r3, [sp, #64]	; 0x40
    38b8:	4986      	ldr	r1, [pc, #536]	; (3ad4 <_dtoa_r+0xf98>)
    38ba:	3b01      	subs	r3, #1
    38bc:	00db      	lsls	r3, r3, #3
    38be:	18c9      	adds	r1, r1, r3
    38c0:	6808      	ldr	r0, [r1, #0]
    38c2:	6849      	ldr	r1, [r1, #4]
    38c4:	9a12      	ldr	r2, [sp, #72]	; 0x48
    38c6:	9b13      	ldr	r3, [sp, #76]	; 0x4c
    38c8:	f005 fae4 	bl	8e94 <__aeabi_dmul>
    38cc:	9012      	str	r0, [sp, #72]	; 0x48
    38ce:	9113      	str	r1, [sp, #76]	; 0x4c
    38d0:	0030      	movs	r0, r6
    38d2:	0039      	movs	r1, r7
    38d4:	f006 f8fa 	bl	9acc <__aeabi_d2iz>
    38d8:	9016      	str	r0, [sp, #88]	; 0x58
    38da:	f006 f92d 	bl	9b38 <__aeabi_i2d>
    38de:	0002      	movs	r2, r0
    38e0:	000b      	movs	r3, r1
    38e2:	0030      	movs	r0, r6
    38e4:	0039      	movs	r1, r7
    38e6:	f005 fd41 	bl	936c <__aeabi_dsub>
    38ea:	9a03      	ldr	r2, [sp, #12]
    38ec:	000d      	movs	r5, r1
    38ee:	1c51      	adds	r1, r2, #1
    38f0:	4688      	mov	r8, r1
    38f2:	0011      	movs	r1, r2
    38f4:	9e16      	ldr	r6, [sp, #88]	; 0x58
    38f6:	9b10      	ldr	r3, [sp, #64]	; 0x40
    38f8:	3630      	adds	r6, #48	; 0x30
    38fa:	7016      	strb	r6, [r2, #0]
    38fc:	468c      	mov	ip, r1
    38fe:	001a      	movs	r2, r3
    3900:	4462      	add	r2, ip
    3902:	0004      	movs	r4, r0
    3904:	4646      	mov	r6, r8
    3906:	9210      	str	r2, [sp, #64]	; 0x40
    3908:	2b01      	cmp	r3, #1
    390a:	d01d      	beq.n	3948 <_dtoa_r+0xe0c>
    390c:	9b10      	ldr	r3, [sp, #64]	; 0x40
    390e:	4698      	mov	r8, r3
    3910:	2200      	movs	r2, #0
    3912:	4b71      	ldr	r3, [pc, #452]	; (3ad8 <_dtoa_r+0xf9c>)
    3914:	0020      	movs	r0, r4
    3916:	0029      	movs	r1, r5
    3918:	f005 fabc 	bl	8e94 <__aeabi_dmul>
    391c:	000d      	movs	r5, r1
    391e:	0004      	movs	r4, r0
    3920:	f006 f8d4 	bl	9acc <__aeabi_d2iz>
    3924:	0007      	movs	r7, r0
    3926:	f006 f907 	bl	9b38 <__aeabi_i2d>
    392a:	0002      	movs	r2, r0
    392c:	000b      	movs	r3, r1
    392e:	0020      	movs	r0, r4
    3930:	0029      	movs	r1, r5
    3932:	f005 fd1b 	bl	936c <__aeabi_dsub>
    3936:	3730      	adds	r7, #48	; 0x30
    3938:	7037      	strb	r7, [r6, #0]
    393a:	3601      	adds	r6, #1
    393c:	0004      	movs	r4, r0
    393e:	000d      	movs	r5, r1
    3940:	45b0      	cmp	r8, r6
    3942:	d1e5      	bne.n	3910 <_dtoa_r+0xdd4>
    3944:	9b10      	ldr	r3, [sp, #64]	; 0x40
    3946:	4698      	mov	r8, r3
    3948:	9e12      	ldr	r6, [sp, #72]	; 0x48
    394a:	9f13      	ldr	r7, [sp, #76]	; 0x4c
    394c:	2200      	movs	r2, #0
    394e:	4b63      	ldr	r3, [pc, #396]	; (3adc <_dtoa_r+0xfa0>)
    3950:	0030      	movs	r0, r6
    3952:	0039      	movs	r1, r7
    3954:	f004 fb60 	bl	8018 <__aeabi_dadd>
    3958:	0022      	movs	r2, r4
    395a:	002b      	movs	r3, r5
    395c:	f003 fdfe 	bl	755c <__aeabi_dcmplt>
    3960:	2800      	cmp	r0, #0
    3962:	d165      	bne.n	3a30 <_dtoa_r+0xef4>
    3964:	0032      	movs	r2, r6
    3966:	003b      	movs	r3, r7
    3968:	2000      	movs	r0, #0
    396a:	495c      	ldr	r1, [pc, #368]	; (3adc <_dtoa_r+0xfa0>)
    396c:	f005 fcfe 	bl	936c <__aeabi_dsub>
    3970:	0022      	movs	r2, r4
    3972:	002b      	movs	r3, r5
    3974:	f003 fe06 	bl	7584 <__aeabi_dcmpgt>
    3978:	2800      	cmp	r0, #0
    397a:	d101      	bne.n	3980 <_dtoa_r+0xe44>
    397c:	f7ff facc 	bl	2f18 <_dtoa_r+0x3dc>
    3980:	4643      	mov	r3, r8
    3982:	001c      	movs	r4, r3
    3984:	3b01      	subs	r3, #1
    3986:	781a      	ldrb	r2, [r3, #0]
    3988:	2a30      	cmp	r2, #48	; 0x30
    398a:	d0fa      	beq.n	3982 <_dtoa_r+0xe46>
    398c:	9b15      	ldr	r3, [sp, #84]	; 0x54
    398e:	3301      	adds	r3, #1
    3990:	9309      	str	r3, [sp, #36]	; 0x24
    3992:	e4a8      	b.n	32e6 <_dtoa_r+0x7aa>
    3994:	2336      	movs	r3, #54	; 0x36
    3996:	9a18      	ldr	r2, [sp, #96]	; 0x60
    3998:	1a9b      	subs	r3, r3, r2
    399a:	e60b      	b.n	35b4 <_dtoa_r+0xa78>
    399c:	9b06      	ldr	r3, [sp, #24]
    399e:	46d9      	mov	r9, fp
    39a0:	46ab      	mov	fp, r5
    39a2:	0035      	movs	r5, r6
    39a4:	2b39      	cmp	r3, #57	; 0x39
    39a6:	d017      	beq.n	39d8 <_dtoa_r+0xe9c>
    39a8:	9b06      	ldr	r3, [sp, #24]
    39aa:	1c74      	adds	r4, r6, #1
    39ac:	3301      	adds	r3, #1
    39ae:	e72f      	b.n	3810 <_dtoa_r+0xcd4>
    39b0:	9b09      	ldr	r3, [sp, #36]	; 0x24
    39b2:	46d9      	mov	r9, fp
    39b4:	3301      	adds	r3, #1
    39b6:	003e      	movs	r6, r7
    39b8:	46ab      	mov	fp, r5
    39ba:	4647      	mov	r7, r8
    39bc:	9309      	str	r3, [sp, #36]	; 0x24
    39be:	e45b      	b.n	3278 <_dtoa_r+0x73c>
    39c0:	2302      	movs	r3, #2
    39c2:	9e0a      	ldr	r6, [sp, #40]	; 0x28
    39c4:	9f0b      	ldr	r7, [sp, #44]	; 0x2c
    39c6:	4698      	mov	r8, r3
    39c8:	f7ff f9f7 	bl	2dba <_dtoa_r+0x27e>
    39cc:	9b09      	ldr	r3, [sp, #36]	; 0x24
    39ce:	4690      	mov	r8, r2
    39d0:	3301      	adds	r3, #1
    39d2:	9309      	str	r3, [sp, #36]	; 0x24
    39d4:	2331      	movs	r3, #49	; 0x31
    39d6:	e6af      	b.n	3738 <_dtoa_r+0xbfc>
    39d8:	2339      	movs	r3, #57	; 0x39
    39da:	702b      	strb	r3, [r5, #0]
    39dc:	9b09      	ldr	r3, [sp, #36]	; 0x24
    39de:	003e      	movs	r6, r7
    39e0:	3301      	adds	r3, #1
    39e2:	4647      	mov	r7, r8
    39e4:	2239      	movs	r2, #57	; 0x39
    39e6:	1c6c      	adds	r4, r5, #1
    39e8:	9309      	str	r3, [sp, #36]	; 0x24
    39ea:	e453      	b.n	3294 <_dtoa_r+0x758>
    39ec:	2300      	movs	r3, #0
    39ee:	2700      	movs	r7, #0
    39f0:	4699      	mov	r9, r3
    39f2:	e597      	b.n	3524 <_dtoa_r+0x9e8>
    39f4:	9b06      	ldr	r3, [sp, #24]
    39f6:	46d9      	mov	r9, fp
    39f8:	46ab      	mov	fp, r5
    39fa:	0035      	movs	r5, r6
    39fc:	2b39      	cmp	r3, #57	; 0x39
    39fe:	d0eb      	beq.n	39d8 <_dtoa_r+0xe9c>
    3a00:	2c00      	cmp	r4, #0
    3a02:	dd00      	ble.n	3a06 <_dtoa_r+0xeca>
    3a04:	e6ff      	b.n	3806 <_dtoa_r+0xcca>
    3a06:	e701      	b.n	380c <_dtoa_r+0xcd0>
    3a08:	4640      	mov	r0, r8
    3a0a:	f006 f895 	bl	9b38 <__aeabi_i2d>
    3a0e:	0032      	movs	r2, r6
    3a10:	003b      	movs	r3, r7
    3a12:	f005 fa3f 	bl	8e94 <__aeabi_dmul>
    3a16:	2200      	movs	r2, #0
    3a18:	4b31      	ldr	r3, [pc, #196]	; (3ae0 <_dtoa_r+0xfa4>)
    3a1a:	f004 fafd 	bl	8018 <__aeabi_dadd>
    3a1e:	4a31      	ldr	r2, [pc, #196]	; (3ae4 <_dtoa_r+0xfa8>)
    3a20:	000b      	movs	r3, r1
    3a22:	4694      	mov	ip, r2
    3a24:	4463      	add	r3, ip
    3a26:	9012      	str	r0, [sp, #72]	; 0x48
    3a28:	9113      	str	r1, [sp, #76]	; 0x4c
    3a2a:	9313      	str	r3, [sp, #76]	; 0x4c
    3a2c:	f7ff f9ec 	bl	2e08 <_dtoa_r+0x2cc>
    3a30:	9b15      	ldr	r3, [sp, #84]	; 0x54
    3a32:	4642      	mov	r2, r8
    3a34:	9903      	ldr	r1, [sp, #12]
    3a36:	9309      	str	r3, [sp, #36]	; 0x24
    3a38:	e676      	b.n	3728 <_dtoa_r+0xbec>
    3a3a:	9b16      	ldr	r3, [sp, #88]	; 0x58
    3a3c:	469b      	mov	fp, r3
    3a3e:	9b15      	ldr	r3, [sp, #84]	; 0x54
    3a40:	4644      	mov	r4, r8
    3a42:	3301      	adds	r3, #1
    3a44:	9309      	str	r3, [sp, #36]	; 0x24
    3a46:	e44e      	b.n	32e6 <_dtoa_r+0x7aa>
    3a48:	2800      	cmp	r0, #0
    3a4a:	d000      	beq.n	3a4e <_dtoa_r+0xf12>
    3a4c:	e6de      	b.n	380c <_dtoa_r+0xcd0>
    3a4e:	9b06      	ldr	r3, [sp, #24]
    3a50:	07db      	lsls	r3, r3, #31
    3a52:	d500      	bpl.n	3a56 <_dtoa_r+0xf1a>
    3a54:	e6d3      	b.n	37fe <_dtoa_r+0xcc2>
    3a56:	e6d9      	b.n	380c <_dtoa_r+0xcd0>
    3a58:	9b14      	ldr	r3, [sp, #80]	; 0x50
    3a5a:	9609      	str	r6, [sp, #36]	; 0x24
    3a5c:	9307      	str	r3, [sp, #28]
    3a5e:	9b24      	ldr	r3, [sp, #144]	; 0x90
    3a60:	2b02      	cmp	r3, #2
    3a62:	dd00      	ble.n	3a66 <_dtoa_r+0xf2a>
    3a64:	e54d      	b.n	3502 <_dtoa_r+0x9c6>
    3a66:	e481      	b.n	336c <_dtoa_r+0x830>
    3a68:	2302      	movs	r3, #2
    3a6a:	4698      	mov	r8, r3
    3a6c:	f7ff f9a5 	bl	2dba <_dtoa_r+0x27e>
    3a70:	4653      	mov	r3, sl
    3a72:	9a0d      	ldr	r2, [sp, #52]	; 0x34
    3a74:	2100      	movs	r1, #0
    3a76:	4650      	mov	r0, sl
    3a78:	645a      	str	r2, [r3, #68]	; 0x44
    3a7a:	f000 fd41 	bl	4500 <_Balloc>
    3a7e:	9003      	str	r0, [sp, #12]
    3a80:	2800      	cmp	r0, #0
    3a82:	d00b      	beq.n	3a9c <_dtoa_r+0xf60>
    3a84:	4653      	mov	r3, sl
    3a86:	9a03      	ldr	r2, [sp, #12]
    3a88:	641a      	str	r2, [r3, #64]	; 0x40
    3a8a:	2300      	movs	r3, #0
    3a8c:	2201      	movs	r2, #1
    3a8e:	9325      	str	r3, [sp, #148]	; 0x94
    3a90:	3b01      	subs	r3, #1
    3a92:	9314      	str	r3, [sp, #80]	; 0x50
    3a94:	920d      	str	r2, [sp, #52]	; 0x34
    3a96:	9307      	str	r3, [sp, #28]
    3a98:	f7ff fa3e 	bl	2f18 <_dtoa_r+0x3dc>
    3a9c:	21d5      	movs	r1, #213	; 0xd5
    3a9e:	2200      	movs	r2, #0
    3aa0:	4b11      	ldr	r3, [pc, #68]	; (3ae8 <_dtoa_r+0xfac>)
    3aa2:	4812      	ldr	r0, [pc, #72]	; (3aec <_dtoa_r+0xfb0>)
    3aa4:	0049      	lsls	r1, r1, #1
    3aa6:	f002 fb99 	bl	61dc <__assert_func>
    3aaa:	2b04      	cmp	r3, #4
    3aac:	d101      	bne.n	3ab2 <_dtoa_r+0xf76>
    3aae:	f7ff fb96 	bl	31de <_dtoa_r+0x6a2>
    3ab2:	233c      	movs	r3, #60	; 0x3c
    3ab4:	1a9b      	subs	r3, r3, r2
    3ab6:	e426      	b.n	3306 <_dtoa_r+0x7ca>
    3ab8:	4b0d      	ldr	r3, [pc, #52]	; (3af0 <_dtoa_r+0xfb4>)
    3aba:	9303      	str	r3, [sp, #12]
    3abc:	f7ff f87a 	bl	2bb4 <_dtoa_r+0x78>
    3ac0:	2100      	movs	r1, #0
    3ac2:	f7ff f934 	bl	2d2e <_dtoa_r+0x1f2>
    3ac6:	2200      	movs	r2, #0
    3ac8:	4b07      	ldr	r3, [pc, #28]	; (3ae8 <_dtoa_r+0xfac>)
    3aca:	490a      	ldr	r1, [pc, #40]	; (3af4 <_dtoa_r+0xfb8>)
    3acc:	4807      	ldr	r0, [pc, #28]	; (3aec <_dtoa_r+0xfb0>)
    3ace:	f002 fb85 	bl	61dc <__assert_func>
    3ad2:	46c0      	nop			; (mov r8, r8)
    3ad4:	0000a2f0 	.word	0x0000a2f0
    3ad8:	40240000 	.word	0x40240000
    3adc:	3fe00000 	.word	0x3fe00000
    3ae0:	401c0000 	.word	0x401c0000
    3ae4:	fcc00000 	.word	0xfcc00000
    3ae8:	0000a1a0 	.word	0x0000a1a0
    3aec:	0000a1b4 	.word	0x0000a1b4
    3af0:	0000a190 	.word	0x0000a190
    3af4:	000002ea 	.word	0x000002ea

00003af8 <__sflush_r>:
    3af8:	b5f0      	push	{r4, r5, r6, r7, lr}
    3afa:	46c6      	mov	lr, r8
    3afc:	000c      	movs	r4, r1
    3afe:	b500      	push	{lr}
    3b00:	89a2      	ldrh	r2, [r4, #12]
    3b02:	4680      	mov	r8, r0
    3b04:	230c      	movs	r3, #12
    3b06:	5ec9      	ldrsh	r1, [r1, r3]
    3b08:	0713      	lsls	r3, r2, #28
    3b0a:	d44c      	bmi.n	3ba6 <__sflush_r+0xae>
    3b0c:	2380      	movs	r3, #128	; 0x80
    3b0e:	6862      	ldr	r2, [r4, #4]
    3b10:	011b      	lsls	r3, r3, #4
    3b12:	430b      	orrs	r3, r1
    3b14:	81a3      	strh	r3, [r4, #12]
    3b16:	2a00      	cmp	r2, #0
    3b18:	dd66      	ble.n	3be8 <__sflush_r+0xf0>
    3b1a:	6aa6      	ldr	r6, [r4, #40]	; 0x28
    3b1c:	2e00      	cmp	r6, #0
    3b1e:	d03e      	beq.n	3b9e <__sflush_r+0xa6>
    3b20:	4642      	mov	r2, r8
    3b22:	4641      	mov	r1, r8
    3b24:	6815      	ldr	r5, [r2, #0]
    3b26:	2200      	movs	r2, #0
    3b28:	600a      	str	r2, [r1, #0]
    3b2a:	b29a      	uxth	r2, r3
    3b2c:	04db      	lsls	r3, r3, #19
    3b2e:	d460      	bmi.n	3bf2 <__sflush_r+0xfa>
    3b30:	2301      	movs	r3, #1
    3b32:	2200      	movs	r2, #0
    3b34:	4640      	mov	r0, r8
    3b36:	69e1      	ldr	r1, [r4, #28]
    3b38:	47b0      	blx	r6
    3b3a:	1c43      	adds	r3, r0, #1
    3b3c:	d068      	beq.n	3c10 <__sflush_r+0x118>
    3b3e:	89a2      	ldrh	r2, [r4, #12]
    3b40:	6aa6      	ldr	r6, [r4, #40]	; 0x28
    3b42:	0753      	lsls	r3, r2, #29
    3b44:	d506      	bpl.n	3b54 <__sflush_r+0x5c>
    3b46:	6863      	ldr	r3, [r4, #4]
    3b48:	1ac0      	subs	r0, r0, r3
    3b4a:	6b23      	ldr	r3, [r4, #48]	; 0x30
    3b4c:	2b00      	cmp	r3, #0
    3b4e:	d001      	beq.n	3b54 <__sflush_r+0x5c>
    3b50:	6be3      	ldr	r3, [r4, #60]	; 0x3c
    3b52:	1ac0      	subs	r0, r0, r3
    3b54:	2300      	movs	r3, #0
    3b56:	0002      	movs	r2, r0
    3b58:	69e1      	ldr	r1, [r4, #28]
    3b5a:	4640      	mov	r0, r8
    3b5c:	47b0      	blx	r6
    3b5e:	1c43      	adds	r3, r0, #1
    3b60:	d149      	bne.n	3bf6 <__sflush_r+0xfe>
    3b62:	4643      	mov	r3, r8
    3b64:	681b      	ldr	r3, [r3, #0]
    3b66:	2b00      	cmp	r3, #0
    3b68:	d045      	beq.n	3bf6 <__sflush_r+0xfe>
    3b6a:	2b1d      	cmp	r3, #29
    3b6c:	d001      	beq.n	3b72 <__sflush_r+0x7a>
    3b6e:	2b16      	cmp	r3, #22
    3b70:	d157      	bne.n	3c22 <__sflush_r+0x12a>
    3b72:	89a3      	ldrh	r3, [r4, #12]
    3b74:	4a2f      	ldr	r2, [pc, #188]	; (3c34 <__sflush_r+0x13c>)
    3b76:	4013      	ands	r3, r2
    3b78:	81a3      	strh	r3, [r4, #12]
    3b7a:	2300      	movs	r3, #0
    3b7c:	6063      	str	r3, [r4, #4]
    3b7e:	6923      	ldr	r3, [r4, #16]
    3b80:	6023      	str	r3, [r4, #0]
    3b82:	4643      	mov	r3, r8
    3b84:	6b21      	ldr	r1, [r4, #48]	; 0x30
    3b86:	601d      	str	r5, [r3, #0]
    3b88:	2900      	cmp	r1, #0
    3b8a:	d008      	beq.n	3b9e <__sflush_r+0xa6>
    3b8c:	0023      	movs	r3, r4
    3b8e:	3340      	adds	r3, #64	; 0x40
    3b90:	4299      	cmp	r1, r3
    3b92:	d002      	beq.n	3b9a <__sflush_r+0xa2>
    3b94:	4640      	mov	r0, r8
    3b96:	f000 fa93 	bl	40c0 <_free_r>
    3b9a:	2300      	movs	r3, #0
    3b9c:	6323      	str	r3, [r4, #48]	; 0x30
    3b9e:	2000      	movs	r0, #0
    3ba0:	bc80      	pop	{r7}
    3ba2:	46b8      	mov	r8, r7
    3ba4:	bdf0      	pop	{r4, r5, r6, r7, pc}
    3ba6:	6926      	ldr	r6, [r4, #16]
    3ba8:	2e00      	cmp	r6, #0
    3baa:	d0f8      	beq.n	3b9e <__sflush_r+0xa6>
    3bac:	6823      	ldr	r3, [r4, #0]
    3bae:	6026      	str	r6, [r4, #0]
    3bb0:	1b9d      	subs	r5, r3, r6
    3bb2:	2300      	movs	r3, #0
    3bb4:	0792      	lsls	r2, r2, #30
    3bb6:	d100      	bne.n	3bba <__sflush_r+0xc2>
    3bb8:	6963      	ldr	r3, [r4, #20]
    3bba:	60a3      	str	r3, [r4, #8]
    3bbc:	2d00      	cmp	r5, #0
    3bbe:	dc04      	bgt.n	3bca <__sflush_r+0xd2>
    3bc0:	e7ed      	b.n	3b9e <__sflush_r+0xa6>
    3bc2:	1836      	adds	r6, r6, r0
    3bc4:	1a2d      	subs	r5, r5, r0
    3bc6:	2d00      	cmp	r5, #0
    3bc8:	dde9      	ble.n	3b9e <__sflush_r+0xa6>
    3bca:	002b      	movs	r3, r5
    3bcc:	0032      	movs	r2, r6
    3bce:	4640      	mov	r0, r8
    3bd0:	69e1      	ldr	r1, [r4, #28]
    3bd2:	6a67      	ldr	r7, [r4, #36]	; 0x24
    3bd4:	47b8      	blx	r7
    3bd6:	2800      	cmp	r0, #0
    3bd8:	dcf3      	bgt.n	3bc2 <__sflush_r+0xca>
    3bda:	2240      	movs	r2, #64	; 0x40
    3bdc:	2001      	movs	r0, #1
    3bde:	89a3      	ldrh	r3, [r4, #12]
    3be0:	4240      	negs	r0, r0
    3be2:	4313      	orrs	r3, r2
    3be4:	81a3      	strh	r3, [r4, #12]
    3be6:	e7db      	b.n	3ba0 <__sflush_r+0xa8>
    3be8:	6be2      	ldr	r2, [r4, #60]	; 0x3c
    3bea:	2a00      	cmp	r2, #0
    3bec:	dd00      	ble.n	3bf0 <__sflush_r+0xf8>
    3bee:	e794      	b.n	3b1a <__sflush_r+0x22>
    3bf0:	e7d5      	b.n	3b9e <__sflush_r+0xa6>
    3bf2:	6d20      	ldr	r0, [r4, #80]	; 0x50
    3bf4:	e7a5      	b.n	3b42 <__sflush_r+0x4a>
    3bf6:	89a3      	ldrh	r3, [r4, #12]
    3bf8:	4a0e      	ldr	r2, [pc, #56]	; (3c34 <__sflush_r+0x13c>)
    3bfa:	4013      	ands	r3, r2
    3bfc:	2200      	movs	r2, #0
    3bfe:	6062      	str	r2, [r4, #4]
    3c00:	6922      	ldr	r2, [r4, #16]
    3c02:	b21b      	sxth	r3, r3
    3c04:	81a3      	strh	r3, [r4, #12]
    3c06:	6022      	str	r2, [r4, #0]
    3c08:	04db      	lsls	r3, r3, #19
    3c0a:	d5ba      	bpl.n	3b82 <__sflush_r+0x8a>
    3c0c:	6520      	str	r0, [r4, #80]	; 0x50
    3c0e:	e7b8      	b.n	3b82 <__sflush_r+0x8a>
    3c10:	4643      	mov	r3, r8
    3c12:	681b      	ldr	r3, [r3, #0]
    3c14:	2b00      	cmp	r3, #0
    3c16:	d100      	bne.n	3c1a <__sflush_r+0x122>
    3c18:	e791      	b.n	3b3e <__sflush_r+0x46>
    3c1a:	2b1d      	cmp	r3, #29
    3c1c:	d006      	beq.n	3c2c <__sflush_r+0x134>
    3c1e:	2b16      	cmp	r3, #22
    3c20:	d004      	beq.n	3c2c <__sflush_r+0x134>
    3c22:	2240      	movs	r2, #64	; 0x40
    3c24:	89a3      	ldrh	r3, [r4, #12]
    3c26:	4313      	orrs	r3, r2
    3c28:	81a3      	strh	r3, [r4, #12]
    3c2a:	e7b9      	b.n	3ba0 <__sflush_r+0xa8>
    3c2c:	4643      	mov	r3, r8
    3c2e:	2000      	movs	r0, #0
    3c30:	601d      	str	r5, [r3, #0]
    3c32:	e7b5      	b.n	3ba0 <__sflush_r+0xa8>
    3c34:	fffff7ff 	.word	0xfffff7ff

00003c38 <_fflush_r>:
    3c38:	b570      	push	{r4, r5, r6, lr}
    3c3a:	0005      	movs	r5, r0
    3c3c:	000c      	movs	r4, r1
    3c3e:	2800      	cmp	r0, #0
    3c40:	d002      	beq.n	3c48 <_fflush_r+0x10>
    3c42:	6b83      	ldr	r3, [r0, #56]	; 0x38
    3c44:	2b00      	cmp	r3, #0
    3c46:	d015      	beq.n	3c74 <_fflush_r+0x3c>
    3c48:	220c      	movs	r2, #12
    3c4a:	5ea3      	ldrsh	r3, [r4, r2]
    3c4c:	2b00      	cmp	r3, #0
    3c4e:	d017      	beq.n	3c80 <_fflush_r+0x48>
    3c50:	6e62      	ldr	r2, [r4, #100]	; 0x64
    3c52:	07d2      	lsls	r2, r2, #31
    3c54:	d401      	bmi.n	3c5a <_fflush_r+0x22>
    3c56:	059b      	lsls	r3, r3, #22
    3c58:	d514      	bpl.n	3c84 <_fflush_r+0x4c>
    3c5a:	0028      	movs	r0, r5
    3c5c:	0021      	movs	r1, r4
    3c5e:	f7ff ff4b 	bl	3af8 <__sflush_r>
    3c62:	6e63      	ldr	r3, [r4, #100]	; 0x64
    3c64:	0005      	movs	r5, r0
    3c66:	07db      	lsls	r3, r3, #31
    3c68:	d402      	bmi.n	3c70 <_fflush_r+0x38>
    3c6a:	89a3      	ldrh	r3, [r4, #12]
    3c6c:	059b      	lsls	r3, r3, #22
    3c6e:	d515      	bpl.n	3c9c <_fflush_r+0x64>
    3c70:	0028      	movs	r0, r5
    3c72:	bd70      	pop	{r4, r5, r6, pc}
    3c74:	f000 f89a 	bl	3dac <__sinit>
    3c78:	220c      	movs	r2, #12
    3c7a:	5ea3      	ldrsh	r3, [r4, r2]
    3c7c:	2b00      	cmp	r3, #0
    3c7e:	d1e7      	bne.n	3c50 <_fflush_r+0x18>
    3c80:	2500      	movs	r5, #0
    3c82:	e7f5      	b.n	3c70 <_fflush_r+0x38>
    3c84:	6da0      	ldr	r0, [r4, #88]	; 0x58
    3c86:	f000 fb55 	bl	4334 <__retarget_lock_acquire_recursive>
    3c8a:	0028      	movs	r0, r5
    3c8c:	0021      	movs	r1, r4
    3c8e:	f7ff ff33 	bl	3af8 <__sflush_r>
    3c92:	6e63      	ldr	r3, [r4, #100]	; 0x64
    3c94:	0005      	movs	r5, r0
    3c96:	07db      	lsls	r3, r3, #31
    3c98:	d4ea      	bmi.n	3c70 <_fflush_r+0x38>
    3c9a:	e7e6      	b.n	3c6a <_fflush_r+0x32>
    3c9c:	6da0      	ldr	r0, [r4, #88]	; 0x58
    3c9e:	f000 fb51 	bl	4344 <__retarget_lock_release_recursive>
    3ca2:	e7e5      	b.n	3c70 <_fflush_r+0x38>

00003ca4 <fflush>:
    3ca4:	b570      	push	{r4, r5, r6, lr}
    3ca6:	1e04      	subs	r4, r0, #0
    3ca8:	d02a      	beq.n	3d00 <fflush+0x5c>
    3caa:	4b19      	ldr	r3, [pc, #100]	; (3d10 <fflush+0x6c>)
    3cac:	681d      	ldr	r5, [r3, #0]
    3cae:	2d00      	cmp	r5, #0
    3cb0:	d002      	beq.n	3cb8 <fflush+0x14>
    3cb2:	6bab      	ldr	r3, [r5, #56]	; 0x38
    3cb4:	2b00      	cmp	r3, #0
    3cb6:	d017      	beq.n	3ce8 <fflush+0x44>
    3cb8:	220c      	movs	r2, #12
    3cba:	5ea3      	ldrsh	r3, [r4, r2]
    3cbc:	2b00      	cmp	r3, #0
    3cbe:	d011      	beq.n	3ce4 <fflush+0x40>
    3cc0:	6e62      	ldr	r2, [r4, #100]	; 0x64
    3cc2:	07d2      	lsls	r2, r2, #31
    3cc4:	d401      	bmi.n	3cca <fflush+0x26>
    3cc6:	059b      	lsls	r3, r3, #22
    3cc8:	d512      	bpl.n	3cf0 <fflush+0x4c>
    3cca:	0028      	movs	r0, r5
    3ccc:	0021      	movs	r1, r4
    3cce:	f7ff ff13 	bl	3af8 <__sflush_r>
    3cd2:	6e63      	ldr	r3, [r4, #100]	; 0x64
    3cd4:	0005      	movs	r5, r0
    3cd6:	07db      	lsls	r3, r3, #31
    3cd8:	d402      	bmi.n	3ce0 <fflush+0x3c>
    3cda:	89a3      	ldrh	r3, [r4, #12]
    3cdc:	059b      	lsls	r3, r3, #22
    3cde:	d50b      	bpl.n	3cf8 <fflush+0x54>
    3ce0:	0028      	movs	r0, r5
    3ce2:	bd70      	pop	{r4, r5, r6, pc}
    3ce4:	2500      	movs	r5, #0
    3ce6:	e7fb      	b.n	3ce0 <fflush+0x3c>
    3ce8:	0028      	movs	r0, r5
    3cea:	f000 f85f 	bl	3dac <__sinit>
    3cee:	e7e3      	b.n	3cb8 <fflush+0x14>
    3cf0:	6da0      	ldr	r0, [r4, #88]	; 0x58
    3cf2:	f000 fb1f 	bl	4334 <__retarget_lock_acquire_recursive>
    3cf6:	e7e8      	b.n	3cca <fflush+0x26>
    3cf8:	6da0      	ldr	r0, [r4, #88]	; 0x58
    3cfa:	f000 fb23 	bl	4344 <__retarget_lock_release_recursive>
    3cfe:	e7ef      	b.n	3ce0 <fflush+0x3c>
    3d00:	4b04      	ldr	r3, [pc, #16]	; (3d14 <fflush+0x70>)
    3d02:	4905      	ldr	r1, [pc, #20]	; (3d18 <fflush+0x74>)
    3d04:	6818      	ldr	r0, [r3, #0]
    3d06:	f000 fadd 	bl	42c4 <_fwalk_reent>
    3d0a:	0005      	movs	r5, r0
    3d0c:	e7e8      	b.n	3ce0 <fflush+0x3c>
    3d0e:	46c0      	nop			; (mov r8, r8)
    3d10:	000106f0 	.word	0x000106f0
    3d14:	00009f98 	.word	0x00009f98
    3d18:	00003c39 	.word	0x00003c39

00003d1c <_cleanup_r>:
    3d1c:	b510      	push	{r4, lr}
    3d1e:	4902      	ldr	r1, [pc, #8]	; (3d28 <_cleanup_r+0xc>)
    3d20:	f000 fad0 	bl	42c4 <_fwalk_reent>
    3d24:	bd10      	pop	{r4, pc}
    3d26:	46c0      	nop			; (mov r8, r8)
    3d28:	0000624d 	.word	0x0000624d

00003d2c <__fp_lock>:
    3d2c:	6e43      	ldr	r3, [r0, #100]	; 0x64
    3d2e:	b510      	push	{r4, lr}
    3d30:	07db      	lsls	r3, r3, #31
    3d32:	d402      	bmi.n	3d3a <__fp_lock+0xe>
    3d34:	8983      	ldrh	r3, [r0, #12]
    3d36:	059b      	lsls	r3, r3, #22
    3d38:	d501      	bpl.n	3d3e <__fp_lock+0x12>
    3d3a:	2000      	movs	r0, #0
    3d3c:	bd10      	pop	{r4, pc}
    3d3e:	6d80      	ldr	r0, [r0, #88]	; 0x58
    3d40:	f000 faf8 	bl	4334 <__retarget_lock_acquire_recursive>
    3d44:	e7f9      	b.n	3d3a <__fp_lock+0xe>
    3d46:	46c0      	nop			; (mov r8, r8)

00003d48 <__fp_unlock>:
    3d48:	6e43      	ldr	r3, [r0, #100]	; 0x64
    3d4a:	b510      	push	{r4, lr}
    3d4c:	07db      	lsls	r3, r3, #31
    3d4e:	d402      	bmi.n	3d56 <__fp_unlock+0xe>
    3d50:	8983      	ldrh	r3, [r0, #12]
    3d52:	059b      	lsls	r3, r3, #22
    3d54:	d501      	bpl.n	3d5a <__fp_unlock+0x12>
    3d56:	2000      	movs	r0, #0
    3d58:	bd10      	pop	{r4, pc}
    3d5a:	6d80      	ldr	r0, [r0, #88]	; 0x58
    3d5c:	f000 faf2 	bl	4344 <__retarget_lock_release_recursive>
    3d60:	e7f9      	b.n	3d56 <__fp_unlock+0xe>
    3d62:	46c0      	nop			; (mov r8, r8)

00003d64 <__sfmoreglue>:
    3d64:	b570      	push	{r4, r5, r6, lr}
    3d66:	2568      	movs	r5, #104	; 0x68
    3d68:	1e4a      	subs	r2, r1, #1
    3d6a:	4355      	muls	r5, r2
    3d6c:	000e      	movs	r6, r1
    3d6e:	0029      	movs	r1, r5
    3d70:	3174      	adds	r1, #116	; 0x74
    3d72:	f7fc fbd3 	bl	51c <_malloc_r>
    3d76:	1e04      	subs	r4, r0, #0
    3d78:	d009      	beq.n	3d8e <__sfmoreglue+0x2a>
    3d7a:	2300      	movs	r3, #0
    3d7c:	002a      	movs	r2, r5
    3d7e:	6003      	str	r3, [r0, #0]
    3d80:	6046      	str	r6, [r0, #4]
    3d82:	300c      	adds	r0, #12
    3d84:	2100      	movs	r1, #0
    3d86:	60a0      	str	r0, [r4, #8]
    3d88:	3268      	adds	r2, #104	; 0x68
    3d8a:	f7fc fedb 	bl	b44 <memset>
    3d8e:	0020      	movs	r0, r4
    3d90:	bd70      	pop	{r4, r5, r6, pc}
    3d92:	46c0      	nop			; (mov r8, r8)

00003d94 <_cleanup>:
    3d94:	b510      	push	{r4, lr}
    3d96:	4b03      	ldr	r3, [pc, #12]	; (3da4 <_cleanup+0x10>)
    3d98:	4903      	ldr	r1, [pc, #12]	; (3da8 <_cleanup+0x14>)
    3d9a:	6818      	ldr	r0, [r3, #0]
    3d9c:	f000 fa92 	bl	42c4 <_fwalk_reent>
    3da0:	bd10      	pop	{r4, pc}
    3da2:	46c0      	nop			; (mov r8, r8)
    3da4:	00009f98 	.word	0x00009f98
    3da8:	0000624d 	.word	0x0000624d

00003dac <__sinit>:
    3dac:	b5f8      	push	{r3, r4, r5, r6, r7, lr}
    3dae:	46de      	mov	lr, fp
    3db0:	4657      	mov	r7, sl
    3db2:	464e      	mov	r6, r9
    3db4:	4645      	mov	r5, r8
    3db6:	b5e0      	push	{r5, r6, r7, lr}
    3db8:	0006      	movs	r6, r0
    3dba:	4f3c      	ldr	r7, [pc, #240]	; (3eac <__sinit+0x100>)
    3dbc:	0038      	movs	r0, r7
    3dbe:	f000 fab9 	bl	4334 <__retarget_lock_acquire_recursive>
    3dc2:	6bb4      	ldr	r4, [r6, #56]	; 0x38
    3dc4:	2c00      	cmp	r4, #0
    3dc6:	d168      	bne.n	3e9a <__sinit+0xee>
    3dc8:	4b39      	ldr	r3, [pc, #228]	; (3eb0 <__sinit+0x104>)
    3dca:	2203      	movs	r2, #3
    3dcc:	63f3      	str	r3, [r6, #60]	; 0x3c
    3dce:	23b8      	movs	r3, #184	; 0xb8
    3dd0:	009b      	lsls	r3, r3, #2
    3dd2:	50f4      	str	r4, [r6, r3]
    3dd4:	3304      	adds	r3, #4
    3dd6:	6875      	ldr	r5, [r6, #4]
    3dd8:	50f2      	str	r2, [r6, r3]
    3dda:	3308      	adds	r3, #8
    3ddc:	18f2      	adds	r2, r6, r3
    3dde:	3b04      	subs	r3, #4
    3de0:	50f2      	str	r2, [r6, r3]
    3de2:	0028      	movs	r0, r5
    3de4:	2304      	movs	r3, #4
    3de6:	2208      	movs	r2, #8
    3de8:	2100      	movs	r1, #0
    3dea:	60eb      	str	r3, [r5, #12]
    3dec:	666c      	str	r4, [r5, #100]	; 0x64
    3dee:	602c      	str	r4, [r5, #0]
    3df0:	606c      	str	r4, [r5, #4]
    3df2:	60ac      	str	r4, [r5, #8]
    3df4:	612c      	str	r4, [r5, #16]
    3df6:	616c      	str	r4, [r5, #20]
    3df8:	61ac      	str	r4, [r5, #24]
    3dfa:	305c      	adds	r0, #92	; 0x5c
    3dfc:	f7fc fea2 	bl	b44 <memset>
    3e00:	0028      	movs	r0, r5
    3e02:	4b2c      	ldr	r3, [pc, #176]	; (3eb4 <__sinit+0x108>)
    3e04:	61ed      	str	r5, [r5, #28]
    3e06:	469b      	mov	fp, r3
    3e08:	622b      	str	r3, [r5, #32]
    3e0a:	4b2b      	ldr	r3, [pc, #172]	; (3eb8 <__sinit+0x10c>)
    3e0c:	3058      	adds	r0, #88	; 0x58
    3e0e:	469a      	mov	sl, r3
    3e10:	626b      	str	r3, [r5, #36]	; 0x24
    3e12:	4b2a      	ldr	r3, [pc, #168]	; (3ebc <__sinit+0x110>)
    3e14:	4699      	mov	r9, r3
    3e16:	62ab      	str	r3, [r5, #40]	; 0x28
    3e18:	4b29      	ldr	r3, [pc, #164]	; (3ec0 <__sinit+0x114>)
    3e1a:	62eb      	str	r3, [r5, #44]	; 0x2c
    3e1c:	4698      	mov	r8, r3
    3e1e:	f000 fa81 	bl	4324 <__retarget_lock_init_recursive>
    3e22:	68b5      	ldr	r5, [r6, #8]
    3e24:	4b27      	ldr	r3, [pc, #156]	; (3ec4 <__sinit+0x118>)
    3e26:	0028      	movs	r0, r5
    3e28:	2208      	movs	r2, #8
    3e2a:	2100      	movs	r1, #0
    3e2c:	60eb      	str	r3, [r5, #12]
    3e2e:	666c      	str	r4, [r5, #100]	; 0x64
    3e30:	602c      	str	r4, [r5, #0]
    3e32:	606c      	str	r4, [r5, #4]
    3e34:	60ac      	str	r4, [r5, #8]
    3e36:	612c      	str	r4, [r5, #16]
    3e38:	616c      	str	r4, [r5, #20]
    3e3a:	61ac      	str	r4, [r5, #24]
    3e3c:	305c      	adds	r0, #92	; 0x5c
    3e3e:	f7fc fe81 	bl	b44 <memset>
    3e42:	465b      	mov	r3, fp
    3e44:	622b      	str	r3, [r5, #32]
    3e46:	4653      	mov	r3, sl
    3e48:	626b      	str	r3, [r5, #36]	; 0x24
    3e4a:	464b      	mov	r3, r9
    3e4c:	0028      	movs	r0, r5
    3e4e:	62ab      	str	r3, [r5, #40]	; 0x28
    3e50:	4643      	mov	r3, r8
    3e52:	61ed      	str	r5, [r5, #28]
    3e54:	62eb      	str	r3, [r5, #44]	; 0x2c
    3e56:	3058      	adds	r0, #88	; 0x58
    3e58:	f000 fa64 	bl	4324 <__retarget_lock_init_recursive>
    3e5c:	68f5      	ldr	r5, [r6, #12]
    3e5e:	4b1a      	ldr	r3, [pc, #104]	; (3ec8 <__sinit+0x11c>)
    3e60:	0028      	movs	r0, r5
    3e62:	2208      	movs	r2, #8
    3e64:	2100      	movs	r1, #0
    3e66:	60eb      	str	r3, [r5, #12]
    3e68:	666c      	str	r4, [r5, #100]	; 0x64
    3e6a:	602c      	str	r4, [r5, #0]
    3e6c:	606c      	str	r4, [r5, #4]
    3e6e:	60ac      	str	r4, [r5, #8]
    3e70:	612c      	str	r4, [r5, #16]
    3e72:	616c      	str	r4, [r5, #20]
    3e74:	61ac      	str	r4, [r5, #24]
    3e76:	305c      	adds	r0, #92	; 0x5c
    3e78:	f7fc fe64 	bl	b44 <memset>
    3e7c:	465b      	mov	r3, fp
    3e7e:	622b      	str	r3, [r5, #32]
    3e80:	4653      	mov	r3, sl
    3e82:	626b      	str	r3, [r5, #36]	; 0x24
    3e84:	464b      	mov	r3, r9
    3e86:	0028      	movs	r0, r5
    3e88:	62ab      	str	r3, [r5, #40]	; 0x28
    3e8a:	4643      	mov	r3, r8
    3e8c:	61ed      	str	r5, [r5, #28]
    3e8e:	62eb      	str	r3, [r5, #44]	; 0x2c
    3e90:	3058      	adds	r0, #88	; 0x58
    3e92:	f000 fa47 	bl	4324 <__retarget_lock_init_recursive>
    3e96:	2301      	movs	r3, #1
    3e98:	63b3      	str	r3, [r6, #56]	; 0x38
    3e9a:	0038      	movs	r0, r7
    3e9c:	f000 fa52 	bl	4344 <__retarget_lock_release_recursive>
    3ea0:	bcf0      	pop	{r4, r5, r6, r7}
    3ea2:	46bb      	mov	fp, r7
    3ea4:	46b2      	mov	sl, r6
    3ea6:	46a9      	mov	r9, r5
    3ea8:	46a0      	mov	r8, r4
    3eaa:	bdf8      	pop	{r3, r4, r5, r6, r7, pc}
    3eac:	40000050 	.word	0x40000050
    3eb0:	00003d1d 	.word	0x00003d1d
    3eb4:	00005151 	.word	0x00005151
    3eb8:	0000517d 	.word	0x0000517d
    3ebc:	000051bd 	.word	0x000051bd
    3ec0:	000051e9 	.word	0x000051e9
    3ec4:	00010009 	.word	0x00010009
    3ec8:	00020012 	.word	0x00020012

00003ecc <__sfp>:
    3ecc:	b5f8      	push	{r3, r4, r5, r6, r7, lr}
    3ece:	4647      	mov	r7, r8
    3ed0:	46ce      	mov	lr, r9
    3ed2:	b580      	push	{r7, lr}
    3ed4:	4f30      	ldr	r7, [pc, #192]	; (3f98 <__sfp+0xcc>)
    3ed6:	4680      	mov	r8, r0
    3ed8:	0038      	movs	r0, r7
    3eda:	f000 fa2b 	bl	4334 <__retarget_lock_acquire_recursive>
    3ede:	4b2f      	ldr	r3, [pc, #188]	; (3f9c <__sfp+0xd0>)
    3ee0:	681e      	ldr	r6, [r3, #0]
    3ee2:	6bb3      	ldr	r3, [r6, #56]	; 0x38
    3ee4:	2b00      	cmp	r3, #0
    3ee6:	d035      	beq.n	3f54 <__sfp+0x88>
    3ee8:	23b8      	movs	r3, #184	; 0xb8
    3eea:	009b      	lsls	r3, r3, #2
    3eec:	469c      	mov	ip, r3
    3eee:	2304      	movs	r3, #4
    3ef0:	4699      	mov	r9, r3
    3ef2:	4466      	add	r6, ip
    3ef4:	6873      	ldr	r3, [r6, #4]
    3ef6:	68b4      	ldr	r4, [r6, #8]
    3ef8:	3b01      	subs	r3, #1
    3efa:	d503      	bpl.n	3f04 <__sfp+0x38>
    3efc:	e025      	b.n	3f4a <__sfp+0x7e>
    3efe:	3468      	adds	r4, #104	; 0x68
    3f00:	3b01      	subs	r3, #1
    3f02:	d322      	bcc.n	3f4a <__sfp+0x7e>
    3f04:	220c      	movs	r2, #12
    3f06:	5ea5      	ldrsh	r5, [r4, r2]
    3f08:	2d00      	cmp	r5, #0
    3f0a:	d1f8      	bne.n	3efe <__sfp+0x32>
    3f0c:	0020      	movs	r0, r4
    3f0e:	4b24      	ldr	r3, [pc, #144]	; (3fa0 <__sfp+0xd4>)
    3f10:	3058      	adds	r0, #88	; 0x58
    3f12:	60e3      	str	r3, [r4, #12]
    3f14:	6665      	str	r5, [r4, #100]	; 0x64
    3f16:	f000 fa05 	bl	4324 <__retarget_lock_init_recursive>
    3f1a:	0038      	movs	r0, r7
    3f1c:	f000 fa12 	bl	4344 <__retarget_lock_release_recursive>
    3f20:	0020      	movs	r0, r4
    3f22:	2208      	movs	r2, #8
    3f24:	2100      	movs	r1, #0
    3f26:	6025      	str	r5, [r4, #0]
    3f28:	60a5      	str	r5, [r4, #8]
    3f2a:	6065      	str	r5, [r4, #4]
    3f2c:	6125      	str	r5, [r4, #16]
    3f2e:	6165      	str	r5, [r4, #20]
    3f30:	61a5      	str	r5, [r4, #24]
    3f32:	305c      	adds	r0, #92	; 0x5c
    3f34:	f7fc fe06 	bl	b44 <memset>
    3f38:	6325      	str	r5, [r4, #48]	; 0x30
    3f3a:	6365      	str	r5, [r4, #52]	; 0x34
    3f3c:	6465      	str	r5, [r4, #68]	; 0x44
    3f3e:	64a5      	str	r5, [r4, #72]	; 0x48
    3f40:	0020      	movs	r0, r4
    3f42:	bcc0      	pop	{r6, r7}
    3f44:	46b9      	mov	r9, r7
    3f46:	46b0      	mov	r8, r6
    3f48:	bdf8      	pop	{r3, r4, r5, r6, r7, pc}
    3f4a:	6835      	ldr	r5, [r6, #0]
    3f4c:	2d00      	cmp	r5, #0
    3f4e:	d005      	beq.n	3f5c <__sfp+0x90>
    3f50:	002e      	movs	r6, r5
    3f52:	e7cf      	b.n	3ef4 <__sfp+0x28>
    3f54:	0030      	movs	r0, r6
    3f56:	f7ff ff29 	bl	3dac <__sinit>
    3f5a:	e7c5      	b.n	3ee8 <__sfp+0x1c>
    3f5c:	21d6      	movs	r1, #214	; 0xd6
    3f5e:	4640      	mov	r0, r8
    3f60:	0049      	lsls	r1, r1, #1
    3f62:	f7fc fadb 	bl	51c <_malloc_r>
    3f66:	1e04      	subs	r4, r0, #0
    3f68:	d00d      	beq.n	3f86 <__sfp+0xba>
    3f6a:	464b      	mov	r3, r9
    3f6c:	22d0      	movs	r2, #208	; 0xd0
    3f6e:	6005      	str	r5, [r0, #0]
    3f70:	0025      	movs	r5, r4
    3f72:	6043      	str	r3, [r0, #4]
    3f74:	300c      	adds	r0, #12
    3f76:	2100      	movs	r1, #0
    3f78:	60a0      	str	r0, [r4, #8]
    3f7a:	0052      	lsls	r2, r2, #1
    3f7c:	f7fc fde2 	bl	b44 <memset>
    3f80:	6034      	str	r4, [r6, #0]
    3f82:	002e      	movs	r6, r5
    3f84:	e7b6      	b.n	3ef4 <__sfp+0x28>
    3f86:	6030      	str	r0, [r6, #0]
    3f88:	0038      	movs	r0, r7
    3f8a:	f000 f9db 	bl	4344 <__retarget_lock_release_recursive>
    3f8e:	230c      	movs	r3, #12
    3f90:	4642      	mov	r2, r8
    3f92:	6013      	str	r3, [r2, #0]
    3f94:	e7d4      	b.n	3f40 <__sfp+0x74>
    3f96:	46c0      	nop			; (mov r8, r8)
    3f98:	4000004c 	.word	0x4000004c
    3f9c:	00009f98 	.word	0x00009f98
    3fa0:	ffff0001 	.word	0xffff0001

00003fa4 <__sfp_lock_acquire>:
    3fa4:	b510      	push	{r4, lr}
    3fa6:	4802      	ldr	r0, [pc, #8]	; (3fb0 <__sfp_lock_acquire+0xc>)
    3fa8:	f000 f9c4 	bl	4334 <__retarget_lock_acquire_recursive>
    3fac:	bd10      	pop	{r4, pc}
    3fae:	46c0      	nop			; (mov r8, r8)
    3fb0:	4000004c 	.word	0x4000004c

00003fb4 <__sfp_lock_release>:
    3fb4:	b510      	push	{r4, lr}
    3fb6:	4802      	ldr	r0, [pc, #8]	; (3fc0 <__sfp_lock_release+0xc>)
    3fb8:	f000 f9c4 	bl	4344 <__retarget_lock_release_recursive>
    3fbc:	bd10      	pop	{r4, pc}
    3fbe:	46c0      	nop			; (mov r8, r8)
    3fc0:	4000004c 	.word	0x4000004c

00003fc4 <__sinit_lock_acquire>:
    3fc4:	b510      	push	{r4, lr}
    3fc6:	4802      	ldr	r0, [pc, #8]	; (3fd0 <__sinit_lock_acquire+0xc>)
    3fc8:	f000 f9b4 	bl	4334 <__retarget_lock_acquire_recursive>
    3fcc:	bd10      	pop	{r4, pc}
    3fce:	46c0      	nop			; (mov r8, r8)
    3fd0:	40000050 	.word	0x40000050

00003fd4 <__sinit_lock_release>:
    3fd4:	b510      	push	{r4, lr}
    3fd6:	4802      	ldr	r0, [pc, #8]	; (3fe0 <__sinit_lock_release+0xc>)
    3fd8:	f000 f9b4 	bl	4344 <__retarget_lock_release_recursive>
    3fdc:	bd10      	pop	{r4, pc}
    3fde:	46c0      	nop			; (mov r8, r8)
    3fe0:	40000050 	.word	0x40000050

00003fe4 <__fp_lock_all>:
    3fe4:	b510      	push	{r4, lr}
    3fe6:	4804      	ldr	r0, [pc, #16]	; (3ff8 <__fp_lock_all+0x14>)
    3fe8:	f000 f9a4 	bl	4334 <__retarget_lock_acquire_recursive>
    3fec:	4b03      	ldr	r3, [pc, #12]	; (3ffc <__fp_lock_all+0x18>)
    3fee:	4904      	ldr	r1, [pc, #16]	; (4000 <__fp_lock_all+0x1c>)
    3ff0:	6818      	ldr	r0, [r3, #0]
    3ff2:	f000 f947 	bl	4284 <_fwalk>
    3ff6:	bd10      	pop	{r4, pc}
    3ff8:	4000004c 	.word	0x4000004c
    3ffc:	000106f0 	.word	0x000106f0
    4000:	00003d2d 	.word	0x00003d2d

00004004 <__fp_unlock_all>:
    4004:	b510      	push	{r4, lr}
    4006:	4b04      	ldr	r3, [pc, #16]	; (4018 <__fp_unlock_all+0x14>)
    4008:	4904      	ldr	r1, [pc, #16]	; (401c <__fp_unlock_all+0x18>)
    400a:	6818      	ldr	r0, [r3, #0]
    400c:	f000 f93a 	bl	4284 <_fwalk>
    4010:	4803      	ldr	r0, [pc, #12]	; (4020 <__fp_unlock_all+0x1c>)
    4012:	f000 f997 	bl	4344 <__retarget_lock_release_recursive>
    4016:	bd10      	pop	{r4, pc}
    4018:	000106f0 	.word	0x000106f0
    401c:	00003d49 	.word	0x00003d49
    4020:	4000004c 	.word	0x4000004c

00004024 <_malloc_trim_r>:
    4024:	b5f8      	push	{r3, r4, r5, r6, r7, lr}
    4026:	000c      	movs	r4, r1
    4028:	0005      	movs	r5, r0
    402a:	f7fc fddf 	bl	bec <__malloc_lock>
    402e:	4f20      	ldr	r7, [pc, #128]	; (40b0 <_malloc_trim_r+0x8c>)
    4030:	68bb      	ldr	r3, [r7, #8]
    4032:	685e      	ldr	r6, [r3, #4]
    4034:	2303      	movs	r3, #3
    4036:	439e      	bics	r6, r3
    4038:	4b1e      	ldr	r3, [pc, #120]	; (40b4 <_malloc_trim_r+0x90>)
    403a:	1b34      	subs	r4, r6, r4
    403c:	469c      	mov	ip, r3
    403e:	4464      	add	r4, ip
    4040:	0b24      	lsrs	r4, r4, #12
    4042:	3c01      	subs	r4, #1
    4044:	3311      	adds	r3, #17
    4046:	0324      	lsls	r4, r4, #12
    4048:	429c      	cmp	r4, r3
    404a:	db07      	blt.n	405c <_malloc_trim_r+0x38>
    404c:	2100      	movs	r1, #0
    404e:	0028      	movs	r0, r5
    4050:	f7fc fddc 	bl	c0c <_sbrk_r>
    4054:	68bb      	ldr	r3, [r7, #8]
    4056:	199b      	adds	r3, r3, r6
    4058:	4298      	cmp	r0, r3
    405a:	d004      	beq.n	4066 <_malloc_trim_r+0x42>
    405c:	0028      	movs	r0, r5
    405e:	f7fc fdcd 	bl	bfc <__malloc_unlock>
    4062:	2000      	movs	r0, #0
    4064:	bdf8      	pop	{r3, r4, r5, r6, r7, pc}
    4066:	0028      	movs	r0, r5
    4068:	4261      	negs	r1, r4
    406a:	f7fc fdcf 	bl	c0c <_sbrk_r>
    406e:	1c43      	adds	r3, r0, #1
    4070:	d00d      	beq.n	408e <_malloc_trim_r+0x6a>
    4072:	2201      	movs	r2, #1
    4074:	68bb      	ldr	r3, [r7, #8]
    4076:	1b36      	subs	r6, r6, r4
    4078:	4316      	orrs	r6, r2
    407a:	605e      	str	r6, [r3, #4]
    407c:	4b0e      	ldr	r3, [pc, #56]	; (40b8 <_malloc_trim_r+0x94>)
    407e:	0028      	movs	r0, r5
    4080:	681a      	ldr	r2, [r3, #0]
    4082:	1b14      	subs	r4, r2, r4
    4084:	601c      	str	r4, [r3, #0]
    4086:	f7fc fdb9 	bl	bfc <__malloc_unlock>
    408a:	2001      	movs	r0, #1
    408c:	e7ea      	b.n	4064 <_malloc_trim_r+0x40>
    408e:	2100      	movs	r1, #0
    4090:	0028      	movs	r0, r5
    4092:	f7fc fdbb 	bl	c0c <_sbrk_r>
    4096:	68ba      	ldr	r2, [r7, #8]
    4098:	1a83      	subs	r3, r0, r2
    409a:	2b0f      	cmp	r3, #15
    409c:	ddde      	ble.n	405c <_malloc_trim_r+0x38>
    409e:	4907      	ldr	r1, [pc, #28]	; (40bc <_malloc_trim_r+0x98>)
    40a0:	6809      	ldr	r1, [r1, #0]
    40a2:	1a40      	subs	r0, r0, r1
    40a4:	4904      	ldr	r1, [pc, #16]	; (40b8 <_malloc_trim_r+0x94>)
    40a6:	6008      	str	r0, [r1, #0]
    40a8:	2101      	movs	r1, #1
    40aa:	430b      	orrs	r3, r1
    40ac:	6053      	str	r3, [r2, #4]
    40ae:	e7d5      	b.n	405c <_malloc_trim_r+0x38>
    40b0:	00010b20 	.word	0x00010b20
    40b4:	00000fef 	.word	0x00000fef
    40b8:	40000000 	.word	0x40000000
    40bc:	00010f28 	.word	0x00010f28

000040c0 <_free_r>:
    40c0:	b5f0      	push	{r4, r5, r6, r7, lr}
    40c2:	46c6      	mov	lr, r8
    40c4:	0005      	movs	r5, r0
    40c6:	000c      	movs	r4, r1
    40c8:	b500      	push	{lr}
    40ca:	2900      	cmp	r1, #0
    40cc:	d04f      	beq.n	416e <_free_r+0xae>
    40ce:	f7fc fd8d 	bl	bec <__malloc_lock>
    40d2:	0021      	movs	r1, r4
    40d4:	3908      	subs	r1, #8
    40d6:	684c      	ldr	r4, [r1, #4]
    40d8:	2601      	movs	r6, #1
    40da:	0022      	movs	r2, r4
    40dc:	2003      	movs	r0, #3
    40de:	43b2      	bics	r2, r6
    40e0:	188f      	adds	r7, r1, r2
    40e2:	687b      	ldr	r3, [r7, #4]
    40e4:	4383      	bics	r3, r0
    40e6:	4862      	ldr	r0, [pc, #392]	; (4270 <_free_r+0x1b0>)
    40e8:	4698      	mov	r8, r3
    40ea:	6883      	ldr	r3, [r0, #8]
    40ec:	42bb      	cmp	r3, r7
    40ee:	d06a      	beq.n	41c6 <_free_r+0x106>
    40f0:	4643      	mov	r3, r8
    40f2:	607b      	str	r3, [r7, #4]
    40f4:	4226      	tst	r6, r4
    40f6:	d11e      	bne.n	4136 <_free_r+0x76>
    40f8:	2308      	movs	r3, #8
    40fa:	469c      	mov	ip, r3
    40fc:	680c      	ldr	r4, [r1, #0]
    40fe:	4484      	add	ip, r0
    4100:	1b09      	subs	r1, r1, r4
    4102:	1912      	adds	r2, r2, r4
    4104:	688c      	ldr	r4, [r1, #8]
    4106:	4564      	cmp	r4, ip
    4108:	d04f      	beq.n	41aa <_free_r+0xea>
    410a:	68cb      	ldr	r3, [r1, #12]
    410c:	60e3      	str	r3, [r4, #12]
    410e:	609c      	str	r4, [r3, #8]
    4110:	4643      	mov	r3, r8
    4112:	18fc      	adds	r4, r7, r3
    4114:	6864      	ldr	r4, [r4, #4]
    4116:	4234      	tst	r4, r6
    4118:	d111      	bne.n	413e <_free_r+0x7e>
    411a:	68bb      	ldr	r3, [r7, #8]
    411c:	4c55      	ldr	r4, [pc, #340]	; (4274 <_free_r+0x1b4>)
    411e:	4442      	add	r2, r8
    4120:	42a3      	cmp	r3, r4
    4122:	d100      	bne.n	4126 <_free_r+0x66>
    4124:	e07e      	b.n	4224 <_free_r+0x164>
    4126:	68fc      	ldr	r4, [r7, #12]
    4128:	60dc      	str	r4, [r3, #12]
    412a:	60a3      	str	r3, [r4, #8]
    412c:	2301      	movs	r3, #1
    412e:	4313      	orrs	r3, r2
    4130:	604b      	str	r3, [r1, #4]
    4132:	508a      	str	r2, [r1, r2]
    4134:	e006      	b.n	4144 <_free_r+0x84>
    4136:	18fc      	adds	r4, r7, r3
    4138:	6864      	ldr	r4, [r4, #4]
    413a:	4234      	tst	r4, r6
    413c:	d0ed      	beq.n	411a <_free_r+0x5a>
    413e:	4316      	orrs	r6, r2
    4140:	604e      	str	r6, [r1, #4]
    4142:	603a      	str	r2, [r7, #0]
    4144:	2380      	movs	r3, #128	; 0x80
    4146:	009b      	lsls	r3, r3, #2
    4148:	429a      	cmp	r2, r3
    414a:	d213      	bcs.n	4174 <_free_r+0xb4>
    414c:	0954      	lsrs	r4, r2, #5
    414e:	08d3      	lsrs	r3, r2, #3
    4150:	2201      	movs	r2, #1
    4152:	40a2      	lsls	r2, r4
    4154:	6844      	ldr	r4, [r0, #4]
    4156:	00db      	lsls	r3, r3, #3
    4158:	4322      	orrs	r2, r4
    415a:	6042      	str	r2, [r0, #4]
    415c:	1818      	adds	r0, r3, r0
    415e:	6883      	ldr	r3, [r0, #8]
    4160:	60c8      	str	r0, [r1, #12]
    4162:	608b      	str	r3, [r1, #8]
    4164:	6081      	str	r1, [r0, #8]
    4166:	60d9      	str	r1, [r3, #12]
    4168:	0028      	movs	r0, r5
    416a:	f7fc fd47 	bl	bfc <__malloc_unlock>
    416e:	bc80      	pop	{r7}
    4170:	46b8      	mov	r8, r7
    4172:	bdf0      	pop	{r4, r5, r6, r7, pc}
    4174:	0a53      	lsrs	r3, r2, #9
    4176:	2b04      	cmp	r3, #4
    4178:	d83e      	bhi.n	41f8 <_free_r+0x138>
    417a:	0994      	lsrs	r4, r2, #6
    417c:	0026      	movs	r6, r4
    417e:	3439      	adds	r4, #57	; 0x39
    4180:	3638      	adds	r6, #56	; 0x38
    4182:	00e4      	lsls	r4, r4, #3
    4184:	1904      	adds	r4, r0, r4
    4186:	6823      	ldr	r3, [r4, #0]
    4188:	3c08      	subs	r4, #8
    418a:	2703      	movs	r7, #3
    418c:	429c      	cmp	r4, r3
    418e:	d042      	beq.n	4216 <_free_r+0x156>
    4190:	6858      	ldr	r0, [r3, #4]
    4192:	43b8      	bics	r0, r7
    4194:	4290      	cmp	r0, r2
    4196:	d902      	bls.n	419e <_free_r+0xde>
    4198:	689b      	ldr	r3, [r3, #8]
    419a:	429c      	cmp	r4, r3
    419c:	d1f8      	bne.n	4190 <_free_r+0xd0>
    419e:	68dc      	ldr	r4, [r3, #12]
    41a0:	60cc      	str	r4, [r1, #12]
    41a2:	608b      	str	r3, [r1, #8]
    41a4:	60a1      	str	r1, [r4, #8]
    41a6:	60d9      	str	r1, [r3, #12]
    41a8:	e7de      	b.n	4168 <_free_r+0xa8>
    41aa:	4643      	mov	r3, r8
    41ac:	18f8      	adds	r0, r7, r3
    41ae:	6840      	ldr	r0, [r0, #4]
    41b0:	4230      	tst	r0, r6
    41b2:	d157      	bne.n	4264 <_free_r+0x1a4>
    41b4:	68fb      	ldr	r3, [r7, #12]
    41b6:	68b8      	ldr	r0, [r7, #8]
    41b8:	4442      	add	r2, r8
    41ba:	4316      	orrs	r6, r2
    41bc:	60c3      	str	r3, [r0, #12]
    41be:	6098      	str	r0, [r3, #8]
    41c0:	604e      	str	r6, [r1, #4]
    41c2:	508a      	str	r2, [r1, r2]
    41c4:	e7d0      	b.n	4168 <_free_r+0xa8>
    41c6:	0013      	movs	r3, r2
    41c8:	4443      	add	r3, r8
    41ca:	4226      	tst	r6, r4
    41cc:	d106      	bne.n	41dc <_free_r+0x11c>
    41ce:	680a      	ldr	r2, [r1, #0]
    41d0:	1a89      	subs	r1, r1, r2
    41d2:	688c      	ldr	r4, [r1, #8]
    41d4:	189b      	adds	r3, r3, r2
    41d6:	68ca      	ldr	r2, [r1, #12]
    41d8:	60e2      	str	r2, [r4, #12]
    41da:	6094      	str	r4, [r2, #8]
    41dc:	2201      	movs	r2, #1
    41de:	431a      	orrs	r2, r3
    41e0:	604a      	str	r2, [r1, #4]
    41e2:	4a25      	ldr	r2, [pc, #148]	; (4278 <_free_r+0x1b8>)
    41e4:	6081      	str	r1, [r0, #8]
    41e6:	6812      	ldr	r2, [r2, #0]
    41e8:	429a      	cmp	r2, r3
    41ea:	d8bd      	bhi.n	4168 <_free_r+0xa8>
    41ec:	4b23      	ldr	r3, [pc, #140]	; (427c <_free_r+0x1bc>)
    41ee:	0028      	movs	r0, r5
    41f0:	6819      	ldr	r1, [r3, #0]
    41f2:	f7ff ff17 	bl	4024 <_malloc_trim_r>
    41f6:	e7b7      	b.n	4168 <_free_r+0xa8>
    41f8:	2b14      	cmp	r3, #20
    41fa:	d907      	bls.n	420c <_free_r+0x14c>
    41fc:	2b54      	cmp	r3, #84	; 0x54
    41fe:	d81a      	bhi.n	4236 <_free_r+0x176>
    4200:	0b14      	lsrs	r4, r2, #12
    4202:	0026      	movs	r6, r4
    4204:	346f      	adds	r4, #111	; 0x6f
    4206:	366e      	adds	r6, #110	; 0x6e
    4208:	00e4      	lsls	r4, r4, #3
    420a:	e7bb      	b.n	4184 <_free_r+0xc4>
    420c:	001e      	movs	r6, r3
    420e:	335c      	adds	r3, #92	; 0x5c
    4210:	365b      	adds	r6, #91	; 0x5b
    4212:	00dc      	lsls	r4, r3, #3
    4214:	e7b6      	b.n	4184 <_free_r+0xc4>
    4216:	2201      	movs	r2, #1
    4218:	10b6      	asrs	r6, r6, #2
    421a:	40b2      	lsls	r2, r6
    421c:	6846      	ldr	r6, [r0, #4]
    421e:	4332      	orrs	r2, r6
    4220:	6042      	str	r2, [r0, #4]
    4222:	e7bd      	b.n	41a0 <_free_r+0xe0>
    4224:	60d9      	str	r1, [r3, #12]
    4226:	6099      	str	r1, [r3, #8]
    4228:	60cb      	str	r3, [r1, #12]
    422a:	608b      	str	r3, [r1, #8]
    422c:	2301      	movs	r3, #1
    422e:	4313      	orrs	r3, r2
    4230:	604b      	str	r3, [r1, #4]
    4232:	508a      	str	r2, [r1, r2]
    4234:	e798      	b.n	4168 <_free_r+0xa8>
    4236:	24aa      	movs	r4, #170	; 0xaa
    4238:	0064      	lsls	r4, r4, #1
    423a:	42a3      	cmp	r3, r4
    423c:	d805      	bhi.n	424a <_free_r+0x18a>
    423e:	0bd4      	lsrs	r4, r2, #15
    4240:	0026      	movs	r6, r4
    4242:	3478      	adds	r4, #120	; 0x78
    4244:	3677      	adds	r6, #119	; 0x77
    4246:	00e4      	lsls	r4, r4, #3
    4248:	e79c      	b.n	4184 <_free_r+0xc4>
    424a:	4c0d      	ldr	r4, [pc, #52]	; (4280 <_free_r+0x1c0>)
    424c:	42a3      	cmp	r3, r4
    424e:	d805      	bhi.n	425c <_free_r+0x19c>
    4250:	0c94      	lsrs	r4, r2, #18
    4252:	0026      	movs	r6, r4
    4254:	347d      	adds	r4, #125	; 0x7d
    4256:	367c      	adds	r6, #124	; 0x7c
    4258:	00e4      	lsls	r4, r4, #3
    425a:	e793      	b.n	4184 <_free_r+0xc4>
    425c:	24fe      	movs	r4, #254	; 0xfe
    425e:	267e      	movs	r6, #126	; 0x7e
    4260:	00a4      	lsls	r4, r4, #2
    4262:	e78f      	b.n	4184 <_free_r+0xc4>
    4264:	0033      	movs	r3, r6
    4266:	4313      	orrs	r3, r2
    4268:	604b      	str	r3, [r1, #4]
    426a:	603a      	str	r2, [r7, #0]
    426c:	e77c      	b.n	4168 <_free_r+0xa8>
    426e:	46c0      	nop			; (mov r8, r8)
    4270:	00010b20 	.word	0x00010b20
    4274:	00010b28 	.word	0x00010b28
    4278:	00010f2c 	.word	0x00010f2c
    427c:	40000030 	.word	0x40000030
    4280:	00000554 	.word	0x00000554

00004284 <_fwalk>:
    4284:	b5f0      	push	{r4, r5, r6, r7, lr}
    4286:	46c6      	mov	lr, r8
    4288:	23b8      	movs	r3, #184	; 0xb8
    428a:	4688      	mov	r8, r1
    428c:	2600      	movs	r6, #0
    428e:	b500      	push	{lr}
    4290:	009b      	lsls	r3, r3, #2
    4292:	18c7      	adds	r7, r0, r3
    4294:	687b      	ldr	r3, [r7, #4]
    4296:	68bc      	ldr	r4, [r7, #8]
    4298:	1e5d      	subs	r5, r3, #1
    429a:	d40c      	bmi.n	42b6 <_fwalk+0x32>
    429c:	89a3      	ldrh	r3, [r4, #12]
    429e:	2b01      	cmp	r3, #1
    42a0:	d906      	bls.n	42b0 <_fwalk+0x2c>
    42a2:	220e      	movs	r2, #14
    42a4:	5ea3      	ldrsh	r3, [r4, r2]
    42a6:	3301      	adds	r3, #1
    42a8:	d002      	beq.n	42b0 <_fwalk+0x2c>
    42aa:	0020      	movs	r0, r4
    42ac:	47c0      	blx	r8
    42ae:	4306      	orrs	r6, r0
    42b0:	3468      	adds	r4, #104	; 0x68
    42b2:	3d01      	subs	r5, #1
    42b4:	d2f2      	bcs.n	429c <_fwalk+0x18>
    42b6:	683f      	ldr	r7, [r7, #0]
    42b8:	2f00      	cmp	r7, #0
    42ba:	d1eb      	bne.n	4294 <_fwalk+0x10>
    42bc:	0030      	movs	r0, r6
    42be:	bc80      	pop	{r7}
    42c0:	46b8      	mov	r8, r7
    42c2:	bdf0      	pop	{r4, r5, r6, r7, pc}

000042c4 <_fwalk_reent>:
    42c4:	b5f8      	push	{r3, r4, r5, r6, r7, lr}
    42c6:	4647      	mov	r7, r8
    42c8:	46ce      	mov	lr, r9
    42ca:	b580      	push	{r7, lr}
    42cc:	27b8      	movs	r7, #184	; 0xb8
    42ce:	4680      	mov	r8, r0
    42d0:	4689      	mov	r9, r1
    42d2:	2600      	movs	r6, #0
    42d4:	00bf      	lsls	r7, r7, #2
    42d6:	4447      	add	r7, r8
    42d8:	687b      	ldr	r3, [r7, #4]
    42da:	68bc      	ldr	r4, [r7, #8]
    42dc:	1e5d      	subs	r5, r3, #1
    42de:	d40d      	bmi.n	42fc <_fwalk_reent+0x38>
    42e0:	89a3      	ldrh	r3, [r4, #12]
    42e2:	2b01      	cmp	r3, #1
    42e4:	d907      	bls.n	42f6 <_fwalk_reent+0x32>
    42e6:	220e      	movs	r2, #14
    42e8:	5ea3      	ldrsh	r3, [r4, r2]
    42ea:	3301      	adds	r3, #1
    42ec:	d003      	beq.n	42f6 <_fwalk_reent+0x32>
    42ee:	0021      	movs	r1, r4
    42f0:	4640      	mov	r0, r8
    42f2:	47c8      	blx	r9
    42f4:	4306      	orrs	r6, r0
    42f6:	3468      	adds	r4, #104	; 0x68
    42f8:	3d01      	subs	r5, #1
    42fa:	d2f1      	bcs.n	42e0 <_fwalk_reent+0x1c>
    42fc:	683f      	ldr	r7, [r7, #0]
    42fe:	2f00      	cmp	r7, #0
    4300:	d1ea      	bne.n	42d8 <_fwalk_reent+0x14>
    4302:	0030      	movs	r0, r6
    4304:	bcc0      	pop	{r6, r7}
    4306:	46b9      	mov	r9, r7
    4308:	46b0      	mov	r8, r6
    430a:	bdf8      	pop	{r3, r4, r5, r6, r7, pc}

0000430c <__localeconv_l>:
    430c:	30f0      	adds	r0, #240	; 0xf0
    430e:	4770      	bx	lr

00004310 <_localeconv_r>:
    4310:	4800      	ldr	r0, [pc, #0]	; (4314 <_localeconv_r+0x4>)
    4312:	4770      	bx	lr
    4314:	00011020 	.word	0x00011020

00004318 <localeconv>:
    4318:	4800      	ldr	r0, [pc, #0]	; (431c <localeconv+0x4>)
    431a:	4770      	bx	lr
    431c:	00011020 	.word	0x00011020

00004320 <__retarget_lock_init>:
    4320:	4770      	bx	lr
    4322:	46c0      	nop			; (mov r8, r8)

00004324 <__retarget_lock_init_recursive>:
    4324:	4770      	bx	lr
    4326:	46c0      	nop			; (mov r8, r8)

00004328 <__retarget_lock_close>:
    4328:	4770      	bx	lr
    432a:	46c0      	nop			; (mov r8, r8)

0000432c <__retarget_lock_close_recursive>:
    432c:	4770      	bx	lr
    432e:	46c0      	nop			; (mov r8, r8)

00004330 <__retarget_lock_acquire>:
    4330:	4770      	bx	lr
    4332:	46c0      	nop			; (mov r8, r8)

00004334 <__retarget_lock_acquire_recursive>:
    4334:	4770      	bx	lr
    4336:	46c0      	nop			; (mov r8, r8)

00004338 <__retarget_lock_try_acquire>:
    4338:	2001      	movs	r0, #1
    433a:	4770      	bx	lr

0000433c <__retarget_lock_try_acquire_recursive>:
    433c:	2001      	movs	r0, #1
    433e:	4770      	bx	lr

00004340 <__retarget_lock_release>:
    4340:	4770      	bx	lr
    4342:	46c0      	nop			; (mov r8, r8)

00004344 <__retarget_lock_release_recursive>:
    4344:	4770      	bx	lr
    4346:	46c0      	nop			; (mov r8, r8)

00004348 <__smakebuf_r>:
    4348:	b5f0      	push	{r4, r5, r6, r7, lr}
    434a:	46c6      	mov	lr, r8
    434c:	b500      	push	{lr}
    434e:	898b      	ldrh	r3, [r1, #12]
    4350:	0005      	movs	r5, r0
    4352:	000c      	movs	r4, r1
    4354:	b096      	sub	sp, #88	; 0x58
    4356:	079a      	lsls	r2, r3, #30
    4358:	d509      	bpl.n	436e <__smakebuf_r+0x26>
    435a:	0023      	movs	r3, r4
    435c:	3343      	adds	r3, #67	; 0x43
    435e:	6023      	str	r3, [r4, #0]
    4360:	6123      	str	r3, [r4, #16]
    4362:	2301      	movs	r3, #1
    4364:	6163      	str	r3, [r4, #20]
    4366:	b016      	add	sp, #88	; 0x58
    4368:	bc80      	pop	{r7}
    436a:	46b8      	mov	r8, r7
    436c:	bdf0      	pop	{r4, r5, r6, r7, pc}
    436e:	220e      	movs	r2, #14
    4370:	5e89      	ldrsh	r1, [r1, r2]
    4372:	2900      	cmp	r1, #0
    4374:	db29      	blt.n	43ca <__smakebuf_r+0x82>
    4376:	466a      	mov	r2, sp
    4378:	f002 f8b2 	bl	64e0 <_fstat_r>
    437c:	2800      	cmp	r0, #0
    437e:	db23      	blt.n	43c8 <__smakebuf_r+0x80>
    4380:	23f0      	movs	r3, #240	; 0xf0
    4382:	9f01      	ldr	r7, [sp, #4]
    4384:	021b      	lsls	r3, r3, #8
    4386:	401f      	ands	r7, r3
    4388:	4b26      	ldr	r3, [pc, #152]	; (4424 <__smakebuf_r+0xdc>)
    438a:	2680      	movs	r6, #128	; 0x80
    438c:	469c      	mov	ip, r3
    438e:	4467      	add	r7, ip
    4390:	427b      	negs	r3, r7
    4392:	415f      	adcs	r7, r3
    4394:	2380      	movs	r3, #128	; 0x80
    4396:	00db      	lsls	r3, r3, #3
    4398:	4698      	mov	r8, r3
    439a:	0136      	lsls	r6, r6, #4
    439c:	4641      	mov	r1, r8
    439e:	0028      	movs	r0, r5
    43a0:	f7fc f8bc 	bl	51c <_malloc_r>
    43a4:	2800      	cmp	r0, #0
    43a6:	d01c      	beq.n	43e2 <__smakebuf_r+0x9a>
    43a8:	2280      	movs	r2, #128	; 0x80
    43aa:	4b1f      	ldr	r3, [pc, #124]	; (4428 <__smakebuf_r+0xe0>)
    43ac:	63eb      	str	r3, [r5, #60]	; 0x3c
    43ae:	89a3      	ldrh	r3, [r4, #12]
    43b0:	6020      	str	r0, [r4, #0]
    43b2:	4313      	orrs	r3, r2
    43b4:	4642      	mov	r2, r8
    43b6:	b21b      	sxth	r3, r3
    43b8:	81a3      	strh	r3, [r4, #12]
    43ba:	6120      	str	r0, [r4, #16]
    43bc:	6162      	str	r2, [r4, #20]
    43be:	2f00      	cmp	r7, #0
    43c0:	d11e      	bne.n	4400 <__smakebuf_r+0xb8>
    43c2:	4333      	orrs	r3, r6
    43c4:	81a3      	strh	r3, [r4, #12]
    43c6:	e7ce      	b.n	4366 <__smakebuf_r+0x1e>
    43c8:	89a3      	ldrh	r3, [r4, #12]
    43ca:	2700      	movs	r7, #0
    43cc:	061b      	lsls	r3, r3, #24
    43ce:	d512      	bpl.n	43f6 <__smakebuf_r+0xae>
    43d0:	2340      	movs	r3, #64	; 0x40
    43d2:	4698      	mov	r8, r3
    43d4:	0028      	movs	r0, r5
    43d6:	4641      	mov	r1, r8
    43d8:	2600      	movs	r6, #0
    43da:	f7fc f89f 	bl	51c <_malloc_r>
    43de:	2800      	cmp	r0, #0
    43e0:	d1e2      	bne.n	43a8 <__smakebuf_r+0x60>
    43e2:	220c      	movs	r2, #12
    43e4:	5ea3      	ldrsh	r3, [r4, r2]
    43e6:	059a      	lsls	r2, r3, #22
    43e8:	d4bd      	bmi.n	4366 <__smakebuf_r+0x1e>
    43ea:	2203      	movs	r2, #3
    43ec:	4393      	bics	r3, r2
    43ee:	2202      	movs	r2, #2
    43f0:	4313      	orrs	r3, r2
    43f2:	81a3      	strh	r3, [r4, #12]
    43f4:	e7b1      	b.n	435a <__smakebuf_r+0x12>
    43f6:	2380      	movs	r3, #128	; 0x80
    43f8:	00db      	lsls	r3, r3, #3
    43fa:	4698      	mov	r8, r3
    43fc:	2600      	movs	r6, #0
    43fe:	e7cd      	b.n	439c <__smakebuf_r+0x54>
    4400:	0028      	movs	r0, r5
    4402:	230e      	movs	r3, #14
    4404:	5ee1      	ldrsh	r1, [r4, r3]
    4406:	f002 f9f9 	bl	67fc <_isatty_r>
    440a:	2800      	cmp	r0, #0
    440c:	d102      	bne.n	4414 <__smakebuf_r+0xcc>
    440e:	220c      	movs	r2, #12
    4410:	5ea3      	ldrsh	r3, [r4, r2]
    4412:	e7d6      	b.n	43c2 <__smakebuf_r+0x7a>
    4414:	2203      	movs	r2, #3
    4416:	89a3      	ldrh	r3, [r4, #12]
    4418:	4393      	bics	r3, r2
    441a:	2201      	movs	r2, #1
    441c:	4313      	orrs	r3, r2
    441e:	b21b      	sxth	r3, r3
    4420:	e7cf      	b.n	43c2 <__smakebuf_r+0x7a>
    4422:	46c0      	nop			; (mov r8, r8)
    4424:	ffffe000 	.word	0xffffe000
    4428:	00003d1d 	.word	0x00003d1d

0000442c <__swhatbuf_r>:
    442c:	b570      	push	{r4, r5, r6, lr}
    442e:	000c      	movs	r4, r1
    4430:	001e      	movs	r6, r3
    4432:	230e      	movs	r3, #14
    4434:	5ec9      	ldrsh	r1, [r1, r3]
    4436:	0015      	movs	r5, r2
    4438:	b096      	sub	sp, #88	; 0x58
    443a:	2900      	cmp	r1, #0
    443c:	db15      	blt.n	446a <__swhatbuf_r+0x3e>
    443e:	466a      	mov	r2, sp
    4440:	f002 f84e 	bl	64e0 <_fstat_r>
    4444:	2800      	cmp	r0, #0
    4446:	db10      	blt.n	446a <__swhatbuf_r+0x3e>
    4448:	22f0      	movs	r2, #240	; 0xf0
    444a:	9b01      	ldr	r3, [sp, #4]
    444c:	0212      	lsls	r2, r2, #8
    444e:	4013      	ands	r3, r2
    4450:	4a0d      	ldr	r2, [pc, #52]	; (4488 <__swhatbuf_r+0x5c>)
    4452:	2080      	movs	r0, #128	; 0x80
    4454:	4694      	mov	ip, r2
    4456:	4463      	add	r3, ip
    4458:	425a      	negs	r2, r3
    445a:	4153      	adcs	r3, r2
    445c:	6033      	str	r3, [r6, #0]
    445e:	2380      	movs	r3, #128	; 0x80
    4460:	00db      	lsls	r3, r3, #3
    4462:	602b      	str	r3, [r5, #0]
    4464:	0100      	lsls	r0, r0, #4
    4466:	b016      	add	sp, #88	; 0x58
    4468:	bd70      	pop	{r4, r5, r6, pc}
    446a:	220c      	movs	r2, #12
    446c:	5ea3      	ldrsh	r3, [r4, r2]
    446e:	2200      	movs	r2, #0
    4470:	6032      	str	r2, [r6, #0]
    4472:	061b      	lsls	r3, r3, #24
    4474:	d503      	bpl.n	447e <__swhatbuf_r+0x52>
    4476:	2340      	movs	r3, #64	; 0x40
    4478:	2000      	movs	r0, #0
    447a:	602b      	str	r3, [r5, #0]
    447c:	e7f3      	b.n	4466 <__swhatbuf_r+0x3a>
    447e:	2380      	movs	r3, #128	; 0x80
    4480:	00db      	lsls	r3, r3, #3
    4482:	2000      	movs	r0, #0
    4484:	602b      	str	r3, [r5, #0]
    4486:	e7ee      	b.n	4466 <__swhatbuf_r+0x3a>
    4488:	ffffe000 	.word	0xffffe000

0000448c <memchr>:
    448c:	b570      	push	{r4, r5, r6, lr}
    448e:	b2cc      	uxtb	r4, r1
    4490:	0783      	lsls	r3, r0, #30
    4492:	d00d      	beq.n	44b0 <memchr+0x24>
    4494:	1e53      	subs	r3, r2, #1
    4496:	2a00      	cmp	r2, #0
    4498:	d00f      	beq.n	44ba <memchr+0x2e>
    449a:	2503      	movs	r5, #3
    449c:	e004      	b.n	44a8 <memchr+0x1c>
    449e:	3001      	adds	r0, #1
    44a0:	4228      	tst	r0, r5
    44a2:	d006      	beq.n	44b2 <memchr+0x26>
    44a4:	3b01      	subs	r3, #1
    44a6:	d308      	bcc.n	44ba <memchr+0x2e>
    44a8:	7802      	ldrb	r2, [r0, #0]
    44aa:	42a2      	cmp	r2, r4
    44ac:	d1f7      	bne.n	449e <memchr+0x12>
    44ae:	bd70      	pop	{r4, r5, r6, pc}
    44b0:	0013      	movs	r3, r2
    44b2:	2b03      	cmp	r3, #3
    44b4:	d80c      	bhi.n	44d0 <memchr+0x44>
    44b6:	2b00      	cmp	r3, #0
    44b8:	d101      	bne.n	44be <memchr+0x32>
    44ba:	2000      	movs	r0, #0
    44bc:	e7f7      	b.n	44ae <memchr+0x22>
    44be:	18c3      	adds	r3, r0, r3
    44c0:	e002      	b.n	44c8 <memchr+0x3c>
    44c2:	3001      	adds	r0, #1
    44c4:	4283      	cmp	r3, r0
    44c6:	d0f8      	beq.n	44ba <memchr+0x2e>
    44c8:	7802      	ldrb	r2, [r0, #0]
    44ca:	42a2      	cmp	r2, r4
    44cc:	d1f9      	bne.n	44c2 <memchr+0x36>
    44ce:	e7ee      	b.n	44ae <memchr+0x22>
    44d0:	25ff      	movs	r5, #255	; 0xff
    44d2:	4029      	ands	r1, r5
    44d4:	020d      	lsls	r5, r1, #8
    44d6:	4329      	orrs	r1, r5
    44d8:	040d      	lsls	r5, r1, #16
    44da:	4e07      	ldr	r6, [pc, #28]	; (44f8 <memchr+0x6c>)
    44dc:	430d      	orrs	r5, r1
    44de:	6802      	ldr	r2, [r0, #0]
    44e0:	4906      	ldr	r1, [pc, #24]	; (44fc <memchr+0x70>)
    44e2:	406a      	eors	r2, r5
    44e4:	1851      	adds	r1, r2, r1
    44e6:	4391      	bics	r1, r2
    44e8:	4231      	tst	r1, r6
    44ea:	d1e8      	bne.n	44be <memchr+0x32>
    44ec:	3b04      	subs	r3, #4
    44ee:	3004      	adds	r0, #4
    44f0:	2b03      	cmp	r3, #3
    44f2:	d8f4      	bhi.n	44de <memchr+0x52>
    44f4:	e7df      	b.n	44b6 <memchr+0x2a>
    44f6:	46c0      	nop			; (mov r8, r8)
    44f8:	80808080 	.word	0x80808080
    44fc:	fefefeff 	.word	0xfefefeff

00004500 <_Balloc>:
    4500:	6cc3      	ldr	r3, [r0, #76]	; 0x4c
    4502:	b570      	push	{r4, r5, r6, lr}
    4504:	0004      	movs	r4, r0
    4506:	000d      	movs	r5, r1
    4508:	2b00      	cmp	r3, #0
    450a:	d00a      	beq.n	4522 <_Balloc+0x22>
    450c:	00a8      	lsls	r0, r5, #2
    450e:	181b      	adds	r3, r3, r0
    4510:	6818      	ldr	r0, [r3, #0]
    4512:	2800      	cmp	r0, #0
    4514:	d00e      	beq.n	4534 <_Balloc+0x34>
    4516:	6802      	ldr	r2, [r0, #0]
    4518:	601a      	str	r2, [r3, #0]
    451a:	2300      	movs	r3, #0
    451c:	6103      	str	r3, [r0, #16]
    451e:	60c3      	str	r3, [r0, #12]
    4520:	bd70      	pop	{r4, r5, r6, pc}
    4522:	2221      	movs	r2, #33	; 0x21
    4524:	2104      	movs	r1, #4
    4526:	f7fb ff79 	bl	41c <_calloc_r>
    452a:	1e03      	subs	r3, r0, #0
    452c:	64e0      	str	r0, [r4, #76]	; 0x4c
    452e:	d1ed      	bne.n	450c <_Balloc+0xc>
    4530:	2000      	movs	r0, #0
    4532:	e7f5      	b.n	4520 <_Balloc+0x20>
    4534:	2601      	movs	r6, #1
    4536:	40ae      	lsls	r6, r5
    4538:	1d72      	adds	r2, r6, #5
    453a:	2101      	movs	r1, #1
    453c:	0020      	movs	r0, r4
    453e:	0092      	lsls	r2, r2, #2
    4540:	f7fb ff6c 	bl	41c <_calloc_r>
    4544:	2800      	cmp	r0, #0
    4546:	d0f3      	beq.n	4530 <_Balloc+0x30>
    4548:	6045      	str	r5, [r0, #4]
    454a:	6086      	str	r6, [r0, #8]
    454c:	e7e5      	b.n	451a <_Balloc+0x1a>
    454e:	46c0      	nop			; (mov r8, r8)

00004550 <_Bfree>:
    4550:	2900      	cmp	r1, #0
    4552:	d006      	beq.n	4562 <_Bfree+0x12>
    4554:	684b      	ldr	r3, [r1, #4]
    4556:	009a      	lsls	r2, r3, #2
    4558:	6cc3      	ldr	r3, [r0, #76]	; 0x4c
    455a:	189b      	adds	r3, r3, r2
    455c:	681a      	ldr	r2, [r3, #0]
    455e:	600a      	str	r2, [r1, #0]
    4560:	6019      	str	r1, [r3, #0]
    4562:	4770      	bx	lr

00004564 <__multadd>:
    4564:	b5f0      	push	{r4, r5, r6, r7, lr}
    4566:	46c6      	mov	lr, r8
    4568:	001f      	movs	r7, r3
    456a:	4680      	mov	r8, r0
    456c:	2300      	movs	r3, #0
    456e:	b500      	push	{lr}
    4570:	000e      	movs	r6, r1
    4572:	690d      	ldr	r5, [r1, #16]
    4574:	3114      	adds	r1, #20
    4576:	680c      	ldr	r4, [r1, #0]
    4578:	3301      	adds	r3, #1
    457a:	0420      	lsls	r0, r4, #16
    457c:	0c00      	lsrs	r0, r0, #16
    457e:	4350      	muls	r0, r2
    4580:	0c24      	lsrs	r4, r4, #16
    4582:	4354      	muls	r4, r2
    4584:	19c0      	adds	r0, r0, r7
    4586:	0c07      	lsrs	r7, r0, #16
    4588:	19e4      	adds	r4, r4, r7
    458a:	0400      	lsls	r0, r0, #16
    458c:	0c27      	lsrs	r7, r4, #16
    458e:	0c00      	lsrs	r0, r0, #16
    4590:	0424      	lsls	r4, r4, #16
    4592:	1824      	adds	r4, r4, r0
    4594:	c110      	stmia	r1!, {r4}
    4596:	429d      	cmp	r5, r3
    4598:	dced      	bgt.n	4576 <__multadd+0x12>
    459a:	2f00      	cmp	r7, #0
    459c:	d008      	beq.n	45b0 <__multadd+0x4c>
    459e:	68b3      	ldr	r3, [r6, #8]
    45a0:	42ab      	cmp	r3, r5
    45a2:	dd09      	ble.n	45b8 <__multadd+0x54>
    45a4:	1d2b      	adds	r3, r5, #4
    45a6:	009b      	lsls	r3, r3, #2
    45a8:	18f3      	adds	r3, r6, r3
    45aa:	3501      	adds	r5, #1
    45ac:	605f      	str	r7, [r3, #4]
    45ae:	6135      	str	r5, [r6, #16]
    45b0:	0030      	movs	r0, r6
    45b2:	bc80      	pop	{r7}
    45b4:	46b8      	mov	r8, r7
    45b6:	bdf0      	pop	{r4, r5, r6, r7, pc}
    45b8:	6873      	ldr	r3, [r6, #4]
    45ba:	4640      	mov	r0, r8
    45bc:	1c59      	adds	r1, r3, #1
    45be:	f7ff ff9f 	bl	4500 <_Balloc>
    45c2:	1e04      	subs	r4, r0, #0
    45c4:	d017      	beq.n	45f6 <__multadd+0x92>
    45c6:	0031      	movs	r1, r6
    45c8:	6933      	ldr	r3, [r6, #16]
    45ca:	310c      	adds	r1, #12
    45cc:	1c9a      	adds	r2, r3, #2
    45ce:	0092      	lsls	r2, r2, #2
    45d0:	300c      	adds	r0, #12
    45d2:	f7fc fa65 	bl	aa0 <memcpy>
    45d6:	6873      	ldr	r3, [r6, #4]
    45d8:	009a      	lsls	r2, r3, #2
    45da:	4643      	mov	r3, r8
    45dc:	6cdb      	ldr	r3, [r3, #76]	; 0x4c
    45de:	189b      	adds	r3, r3, r2
    45e0:	681a      	ldr	r2, [r3, #0]
    45e2:	6032      	str	r2, [r6, #0]
    45e4:	601e      	str	r6, [r3, #0]
    45e6:	0026      	movs	r6, r4
    45e8:	1d2b      	adds	r3, r5, #4
    45ea:	009b      	lsls	r3, r3, #2
    45ec:	18f3      	adds	r3, r6, r3
    45ee:	3501      	adds	r5, #1
    45f0:	605f      	str	r7, [r3, #4]
    45f2:	6135      	str	r5, [r6, #16]
    45f4:	e7dc      	b.n	45b0 <__multadd+0x4c>
    45f6:	2200      	movs	r2, #0
    45f8:	21b5      	movs	r1, #181	; 0xb5
    45fa:	4b02      	ldr	r3, [pc, #8]	; (4604 <__multadd+0xa0>)
    45fc:	4802      	ldr	r0, [pc, #8]	; (4608 <__multadd+0xa4>)
    45fe:	f001 fded 	bl	61dc <__assert_func>
    4602:	46c0      	nop			; (mov r8, r8)
    4604:	0000a234 	.word	0x0000a234
    4608:	0000a248 	.word	0x0000a248

0000460c <__s2b>:
    460c:	b5f8      	push	{r3, r4, r5, r6, r7, lr}
    460e:	4647      	mov	r7, r8
    4610:	46ce      	mov	lr, r9
    4612:	0006      	movs	r6, r0
    4614:	0018      	movs	r0, r3
    4616:	b580      	push	{r7, lr}
    4618:	000c      	movs	r4, r1
    461a:	3008      	adds	r0, #8
    461c:	2109      	movs	r1, #9
    461e:	001f      	movs	r7, r3
    4620:	4690      	mov	r8, r2
    4622:	f002 fe99 	bl	7358 <__divsi3>
    4626:	2f09      	cmp	r7, #9
    4628:	dd3b      	ble.n	46a2 <__s2b+0x96>
    462a:	2501      	movs	r5, #1
    462c:	2100      	movs	r1, #0
    462e:	006d      	lsls	r5, r5, #1
    4630:	3101      	adds	r1, #1
    4632:	42a8      	cmp	r0, r5
    4634:	dcfb      	bgt.n	462e <__s2b+0x22>
    4636:	0030      	movs	r0, r6
    4638:	f7ff ff62 	bl	4500 <_Balloc>
    463c:	1e01      	subs	r1, r0, #0
    463e:	d032      	beq.n	46a6 <__s2b+0x9a>
    4640:	9b08      	ldr	r3, [sp, #32]
    4642:	6143      	str	r3, [r0, #20]
    4644:	2301      	movs	r3, #1
    4646:	6103      	str	r3, [r0, #16]
    4648:	4643      	mov	r3, r8
    464a:	2b09      	cmp	r3, #9
    464c:	dc16      	bgt.n	467c <__s2b+0x70>
    464e:	2309      	movs	r3, #9
    4650:	4698      	mov	r8, r3
    4652:	340a      	adds	r4, #10
    4654:	4547      	cmp	r7, r8
    4656:	dd0c      	ble.n	4672 <__s2b+0x66>
    4658:	4643      	mov	r3, r8
    465a:	19e7      	adds	r7, r4, r7
    465c:	1aff      	subs	r7, r7, r3
    465e:	7823      	ldrb	r3, [r4, #0]
    4660:	220a      	movs	r2, #10
    4662:	0030      	movs	r0, r6
    4664:	3b30      	subs	r3, #48	; 0x30
    4666:	f7ff ff7d 	bl	4564 <__multadd>
    466a:	3401      	adds	r4, #1
    466c:	0001      	movs	r1, r0
    466e:	42bc      	cmp	r4, r7
    4670:	d1f5      	bne.n	465e <__s2b+0x52>
    4672:	0008      	movs	r0, r1
    4674:	bcc0      	pop	{r6, r7}
    4676:	46b9      	mov	r9, r7
    4678:	46b0      	mov	r8, r6
    467a:	bdf8      	pop	{r3, r4, r5, r6, r7, pc}
    467c:	2309      	movs	r3, #9
    467e:	4699      	mov	r9, r3
    4680:	44a1      	add	r9, r4
    4682:	464d      	mov	r5, r9
    4684:	4444      	add	r4, r8
    4686:	782b      	ldrb	r3, [r5, #0]
    4688:	220a      	movs	r2, #10
    468a:	0030      	movs	r0, r6
    468c:	3b30      	subs	r3, #48	; 0x30
    468e:	f7ff ff69 	bl	4564 <__multadd>
    4692:	3501      	adds	r5, #1
    4694:	0001      	movs	r1, r0
    4696:	42a5      	cmp	r5, r4
    4698:	d1f5      	bne.n	4686 <__s2b+0x7a>
    469a:	4644      	mov	r4, r8
    469c:	3c08      	subs	r4, #8
    469e:	444c      	add	r4, r9
    46a0:	e7d8      	b.n	4654 <__s2b+0x48>
    46a2:	2100      	movs	r1, #0
    46a4:	e7c7      	b.n	4636 <__s2b+0x2a>
    46a6:	2200      	movs	r2, #0
    46a8:	4b02      	ldr	r3, [pc, #8]	; (46b4 <__s2b+0xa8>)
    46aa:	4803      	ldr	r0, [pc, #12]	; (46b8 <__s2b+0xac>)
    46ac:	31ce      	adds	r1, #206	; 0xce
    46ae:	f001 fd95 	bl	61dc <__assert_func>
    46b2:	46c0      	nop			; (mov r8, r8)
    46b4:	0000a234 	.word	0x0000a234
    46b8:	0000a248 	.word	0x0000a248

000046bc <__hi0bits>:
    46bc:	0003      	movs	r3, r0
    46be:	0c02      	lsrs	r2, r0, #16
    46c0:	2000      	movs	r0, #0
    46c2:	2a00      	cmp	r2, #0
    46c4:	d101      	bne.n	46ca <__hi0bits+0xe>
    46c6:	041b      	lsls	r3, r3, #16
    46c8:	3010      	adds	r0, #16
    46ca:	0e1a      	lsrs	r2, r3, #24
    46cc:	d101      	bne.n	46d2 <__hi0bits+0x16>
    46ce:	3008      	adds	r0, #8
    46d0:	021b      	lsls	r3, r3, #8
    46d2:	0f1a      	lsrs	r2, r3, #28
    46d4:	d101      	bne.n	46da <__hi0bits+0x1e>
    46d6:	3004      	adds	r0, #4
    46d8:	011b      	lsls	r3, r3, #4
    46da:	0f9a      	lsrs	r2, r3, #30
    46dc:	d101      	bne.n	46e2 <__hi0bits+0x26>
    46de:	3002      	adds	r0, #2
    46e0:	009b      	lsls	r3, r3, #2
    46e2:	2b00      	cmp	r3, #0
    46e4:	db02      	blt.n	46ec <__hi0bits+0x30>
    46e6:	3001      	adds	r0, #1
    46e8:	005b      	lsls	r3, r3, #1
    46ea:	d500      	bpl.n	46ee <__hi0bits+0x32>
    46ec:	4770      	bx	lr
    46ee:	2020      	movs	r0, #32
    46f0:	e7fc      	b.n	46ec <__hi0bits+0x30>
    46f2:	46c0      	nop			; (mov r8, r8)

000046f4 <__lo0bits>:
    46f4:	6803      	ldr	r3, [r0, #0]
    46f6:	0002      	movs	r2, r0
    46f8:	0759      	lsls	r1, r3, #29
    46fa:	d007      	beq.n	470c <__lo0bits+0x18>
    46fc:	07d9      	lsls	r1, r3, #31
    46fe:	d41e      	bmi.n	473e <__lo0bits+0x4a>
    4700:	0799      	lsls	r1, r3, #30
    4702:	d520      	bpl.n	4746 <__lo0bits+0x52>
    4704:	085b      	lsrs	r3, r3, #1
    4706:	6003      	str	r3, [r0, #0]
    4708:	2001      	movs	r0, #1
    470a:	4770      	bx	lr
    470c:	2000      	movs	r0, #0
    470e:	0419      	lsls	r1, r3, #16
    4710:	d101      	bne.n	4716 <__lo0bits+0x22>
    4712:	0c1b      	lsrs	r3, r3, #16
    4714:	3010      	adds	r0, #16
    4716:	21ff      	movs	r1, #255	; 0xff
    4718:	4219      	tst	r1, r3
    471a:	d101      	bne.n	4720 <__lo0bits+0x2c>
    471c:	3008      	adds	r0, #8
    471e:	0a1b      	lsrs	r3, r3, #8
    4720:	0719      	lsls	r1, r3, #28
    4722:	d101      	bne.n	4728 <__lo0bits+0x34>
    4724:	3004      	adds	r0, #4
    4726:	091b      	lsrs	r3, r3, #4
    4728:	0799      	lsls	r1, r3, #30
    472a:	d101      	bne.n	4730 <__lo0bits+0x3c>
    472c:	3002      	adds	r0, #2
    472e:	089b      	lsrs	r3, r3, #2
    4730:	07d9      	lsls	r1, r3, #31
    4732:	d402      	bmi.n	473a <__lo0bits+0x46>
    4734:	3001      	adds	r0, #1
    4736:	085b      	lsrs	r3, r3, #1
    4738:	d003      	beq.n	4742 <__lo0bits+0x4e>
    473a:	6013      	str	r3, [r2, #0]
    473c:	e7e5      	b.n	470a <__lo0bits+0x16>
    473e:	2000      	movs	r0, #0
    4740:	e7e3      	b.n	470a <__lo0bits+0x16>
    4742:	2020      	movs	r0, #32
    4744:	e7e1      	b.n	470a <__lo0bits+0x16>
    4746:	089b      	lsrs	r3, r3, #2
    4748:	6003      	str	r3, [r0, #0]
    474a:	2002      	movs	r0, #2
    474c:	e7dd      	b.n	470a <__lo0bits+0x16>
    474e:	46c0      	nop			; (mov r8, r8)

00004750 <__i2b>:
    4750:	6cc3      	ldr	r3, [r0, #76]	; 0x4c
    4752:	b570      	push	{r4, r5, r6, lr}
    4754:	0004      	movs	r4, r0
    4756:	000d      	movs	r5, r1
    4758:	2b00      	cmp	r3, #0
    475a:	d00a      	beq.n	4772 <__i2b+0x22>
    475c:	6858      	ldr	r0, [r3, #4]
    475e:	2800      	cmp	r0, #0
    4760:	d015      	beq.n	478e <__i2b+0x3e>
    4762:	6802      	ldr	r2, [r0, #0]
    4764:	605a      	str	r2, [r3, #4]
    4766:	2300      	movs	r3, #0
    4768:	60c3      	str	r3, [r0, #12]
    476a:	3301      	adds	r3, #1
    476c:	6145      	str	r5, [r0, #20]
    476e:	6103      	str	r3, [r0, #16]
    4770:	bd70      	pop	{r4, r5, r6, pc}
    4772:	2221      	movs	r2, #33	; 0x21
    4774:	2104      	movs	r1, #4
    4776:	f7fb fe51 	bl	41c <_calloc_r>
    477a:	1e03      	subs	r3, r0, #0
    477c:	64e0      	str	r0, [r4, #76]	; 0x4c
    477e:	d1ed      	bne.n	475c <__i2b+0xc>
    4780:	21a0      	movs	r1, #160	; 0xa0
    4782:	2200      	movs	r2, #0
    4784:	4b08      	ldr	r3, [pc, #32]	; (47a8 <__i2b+0x58>)
    4786:	4809      	ldr	r0, [pc, #36]	; (47ac <__i2b+0x5c>)
    4788:	0049      	lsls	r1, r1, #1
    478a:	f001 fd27 	bl	61dc <__assert_func>
    478e:	221c      	movs	r2, #28
    4790:	2101      	movs	r1, #1
    4792:	0020      	movs	r0, r4
    4794:	f7fb fe42 	bl	41c <_calloc_r>
    4798:	2800      	cmp	r0, #0
    479a:	d0f1      	beq.n	4780 <__i2b+0x30>
    479c:	2301      	movs	r3, #1
    479e:	6043      	str	r3, [r0, #4]
    47a0:	3301      	adds	r3, #1
    47a2:	6083      	str	r3, [r0, #8]
    47a4:	e7df      	b.n	4766 <__i2b+0x16>
    47a6:	46c0      	nop			; (mov r8, r8)
    47a8:	0000a234 	.word	0x0000a234
    47ac:	0000a248 	.word	0x0000a248

000047b0 <__multiply>:
    47b0:	b5f0      	push	{r4, r5, r6, r7, lr}
    47b2:	464e      	mov	r6, r9
    47b4:	4645      	mov	r5, r8
    47b6:	46de      	mov	lr, fp
    47b8:	4657      	mov	r7, sl
    47ba:	b5e0      	push	{r5, r6, r7, lr}
    47bc:	690d      	ldr	r5, [r1, #16]
    47be:	6916      	ldr	r6, [r2, #16]
    47c0:	4689      	mov	r9, r1
    47c2:	0014      	movs	r4, r2
    47c4:	b087      	sub	sp, #28
    47c6:	42b5      	cmp	r5, r6
    47c8:	db04      	blt.n	47d4 <__multiply+0x24>
    47ca:	0033      	movs	r3, r6
    47cc:	000c      	movs	r4, r1
    47ce:	002e      	movs	r6, r5
    47d0:	4691      	mov	r9, r2
    47d2:	001d      	movs	r5, r3
    47d4:	68a3      	ldr	r3, [r4, #8]
    47d6:	1977      	adds	r7, r6, r5
    47d8:	6861      	ldr	r1, [r4, #4]
    47da:	42bb      	cmp	r3, r7
    47dc:	da00      	bge.n	47e0 <__multiply+0x30>
    47de:	3101      	adds	r1, #1
    47e0:	f7ff fe8e 	bl	4500 <_Balloc>
    47e4:	9005      	str	r0, [sp, #20]
    47e6:	2800      	cmp	r0, #0
    47e8:	d100      	bne.n	47ec <__multiply+0x3c>
    47ea:	e0a7      	b.n	493c <__multiply+0x18c>
    47ec:	2214      	movs	r2, #20
    47ee:	4694      	mov	ip, r2
    47f0:	9b05      	ldr	r3, [sp, #20]
    47f2:	2200      	movs	r2, #0
    47f4:	4463      	add	r3, ip
    47f6:	469b      	mov	fp, r3
    47f8:	00bb      	lsls	r3, r7, #2
    47fa:	445b      	add	r3, fp
    47fc:	469a      	mov	sl, r3
    47fe:	465b      	mov	r3, fp
    4800:	4651      	mov	r1, sl
    4802:	45d3      	cmp	fp, sl
    4804:	d203      	bcs.n	480e <__multiply+0x5e>
    4806:	c304      	stmia	r3!, {r2}
    4808:	4299      	cmp	r1, r3
    480a:	d8fc      	bhi.n	4806 <__multiply+0x56>
    480c:	468a      	mov	sl, r1
    480e:	2314      	movs	r3, #20
    4810:	469c      	mov	ip, r3
    4812:	44a4      	add	ip, r4
    4814:	4663      	mov	r3, ip
    4816:	9304      	str	r3, [sp, #16]
    4818:	2314      	movs	r3, #20
    481a:	00b6      	lsls	r6, r6, #2
    481c:	4466      	add	r6, ip
    481e:	00ad      	lsls	r5, r5, #2
    4820:	469c      	mov	ip, r3
    4822:	002b      	movs	r3, r5
    4824:	44e1      	add	r9, ip
    4826:	444b      	add	r3, r9
    4828:	9302      	str	r3, [sp, #8]
    482a:	4599      	cmp	r9, r3
    482c:	d26e      	bcs.n	490c <__multiply+0x15c>
    482e:	2304      	movs	r3, #4
    4830:	9303      	str	r3, [sp, #12]
    4832:	0023      	movs	r3, r4
    4834:	3315      	adds	r3, #21
    4836:	429e      	cmp	r6, r3
    4838:	d200      	bcs.n	483c <__multiply+0x8c>
    483a:	e07c      	b.n	4936 <__multiply+0x186>
    483c:	1b33      	subs	r3, r6, r4
    483e:	3b15      	subs	r3, #21
    4840:	089b      	lsrs	r3, r3, #2
    4842:	3301      	adds	r3, #1
    4844:	009b      	lsls	r3, r3, #2
    4846:	46b8      	mov	r8, r7
    4848:	9303      	str	r3, [sp, #12]
    484a:	9601      	str	r6, [sp, #4]
    484c:	e008      	b.n	4860 <__multiply+0xb0>
    484e:	0c00      	lsrs	r0, r0, #16
    4850:	d131      	bne.n	48b6 <__multiply+0x106>
    4852:	2304      	movs	r3, #4
    4854:	469c      	mov	ip, r3
    4856:	9b02      	ldr	r3, [sp, #8]
    4858:	44e1      	add	r9, ip
    485a:	44e3      	add	fp, ip
    485c:	454b      	cmp	r3, r9
    485e:	d954      	bls.n	490a <__multiply+0x15a>
    4860:	464b      	mov	r3, r9
    4862:	6818      	ldr	r0, [r3, #0]
    4864:	0403      	lsls	r3, r0, #16
    4866:	0c1e      	lsrs	r6, r3, #16
    4868:	2b00      	cmp	r3, #0
    486a:	d0f0      	beq.n	484e <__multiply+0x9e>
    486c:	9b01      	ldr	r3, [sp, #4]
    486e:	465d      	mov	r5, fp
    4870:	2700      	movs	r7, #0
    4872:	469c      	mov	ip, r3
    4874:	9c04      	ldr	r4, [sp, #16]
    4876:	cc04      	ldmia	r4!, {r2}
    4878:	6829      	ldr	r1, [r5, #0]
    487a:	0413      	lsls	r3, r2, #16
    487c:	0c1b      	lsrs	r3, r3, #16
    487e:	4373      	muls	r3, r6
    4880:	0408      	lsls	r0, r1, #16
    4882:	0c00      	lsrs	r0, r0, #16
    4884:	181b      	adds	r3, r3, r0
    4886:	19d8      	adds	r0, r3, r7
    4888:	0c13      	lsrs	r3, r2, #16
    488a:	4373      	muls	r3, r6
    488c:	0c09      	lsrs	r1, r1, #16
    488e:	0c02      	lsrs	r2, r0, #16
    4890:	185b      	adds	r3, r3, r1
    4892:	189b      	adds	r3, r3, r2
    4894:	0402      	lsls	r2, r0, #16
    4896:	0c1f      	lsrs	r7, r3, #16
    4898:	0c12      	lsrs	r2, r2, #16
    489a:	041b      	lsls	r3, r3, #16
    489c:	4313      	orrs	r3, r2
    489e:	c508      	stmia	r5!, {r3}
    48a0:	45a4      	cmp	ip, r4
    48a2:	d8e8      	bhi.n	4876 <__multiply+0xc6>
    48a4:	4663      	mov	r3, ip
    48a6:	9301      	str	r3, [sp, #4]
    48a8:	465b      	mov	r3, fp
    48aa:	9a03      	ldr	r2, [sp, #12]
    48ac:	509f      	str	r7, [r3, r2]
    48ae:	464b      	mov	r3, r9
    48b0:	6818      	ldr	r0, [r3, #0]
    48b2:	0c00      	lsrs	r0, r0, #16
    48b4:	d0cd      	beq.n	4852 <__multiply+0xa2>
    48b6:	465b      	mov	r3, fp
    48b8:	2700      	movs	r7, #0
    48ba:	681b      	ldr	r3, [r3, #0]
    48bc:	465c      	mov	r4, fp
    48be:	0019      	movs	r1, r3
    48c0:	003e      	movs	r6, r7
    48c2:	9d04      	ldr	r5, [sp, #16]
    48c4:	9a01      	ldr	r2, [sp, #4]
    48c6:	882f      	ldrh	r7, [r5, #0]
    48c8:	0c09      	lsrs	r1, r1, #16
    48ca:	4347      	muls	r7, r0
    48cc:	187f      	adds	r7, r7, r1
    48ce:	19bf      	adds	r7, r7, r6
    48d0:	041b      	lsls	r3, r3, #16
    48d2:	0439      	lsls	r1, r7, #16
    48d4:	0c1b      	lsrs	r3, r3, #16
    48d6:	430b      	orrs	r3, r1
    48d8:	6023      	str	r3, [r4, #0]
    48da:	cd08      	ldmia	r5!, {r3}
    48dc:	6861      	ldr	r1, [r4, #4]
    48de:	0c1b      	lsrs	r3, r3, #16
    48e0:	4343      	muls	r3, r0
    48e2:	040e      	lsls	r6, r1, #16
    48e4:	0c36      	lsrs	r6, r6, #16
    48e6:	199b      	adds	r3, r3, r6
    48e8:	0c3f      	lsrs	r7, r7, #16
    48ea:	19db      	adds	r3, r3, r7
    48ec:	0c1e      	lsrs	r6, r3, #16
    48ee:	3404      	adds	r4, #4
    48f0:	42aa      	cmp	r2, r5
    48f2:	d8e8      	bhi.n	48c6 <__multiply+0x116>
    48f4:	9201      	str	r2, [sp, #4]
    48f6:	465a      	mov	r2, fp
    48f8:	9903      	ldr	r1, [sp, #12]
    48fa:	5053      	str	r3, [r2, r1]
    48fc:	2304      	movs	r3, #4
    48fe:	469c      	mov	ip, r3
    4900:	9b02      	ldr	r3, [sp, #8]
    4902:	44e1      	add	r9, ip
    4904:	44e3      	add	fp, ip
    4906:	454b      	cmp	r3, r9
    4908:	d8aa      	bhi.n	4860 <__multiply+0xb0>
    490a:	4647      	mov	r7, r8
    490c:	4653      	mov	r3, sl
    490e:	2f00      	cmp	r7, #0
    4910:	dc03      	bgt.n	491a <__multiply+0x16a>
    4912:	e006      	b.n	4922 <__multiply+0x172>
    4914:	3f01      	subs	r7, #1
    4916:	2f00      	cmp	r7, #0
    4918:	d003      	beq.n	4922 <__multiply+0x172>
    491a:	3b04      	subs	r3, #4
    491c:	681a      	ldr	r2, [r3, #0]
    491e:	2a00      	cmp	r2, #0
    4920:	d0f8      	beq.n	4914 <__multiply+0x164>
    4922:	9b05      	ldr	r3, [sp, #20]
    4924:	0018      	movs	r0, r3
    4926:	611f      	str	r7, [r3, #16]
    4928:	b007      	add	sp, #28
    492a:	bcf0      	pop	{r4, r5, r6, r7}
    492c:	46bb      	mov	fp, r7
    492e:	46b2      	mov	sl, r6
    4930:	46a9      	mov	r9, r5
    4932:	46a0      	mov	r8, r4
    4934:	bdf0      	pop	{r4, r5, r6, r7, pc}
    4936:	46b8      	mov	r8, r7
    4938:	9601      	str	r6, [sp, #4]
    493a:	e791      	b.n	4860 <__multiply+0xb0>
    493c:	215e      	movs	r1, #94	; 0x5e
    493e:	2200      	movs	r2, #0
    4940:	4b02      	ldr	r3, [pc, #8]	; (494c <__multiply+0x19c>)
    4942:	4803      	ldr	r0, [pc, #12]	; (4950 <__multiply+0x1a0>)
    4944:	31ff      	adds	r1, #255	; 0xff
    4946:	f001 fc49 	bl	61dc <__assert_func>
    494a:	46c0      	nop			; (mov r8, r8)
    494c:	0000a234 	.word	0x0000a234
    4950:	0000a248 	.word	0x0000a248

00004954 <__pow5mult>:
    4954:	b5f8      	push	{r3, r4, r5, r6, r7, lr}
    4956:	2303      	movs	r3, #3
    4958:	4647      	mov	r7, r8
    495a:	0014      	movs	r4, r2
    495c:	46ce      	mov	lr, r9
    495e:	001a      	movs	r2, r3
    4960:	b580      	push	{r7, lr}
    4962:	000e      	movs	r6, r1
    4964:	0007      	movs	r7, r0
    4966:	4022      	ands	r2, r4
    4968:	4223      	tst	r3, r4
    496a:	d138      	bne.n	49de <__pow5mult+0x8a>
    496c:	10a4      	asrs	r4, r4, #2
    496e:	d025      	beq.n	49bc <__pow5mult+0x68>
    4970:	6cbd      	ldr	r5, [r7, #72]	; 0x48
    4972:	2d00      	cmp	r5, #0
    4974:	d03c      	beq.n	49f0 <__pow5mult+0x9c>
    4976:	2301      	movs	r3, #1
    4978:	4698      	mov	r8, r3
    497a:	2300      	movs	r3, #0
    497c:	4699      	mov	r9, r3
    497e:	4643      	mov	r3, r8
    4980:	4223      	tst	r3, r4
    4982:	d108      	bne.n	4996 <__pow5mult+0x42>
    4984:	1064      	asrs	r4, r4, #1
    4986:	d019      	beq.n	49bc <__pow5mult+0x68>
    4988:	6828      	ldr	r0, [r5, #0]
    498a:	2800      	cmp	r0, #0
    498c:	d01b      	beq.n	49c6 <__pow5mult+0x72>
    498e:	0005      	movs	r5, r0
    4990:	4643      	mov	r3, r8
    4992:	4223      	tst	r3, r4
    4994:	d0f6      	beq.n	4984 <__pow5mult+0x30>
    4996:	002a      	movs	r2, r5
    4998:	0031      	movs	r1, r6
    499a:	0038      	movs	r0, r7
    499c:	f7ff ff08 	bl	47b0 <__multiply>
    49a0:	2e00      	cmp	r6, #0
    49a2:	d01a      	beq.n	49da <__pow5mult+0x86>
    49a4:	6cfa      	ldr	r2, [r7, #76]	; 0x4c
    49a6:	6873      	ldr	r3, [r6, #4]
    49a8:	4694      	mov	ip, r2
    49aa:	009b      	lsls	r3, r3, #2
    49ac:	4463      	add	r3, ip
    49ae:	681a      	ldr	r2, [r3, #0]
    49b0:	1064      	asrs	r4, r4, #1
    49b2:	6032      	str	r2, [r6, #0]
    49b4:	601e      	str	r6, [r3, #0]
    49b6:	0006      	movs	r6, r0
    49b8:	2c00      	cmp	r4, #0
    49ba:	d1e5      	bne.n	4988 <__pow5mult+0x34>
    49bc:	0030      	movs	r0, r6
    49be:	bcc0      	pop	{r6, r7}
    49c0:	46b9      	mov	r9, r7
    49c2:	46b0      	mov	r8, r6
    49c4:	bdf8      	pop	{r3, r4, r5, r6, r7, pc}
    49c6:	002a      	movs	r2, r5
    49c8:	0029      	movs	r1, r5
    49ca:	0038      	movs	r0, r7
    49cc:	f7ff fef0 	bl	47b0 <__multiply>
    49d0:	464b      	mov	r3, r9
    49d2:	6028      	str	r0, [r5, #0]
    49d4:	0005      	movs	r5, r0
    49d6:	6003      	str	r3, [r0, #0]
    49d8:	e7da      	b.n	4990 <__pow5mult+0x3c>
    49da:	0006      	movs	r6, r0
    49dc:	e7d2      	b.n	4984 <__pow5mult+0x30>
    49de:	4b0f      	ldr	r3, [pc, #60]	; (4a1c <__pow5mult+0xc8>)
    49e0:	3a01      	subs	r2, #1
    49e2:	0092      	lsls	r2, r2, #2
    49e4:	58d2      	ldr	r2, [r2, r3]
    49e6:	2300      	movs	r3, #0
    49e8:	f7ff fdbc 	bl	4564 <__multadd>
    49ec:	0006      	movs	r6, r0
    49ee:	e7bd      	b.n	496c <__pow5mult+0x18>
    49f0:	2101      	movs	r1, #1
    49f2:	0038      	movs	r0, r7
    49f4:	f7ff fd84 	bl	4500 <_Balloc>
    49f8:	1e05      	subs	r5, r0, #0
    49fa:	d007      	beq.n	4a0c <__pow5mult+0xb8>
    49fc:	4b08      	ldr	r3, [pc, #32]	; (4a20 <__pow5mult+0xcc>)
    49fe:	6143      	str	r3, [r0, #20]
    4a00:	2301      	movs	r3, #1
    4a02:	6103      	str	r3, [r0, #16]
    4a04:	2300      	movs	r3, #0
    4a06:	64b8      	str	r0, [r7, #72]	; 0x48
    4a08:	6003      	str	r3, [r0, #0]
    4a0a:	e7b4      	b.n	4976 <__pow5mult+0x22>
    4a0c:	21a0      	movs	r1, #160	; 0xa0
    4a0e:	2200      	movs	r2, #0
    4a10:	4b04      	ldr	r3, [pc, #16]	; (4a24 <__pow5mult+0xd0>)
    4a12:	4805      	ldr	r0, [pc, #20]	; (4a28 <__pow5mult+0xd4>)
    4a14:	0049      	lsls	r1, r1, #1
    4a16:	f001 fbe1 	bl	61dc <__assert_func>
    4a1a:	46c0      	nop			; (mov r8, r8)
    4a1c:	0000a3e0 	.word	0x0000a3e0
    4a20:	00000271 	.word	0x00000271
    4a24:	0000a234 	.word	0x0000a234
    4a28:	0000a248 	.word	0x0000a248

00004a2c <__lshift>:
    4a2c:	b5f0      	push	{r4, r5, r6, r7, lr}
    4a2e:	000c      	movs	r4, r1
    4a30:	6923      	ldr	r3, [r4, #16]
    4a32:	4645      	mov	r5, r8
    4a34:	46de      	mov	lr, fp
    4a36:	4657      	mov	r7, sl
    4a38:	464e      	mov	r6, r9
    4a3a:	4698      	mov	r8, r3
    4a3c:	b5e0      	push	{r5, r6, r7, lr}
    4a3e:	1157      	asrs	r7, r2, #5
    4a40:	44b8      	add	r8, r7
    4a42:	4643      	mov	r3, r8
    4a44:	1c5d      	adds	r5, r3, #1
    4a46:	68a3      	ldr	r3, [r4, #8]
    4a48:	4683      	mov	fp, r0
    4a4a:	0016      	movs	r6, r2
    4a4c:	6849      	ldr	r1, [r1, #4]
    4a4e:	b083      	sub	sp, #12
    4a50:	429d      	cmp	r5, r3
    4a52:	dd03      	ble.n	4a5c <__lshift+0x30>
    4a54:	3101      	adds	r1, #1
    4a56:	005b      	lsls	r3, r3, #1
    4a58:	429d      	cmp	r5, r3
    4a5a:	dcfb      	bgt.n	4a54 <__lshift+0x28>
    4a5c:	4658      	mov	r0, fp
    4a5e:	f7ff fd4f 	bl	4500 <_Balloc>
    4a62:	4684      	mov	ip, r0
    4a64:	2800      	cmp	r0, #0
    4a66:	d053      	beq.n	4b10 <__lshift+0xe4>
    4a68:	3014      	adds	r0, #20
    4a6a:	0003      	movs	r3, r0
    4a6c:	9001      	str	r0, [sp, #4]
    4a6e:	2f00      	cmp	r7, #0
    4a70:	dd0c      	ble.n	4a8c <__lshift+0x60>
    4a72:	00bf      	lsls	r7, r7, #2
    4a74:	003a      	movs	r2, r7
    4a76:	2100      	movs	r1, #0
    4a78:	3214      	adds	r2, #20
    4a7a:	4462      	add	r2, ip
    4a7c:	c302      	stmia	r3!, {r1}
    4a7e:	4293      	cmp	r3, r2
    4a80:	d1fc      	bne.n	4a7c <__lshift+0x50>
    4a82:	9b01      	ldr	r3, [sp, #4]
    4a84:	4699      	mov	r9, r3
    4a86:	44b9      	add	r9, r7
    4a88:	464b      	mov	r3, r9
    4a8a:	9301      	str	r3, [sp, #4]
    4a8c:	6922      	ldr	r2, [r4, #16]
    4a8e:	0023      	movs	r3, r4
    4a90:	0091      	lsls	r1, r2, #2
    4a92:	221f      	movs	r2, #31
    4a94:	0010      	movs	r0, r2
    4a96:	3314      	adds	r3, #20
    4a98:	4030      	ands	r0, r6
    4a9a:	4681      	mov	r9, r0
    4a9c:	1859      	adds	r1, r3, r1
    4a9e:	4232      	tst	r2, r6
    4aa0:	d030      	beq.n	4b04 <__lshift+0xd8>
    4aa2:	3201      	adds	r2, #1
    4aa4:	1a12      	subs	r2, r2, r0
    4aa6:	4692      	mov	sl, r2
    4aa8:	2600      	movs	r6, #0
    4aaa:	9f01      	ldr	r7, [sp, #4]
    4aac:	4648      	mov	r0, r9
    4aae:	681a      	ldr	r2, [r3, #0]
    4ab0:	4082      	lsls	r2, r0
    4ab2:	4332      	orrs	r2, r6
    4ab4:	c704      	stmia	r7!, {r2}
    4ab6:	4652      	mov	r2, sl
    4ab8:	cb40      	ldmia	r3!, {r6}
    4aba:	40d6      	lsrs	r6, r2
    4abc:	4299      	cmp	r1, r3
    4abe:	d8f5      	bhi.n	4aac <__lshift+0x80>
    4ac0:	0022      	movs	r2, r4
    4ac2:	3215      	adds	r2, #21
    4ac4:	2304      	movs	r3, #4
    4ac6:	4291      	cmp	r1, r2
    4ac8:	d304      	bcc.n	4ad4 <__lshift+0xa8>
    4aca:	1b0b      	subs	r3, r1, r4
    4acc:	3b15      	subs	r3, #21
    4ace:	089b      	lsrs	r3, r3, #2
    4ad0:	3301      	adds	r3, #1
    4ad2:	009b      	lsls	r3, r3, #2
    4ad4:	9a01      	ldr	r2, [sp, #4]
    4ad6:	50d6      	str	r6, [r2, r3]
    4ad8:	2e00      	cmp	r6, #0
    4ada:	d000      	beq.n	4ade <__lshift+0xb2>
    4adc:	46a8      	mov	r8, r5
    4ade:	4663      	mov	r3, ip
    4ae0:	4642      	mov	r2, r8
    4ae2:	611a      	str	r2, [r3, #16]
    4ae4:	6863      	ldr	r3, [r4, #4]
    4ae6:	4660      	mov	r0, ip
    4ae8:	009a      	lsls	r2, r3, #2
    4aea:	465b      	mov	r3, fp
    4aec:	6cdb      	ldr	r3, [r3, #76]	; 0x4c
    4aee:	189b      	adds	r3, r3, r2
    4af0:	681a      	ldr	r2, [r3, #0]
    4af2:	6022      	str	r2, [r4, #0]
    4af4:	601c      	str	r4, [r3, #0]
    4af6:	b003      	add	sp, #12
    4af8:	bcf0      	pop	{r4, r5, r6, r7}
    4afa:	46bb      	mov	fp, r7
    4afc:	46b2      	mov	sl, r6
    4afe:	46a9      	mov	r9, r5
    4b00:	46a0      	mov	r8, r4
    4b02:	bdf0      	pop	{r4, r5, r6, r7, pc}
    4b04:	9801      	ldr	r0, [sp, #4]
    4b06:	cb04      	ldmia	r3!, {r2}
    4b08:	c004      	stmia	r0!, {r2}
    4b0a:	4299      	cmp	r1, r3
    4b0c:	d8fb      	bhi.n	4b06 <__lshift+0xda>
    4b0e:	e7e6      	b.n	4ade <__lshift+0xb2>
    4b10:	21da      	movs	r1, #218	; 0xda
    4b12:	2200      	movs	r2, #0
    4b14:	4b02      	ldr	r3, [pc, #8]	; (4b20 <__lshift+0xf4>)
    4b16:	4803      	ldr	r0, [pc, #12]	; (4b24 <__lshift+0xf8>)
    4b18:	31ff      	adds	r1, #255	; 0xff
    4b1a:	f001 fb5f 	bl	61dc <__assert_func>
    4b1e:	46c0      	nop			; (mov r8, r8)
    4b20:	0000a234 	.word	0x0000a234
    4b24:	0000a248 	.word	0x0000a248

00004b28 <__mcmp>:
    4b28:	6903      	ldr	r3, [r0, #16]
    4b2a:	690a      	ldr	r2, [r1, #16]
    4b2c:	b530      	push	{r4, r5, lr}
    4b2e:	0005      	movs	r5, r0
    4b30:	1a98      	subs	r0, r3, r2
    4b32:	4293      	cmp	r3, r2
    4b34:	d111      	bne.n	4b5a <__mcmp+0x32>
    4b36:	0092      	lsls	r2, r2, #2
    4b38:	3514      	adds	r5, #20
    4b3a:	3114      	adds	r1, #20
    4b3c:	18ab      	adds	r3, r5, r2
    4b3e:	1889      	adds	r1, r1, r2
    4b40:	e001      	b.n	4b46 <__mcmp+0x1e>
    4b42:	429d      	cmp	r5, r3
    4b44:	d209      	bcs.n	4b5a <__mcmp+0x32>
    4b46:	3b04      	subs	r3, #4
    4b48:	3904      	subs	r1, #4
    4b4a:	681a      	ldr	r2, [r3, #0]
    4b4c:	680c      	ldr	r4, [r1, #0]
    4b4e:	42a2      	cmp	r2, r4
    4b50:	d0f7      	beq.n	4b42 <__mcmp+0x1a>
    4b52:	42a2      	cmp	r2, r4
    4b54:	4192      	sbcs	r2, r2
    4b56:	2001      	movs	r0, #1
    4b58:	4310      	orrs	r0, r2
    4b5a:	bd30      	pop	{r4, r5, pc}

00004b5c <__mdiff>:
    4b5c:	b5f0      	push	{r4, r5, r6, r7, lr}
    4b5e:	464e      	mov	r6, r9
    4b60:	4645      	mov	r5, r8
    4b62:	46de      	mov	lr, fp
    4b64:	4657      	mov	r7, sl
    4b66:	b5e0      	push	{r5, r6, r7, lr}
    4b68:	690b      	ldr	r3, [r1, #16]
    4b6a:	4688      	mov	r8, r1
    4b6c:	6911      	ldr	r1, [r2, #16]
    4b6e:	4691      	mov	r9, r2
    4b70:	b083      	sub	sp, #12
    4b72:	1a5c      	subs	r4, r3, r1
    4b74:	428b      	cmp	r3, r1
    4b76:	d000      	beq.n	4b7a <__mdiff+0x1e>
    4b78:	e095      	b.n	4ca6 <__mdiff+0x14a>
    4b7a:	4646      	mov	r6, r8
    4b7c:	0089      	lsls	r1, r1, #2
    4b7e:	3614      	adds	r6, #20
    4b80:	3214      	adds	r2, #20
    4b82:	1873      	adds	r3, r6, r1
    4b84:	1852      	adds	r2, r2, r1
    4b86:	e002      	b.n	4b8e <__mdiff+0x32>
    4b88:	429e      	cmp	r6, r3
    4b8a:	d300      	bcc.n	4b8e <__mdiff+0x32>
    4b8c:	e08f      	b.n	4cae <__mdiff+0x152>
    4b8e:	3b04      	subs	r3, #4
    4b90:	3a04      	subs	r2, #4
    4b92:	681d      	ldr	r5, [r3, #0]
    4b94:	6811      	ldr	r1, [r2, #0]
    4b96:	428d      	cmp	r5, r1
    4b98:	d0f6      	beq.n	4b88 <__mdiff+0x2c>
    4b9a:	d200      	bcs.n	4b9e <__mdiff+0x42>
    4b9c:	e07e      	b.n	4c9c <__mdiff+0x140>
    4b9e:	4643      	mov	r3, r8
    4ba0:	6859      	ldr	r1, [r3, #4]
    4ba2:	f7ff fcad 	bl	4500 <_Balloc>
    4ba6:	2800      	cmp	r0, #0
    4ba8:	d100      	bne.n	4bac <__mdiff+0x50>
    4baa:	e08a      	b.n	4cc2 <__mdiff+0x166>
    4bac:	4643      	mov	r3, r8
    4bae:	691a      	ldr	r2, [r3, #16]
    4bb0:	2314      	movs	r3, #20
    4bb2:	4443      	add	r3, r8
    4bb4:	469c      	mov	ip, r3
    4bb6:	60c4      	str	r4, [r0, #12]
    4bb8:	001c      	movs	r4, r3
    4bba:	464b      	mov	r3, r9
    4bbc:	691b      	ldr	r3, [r3, #16]
    4bbe:	0091      	lsls	r1, r2, #2
    4bc0:	009b      	lsls	r3, r3, #2
    4bc2:	4461      	add	r1, ip
    4bc4:	469c      	mov	ip, r3
    4bc6:	2314      	movs	r3, #20
    4bc8:	464f      	mov	r7, r9
    4bca:	469a      	mov	sl, r3
    4bcc:	3714      	adds	r7, #20
    4bce:	4482      	add	sl, r0
    4bd0:	4653      	mov	r3, sl
    4bd2:	44bc      	add	ip, r7
    4bd4:	468b      	mov	fp, r1
    4bd6:	46a2      	mov	sl, r4
    4bd8:	2614      	movs	r6, #20
    4bda:	4664      	mov	r4, ip
    4bdc:	2100      	movs	r1, #0
    4bde:	4694      	mov	ip, r2
    4be0:	4642      	mov	r2, r8
    4be2:	4680      	mov	r8, r0
    4be4:	9301      	str	r3, [sp, #4]
    4be6:	5993      	ldr	r3, [r2, r6]
    4be8:	cf01      	ldmia	r7!, {r0}
    4bea:	041d      	lsls	r5, r3, #16
    4bec:	0c2d      	lsrs	r5, r5, #16
    4bee:	1869      	adds	r1, r5, r1
    4bf0:	0405      	lsls	r5, r0, #16
    4bf2:	0c2d      	lsrs	r5, r5, #16
    4bf4:	1b4d      	subs	r5, r1, r5
    4bf6:	0c01      	lsrs	r1, r0, #16
    4bf8:	4640      	mov	r0, r8
    4bfa:	0c1b      	lsrs	r3, r3, #16
    4bfc:	1a5b      	subs	r3, r3, r1
    4bfe:	1429      	asrs	r1, r5, #16
    4c00:	185b      	adds	r3, r3, r1
    4c02:	042d      	lsls	r5, r5, #16
    4c04:	1419      	asrs	r1, r3, #16
    4c06:	0c2d      	lsrs	r5, r5, #16
    4c08:	041b      	lsls	r3, r3, #16
    4c0a:	432b      	orrs	r3, r5
    4c0c:	5183      	str	r3, [r0, r6]
    4c0e:	3604      	adds	r6, #4
    4c10:	42bc      	cmp	r4, r7
    4c12:	d8e8      	bhi.n	4be6 <__mdiff+0x8a>
    4c14:	4662      	mov	r2, ip
    4c16:	46a4      	mov	ip, r4
    4c18:	464d      	mov	r5, r9
    4c1a:	001c      	movs	r4, r3
    4c1c:	4663      	mov	r3, ip
    4c1e:	464e      	mov	r6, r9
    4c20:	1b5d      	subs	r5, r3, r5
    4c22:	3d15      	subs	r5, #21
    4c24:	3615      	adds	r6, #21
    4c26:	2300      	movs	r3, #0
    4c28:	08ad      	lsrs	r5, r5, #2
    4c2a:	45b4      	cmp	ip, r6
    4c2c:	d300      	bcc.n	4c30 <__mdiff+0xd4>
    4c2e:	00ab      	lsls	r3, r5, #2
    4c30:	9f01      	ldr	r7, [sp, #4]
    4c32:	46b8      	mov	r8, r7
    4c34:	2704      	movs	r7, #4
    4c36:	4443      	add	r3, r8
    4c38:	45b4      	cmp	ip, r6
    4c3a:	d301      	bcc.n	4c40 <__mdiff+0xe4>
    4c3c:	3501      	adds	r5, #1
    4c3e:	00af      	lsls	r7, r5, #2
    4c40:	9d01      	ldr	r5, [sp, #4]
    4c42:	44ba      	add	sl, r7
    4c44:	46ac      	mov	ip, r5
    4c46:	44bc      	add	ip, r7
    4c48:	45d3      	cmp	fp, sl
    4c4a:	d918      	bls.n	4c7e <__mdiff+0x122>
    4c4c:	4665      	mov	r5, ip
    4c4e:	4657      	mov	r7, sl
    4c50:	465e      	mov	r6, fp
    4c52:	cf10      	ldmia	r7!, {r4}
    4c54:	0423      	lsls	r3, r4, #16
    4c56:	0c1b      	lsrs	r3, r3, #16
    4c58:	185b      	adds	r3, r3, r1
    4c5a:	1419      	asrs	r1, r3, #16
    4c5c:	0c24      	lsrs	r4, r4, #16
    4c5e:	1864      	adds	r4, r4, r1
    4c60:	041b      	lsls	r3, r3, #16
    4c62:	1421      	asrs	r1, r4, #16
    4c64:	0c1b      	lsrs	r3, r3, #16
    4c66:	0424      	lsls	r4, r4, #16
    4c68:	431c      	orrs	r4, r3
    4c6a:	c510      	stmia	r5!, {r4}
    4c6c:	42be      	cmp	r6, r7
    4c6e:	d8f0      	bhi.n	4c52 <__mdiff+0xf6>
    4c70:	0031      	movs	r1, r6
    4c72:	4653      	mov	r3, sl
    4c74:	3901      	subs	r1, #1
    4c76:	1acb      	subs	r3, r1, r3
    4c78:	089b      	lsrs	r3, r3, #2
    4c7a:	009b      	lsls	r3, r3, #2
    4c7c:	4463      	add	r3, ip
    4c7e:	2c00      	cmp	r4, #0
    4c80:	d104      	bne.n	4c8c <__mdiff+0x130>
    4c82:	3b04      	subs	r3, #4
    4c84:	6819      	ldr	r1, [r3, #0]
    4c86:	3a01      	subs	r2, #1
    4c88:	2900      	cmp	r1, #0
    4c8a:	d0fa      	beq.n	4c82 <__mdiff+0x126>
    4c8c:	6102      	str	r2, [r0, #16]
    4c8e:	b003      	add	sp, #12
    4c90:	bcf0      	pop	{r4, r5, r6, r7}
    4c92:	46bb      	mov	fp, r7
    4c94:	46b2      	mov	sl, r6
    4c96:	46a9      	mov	r9, r5
    4c98:	46a0      	mov	r8, r4
    4c9a:	bdf0      	pop	{r4, r5, r6, r7, pc}
    4c9c:	4643      	mov	r3, r8
    4c9e:	2401      	movs	r4, #1
    4ca0:	46c8      	mov	r8, r9
    4ca2:	4699      	mov	r9, r3
    4ca4:	e77b      	b.n	4b9e <__mdiff+0x42>
    4ca6:	2c00      	cmp	r4, #0
    4ca8:	dbf8      	blt.n	4c9c <__mdiff+0x140>
    4caa:	2400      	movs	r4, #0
    4cac:	e777      	b.n	4b9e <__mdiff+0x42>
    4cae:	2100      	movs	r1, #0
    4cb0:	f7ff fc26 	bl	4500 <_Balloc>
    4cb4:	2800      	cmp	r0, #0
    4cb6:	d00b      	beq.n	4cd0 <__mdiff+0x174>
    4cb8:	2301      	movs	r3, #1
    4cba:	6103      	str	r3, [r0, #16]
    4cbc:	2300      	movs	r3, #0
    4cbe:	6143      	str	r3, [r0, #20]
    4cc0:	e7e5      	b.n	4c8e <__mdiff+0x132>
    4cc2:	2190      	movs	r1, #144	; 0x90
    4cc4:	2200      	movs	r2, #0
    4cc6:	4b05      	ldr	r3, [pc, #20]	; (4cdc <__mdiff+0x180>)
    4cc8:	4805      	ldr	r0, [pc, #20]	; (4ce0 <__mdiff+0x184>)
    4cca:	0089      	lsls	r1, r1, #2
    4ccc:	f001 fa86 	bl	61dc <__assert_func>
    4cd0:	2200      	movs	r2, #0
    4cd2:	4b02      	ldr	r3, [pc, #8]	; (4cdc <__mdiff+0x180>)
    4cd4:	4903      	ldr	r1, [pc, #12]	; (4ce4 <__mdiff+0x188>)
    4cd6:	4802      	ldr	r0, [pc, #8]	; (4ce0 <__mdiff+0x184>)
    4cd8:	f001 fa80 	bl	61dc <__assert_func>
    4cdc:	0000a234 	.word	0x0000a234
    4ce0:	0000a248 	.word	0x0000a248
    4ce4:	00000232 	.word	0x00000232

00004ce8 <__ulp>:
    4ce8:	4b0f      	ldr	r3, [pc, #60]	; (4d28 <__ulp+0x40>)
    4cea:	4019      	ands	r1, r3
    4cec:	4b0f      	ldr	r3, [pc, #60]	; (4d2c <__ulp+0x44>)
    4cee:	469c      	mov	ip, r3
    4cf0:	4461      	add	r1, ip
    4cf2:	2900      	cmp	r1, #0
    4cf4:	dd04      	ble.n	4d00 <__ulp+0x18>
    4cf6:	2200      	movs	r2, #0
    4cf8:	000b      	movs	r3, r1
    4cfa:	0010      	movs	r0, r2
    4cfc:	0019      	movs	r1, r3
    4cfe:	4770      	bx	lr
    4d00:	4249      	negs	r1, r1
    4d02:	2200      	movs	r2, #0
    4d04:	2300      	movs	r3, #0
    4d06:	1509      	asrs	r1, r1, #20
    4d08:	2913      	cmp	r1, #19
    4d0a:	dc04      	bgt.n	4d16 <__ulp+0x2e>
    4d0c:	2080      	movs	r0, #128	; 0x80
    4d0e:	0300      	lsls	r0, r0, #12
    4d10:	4108      	asrs	r0, r1
    4d12:	0003      	movs	r3, r0
    4d14:	e7f1      	b.n	4cfa <__ulp+0x12>
    4d16:	3914      	subs	r1, #20
    4d18:	2001      	movs	r0, #1
    4d1a:	291e      	cmp	r1, #30
    4d1c:	dc02      	bgt.n	4d24 <__ulp+0x3c>
    4d1e:	2080      	movs	r0, #128	; 0x80
    4d20:	0600      	lsls	r0, r0, #24
    4d22:	40c8      	lsrs	r0, r1
    4d24:	0002      	movs	r2, r0
    4d26:	e7e8      	b.n	4cfa <__ulp+0x12>
    4d28:	7ff00000 	.word	0x7ff00000
    4d2c:	fcc00000 	.word	0xfcc00000

00004d30 <__b2d>:
    4d30:	b5f8      	push	{r3, r4, r5, r6, r7, lr}
    4d32:	0006      	movs	r6, r0
    4d34:	4647      	mov	r7, r8
    4d36:	46ce      	mov	lr, r9
    4d38:	6904      	ldr	r4, [r0, #16]
    4d3a:	3614      	adds	r6, #20
    4d3c:	00a4      	lsls	r4, r4, #2
    4d3e:	1934      	adds	r4, r6, r4
    4d40:	1f23      	subs	r3, r4, #4
    4d42:	681d      	ldr	r5, [r3, #0]
    4d44:	b580      	push	{r7, lr}
    4d46:	0028      	movs	r0, r5
    4d48:	000f      	movs	r7, r1
    4d4a:	4698      	mov	r8, r3
    4d4c:	f7ff fcb6 	bl	46bc <__hi0bits>
    4d50:	2120      	movs	r1, #32
    4d52:	1a0a      	subs	r2, r1, r0
    4d54:	603a      	str	r2, [r7, #0]
    4d56:	280a      	cmp	r0, #10
    4d58:	dd2e      	ble.n	4db8 <__b2d+0x88>
    4d5a:	4546      	cmp	r6, r8
    4d5c:	d223      	bcs.n	4da6 <__b2d+0x76>
    4d5e:	2308      	movs	r3, #8
    4d60:	425b      	negs	r3, r3
    4d62:	4698      	mov	r8, r3
    4d64:	44a0      	add	r8, r4
    4d66:	4643      	mov	r3, r8
    4d68:	681f      	ldr	r7, [r3, #0]
    4d6a:	230b      	movs	r3, #11
    4d6c:	425b      	negs	r3, r3
    4d6e:	469c      	mov	ip, r3
    4d70:	4484      	add	ip, r0
    4d72:	280b      	cmp	r0, #11
    4d74:	d01c      	beq.n	4db0 <__b2d+0x80>
    4d76:	4663      	mov	r3, ip
    4d78:	409d      	lsls	r5, r3
    4d7a:	1ac9      	subs	r1, r1, r3
    4d7c:	003b      	movs	r3, r7
    4d7e:	40cb      	lsrs	r3, r1
    4d80:	481c      	ldr	r0, [pc, #112]	; (4df4 <__b2d+0xc4>)
    4d82:	431d      	orrs	r5, r3
    4d84:	4328      	orrs	r0, r5
    4d86:	0003      	movs	r3, r0
    4d88:	4546      	cmp	r6, r8
    4d8a:	d22f      	bcs.n	4dec <__b2d+0xbc>
    4d8c:	3c0c      	subs	r4, #12
    4d8e:	6820      	ldr	r0, [r4, #0]
    4d90:	40c8      	lsrs	r0, r1
    4d92:	4661      	mov	r1, ip
    4d94:	408f      	lsls	r7, r1
    4d96:	4307      	orrs	r7, r0
    4d98:	003a      	movs	r2, r7
    4d9a:	0010      	movs	r0, r2
    4d9c:	0019      	movs	r1, r3
    4d9e:	bcc0      	pop	{r6, r7}
    4da0:	46b9      	mov	r9, r7
    4da2:	46b0      	mov	r8, r6
    4da4:	bdf8      	pop	{r3, r4, r5, r6, r7, pc}
    4da6:	0003      	movs	r3, r0
    4da8:	2700      	movs	r7, #0
    4daa:	3b0b      	subs	r3, #11
    4dac:	280b      	cmp	r0, #11
    4dae:	d117      	bne.n	4de0 <__b2d+0xb0>
    4db0:	4910      	ldr	r1, [pc, #64]	; (4df4 <__b2d+0xc4>)
    4db2:	4329      	orrs	r1, r5
    4db4:	000b      	movs	r3, r1
    4db6:	e7ef      	b.n	4d98 <__b2d+0x68>
    4db8:	002f      	movs	r7, r5
    4dba:	3915      	subs	r1, #21
    4dbc:	1a0b      	subs	r3, r1, r0
    4dbe:	40df      	lsrs	r7, r3
    4dc0:	490c      	ldr	r1, [pc, #48]	; (4df4 <__b2d+0xc4>)
    4dc2:	4699      	mov	r9, r3
    4dc4:	4339      	orrs	r1, r7
    4dc6:	000b      	movs	r3, r1
    4dc8:	2700      	movs	r7, #0
    4dca:	4546      	cmp	r6, r8
    4dcc:	d203      	bcs.n	4dd6 <__b2d+0xa6>
    4dce:	4649      	mov	r1, r9
    4dd0:	3c08      	subs	r4, #8
    4dd2:	6827      	ldr	r7, [r4, #0]
    4dd4:	40cf      	lsrs	r7, r1
    4dd6:	3015      	adds	r0, #21
    4dd8:	4085      	lsls	r5, r0
    4dda:	433d      	orrs	r5, r7
    4ddc:	002a      	movs	r2, r5
    4dde:	e7dc      	b.n	4d9a <__b2d+0x6a>
    4de0:	409d      	lsls	r5, r3
    4de2:	4904      	ldr	r1, [pc, #16]	; (4df4 <__b2d+0xc4>)
    4de4:	2700      	movs	r7, #0
    4de6:	4329      	orrs	r1, r5
    4de8:	000b      	movs	r3, r1
    4dea:	e7d5      	b.n	4d98 <__b2d+0x68>
    4dec:	4661      	mov	r1, ip
    4dee:	408f      	lsls	r7, r1
    4df0:	e7d2      	b.n	4d98 <__b2d+0x68>
    4df2:	46c0      	nop			; (mov r8, r8)
    4df4:	3ff00000 	.word	0x3ff00000

00004df8 <__d2b>:
    4df8:	b570      	push	{r4, r5, r6, lr}
    4dfa:	2101      	movs	r1, #1
    4dfc:	b082      	sub	sp, #8
    4dfe:	0015      	movs	r5, r2
    4e00:	001c      	movs	r4, r3
    4e02:	f7ff fb7d 	bl	4500 <_Balloc>
    4e06:	1e06      	subs	r6, r0, #0
    4e08:	d04f      	beq.n	4eaa <__d2b+0xb2>
    4e0a:	0323      	lsls	r3, r4, #12
    4e0c:	0064      	lsls	r4, r4, #1
    4e0e:	0b1b      	lsrs	r3, r3, #12
    4e10:	0d64      	lsrs	r4, r4, #21
    4e12:	d002      	beq.n	4e1a <__d2b+0x22>
    4e14:	2280      	movs	r2, #128	; 0x80
    4e16:	0352      	lsls	r2, r2, #13
    4e18:	4313      	orrs	r3, r2
    4e1a:	9301      	str	r3, [sp, #4]
    4e1c:	2d00      	cmp	r5, #0
    4e1e:	d117      	bne.n	4e50 <__d2b+0x58>
    4e20:	a801      	add	r0, sp, #4
    4e22:	f7ff fc67 	bl	46f4 <__lo0bits>
    4e26:	9b01      	ldr	r3, [sp, #4]
    4e28:	2501      	movs	r5, #1
    4e2a:	6173      	str	r3, [r6, #20]
    4e2c:	2301      	movs	r3, #1
    4e2e:	3020      	adds	r0, #32
    4e30:	6133      	str	r3, [r6, #16]
    4e32:	2c00      	cmp	r4, #0
    4e34:	d024      	beq.n	4e80 <__d2b+0x88>
    4e36:	4b20      	ldr	r3, [pc, #128]	; (4eb8 <__d2b+0xc0>)
    4e38:	469c      	mov	ip, r3
    4e3a:	9b06      	ldr	r3, [sp, #24]
    4e3c:	4464      	add	r4, ip
    4e3e:	1824      	adds	r4, r4, r0
    4e40:	601c      	str	r4, [r3, #0]
    4e42:	2335      	movs	r3, #53	; 0x35
    4e44:	1a18      	subs	r0, r3, r0
    4e46:	9b07      	ldr	r3, [sp, #28]
    4e48:	6018      	str	r0, [r3, #0]
    4e4a:	0030      	movs	r0, r6
    4e4c:	b002      	add	sp, #8
    4e4e:	bd70      	pop	{r4, r5, r6, pc}
    4e50:	4668      	mov	r0, sp
    4e52:	9500      	str	r5, [sp, #0]
    4e54:	f7ff fc4e 	bl	46f4 <__lo0bits>
    4e58:	2800      	cmp	r0, #0
    4e5a:	d022      	beq.n	4ea2 <__d2b+0xaa>
    4e5c:	9d01      	ldr	r5, [sp, #4]
    4e5e:	2320      	movs	r3, #32
    4e60:	002a      	movs	r2, r5
    4e62:	1a1b      	subs	r3, r3, r0
    4e64:	409a      	lsls	r2, r3
    4e66:	0013      	movs	r3, r2
    4e68:	40c5      	lsrs	r5, r0
    4e6a:	9a00      	ldr	r2, [sp, #0]
    4e6c:	9501      	str	r5, [sp, #4]
    4e6e:	4313      	orrs	r3, r2
    4e70:	6173      	str	r3, [r6, #20]
    4e72:	61b5      	str	r5, [r6, #24]
    4e74:	1e6b      	subs	r3, r5, #1
    4e76:	419d      	sbcs	r5, r3
    4e78:	3501      	adds	r5, #1
    4e7a:	6135      	str	r5, [r6, #16]
    4e7c:	2c00      	cmp	r4, #0
    4e7e:	d1da      	bne.n	4e36 <__d2b+0x3e>
    4e80:	4b0e      	ldr	r3, [pc, #56]	; (4ebc <__d2b+0xc4>)
    4e82:	469c      	mov	ip, r3
    4e84:	9b06      	ldr	r3, [sp, #24]
    4e86:	4460      	add	r0, ip
    4e88:	6018      	str	r0, [r3, #0]
    4e8a:	4b0d      	ldr	r3, [pc, #52]	; (4ec0 <__d2b+0xc8>)
    4e8c:	18eb      	adds	r3, r5, r3
    4e8e:	009b      	lsls	r3, r3, #2
    4e90:	18f3      	adds	r3, r6, r3
    4e92:	6958      	ldr	r0, [r3, #20]
    4e94:	f7ff fc12 	bl	46bc <__hi0bits>
    4e98:	016d      	lsls	r5, r5, #5
    4e9a:	9b07      	ldr	r3, [sp, #28]
    4e9c:	1a2d      	subs	r5, r5, r0
    4e9e:	601d      	str	r5, [r3, #0]
    4ea0:	e7d3      	b.n	4e4a <__d2b+0x52>
    4ea2:	9b00      	ldr	r3, [sp, #0]
    4ea4:	9d01      	ldr	r5, [sp, #4]
    4ea6:	6173      	str	r3, [r6, #20]
    4ea8:	e7e3      	b.n	4e72 <__d2b+0x7a>
    4eaa:	2200      	movs	r2, #0
    4eac:	4b05      	ldr	r3, [pc, #20]	; (4ec4 <__d2b+0xcc>)
    4eae:	4906      	ldr	r1, [pc, #24]	; (4ec8 <__d2b+0xd0>)
    4eb0:	4806      	ldr	r0, [pc, #24]	; (4ecc <__d2b+0xd4>)
    4eb2:	f001 f993 	bl	61dc <__assert_func>
    4eb6:	46c0      	nop			; (mov r8, r8)
    4eb8:	fffffbcd 	.word	0xfffffbcd
    4ebc:	fffffbce 	.word	0xfffffbce
    4ec0:	3fffffff 	.word	0x3fffffff
    4ec4:	0000a234 	.word	0x0000a234
    4ec8:	0000030a 	.word	0x0000030a
    4ecc:	0000a248 	.word	0x0000a248

00004ed0 <__ratio>:
    4ed0:	b5f0      	push	{r4, r5, r6, r7, lr}
    4ed2:	46ce      	mov	lr, r9
    4ed4:	4647      	mov	r7, r8
    4ed6:	b580      	push	{r7, lr}
    4ed8:	b085      	sub	sp, #20
    4eda:	4688      	mov	r8, r1
    4edc:	a902      	add	r1, sp, #8
    4ede:	4681      	mov	r9, r0
    4ee0:	f7ff ff26 	bl	4d30 <__b2d>
    4ee4:	0004      	movs	r4, r0
    4ee6:	000d      	movs	r5, r1
    4ee8:	4640      	mov	r0, r8
    4eea:	a903      	add	r1, sp, #12
    4eec:	f7ff ff20 	bl	4d30 <__b2d>
    4ef0:	0002      	movs	r2, r0
    4ef2:	000b      	movs	r3, r1
    4ef4:	4640      	mov	r0, r8
    4ef6:	4649      	mov	r1, r9
    4ef8:	6900      	ldr	r0, [r0, #16]
    4efa:	6909      	ldr	r1, [r1, #16]
    4efc:	9200      	str	r2, [sp, #0]
    4efe:	9301      	str	r3, [sp, #4]
    4f00:	1a09      	subs	r1, r1, r0
    4f02:	0149      	lsls	r1, r1, #5
    4f04:	468c      	mov	ip, r1
    4f06:	9802      	ldr	r0, [sp, #8]
    4f08:	9903      	ldr	r1, [sp, #12]
    4f0a:	1a40      	subs	r0, r0, r1
    4f0c:	0001      	movs	r1, r0
    4f0e:	4461      	add	r1, ip
    4f10:	2900      	cmp	r1, #0
    4f12:	dd0b      	ble.n	4f2c <__ratio+0x5c>
    4f14:	0509      	lsls	r1, r1, #20
    4f16:	194f      	adds	r7, r1, r5
    4f18:	003d      	movs	r5, r7
    4f1a:	0020      	movs	r0, r4
    4f1c:	0029      	movs	r1, r5
    4f1e:	f003 fbb7 	bl	8690 <__aeabi_ddiv>
    4f22:	b005      	add	sp, #20
    4f24:	bcc0      	pop	{r6, r7}
    4f26:	46b9      	mov	r9, r7
    4f28:	46b0      	mov	r8, r6
    4f2a:	bdf0      	pop	{r4, r5, r6, r7, pc}
    4f2c:	0509      	lsls	r1, r1, #20
    4f2e:	1a5b      	subs	r3, r3, r1
    4f30:	9301      	str	r3, [sp, #4]
    4f32:	9a00      	ldr	r2, [sp, #0]
    4f34:	9b01      	ldr	r3, [sp, #4]
    4f36:	e7f0      	b.n	4f1a <__ratio+0x4a>

00004f38 <_mprec_log10>:
    4f38:	b510      	push	{r4, lr}
    4f3a:	0004      	movs	r4, r0
    4f3c:	2817      	cmp	r0, #23
    4f3e:	dd09      	ble.n	4f54 <_mprec_log10+0x1c>
    4f40:	2000      	movs	r0, #0
    4f42:	4907      	ldr	r1, [pc, #28]	; (4f60 <_mprec_log10+0x28>)
    4f44:	2200      	movs	r2, #0
    4f46:	4b07      	ldr	r3, [pc, #28]	; (4f64 <_mprec_log10+0x2c>)
    4f48:	3c01      	subs	r4, #1
    4f4a:	f003 ffa3 	bl	8e94 <__aeabi_dmul>
    4f4e:	2c00      	cmp	r4, #0
    4f50:	d1f8      	bne.n	4f44 <_mprec_log10+0xc>
    4f52:	bd10      	pop	{r4, pc}
    4f54:	00c4      	lsls	r4, r0, #3
    4f56:	4804      	ldr	r0, [pc, #16]	; (4f68 <_mprec_log10+0x30>)
    4f58:	1904      	adds	r4, r0, r4
    4f5a:	6820      	ldr	r0, [r4, #0]
    4f5c:	6861      	ldr	r1, [r4, #4]
    4f5e:	e7f8      	b.n	4f52 <_mprec_log10+0x1a>
    4f60:	3ff00000 	.word	0x3ff00000
    4f64:	40240000 	.word	0x40240000
    4f68:	0000a2f0 	.word	0x0000a2f0

00004f6c <__copybits>:
    4f6c:	0013      	movs	r3, r2
    4f6e:	3901      	subs	r1, #1
    4f70:	b570      	push	{r4, r5, r6, lr}
    4f72:	114c      	asrs	r4, r1, #5
    4f74:	6911      	ldr	r1, [r2, #16]
    4f76:	3401      	adds	r4, #1
    4f78:	3314      	adds	r3, #20
    4f7a:	0089      	lsls	r1, r1, #2
    4f7c:	00a4      	lsls	r4, r4, #2
    4f7e:	1859      	adds	r1, r3, r1
    4f80:	1904      	adds	r4, r0, r4
    4f82:	428b      	cmp	r3, r1
    4f84:	d20a      	bcs.n	4f9c <__copybits+0x30>
    4f86:	0005      	movs	r5, r0
    4f88:	cb40      	ldmia	r3!, {r6}
    4f8a:	c540      	stmia	r5!, {r6}
    4f8c:	4299      	cmp	r1, r3
    4f8e:	d8fb      	bhi.n	4f88 <__copybits+0x1c>
    4f90:	1a8b      	subs	r3, r1, r2
    4f92:	3b15      	subs	r3, #21
    4f94:	089b      	lsrs	r3, r3, #2
    4f96:	3301      	adds	r3, #1
    4f98:	009b      	lsls	r3, r3, #2
    4f9a:	18c0      	adds	r0, r0, r3
    4f9c:	4284      	cmp	r4, r0
    4f9e:	d903      	bls.n	4fa8 <__copybits+0x3c>
    4fa0:	2300      	movs	r3, #0
    4fa2:	c008      	stmia	r0!, {r3}
    4fa4:	4284      	cmp	r4, r0
    4fa6:	d8fc      	bhi.n	4fa2 <__copybits+0x36>
    4fa8:	bd70      	pop	{r4, r5, r6, pc}
    4faa:	46c0      	nop			; (mov r8, r8)

00004fac <__any_on>:
    4fac:	0002      	movs	r2, r0
    4fae:	6903      	ldr	r3, [r0, #16]
    4fb0:	b510      	push	{r4, lr}
    4fb2:	3214      	adds	r2, #20
    4fb4:	1148      	asrs	r0, r1, #5
    4fb6:	4283      	cmp	r3, r0
    4fb8:	da0a      	bge.n	4fd0 <__any_on+0x24>
    4fba:	009b      	lsls	r3, r3, #2
    4fbc:	18d3      	adds	r3, r2, r3
    4fbe:	e003      	b.n	4fc8 <__any_on+0x1c>
    4fc0:	3b04      	subs	r3, #4
    4fc2:	6819      	ldr	r1, [r3, #0]
    4fc4:	2900      	cmp	r1, #0
    4fc6:	d117      	bne.n	4ff8 <__any_on+0x4c>
    4fc8:	4293      	cmp	r3, r2
    4fca:	d8f9      	bhi.n	4fc0 <__any_on+0x14>
    4fcc:	2000      	movs	r0, #0
    4fce:	bd10      	pop	{r4, pc}
    4fd0:	4283      	cmp	r3, r0
    4fd2:	dd0e      	ble.n	4ff2 <__any_on+0x46>
    4fd4:	231f      	movs	r3, #31
    4fd6:	001c      	movs	r4, r3
    4fd8:	400c      	ands	r4, r1
    4fda:	420b      	tst	r3, r1
    4fdc:	d009      	beq.n	4ff2 <__any_on+0x46>
    4fde:	0083      	lsls	r3, r0, #2
    4fe0:	18d3      	adds	r3, r2, r3
    4fe2:	6819      	ldr	r1, [r3, #0]
    4fe4:	2001      	movs	r0, #1
    4fe6:	40e1      	lsrs	r1, r4
    4fe8:	40a1      	lsls	r1, r4
    4fea:	681c      	ldr	r4, [r3, #0]
    4fec:	428c      	cmp	r4, r1
    4fee:	d1ee      	bne.n	4fce <__any_on+0x22>
    4ff0:	e7ea      	b.n	4fc8 <__any_on+0x1c>
    4ff2:	0083      	lsls	r3, r0, #2
    4ff4:	18d3      	adds	r3, r2, r3
    4ff6:	e7e7      	b.n	4fc8 <__any_on+0x1c>
    4ff8:	2001      	movs	r0, #1
    4ffa:	e7e8      	b.n	4fce <__any_on+0x22>

00004ffc <cleanup_glue>:
    4ffc:	b5f0      	push	{r4, r5, r6, r7, lr}
    4ffe:	46c6      	mov	lr, r8
    5000:	680e      	ldr	r6, [r1, #0]
    5002:	0004      	movs	r4, r0
    5004:	000d      	movs	r5, r1
    5006:	b500      	push	{lr}
    5008:	2e00      	cmp	r6, #0
    500a:	d017      	beq.n	503c <cleanup_glue+0x40>
    500c:	6837      	ldr	r7, [r6, #0]
    500e:	2f00      	cmp	r7, #0
    5010:	d010      	beq.n	5034 <cleanup_glue+0x38>
    5012:	683b      	ldr	r3, [r7, #0]
    5014:	4698      	mov	r8, r3
    5016:	2b00      	cmp	r3, #0
    5018:	d008      	beq.n	502c <cleanup_glue+0x30>
    501a:	6819      	ldr	r1, [r3, #0]
    501c:	2900      	cmp	r1, #0
    501e:	d001      	beq.n	5024 <cleanup_glue+0x28>
    5020:	f7ff ffec 	bl	4ffc <cleanup_glue>
    5024:	4641      	mov	r1, r8
    5026:	0020      	movs	r0, r4
    5028:	f7ff f84a 	bl	40c0 <_free_r>
    502c:	0039      	movs	r1, r7
    502e:	0020      	movs	r0, r4
    5030:	f7ff f846 	bl	40c0 <_free_r>
    5034:	0031      	movs	r1, r6
    5036:	0020      	movs	r0, r4
    5038:	f7ff f842 	bl	40c0 <_free_r>
    503c:	0029      	movs	r1, r5
    503e:	0020      	movs	r0, r4
    5040:	f7ff f83e 	bl	40c0 <_free_r>
    5044:	bc80      	pop	{r7}
    5046:	46b8      	mov	r8, r7
    5048:	bdf0      	pop	{r4, r5, r6, r7, pc}
    504a:	46c0      	nop			; (mov r8, r8)

0000504c <_reclaim_reent>:
    504c:	4b26      	ldr	r3, [pc, #152]	; (50e8 <_reclaim_reent+0x9c>)
    504e:	b570      	push	{r4, r5, r6, lr}
    5050:	681b      	ldr	r3, [r3, #0]
    5052:	0005      	movs	r5, r0
    5054:	4283      	cmp	r3, r0
    5056:	d046      	beq.n	50e6 <_reclaim_reent+0x9a>
    5058:	6cc1      	ldr	r1, [r0, #76]	; 0x4c
    505a:	2900      	cmp	r1, #0
    505c:	d011      	beq.n	5082 <_reclaim_reent+0x36>
    505e:	2600      	movs	r6, #0
    5060:	598c      	ldr	r4, [r1, r6]
    5062:	2c00      	cmp	r4, #0
    5064:	d007      	beq.n	5076 <_reclaim_reent+0x2a>
    5066:	0021      	movs	r1, r4
    5068:	6824      	ldr	r4, [r4, #0]
    506a:	0028      	movs	r0, r5
    506c:	f7ff f828 	bl	40c0 <_free_r>
    5070:	2c00      	cmp	r4, #0
    5072:	d1f8      	bne.n	5066 <_reclaim_reent+0x1a>
    5074:	6ce9      	ldr	r1, [r5, #76]	; 0x4c
    5076:	3604      	adds	r6, #4
    5078:	2e80      	cmp	r6, #128	; 0x80
    507a:	d1f1      	bne.n	5060 <_reclaim_reent+0x14>
    507c:	0028      	movs	r0, r5
    507e:	f7ff f81f 	bl	40c0 <_free_r>
    5082:	6c29      	ldr	r1, [r5, #64]	; 0x40
    5084:	2900      	cmp	r1, #0
    5086:	d002      	beq.n	508e <_reclaim_reent+0x42>
    5088:	0028      	movs	r0, r5
    508a:	f7ff f819 	bl	40c0 <_free_r>
    508e:	23a4      	movs	r3, #164	; 0xa4
    5090:	005b      	lsls	r3, r3, #1
    5092:	58ec      	ldr	r4, [r5, r3]
    5094:	2c00      	cmp	r4, #0
    5096:	d00b      	beq.n	50b0 <_reclaim_reent+0x64>
    5098:	002e      	movs	r6, r5
    509a:	364d      	adds	r6, #77	; 0x4d
    509c:	36ff      	adds	r6, #255	; 0xff
    509e:	42b4      	cmp	r4, r6
    50a0:	d006      	beq.n	50b0 <_reclaim_reent+0x64>
    50a2:	0021      	movs	r1, r4
    50a4:	6824      	ldr	r4, [r4, #0]
    50a6:	0028      	movs	r0, r5
    50a8:	f7ff f80a 	bl	40c0 <_free_r>
    50ac:	42a6      	cmp	r6, r4
    50ae:	d1f8      	bne.n	50a2 <_reclaim_reent+0x56>
    50b0:	6d69      	ldr	r1, [r5, #84]	; 0x54
    50b2:	2900      	cmp	r1, #0
    50b4:	d002      	beq.n	50bc <_reclaim_reent+0x70>
    50b6:	0028      	movs	r0, r5
    50b8:	f7ff f802 	bl	40c0 <_free_r>
    50bc:	6bab      	ldr	r3, [r5, #56]	; 0x38
    50be:	2b00      	cmp	r3, #0
    50c0:	d011      	beq.n	50e6 <_reclaim_reent+0x9a>
    50c2:	6beb      	ldr	r3, [r5, #60]	; 0x3c
    50c4:	0028      	movs	r0, r5
    50c6:	4798      	blx	r3
    50c8:	23b8      	movs	r3, #184	; 0xb8
    50ca:	009b      	lsls	r3, r3, #2
    50cc:	58ec      	ldr	r4, [r5, r3]
    50ce:	2c00      	cmp	r4, #0
    50d0:	d009      	beq.n	50e6 <_reclaim_reent+0x9a>
    50d2:	6821      	ldr	r1, [r4, #0]
    50d4:	2900      	cmp	r1, #0
    50d6:	d002      	beq.n	50de <_reclaim_reent+0x92>
    50d8:	0028      	movs	r0, r5
    50da:	f7ff ff8f 	bl	4ffc <cleanup_glue>
    50de:	0021      	movs	r1, r4
    50e0:	0028      	movs	r0, r5
    50e2:	f7fe ffed 	bl	40c0 <_free_r>
    50e6:	bd70      	pop	{r4, r5, r6, pc}
    50e8:	000106f0 	.word	0x000106f0

000050ec <frexp>:
    50ec:	b570      	push	{r4, r5, r6, lr}
    50ee:	0014      	movs	r4, r2
    50f0:	2500      	movs	r5, #0
    50f2:	6025      	str	r5, [r4, #0]
    50f4:	4d10      	ldr	r5, [pc, #64]	; (5138 <frexp+0x4c>)
    50f6:	004b      	lsls	r3, r1, #1
    50f8:	000a      	movs	r2, r1
    50fa:	085b      	lsrs	r3, r3, #1
    50fc:	42ab      	cmp	r3, r5
    50fe:	dc19      	bgt.n	5134 <frexp+0x48>
    5100:	001d      	movs	r5, r3
    5102:	4305      	orrs	r5, r0
    5104:	d016      	beq.n	5134 <frexp+0x48>
    5106:	4e0d      	ldr	r6, [pc, #52]	; (513c <frexp+0x50>)
    5108:	2500      	movs	r5, #0
    510a:	4231      	tst	r1, r6
    510c:	d107      	bne.n	511e <frexp+0x32>
    510e:	2200      	movs	r2, #0
    5110:	4b0b      	ldr	r3, [pc, #44]	; (5140 <frexp+0x54>)
    5112:	f003 febf 	bl	8e94 <__aeabi_dmul>
    5116:	000a      	movs	r2, r1
    5118:	004b      	lsls	r3, r1, #1
    511a:	085b      	lsrs	r3, r3, #1
    511c:	3d36      	subs	r5, #54	; 0x36
    511e:	4e09      	ldr	r6, [pc, #36]	; (5144 <frexp+0x58>)
    5120:	151b      	asrs	r3, r3, #20
    5122:	46b4      	mov	ip, r6
    5124:	4463      	add	r3, ip
    5126:	195b      	adds	r3, r3, r5
    5128:	6023      	str	r3, [r4, #0]
    512a:	4b07      	ldr	r3, [pc, #28]	; (5148 <frexp+0x5c>)
    512c:	401a      	ands	r2, r3
    512e:	4b07      	ldr	r3, [pc, #28]	; (514c <frexp+0x60>)
    5130:	4313      	orrs	r3, r2
    5132:	0019      	movs	r1, r3
    5134:	bd70      	pop	{r4, r5, r6, pc}
    5136:	46c0      	nop			; (mov r8, r8)
    5138:	7fefffff 	.word	0x7fefffff
    513c:	7ff00000 	.word	0x7ff00000
    5140:	43500000 	.word	0x43500000
    5144:	fffffc02 	.word	0xfffffc02
    5148:	800fffff 	.word	0x800fffff
    514c:	3fe00000 	.word	0x3fe00000

00005150 <__sread>:
    5150:	b570      	push	{r4, r5, r6, lr}
    5152:	000c      	movs	r4, r1
    5154:	250e      	movs	r5, #14
    5156:	5f49      	ldrsh	r1, [r1, r5]
    5158:	f001 fc3a 	bl	69d0 <_read_r>
    515c:	2800      	cmp	r0, #0
    515e:	db03      	blt.n	5168 <__sread+0x18>
    5160:	6d23      	ldr	r3, [r4, #80]	; 0x50
    5162:	181b      	adds	r3, r3, r0
    5164:	6523      	str	r3, [r4, #80]	; 0x50
    5166:	bd70      	pop	{r4, r5, r6, pc}
    5168:	89a3      	ldrh	r3, [r4, #12]
    516a:	4a02      	ldr	r2, [pc, #8]	; (5174 <__sread+0x24>)
    516c:	4013      	ands	r3, r2
    516e:	81a3      	strh	r3, [r4, #12]
    5170:	e7f9      	b.n	5166 <__sread+0x16>
    5172:	46c0      	nop			; (mov r8, r8)
    5174:	ffffefff 	.word	0xffffefff

00005178 <__seofread>:
    5178:	2000      	movs	r0, #0
    517a:	4770      	bx	lr

0000517c <__swrite>:
    517c:	b5f8      	push	{r3, r4, r5, r6, r7, lr}
    517e:	000c      	movs	r4, r1
    5180:	001f      	movs	r7, r3
    5182:	230c      	movs	r3, #12
    5184:	5ec9      	ldrsh	r1, [r1, r3]
    5186:	0005      	movs	r5, r0
    5188:	0016      	movs	r6, r2
    518a:	05cb      	lsls	r3, r1, #23
    518c:	d40a      	bmi.n	51a4 <__swrite+0x28>
    518e:	4b0a      	ldr	r3, [pc, #40]	; (51b8 <__swrite+0x3c>)
    5190:	0032      	movs	r2, r6
    5192:	4019      	ands	r1, r3
    5194:	0028      	movs	r0, r5
    5196:	81a1      	strh	r1, [r4, #12]
    5198:	230e      	movs	r3, #14
    519a:	5ee1      	ldrsh	r1, [r4, r3]
    519c:	003b      	movs	r3, r7
    519e:	f001 f809 	bl	61b4 <_write_r>
    51a2:	bdf8      	pop	{r3, r4, r5, r6, r7, pc}
    51a4:	230e      	movs	r3, #14
    51a6:	5ee1      	ldrsh	r1, [r4, r3]
    51a8:	2200      	movs	r2, #0
    51aa:	2302      	movs	r3, #2
    51ac:	f001 fb84 	bl	68b8 <_lseek_r>
    51b0:	230c      	movs	r3, #12
    51b2:	5ee1      	ldrsh	r1, [r4, r3]
    51b4:	e7eb      	b.n	518e <__swrite+0x12>
    51b6:	46c0      	nop			; (mov r8, r8)
    51b8:	ffffefff 	.word	0xffffefff

000051bc <__sseek>:
    51bc:	b570      	push	{r4, r5, r6, lr}
    51be:	000c      	movs	r4, r1
    51c0:	250e      	movs	r5, #14
    51c2:	5f49      	ldrsh	r1, [r1, r5]
    51c4:	f001 fb78 	bl	68b8 <_lseek_r>
    51c8:	1c43      	adds	r3, r0, #1
    51ca:	d006      	beq.n	51da <__sseek+0x1e>
    51cc:	2380      	movs	r3, #128	; 0x80
    51ce:	89a2      	ldrh	r2, [r4, #12]
    51d0:	015b      	lsls	r3, r3, #5
    51d2:	4313      	orrs	r3, r2
    51d4:	81a3      	strh	r3, [r4, #12]
    51d6:	6520      	str	r0, [r4, #80]	; 0x50
    51d8:	bd70      	pop	{r4, r5, r6, pc}
    51da:	89a3      	ldrh	r3, [r4, #12]
    51dc:	4a01      	ldr	r2, [pc, #4]	; (51e4 <__sseek+0x28>)
    51de:	4013      	ands	r3, r2
    51e0:	81a3      	strh	r3, [r4, #12]
    51e2:	e7f9      	b.n	51d8 <__sseek+0x1c>
    51e4:	ffffefff 	.word	0xffffefff

000051e8 <__sclose>:
    51e8:	b510      	push	{r4, lr}
    51ea:	230e      	movs	r3, #14
    51ec:	5ec9      	ldrsh	r1, [r1, r3]
    51ee:	f001 f81b 	bl	6228 <_close_r>
    51f2:	bd10      	pop	{r4, pc}

000051f4 <strlen>:
    51f4:	b510      	push	{r4, lr}
    51f6:	0783      	lsls	r3, r0, #30
    51f8:	d00a      	beq.n	5210 <strlen+0x1c>
    51fa:	0003      	movs	r3, r0
    51fc:	2103      	movs	r1, #3
    51fe:	e002      	b.n	5206 <strlen+0x12>
    5200:	3301      	adds	r3, #1
    5202:	420b      	tst	r3, r1
    5204:	d005      	beq.n	5212 <strlen+0x1e>
    5206:	781a      	ldrb	r2, [r3, #0]
    5208:	2a00      	cmp	r2, #0
    520a:	d1f9      	bne.n	5200 <strlen+0xc>
    520c:	1a18      	subs	r0, r3, r0
    520e:	bd10      	pop	{r4, pc}
    5210:	0003      	movs	r3, r0
    5212:	6819      	ldr	r1, [r3, #0]
    5214:	4a0c      	ldr	r2, [pc, #48]	; (5248 <strlen+0x54>)
    5216:	4c0d      	ldr	r4, [pc, #52]	; (524c <strlen+0x58>)
    5218:	188a      	adds	r2, r1, r2
    521a:	438a      	bics	r2, r1
    521c:	4222      	tst	r2, r4
    521e:	d10f      	bne.n	5240 <strlen+0x4c>
    5220:	6859      	ldr	r1, [r3, #4]
    5222:	4a09      	ldr	r2, [pc, #36]	; (5248 <strlen+0x54>)
    5224:	3304      	adds	r3, #4
    5226:	188a      	adds	r2, r1, r2
    5228:	438a      	bics	r2, r1
    522a:	4222      	tst	r2, r4
    522c:	d108      	bne.n	5240 <strlen+0x4c>
    522e:	6859      	ldr	r1, [r3, #4]
    5230:	4a05      	ldr	r2, [pc, #20]	; (5248 <strlen+0x54>)
    5232:	3304      	adds	r3, #4
    5234:	188a      	adds	r2, r1, r2
    5236:	438a      	bics	r2, r1
    5238:	4222      	tst	r2, r4
    523a:	d0f1      	beq.n	5220 <strlen+0x2c>
    523c:	e000      	b.n	5240 <strlen+0x4c>
    523e:	3301      	adds	r3, #1
    5240:	781a      	ldrb	r2, [r3, #0]
    5242:	2a00      	cmp	r2, #0
    5244:	d1fb      	bne.n	523e <strlen+0x4a>
    5246:	e7e1      	b.n	520c <strlen+0x18>
    5248:	fefefeff 	.word	0xfefefeff
    524c:	80808080 	.word	0x80808080

00005250 <strncpy>:
    5250:	b5f0      	push	{r4, r5, r6, r7, lr}
    5252:	000c      	movs	r4, r1
    5254:	4304      	orrs	r4, r0
    5256:	0003      	movs	r3, r0
    5258:	0007      	movs	r7, r0
    525a:	07a4      	lsls	r4, r4, #30
    525c:	d112      	bne.n	5284 <strncpy+0x34>
    525e:	2a03      	cmp	r2, #3
    5260:	d910      	bls.n	5284 <strncpy+0x34>
    5262:	4c14      	ldr	r4, [pc, #80]	; (52b4 <strncpy+0x64>)
    5264:	46a4      	mov	ip, r4
    5266:	4667      	mov	r7, ip
    5268:	680d      	ldr	r5, [r1, #0]
    526a:	4c13      	ldr	r4, [pc, #76]	; (52b8 <strncpy+0x68>)
    526c:	001e      	movs	r6, r3
    526e:	192c      	adds	r4, r5, r4
    5270:	43ac      	bics	r4, r5
    5272:	423c      	tst	r4, r7
    5274:	d11b      	bne.n	52ae <strncpy+0x5e>
    5276:	3304      	adds	r3, #4
    5278:	3a04      	subs	r2, #4
    527a:	001f      	movs	r7, r3
    527c:	3104      	adds	r1, #4
    527e:	6035      	str	r5, [r6, #0]
    5280:	2a03      	cmp	r2, #3
    5282:	d8f0      	bhi.n	5266 <strncpy+0x16>
    5284:	2400      	movs	r4, #0
    5286:	18be      	adds	r6, r7, r2
    5288:	e006      	b.n	5298 <strncpy+0x48>
    528a:	5d0d      	ldrb	r5, [r1, r4]
    528c:	3a01      	subs	r2, #1
    528e:	553d      	strb	r5, [r7, r4]
    5290:	1ab3      	subs	r3, r6, r2
    5292:	3401      	adds	r4, #1
    5294:	2d00      	cmp	r5, #0
    5296:	d002      	beq.n	529e <strncpy+0x4e>
    5298:	2a00      	cmp	r2, #0
    529a:	d1f6      	bne.n	528a <strncpy+0x3a>
    529c:	bdf0      	pop	{r4, r5, r6, r7, pc}
    529e:	2100      	movs	r1, #0
    52a0:	2a00      	cmp	r2, #0
    52a2:	d0fb      	beq.n	529c <strncpy+0x4c>
    52a4:	7019      	strb	r1, [r3, #0]
    52a6:	3301      	adds	r3, #1
    52a8:	429e      	cmp	r6, r3
    52aa:	d1fb      	bne.n	52a4 <strncpy+0x54>
    52ac:	e7f6      	b.n	529c <strncpy+0x4c>
    52ae:	001f      	movs	r7, r3
    52b0:	e7e8      	b.n	5284 <strncpy+0x34>
    52b2:	46c0      	nop			; (mov r8, r8)
    52b4:	80808080 	.word	0x80808080
    52b8:	fefefeff 	.word	0xfefefeff

000052bc <__sprint_r.part.0>:
    52bc:	b5f8      	push	{r3, r4, r5, r6, r7, lr}
    52be:	464e      	mov	r6, r9
    52c0:	4645      	mov	r5, r8
    52c2:	46de      	mov	lr, fp
    52c4:	4657      	mov	r7, sl
    52c6:	6e4b      	ldr	r3, [r1, #100]	; 0x64
    52c8:	b5e0      	push	{r5, r6, r7, lr}
    52ca:	4691      	mov	r9, r2
    52cc:	0006      	movs	r6, r0
    52ce:	000d      	movs	r5, r1
    52d0:	049b      	lsls	r3, r3, #18
    52d2:	d533      	bpl.n	533c <__sprint_r.part.0+0x80>
    52d4:	6813      	ldr	r3, [r2, #0]
    52d6:	469a      	mov	sl, r3
    52d8:	6893      	ldr	r3, [r2, #8]
    52da:	2b00      	cmp	r3, #0
    52dc:	d02c      	beq.n	5338 <__sprint_r.part.0+0x7c>
    52de:	4652      	mov	r2, sl
    52e0:	6812      	ldr	r2, [r2, #0]
    52e2:	4690      	mov	r8, r2
    52e4:	4652      	mov	r2, sl
    52e6:	6852      	ldr	r2, [r2, #4]
    52e8:	4693      	mov	fp, r2
    52ea:	0897      	lsrs	r7, r2, #2
    52ec:	d019      	beq.n	5322 <__sprint_r.part.0+0x66>
    52ee:	2400      	movs	r4, #0
    52f0:	e002      	b.n	52f8 <__sprint_r.part.0+0x3c>
    52f2:	3401      	adds	r4, #1
    52f4:	42a7      	cmp	r7, r4
    52f6:	d012      	beq.n	531e <__sprint_r.part.0+0x62>
    52f8:	4642      	mov	r2, r8
    52fa:	00a3      	lsls	r3, r4, #2
    52fc:	58d1      	ldr	r1, [r2, r3]
    52fe:	0030      	movs	r0, r6
    5300:	002a      	movs	r2, r5
    5302:	f001 f885 	bl	6410 <_fputwc_r>
    5306:	1c43      	adds	r3, r0, #1
    5308:	d1f3      	bne.n	52f2 <__sprint_r.part.0+0x36>
    530a:	464a      	mov	r2, r9
    530c:	2300      	movs	r3, #0
    530e:	6093      	str	r3, [r2, #8]
    5310:	6053      	str	r3, [r2, #4]
    5312:	bcf0      	pop	{r4, r5, r6, r7}
    5314:	46bb      	mov	fp, r7
    5316:	46b2      	mov	sl, r6
    5318:	46a9      	mov	r9, r5
    531a:	46a0      	mov	r8, r4
    531c:	bdf8      	pop	{r3, r4, r5, r6, r7, pc}
    531e:	464b      	mov	r3, r9
    5320:	689b      	ldr	r3, [r3, #8]
    5322:	465a      	mov	r2, fp
    5324:	2103      	movs	r1, #3
    5326:	438a      	bics	r2, r1
    5328:	1a9b      	subs	r3, r3, r2
    532a:	464a      	mov	r2, r9
    532c:	6093      	str	r3, [r2, #8]
    532e:	2208      	movs	r2, #8
    5330:	4694      	mov	ip, r2
    5332:	44e2      	add	sl, ip
    5334:	2b00      	cmp	r3, #0
    5336:	d1d2      	bne.n	52de <__sprint_r.part.0+0x22>
    5338:	2000      	movs	r0, #0
    533a:	e7e6      	b.n	530a <__sprint_r.part.0+0x4e>
    533c:	f001 f8e4 	bl	6508 <__sfvwrite_r>
    5340:	e7e3      	b.n	530a <__sprint_r.part.0+0x4e>
    5342:	46c0      	nop			; (mov r8, r8)

00005344 <__sprint_r>:
    5344:	6893      	ldr	r3, [r2, #8]
    5346:	b510      	push	{r4, lr}
    5348:	2b00      	cmp	r3, #0
    534a:	d002      	beq.n	5352 <__sprint_r+0xe>
    534c:	f7ff ffb6 	bl	52bc <__sprint_r.part.0>
    5350:	bd10      	pop	{r4, pc}
    5352:	2000      	movs	r0, #0
    5354:	6053      	str	r3, [r2, #4]
    5356:	e7fb      	b.n	5350 <__sprint_r+0xc>

00005358 <_vfiprintf_r>:
    5358:	b5f0      	push	{r4, r5, r6, r7, lr}
    535a:	46de      	mov	lr, fp
    535c:	4657      	mov	r7, sl
    535e:	464e      	mov	r6, r9
    5360:	4645      	mov	r5, r8
    5362:	b5e0      	push	{r5, r6, r7, lr}
    5364:	b0bf      	sub	sp, #252	; 0xfc
    5366:	468a      	mov	sl, r1
    5368:	4693      	mov	fp, r2
    536a:	001c      	movs	r4, r3
    536c:	9001      	str	r0, [sp, #4]
    536e:	9308      	str	r3, [sp, #32]
    5370:	2800      	cmp	r0, #0
    5372:	d004      	beq.n	537e <_vfiprintf_r+0x26>
    5374:	6b83      	ldr	r3, [r0, #56]	; 0x38
    5376:	9302      	str	r3, [sp, #8]
    5378:	2b00      	cmp	r3, #0
    537a:	d100      	bne.n	537e <_vfiprintf_r+0x26>
    537c:	e227      	b.n	57ce <_vfiprintf_r+0x476>
    537e:	4653      	mov	r3, sl
    5380:	6e5b      	ldr	r3, [r3, #100]	; 0x64
    5382:	07db      	lsls	r3, r3, #31
    5384:	d500      	bpl.n	5388 <_vfiprintf_r+0x30>
    5386:	e137      	b.n	55f8 <_vfiprintf_r+0x2a0>
    5388:	4653      	mov	r3, sl
    538a:	210c      	movs	r1, #12
    538c:	5e59      	ldrsh	r1, [r3, r1]
    538e:	4653      	mov	r3, sl
    5390:	899a      	ldrh	r2, [r3, #12]
    5392:	0593      	lsls	r3, r2, #22
    5394:	d400      	bmi.n	5398 <_vfiprintf_r+0x40>
    5396:	e12b      	b.n	55f0 <_vfiprintf_r+0x298>
    5398:	2380      	movs	r3, #128	; 0x80
    539a:	019b      	lsls	r3, r3, #6
    539c:	421a      	tst	r2, r3
    539e:	d109      	bne.n	53b4 <_vfiprintf_r+0x5c>
    53a0:	430b      	orrs	r3, r1
    53a2:	4652      	mov	r2, sl
    53a4:	4651      	mov	r1, sl
    53a6:	8193      	strh	r3, [r2, #12]
    53a8:	6e49      	ldr	r1, [r1, #100]	; 0x64
    53aa:	4a96      	ldr	r2, [pc, #600]	; (5604 <_vfiprintf_r+0x2ac>)
    53ac:	400a      	ands	r2, r1
    53ae:	4651      	mov	r1, sl
    53b0:	664a      	str	r2, [r1, #100]	; 0x64
    53b2:	b29a      	uxth	r2, r3
    53b4:	0713      	lsls	r3, r2, #28
    53b6:	d53d      	bpl.n	5434 <_vfiprintf_r+0xdc>
    53b8:	4653      	mov	r3, sl
    53ba:	691b      	ldr	r3, [r3, #16]
    53bc:	2b00      	cmp	r3, #0
    53be:	d039      	beq.n	5434 <_vfiprintf_r+0xdc>
    53c0:	231a      	movs	r3, #26
    53c2:	4013      	ands	r3, r2
    53c4:	2b0a      	cmp	r3, #10
    53c6:	d043      	beq.n	5450 <_vfiprintf_r+0xf8>
    53c8:	ab15      	add	r3, sp, #84	; 0x54
    53ca:	9312      	str	r3, [sp, #72]	; 0x48
    53cc:	2300      	movs	r3, #0
    53ce:	465d      	mov	r5, fp
    53d0:	46d3      	mov	fp, sl
    53d2:	9314      	str	r3, [sp, #80]	; 0x50
    53d4:	9313      	str	r3, [sp, #76]	; 0x4c
    53d6:	ae15      	add	r6, sp, #84	; 0x54
    53d8:	930c      	str	r3, [sp, #48]	; 0x30
    53da:	930b      	str	r3, [sp, #44]	; 0x2c
    53dc:	930e      	str	r3, [sp, #56]	; 0x38
    53de:	930d      	str	r3, [sp, #52]	; 0x34
    53e0:	9305      	str	r3, [sp, #20]
    53e2:	782b      	ldrb	r3, [r5, #0]
    53e4:	2b00      	cmp	r3, #0
    53e6:	d100      	bne.n	53ea <_vfiprintf_r+0x92>
    53e8:	e1a4      	b.n	5734 <_vfiprintf_r+0x3dc>
    53ea:	002c      	movs	r4, r5
    53ec:	e004      	b.n	53f8 <_vfiprintf_r+0xa0>
    53ee:	7863      	ldrb	r3, [r4, #1]
    53f0:	3401      	adds	r4, #1
    53f2:	2b00      	cmp	r3, #0
    53f4:	d100      	bne.n	53f8 <_vfiprintf_r+0xa0>
    53f6:	e0d9      	b.n	55ac <_vfiprintf_r+0x254>
    53f8:	2b25      	cmp	r3, #37	; 0x25
    53fa:	d1f8      	bne.n	53ee <_vfiprintf_r+0x96>
    53fc:	1b67      	subs	r7, r4, r5
    53fe:	42ac      	cmp	r4, r5
    5400:	d000      	beq.n	5404 <_vfiprintf_r+0xac>
    5402:	e0d7      	b.n	55b4 <_vfiprintf_r+0x25c>
    5404:	7823      	ldrb	r3, [r4, #0]
    5406:	2b00      	cmp	r3, #0
    5408:	d100      	bne.n	540c <_vfiprintf_r+0xb4>
    540a:	e193      	b.n	5734 <_vfiprintf_r+0x3dc>
    540c:	2300      	movs	r3, #0
    540e:	aa10      	add	r2, sp, #64	; 0x40
    5410:	70d3      	strb	r3, [r2, #3]
    5412:	3b01      	subs	r3, #1
    5414:	9302      	str	r3, [sp, #8]
    5416:	2300      	movs	r3, #0
    5418:	2700      	movs	r7, #0
    541a:	7862      	ldrb	r2, [r4, #1]
    541c:	1c65      	adds	r5, r4, #1
    541e:	9304      	str	r3, [sp, #16]
    5420:	3501      	adds	r5, #1
    5422:	0013      	movs	r3, r2
    5424:	3b20      	subs	r3, #32
    5426:	2b5a      	cmp	r3, #90	; 0x5a
    5428:	d900      	bls.n	542c <_vfiprintf_r+0xd4>
    542a:	e0f1      	b.n	5610 <_vfiprintf_r+0x2b8>
    542c:	4976      	ldr	r1, [pc, #472]	; (5608 <_vfiprintf_r+0x2b0>)
    542e:	009b      	lsls	r3, r3, #2
    5430:	58cb      	ldr	r3, [r1, r3]
    5432:	469f      	mov	pc, r3
    5434:	4651      	mov	r1, sl
    5436:	9801      	ldr	r0, [sp, #4]
    5438:	f7fd fa6e 	bl	2918 <__swsetup_r>
    543c:	4653      	mov	r3, sl
    543e:	2800      	cmp	r0, #0
    5440:	d001      	beq.n	5446 <_vfiprintf_r+0xee>
    5442:	f000 fe44 	bl	60ce <_vfiprintf_r+0xd76>
    5446:	899a      	ldrh	r2, [r3, #12]
    5448:	231a      	movs	r3, #26
    544a:	4013      	ands	r3, r2
    544c:	2b0a      	cmp	r3, #10
    544e:	d1bb      	bne.n	53c8 <_vfiprintf_r+0x70>
    5450:	4653      	mov	r3, sl
    5452:	210e      	movs	r1, #14
    5454:	5e5b      	ldrsh	r3, [r3, r1]
    5456:	2b00      	cmp	r3, #0
    5458:	dbb6      	blt.n	53c8 <_vfiprintf_r+0x70>
    545a:	4653      	mov	r3, sl
    545c:	6e5b      	ldr	r3, [r3, #100]	; 0x64
    545e:	07db      	lsls	r3, r3, #31
    5460:	d403      	bmi.n	546a <_vfiprintf_r+0x112>
    5462:	0593      	lsls	r3, r2, #22
    5464:	d401      	bmi.n	546a <_vfiprintf_r+0x112>
    5466:	f000 fe08 	bl	607a <_vfiprintf_r+0xd22>
    546a:	0023      	movs	r3, r4
    546c:	465a      	mov	r2, fp
    546e:	4651      	mov	r1, sl
    5470:	9801      	ldr	r0, [sp, #4]
    5472:	f000 fe59 	bl	6128 <__sbprintf>
    5476:	9005      	str	r0, [sp, #20]
    5478:	e174      	b.n	5764 <_vfiprintf_r+0x40c>
    547a:	9b01      	ldr	r3, [sp, #4]
    547c:	0018      	movs	r0, r3
    547e:	4698      	mov	r8, r3
    5480:	f7fe ff46 	bl	4310 <_localeconv_r>
    5484:	6843      	ldr	r3, [r0, #4]
    5486:	0018      	movs	r0, r3
    5488:	930d      	str	r3, [sp, #52]	; 0x34
    548a:	f7ff feb3 	bl	51f4 <strlen>
    548e:	900e      	str	r0, [sp, #56]	; 0x38
    5490:	0004      	movs	r4, r0
    5492:	4640      	mov	r0, r8
    5494:	f7fe ff3c 	bl	4310 <_localeconv_r>
    5498:	6883      	ldr	r3, [r0, #8]
    549a:	930b      	str	r3, [sp, #44]	; 0x2c
    549c:	2c00      	cmp	r4, #0
    549e:	d001      	beq.n	54a4 <_vfiprintf_r+0x14c>
    54a0:	f000 fcf7 	bl	5e92 <_vfiprintf_r+0xb3a>
    54a4:	782a      	ldrb	r2, [r5, #0]
    54a6:	e7bb      	b.n	5420 <_vfiprintf_r+0xc8>
    54a8:	2320      	movs	r3, #32
    54aa:	782a      	ldrb	r2, [r5, #0]
    54ac:	431f      	orrs	r7, r3
    54ae:	e7b7      	b.n	5420 <_vfiprintf_r+0xc8>
    54b0:	2310      	movs	r3, #16
    54b2:	431f      	orrs	r7, r3
    54b4:	9a08      	ldr	r2, [sp, #32]
    54b6:	06bb      	lsls	r3, r7, #26
    54b8:	d400      	bmi.n	54bc <_vfiprintf_r+0x164>
    54ba:	e17b      	b.n	57b4 <_vfiprintf_r+0x45c>
    54bc:	2307      	movs	r3, #7
    54be:	3207      	adds	r2, #7
    54c0:	439a      	bics	r2, r3
    54c2:	3301      	adds	r3, #1
    54c4:	469c      	mov	ip, r3
    54c6:	4494      	add	ip, r2
    54c8:	4663      	mov	r3, ip
    54ca:	9308      	str	r3, [sp, #32]
    54cc:	6853      	ldr	r3, [r2, #4]
    54ce:	6812      	ldr	r2, [r2, #0]
    54d0:	9307      	str	r3, [sp, #28]
    54d2:	9206      	str	r2, [sp, #24]
    54d4:	2b00      	cmp	r3, #0
    54d6:	da01      	bge.n	54dc <_vfiprintf_r+0x184>
    54d8:	f000 fc89 	bl	5dee <_vfiprintf_r+0xa96>
    54dc:	9b02      	ldr	r3, [sp, #8]
    54de:	46b9      	mov	r9, r7
    54e0:	3301      	adds	r3, #1
    54e2:	d009      	beq.n	54f8 <_vfiprintf_r+0x1a0>
    54e4:	2380      	movs	r3, #128	; 0x80
    54e6:	439f      	bics	r7, r3
    54e8:	9a06      	ldr	r2, [sp, #24]
    54ea:	9b07      	ldr	r3, [sp, #28]
    54ec:	0011      	movs	r1, r2
    54ee:	46b9      	mov	r9, r7
    54f0:	4319      	orrs	r1, r3
    54f2:	d101      	bne.n	54f8 <_vfiprintf_r+0x1a0>
    54f4:	f000 fc4f 	bl	5d96 <_vfiprintf_r+0xa3e>
    54f8:	9b06      	ldr	r3, [sp, #24]
    54fa:	9c07      	ldr	r4, [sp, #28]
    54fc:	2c00      	cmp	r4, #0
    54fe:	d000      	beq.n	5502 <_vfiprintf_r+0x1aa>
    5500:	e348      	b.n	5b94 <_vfiprintf_r+0x83c>
    5502:	2b09      	cmp	r3, #9
    5504:	d900      	bls.n	5508 <_vfiprintf_r+0x1b0>
    5506:	e345      	b.n	5b94 <_vfiprintf_r+0x83c>
    5508:	2263      	movs	r2, #99	; 0x63
    550a:	9b06      	ldr	r3, [sp, #24]
    550c:	a925      	add	r1, sp, #148	; 0x94
    550e:	3330      	adds	r3, #48	; 0x30
    5510:	548b      	strb	r3, [r1, r2]
    5512:	2301      	movs	r3, #1
    5514:	9303      	str	r3, [sp, #12]
    5516:	ab10      	add	r3, sp, #64	; 0x40
    5518:	24b7      	movs	r4, #183	; 0xb7
    551a:	469c      	mov	ip, r3
    551c:	464f      	mov	r7, r9
    551e:	4464      	add	r4, ip
    5520:	9b02      	ldr	r3, [sp, #8]
    5522:	9a03      	ldr	r2, [sp, #12]
    5524:	4699      	mov	r9, r3
    5526:	4293      	cmp	r3, r2
    5528:	da00      	bge.n	552c <_vfiprintf_r+0x1d4>
    552a:	4691      	mov	r9, r2
    552c:	ab10      	add	r3, sp, #64	; 0x40
    552e:	78db      	ldrb	r3, [r3, #3]
    5530:	1e5a      	subs	r2, r3, #1
    5532:	4193      	sbcs	r3, r2
    5534:	4499      	add	r9, r3
    5536:	e078      	b.n	562a <_vfiprintf_r+0x2d2>
    5538:	2310      	movs	r3, #16
    553a:	431f      	orrs	r7, r3
    553c:	06bb      	lsls	r3, r7, #26
    553e:	d400      	bmi.n	5542 <_vfiprintf_r+0x1ea>
    5540:	e12a      	b.n	5798 <_vfiprintf_r+0x440>
    5542:	2307      	movs	r3, #7
    5544:	9a08      	ldr	r2, [sp, #32]
    5546:	3207      	adds	r2, #7
    5548:	439a      	bics	r2, r3
    554a:	ca18      	ldmia	r2!, {r3, r4}
    554c:	9306      	str	r3, [sp, #24]
    554e:	9407      	str	r4, [sp, #28]
    5550:	9208      	str	r2, [sp, #32]
    5552:	4b2e      	ldr	r3, [pc, #184]	; (560c <_vfiprintf_r+0x2b4>)
    5554:	401f      	ands	r7, r3
    5556:	46b9      	mov	r9, r7
    5558:	2300      	movs	r3, #0
    555a:	2200      	movs	r2, #0
    555c:	a910      	add	r1, sp, #64	; 0x40
    555e:	70ca      	strb	r2, [r1, #3]
    5560:	9802      	ldr	r0, [sp, #8]
    5562:	1c42      	adds	r2, r0, #1
    5564:	d100      	bne.n	5568 <_vfiprintf_r+0x210>
    5566:	e1e5      	b.n	5934 <_vfiprintf_r+0x5dc>
    5568:	2280      	movs	r2, #128	; 0x80
    556a:	464f      	mov	r7, r9
    556c:	4397      	bics	r7, r2
    556e:	9906      	ldr	r1, [sp, #24]
    5570:	9a07      	ldr	r2, [sp, #28]
    5572:	000c      	movs	r4, r1
    5574:	4314      	orrs	r4, r2
    5576:	d000      	beq.n	557a <_vfiprintf_r+0x222>
    5578:	e1db      	b.n	5932 <_vfiprintf_r+0x5da>
    557a:	2800      	cmp	r0, #0
    557c:	d001      	beq.n	5582 <_vfiprintf_r+0x22a>
    557e:	f000 fd0e 	bl	5f9e <_vfiprintf_r+0xc46>
    5582:	2b00      	cmp	r3, #0
    5584:	d001      	beq.n	558a <_vfiprintf_r+0x232>
    5586:	f000 fc0b 	bl	5da0 <_vfiprintf_r+0xa48>
    558a:	464a      	mov	r2, r9
    558c:	3301      	adds	r3, #1
    558e:	401a      	ands	r2, r3
    5590:	9203      	str	r2, [sp, #12]
    5592:	464a      	mov	r2, r9
    5594:	ac3e      	add	r4, sp, #248	; 0xf8
    5596:	4213      	tst	r3, r2
    5598:	d0c2      	beq.n	5520 <_vfiprintf_r+0x1c8>
    559a:	2130      	movs	r1, #48	; 0x30
    559c:	3362      	adds	r3, #98	; 0x62
    559e:	aa25      	add	r2, sp, #148	; 0x94
    55a0:	54d1      	strb	r1, [r2, r3]
    55a2:	ab10      	add	r3, sp, #64	; 0x40
    55a4:	24b7      	movs	r4, #183	; 0xb7
    55a6:	469c      	mov	ip, r3
    55a8:	4464      	add	r4, ip
    55aa:	e7b9      	b.n	5520 <_vfiprintf_r+0x1c8>
    55ac:	1b67      	subs	r7, r4, r5
    55ae:	42ac      	cmp	r4, r5
    55b0:	d100      	bne.n	55b4 <_vfiprintf_r+0x25c>
    55b2:	e0bf      	b.n	5734 <_vfiprintf_r+0x3dc>
    55b4:	9b14      	ldr	r3, [sp, #80]	; 0x50
    55b6:	6035      	str	r5, [r6, #0]
    55b8:	18fa      	adds	r2, r7, r3
    55ba:	9b13      	ldr	r3, [sp, #76]	; 0x4c
    55bc:	6077      	str	r7, [r6, #4]
    55be:	9302      	str	r3, [sp, #8]
    55c0:	3301      	adds	r3, #1
    55c2:	9214      	str	r2, [sp, #80]	; 0x50
    55c4:	9313      	str	r3, [sp, #76]	; 0x4c
    55c6:	3608      	adds	r6, #8
    55c8:	2b07      	cmp	r3, #7
    55ca:	dd0b      	ble.n	55e4 <_vfiprintf_r+0x28c>
    55cc:	2a00      	cmp	r2, #0
    55ce:	d100      	bne.n	55d2 <_vfiprintf_r+0x27a>
    55d0:	e3de      	b.n	5d90 <_vfiprintf_r+0xa38>
    55d2:	4659      	mov	r1, fp
    55d4:	9801      	ldr	r0, [sp, #4]
    55d6:	aa12      	add	r2, sp, #72	; 0x48
    55d8:	f7ff fe70 	bl	52bc <__sprint_r.part.0>
    55dc:	2800      	cmp	r0, #0
    55de:	d000      	beq.n	55e2 <_vfiprintf_r+0x28a>
    55e0:	e292      	b.n	5b08 <_vfiprintf_r+0x7b0>
    55e2:	ae15      	add	r6, sp, #84	; 0x54
    55e4:	9b05      	ldr	r3, [sp, #20]
    55e6:	469c      	mov	ip, r3
    55e8:	44bc      	add	ip, r7
    55ea:	4663      	mov	r3, ip
    55ec:	9305      	str	r3, [sp, #20]
    55ee:	e709      	b.n	5404 <_vfiprintf_r+0xac>
    55f0:	4653      	mov	r3, sl
    55f2:	6d98      	ldr	r0, [r3, #88]	; 0x58
    55f4:	f7fe fe9e 	bl	4334 <__retarget_lock_acquire_recursive>
    55f8:	4653      	mov	r3, sl
    55fa:	210c      	movs	r1, #12
    55fc:	5e59      	ldrsh	r1, [r3, r1]
    55fe:	4653      	mov	r3, sl
    5600:	899a      	ldrh	r2, [r3, #12]
    5602:	e6c9      	b.n	5398 <_vfiprintf_r+0x40>
    5604:	ffffdfff 	.word	0xffffdfff
    5608:	0000a41c 	.word	0x0000a41c
    560c:	fffffbff 	.word	0xfffffbff
    5610:	2a00      	cmp	r2, #0
    5612:	d100      	bne.n	5616 <_vfiprintf_r+0x2be>
    5614:	e08e      	b.n	5734 <_vfiprintf_r+0x3dc>
    5616:	2300      	movs	r3, #0
    5618:	ac25      	add	r4, sp, #148	; 0x94
    561a:	7022      	strb	r2, [r4, #0]
    561c:	aa10      	add	r2, sp, #64	; 0x40
    561e:	70d3      	strb	r3, [r2, #3]
    5620:	3301      	adds	r3, #1
    5622:	4699      	mov	r9, r3
    5624:	9303      	str	r3, [sp, #12]
    5626:	2300      	movs	r3, #0
    5628:	9302      	str	r3, [sp, #8]
    562a:	2302      	movs	r3, #2
    562c:	001a      	movs	r2, r3
    562e:	403a      	ands	r2, r7
    5630:	9209      	str	r2, [sp, #36]	; 0x24
    5632:	423b      	tst	r3, r7
    5634:	d001      	beq.n	563a <_vfiprintf_r+0x2e2>
    5636:	469c      	mov	ip, r3
    5638:	44e1      	add	r9, ip
    563a:	2384      	movs	r3, #132	; 0x84
    563c:	001a      	movs	r2, r3
    563e:	403a      	ands	r2, r7
    5640:	920a      	str	r2, [sp, #40]	; 0x28
    5642:	423b      	tst	r3, r7
    5644:	d106      	bne.n	5654 <_vfiprintf_r+0x2fc>
    5646:	464a      	mov	r2, r9
    5648:	9b04      	ldr	r3, [sp, #16]
    564a:	1a9b      	subs	r3, r3, r2
    564c:	4698      	mov	r8, r3
    564e:	2b00      	cmp	r3, #0
    5650:	dd00      	ble.n	5654 <_vfiprintf_r+0x2fc>
    5652:	e2dd      	b.n	5c10 <_vfiprintf_r+0x8b8>
    5654:	9b13      	ldr	r3, [sp, #76]	; 0x4c
    5656:	9814      	ldr	r0, [sp, #80]	; 0x50
    5658:	469c      	mov	ip, r3
    565a:	1c59      	adds	r1, r3, #1
    565c:	ab10      	add	r3, sp, #64	; 0x40
    565e:	78db      	ldrb	r3, [r3, #3]
    5660:	2b00      	cmp	r3, #0
    5662:	d00d      	beq.n	5680 <_vfiprintf_r+0x328>
    5664:	ab10      	add	r3, sp, #64	; 0x40
    5666:	3303      	adds	r3, #3
    5668:	6033      	str	r3, [r6, #0]
    566a:	2301      	movs	r3, #1
    566c:	3001      	adds	r0, #1
    566e:	6073      	str	r3, [r6, #4]
    5670:	9014      	str	r0, [sp, #80]	; 0x50
    5672:	9113      	str	r1, [sp, #76]	; 0x4c
    5674:	2907      	cmp	r1, #7
    5676:	dd00      	ble.n	567a <_vfiprintf_r+0x322>
    5678:	e253      	b.n	5b22 <_vfiprintf_r+0x7ca>
    567a:	468c      	mov	ip, r1
    567c:	3608      	adds	r6, #8
    567e:	3101      	adds	r1, #1
    5680:	9b09      	ldr	r3, [sp, #36]	; 0x24
    5682:	2b00      	cmp	r3, #0
    5684:	d019      	beq.n	56ba <_vfiprintf_r+0x362>
    5686:	ab11      	add	r3, sp, #68	; 0x44
    5688:	6033      	str	r3, [r6, #0]
    568a:	2302      	movs	r3, #2
    568c:	3002      	adds	r0, #2
    568e:	6073      	str	r3, [r6, #4]
    5690:	9014      	str	r0, [sp, #80]	; 0x50
    5692:	9113      	str	r1, [sp, #76]	; 0x4c
    5694:	2907      	cmp	r1, #7
    5696:	dc00      	bgt.n	569a <_vfiprintf_r+0x342>
    5698:	e25a      	b.n	5b50 <_vfiprintf_r+0x7f8>
    569a:	2800      	cmp	r0, #0
    569c:	d100      	bne.n	56a0 <_vfiprintf_r+0x348>
    569e:	e3a1      	b.n	5de4 <_vfiprintf_r+0xa8c>
    56a0:	4659      	mov	r1, fp
    56a2:	9801      	ldr	r0, [sp, #4]
    56a4:	aa12      	add	r2, sp, #72	; 0x48
    56a6:	f7ff fe09 	bl	52bc <__sprint_r.part.0>
    56aa:	2800      	cmp	r0, #0
    56ac:	d000      	beq.n	56b0 <_vfiprintf_r+0x358>
    56ae:	e22b      	b.n	5b08 <_vfiprintf_r+0x7b0>
    56b0:	9b13      	ldr	r3, [sp, #76]	; 0x4c
    56b2:	9814      	ldr	r0, [sp, #80]	; 0x50
    56b4:	469c      	mov	ip, r3
    56b6:	1c59      	adds	r1, r3, #1
    56b8:	ae15      	add	r6, sp, #84	; 0x54
    56ba:	9b0a      	ldr	r3, [sp, #40]	; 0x28
    56bc:	2b80      	cmp	r3, #128	; 0x80
    56be:	d100      	bne.n	56c2 <_vfiprintf_r+0x36a>
    56c0:	e173      	b.n	59aa <_vfiprintf_r+0x652>
    56c2:	9b02      	ldr	r3, [sp, #8]
    56c4:	9a03      	ldr	r2, [sp, #12]
    56c6:	1a9b      	subs	r3, r3, r2
    56c8:	469a      	mov	sl, r3
    56ca:	2b00      	cmp	r3, #0
    56cc:	dd00      	ble.n	56d0 <_vfiprintf_r+0x378>
    56ce:	e1cb      	b.n	5a68 <_vfiprintf_r+0x710>
    56d0:	9b03      	ldr	r3, [sp, #12]
    56d2:	6034      	str	r4, [r6, #0]
    56d4:	469c      	mov	ip, r3
    56d6:	4460      	add	r0, ip
    56d8:	6073      	str	r3, [r6, #4]
    56da:	9014      	str	r0, [sp, #80]	; 0x50
    56dc:	9113      	str	r1, [sp, #76]	; 0x4c
    56de:	2907      	cmp	r1, #7
    56e0:	dc00      	bgt.n	56e4 <_vfiprintf_r+0x38c>
    56e2:	e160      	b.n	59a6 <_vfiprintf_r+0x64e>
    56e4:	2800      	cmp	r0, #0
    56e6:	d100      	bne.n	56ea <_vfiprintf_r+0x392>
    56e8:	e2e4      	b.n	5cb4 <_vfiprintf_r+0x95c>
    56ea:	4659      	mov	r1, fp
    56ec:	9801      	ldr	r0, [sp, #4]
    56ee:	aa12      	add	r2, sp, #72	; 0x48
    56f0:	f7ff fde4 	bl	52bc <__sprint_r.part.0>
    56f4:	2800      	cmp	r0, #0
    56f6:	d000      	beq.n	56fa <_vfiprintf_r+0x3a2>
    56f8:	e206      	b.n	5b08 <_vfiprintf_r+0x7b0>
    56fa:	9814      	ldr	r0, [sp, #80]	; 0x50
    56fc:	ae15      	add	r6, sp, #84	; 0x54
    56fe:	077b      	lsls	r3, r7, #29
    5700:	d505      	bpl.n	570e <_vfiprintf_r+0x3b6>
    5702:	464a      	mov	r2, r9
    5704:	9b04      	ldr	r3, [sp, #16]
    5706:	1a9c      	subs	r4, r3, r2
    5708:	2c00      	cmp	r4, #0
    570a:	dd00      	ble.n	570e <_vfiprintf_r+0x3b6>
    570c:	e2db      	b.n	5cc6 <_vfiprintf_r+0x96e>
    570e:	9b04      	ldr	r3, [sp, #16]
    5710:	454b      	cmp	r3, r9
    5712:	da00      	bge.n	5716 <_vfiprintf_r+0x3be>
    5714:	464b      	mov	r3, r9
    5716:	9a05      	ldr	r2, [sp, #20]
    5718:	4694      	mov	ip, r2
    571a:	449c      	add	ip, r3
    571c:	4663      	mov	r3, ip
    571e:	9305      	str	r3, [sp, #20]
    5720:	2800      	cmp	r0, #0
    5722:	d000      	beq.n	5726 <_vfiprintf_r+0x3ce>
    5724:	e1e8      	b.n	5af8 <_vfiprintf_r+0x7a0>
    5726:	2300      	movs	r3, #0
    5728:	9313      	str	r3, [sp, #76]	; 0x4c
    572a:	782b      	ldrb	r3, [r5, #0]
    572c:	ae15      	add	r6, sp, #84	; 0x54
    572e:	2b00      	cmp	r3, #0
    5730:	d000      	beq.n	5734 <_vfiprintf_r+0x3dc>
    5732:	e65a      	b.n	53ea <_vfiprintf_r+0x92>
    5734:	9b14      	ldr	r3, [sp, #80]	; 0x50
    5736:	46da      	mov	sl, fp
    5738:	9302      	str	r3, [sp, #8]
    573a:	2b00      	cmp	r3, #0
    573c:	d001      	beq.n	5742 <_vfiprintf_r+0x3ea>
    573e:	f000 fcb7 	bl	60b0 <_vfiprintf_r+0xd58>
    5742:	2300      	movs	r3, #0
    5744:	9313      	str	r3, [sp, #76]	; 0x4c
    5746:	4653      	mov	r3, sl
    5748:	6e5b      	ldr	r3, [r3, #100]	; 0x64
    574a:	07db      	lsls	r3, r3, #31
    574c:	d500      	bpl.n	5750 <_vfiprintf_r+0x3f8>
    574e:	e1e1      	b.n	5b14 <_vfiprintf_r+0x7bc>
    5750:	4653      	mov	r3, sl
    5752:	899b      	ldrh	r3, [r3, #12]
    5754:	059a      	lsls	r2, r3, #22
    5756:	d401      	bmi.n	575c <_vfiprintf_r+0x404>
    5758:	f000 fc19 	bl	5f8e <_vfiprintf_r+0xc36>
    575c:	065b      	lsls	r3, r3, #25
    575e:	d501      	bpl.n	5764 <_vfiprintf_r+0x40c>
    5760:	f000 fcc0 	bl	60e4 <_vfiprintf_r+0xd8c>
    5764:	9805      	ldr	r0, [sp, #20]
    5766:	b03f      	add	sp, #252	; 0xfc
    5768:	bcf0      	pop	{r4, r5, r6, r7}
    576a:	46bb      	mov	fp, r7
    576c:	46b2      	mov	sl, r6
    576e:	46a9      	mov	r9, r5
    5770:	46a0      	mov	r8, r4
    5772:	bdf0      	pop	{r4, r5, r6, r7, pc}
    5774:	3a30      	subs	r2, #48	; 0x30
    5776:	0028      	movs	r0, r5
    5778:	2300      	movs	r3, #0
    577a:	0011      	movs	r1, r2
    577c:	009a      	lsls	r2, r3, #2
    577e:	18d3      	adds	r3, r2, r3
    5780:	0002      	movs	r2, r0
    5782:	7812      	ldrb	r2, [r2, #0]
    5784:	005b      	lsls	r3, r3, #1
    5786:	18cb      	adds	r3, r1, r3
    5788:	0011      	movs	r1, r2
    578a:	3001      	adds	r0, #1
    578c:	3930      	subs	r1, #48	; 0x30
    578e:	0005      	movs	r5, r0
    5790:	2909      	cmp	r1, #9
    5792:	d9f3      	bls.n	577c <_vfiprintf_r+0x424>
    5794:	9304      	str	r3, [sp, #16]
    5796:	e644      	b.n	5422 <_vfiprintf_r+0xca>
    5798:	06fb      	lsls	r3, r7, #27
    579a:	d500      	bpl.n	579e <_vfiprintf_r+0x446>
    579c:	e351      	b.n	5e42 <_vfiprintf_r+0xaea>
    579e:	067b      	lsls	r3, r7, #25
    57a0:	d400      	bmi.n	57a4 <_vfiprintf_r+0x44c>
    57a2:	e34b      	b.n	5e3c <_vfiprintf_r+0xae4>
    57a4:	9a08      	ldr	r2, [sp, #32]
    57a6:	ca08      	ldmia	r2!, {r3}
    57a8:	b29b      	uxth	r3, r3
    57aa:	9306      	str	r3, [sp, #24]
    57ac:	2300      	movs	r3, #0
    57ae:	9208      	str	r2, [sp, #32]
    57b0:	9307      	str	r3, [sp, #28]
    57b2:	e6ce      	b.n	5552 <_vfiprintf_r+0x1fa>
    57b4:	06fb      	lsls	r3, r7, #27
    57b6:	d500      	bpl.n	57ba <_vfiprintf_r+0x462>
    57b8:	e34e      	b.n	5e58 <_vfiprintf_r+0xb00>
    57ba:	067b      	lsls	r3, r7, #25
    57bc:	d400      	bmi.n	57c0 <_vfiprintf_r+0x468>
    57be:	e348      	b.n	5e52 <_vfiprintf_r+0xafa>
    57c0:	ca08      	ldmia	r2!, {r3}
    57c2:	b21b      	sxth	r3, r3
    57c4:	9306      	str	r3, [sp, #24]
    57c6:	17db      	asrs	r3, r3, #31
    57c8:	9307      	str	r3, [sp, #28]
    57ca:	9208      	str	r2, [sp, #32]
    57cc:	e682      	b.n	54d4 <_vfiprintf_r+0x17c>
    57ce:	f7fe faed 	bl	3dac <__sinit>
    57d2:	e5d4      	b.n	537e <_vfiprintf_r+0x26>
    57d4:	9b08      	ldr	r3, [sp, #32]
    57d6:	aa10      	add	r2, sp, #64	; 0x40
    57d8:	cb10      	ldmia	r3!, {r4}
    57da:	4698      	mov	r8, r3
    57dc:	2300      	movs	r3, #0
    57de:	70d3      	strb	r3, [r2, #3]
    57e0:	2c00      	cmp	r4, #0
    57e2:	d101      	bne.n	57e8 <_vfiprintf_r+0x490>
    57e4:	f000 fbf5 	bl	5fd2 <_vfiprintf_r+0xc7a>
    57e8:	9a02      	ldr	r2, [sp, #8]
    57ea:	1c53      	adds	r3, r2, #1
    57ec:	d100      	bne.n	57f0 <_vfiprintf_r+0x498>
    57ee:	e38a      	b.n	5f06 <_vfiprintf_r+0xbae>
    57f0:	2100      	movs	r1, #0
    57f2:	0020      	movs	r0, r4
    57f4:	f7fe fe4a 	bl	448c <memchr>
    57f8:	2800      	cmp	r0, #0
    57fa:	d101      	bne.n	5800 <_vfiprintf_r+0x4a8>
    57fc:	f000 fc43 	bl	6086 <_vfiprintf_r+0xd2e>
    5800:	1b03      	subs	r3, r0, r4
    5802:	9303      	str	r3, [sp, #12]
    5804:	4643      	mov	r3, r8
    5806:	9308      	str	r3, [sp, #32]
    5808:	2300      	movs	r3, #0
    580a:	9302      	str	r3, [sp, #8]
    580c:	e688      	b.n	5520 <_vfiprintf_r+0x1c8>
    580e:	9a08      	ldr	r2, [sp, #32]
    5810:	ac25      	add	r4, sp, #148	; 0x94
    5812:	ca08      	ldmia	r2!, {r3}
    5814:	a910      	add	r1, sp, #64	; 0x40
    5816:	7023      	strb	r3, [r4, #0]
    5818:	2300      	movs	r3, #0
    581a:	70cb      	strb	r3, [r1, #3]
    581c:	3301      	adds	r3, #1
    581e:	4699      	mov	r9, r3
    5820:	9208      	str	r2, [sp, #32]
    5822:	9303      	str	r3, [sp, #12]
    5824:	e6ff      	b.n	5626 <_vfiprintf_r+0x2ce>
    5826:	9b08      	ldr	r3, [sp, #32]
    5828:	cb04      	ldmia	r3!, {r2}
    582a:	9204      	str	r2, [sp, #16]
    582c:	2a00      	cmp	r2, #0
    582e:	db00      	blt.n	5832 <_vfiprintf_r+0x4da>
    5830:	e2fd      	b.n	5e2e <_vfiprintf_r+0xad6>
    5832:	9a04      	ldr	r2, [sp, #16]
    5834:	9308      	str	r3, [sp, #32]
    5836:	4252      	negs	r2, r2
    5838:	9204      	str	r2, [sp, #16]
    583a:	2304      	movs	r3, #4
    583c:	782a      	ldrb	r2, [r5, #0]
    583e:	431f      	orrs	r7, r3
    5840:	e5ee      	b.n	5420 <_vfiprintf_r+0xc8>
    5842:	2310      	movs	r3, #16
    5844:	431f      	orrs	r7, r3
    5846:	46b9      	mov	r9, r7
    5848:	464b      	mov	r3, r9
    584a:	069b      	lsls	r3, r3, #26
    584c:	d400      	bmi.n	5850 <_vfiprintf_r+0x4f8>
    584e:	e2ad      	b.n	5dac <_vfiprintf_r+0xa54>
    5850:	2307      	movs	r3, #7
    5852:	9a08      	ldr	r2, [sp, #32]
    5854:	3207      	adds	r2, #7
    5856:	439a      	bics	r2, r3
    5858:	ca18      	ldmia	r2!, {r3, r4}
    585a:	9306      	str	r3, [sp, #24]
    585c:	9407      	str	r4, [sp, #28]
    585e:	9208      	str	r2, [sp, #32]
    5860:	2301      	movs	r3, #1
    5862:	e67a      	b.n	555a <_vfiprintf_r+0x202>
    5864:	782a      	ldrb	r2, [r5, #0]
    5866:	2a68      	cmp	r2, #104	; 0x68
    5868:	d100      	bne.n	586c <_vfiprintf_r+0x514>
    586a:	e3a4      	b.n	5fb6 <_vfiprintf_r+0xc5e>
    586c:	2340      	movs	r3, #64	; 0x40
    586e:	431f      	orrs	r7, r3
    5870:	e5d6      	b.n	5420 <_vfiprintf_r+0xc8>
    5872:	232b      	movs	r3, #43	; 0x2b
    5874:	aa10      	add	r2, sp, #64	; 0x40
    5876:	70d3      	strb	r3, [r2, #3]
    5878:	782a      	ldrb	r2, [r5, #0]
    587a:	e5d1      	b.n	5420 <_vfiprintf_r+0xc8>
    587c:	2380      	movs	r3, #128	; 0x80
    587e:	782a      	ldrb	r2, [r5, #0]
    5880:	431f      	orrs	r7, r3
    5882:	e5cd      	b.n	5420 <_vfiprintf_r+0xc8>
    5884:	782a      	ldrb	r2, [r5, #0]
    5886:	1c6b      	adds	r3, r5, #1
    5888:	2a2a      	cmp	r2, #42	; 0x2a
    588a:	d101      	bne.n	5890 <_vfiprintf_r+0x538>
    588c:	f000 fc2f 	bl	60ee <_vfiprintf_r+0xd96>
    5890:	0011      	movs	r1, r2
    5892:	2400      	movs	r4, #0
    5894:	3930      	subs	r1, #48	; 0x30
    5896:	0018      	movs	r0, r3
    5898:	001d      	movs	r5, r3
    589a:	9402      	str	r4, [sp, #8]
    589c:	2909      	cmp	r1, #9
    589e:	d900      	bls.n	58a2 <_vfiprintf_r+0x54a>
    58a0:	e5bf      	b.n	5422 <_vfiprintf_r+0xca>
    58a2:	2300      	movs	r3, #0
    58a4:	009a      	lsls	r2, r3, #2
    58a6:	18d3      	adds	r3, r2, r3
    58a8:	0002      	movs	r2, r0
    58aa:	7812      	ldrb	r2, [r2, #0]
    58ac:	005b      	lsls	r3, r3, #1
    58ae:	185b      	adds	r3, r3, r1
    58b0:	0011      	movs	r1, r2
    58b2:	3001      	adds	r0, #1
    58b4:	3930      	subs	r1, #48	; 0x30
    58b6:	0005      	movs	r5, r0
    58b8:	2909      	cmp	r1, #9
    58ba:	d9f3      	bls.n	58a4 <_vfiprintf_r+0x54c>
    58bc:	9302      	str	r3, [sp, #8]
    58be:	e5b0      	b.n	5422 <_vfiprintf_r+0xca>
    58c0:	2301      	movs	r3, #1
    58c2:	782a      	ldrb	r2, [r5, #0]
    58c4:	431f      	orrs	r7, r3
    58c6:	e5ab      	b.n	5420 <_vfiprintf_r+0xc8>
    58c8:	ab10      	add	r3, sp, #64	; 0x40
    58ca:	78db      	ldrb	r3, [r3, #3]
    58cc:	2b00      	cmp	r3, #0
    58ce:	d000      	beq.n	58d2 <_vfiprintf_r+0x57a>
    58d0:	e5e8      	b.n	54a4 <_vfiprintf_r+0x14c>
    58d2:	2320      	movs	r3, #32
    58d4:	aa10      	add	r2, sp, #64	; 0x40
    58d6:	70d3      	strb	r3, [r2, #3]
    58d8:	782a      	ldrb	r2, [r5, #0]
    58da:	e5a1      	b.n	5420 <_vfiprintf_r+0xc8>
    58dc:	9908      	ldr	r1, [sp, #32]
    58de:	2230      	movs	r2, #48	; 0x30
    58e0:	c908      	ldmia	r1!, {r3}
    58e2:	9306      	str	r3, [sp, #24]
    58e4:	2300      	movs	r3, #0
    58e6:	9307      	str	r3, [sp, #28]
    58e8:	3302      	adds	r3, #2
    58ea:	431f      	orrs	r7, r3
    58ec:	ab11      	add	r3, sp, #68	; 0x44
    58ee:	701a      	strb	r2, [r3, #0]
    58f0:	3248      	adds	r2, #72	; 0x48
    58f2:	705a      	strb	r2, [r3, #1]
    58f4:	4bce      	ldr	r3, [pc, #824]	; (5c30 <_vfiprintf_r+0x8d8>)
    58f6:	46b9      	mov	r9, r7
    58f8:	930c      	str	r3, [sp, #48]	; 0x30
    58fa:	9108      	str	r1, [sp, #32]
    58fc:	2302      	movs	r3, #2
    58fe:	e62c      	b.n	555a <_vfiprintf_r+0x202>
    5900:	06bb      	lsls	r3, r7, #26
    5902:	d500      	bpl.n	5906 <_vfiprintf_r+0x5ae>
    5904:	e2bc      	b.n	5e80 <_vfiprintf_r+0xb28>
    5906:	06fb      	lsls	r3, r7, #27
    5908:	d500      	bpl.n	590c <_vfiprintf_r+0x5b4>
    590a:	e35b      	b.n	5fc4 <_vfiprintf_r+0xc6c>
    590c:	067b      	lsls	r3, r7, #25
    590e:	d500      	bpl.n	5912 <_vfiprintf_r+0x5ba>
    5910:	e3ac      	b.n	606c <_vfiprintf_r+0xd14>
    5912:	05bb      	lsls	r3, r7, #22
    5914:	d400      	bmi.n	5918 <_vfiprintf_r+0x5c0>
    5916:	e355      	b.n	5fc4 <_vfiprintf_r+0xc6c>
    5918:	9a08      	ldr	r2, [sp, #32]
    591a:	9905      	ldr	r1, [sp, #20]
    591c:	ca08      	ldmia	r2!, {r3}
    591e:	7019      	strb	r1, [r3, #0]
    5920:	9208      	str	r2, [sp, #32]
    5922:	e55e      	b.n	53e2 <_vfiprintf_r+0x8a>
    5924:	782a      	ldrb	r2, [r5, #0]
    5926:	2a6c      	cmp	r2, #108	; 0x6c
    5928:	d100      	bne.n	592c <_vfiprintf_r+0x5d4>
    592a:	e33e      	b.n	5faa <_vfiprintf_r+0xc52>
    592c:	2310      	movs	r3, #16
    592e:	431f      	orrs	r7, r3
    5930:	e576      	b.n	5420 <_vfiprintf_r+0xc8>
    5932:	46b9      	mov	r9, r7
    5934:	2b01      	cmp	r3, #1
    5936:	d100      	bne.n	593a <_vfiprintf_r+0x5e2>
    5938:	e5de      	b.n	54f8 <_vfiprintf_r+0x1a0>
    593a:	ac3e      	add	r4, sp, #248	; 0xf8
    593c:	2b02      	cmp	r3, #2
    593e:	d100      	bne.n	5942 <_vfiprintf_r+0x5ea>
    5940:	e10b      	b.n	5b5a <_vfiprintf_r+0x802>
    5942:	2307      	movs	r3, #7
    5944:	46b2      	mov	sl, r6
    5946:	46a8      	mov	r8, r5
    5948:	469c      	mov	ip, r3
    594a:	9a06      	ldr	r2, [sp, #24]
    594c:	9b07      	ldr	r3, [sp, #28]
    594e:	075e      	lsls	r6, r3, #29
    5950:	08d7      	lsrs	r7, r2, #3
    5952:	4661      	mov	r1, ip
    5954:	08d8      	lsrs	r0, r3, #3
    5956:	433e      	orrs	r6, r7
    5958:	0003      	movs	r3, r0
    595a:	0030      	movs	r0, r6
    595c:	4011      	ands	r1, r2
    595e:	0025      	movs	r5, r4
    5960:	3130      	adds	r1, #48	; 0x30
    5962:	3c01      	subs	r4, #1
    5964:	0032      	movs	r2, r6
    5966:	7021      	strb	r1, [r4, #0]
    5968:	4318      	orrs	r0, r3
    596a:	d1f0      	bne.n	594e <_vfiprintf_r+0x5f6>
    596c:	9206      	str	r2, [sp, #24]
    596e:	9307      	str	r3, [sp, #28]
    5970:	464a      	mov	r2, r9
    5972:	002f      	movs	r7, r5
    5974:	4656      	mov	r6, sl
    5976:	4645      	mov	r5, r8
    5978:	07d2      	lsls	r2, r2, #31
    597a:	d400      	bmi.n	597e <_vfiprintf_r+0x626>
    597c:	e143      	b.n	5c06 <_vfiprintf_r+0x8ae>
    597e:	2930      	cmp	r1, #48	; 0x30
    5980:	d100      	bne.n	5984 <_vfiprintf_r+0x62c>
    5982:	e140      	b.n	5c06 <_vfiprintf_r+0x8ae>
    5984:	2230      	movs	r2, #48	; 0x30
    5986:	3c01      	subs	r4, #1
    5988:	1ebb      	subs	r3, r7, #2
    598a:	7022      	strb	r2, [r4, #0]
    598c:	aa3e      	add	r2, sp, #248	; 0xf8
    598e:	1ad2      	subs	r2, r2, r3
    5990:	464f      	mov	r7, r9
    5992:	001c      	movs	r4, r3
    5994:	9203      	str	r2, [sp, #12]
    5996:	e5c3      	b.n	5520 <_vfiprintf_r+0x1c8>
    5998:	2301      	movs	r3, #1
    599a:	9803      	ldr	r0, [sp, #12]
    599c:	9415      	str	r4, [sp, #84]	; 0x54
    599e:	9016      	str	r0, [sp, #88]	; 0x58
    59a0:	9014      	str	r0, [sp, #80]	; 0x50
    59a2:	9313      	str	r3, [sp, #76]	; 0x4c
    59a4:	ae15      	add	r6, sp, #84	; 0x54
    59a6:	3608      	adds	r6, #8
    59a8:	e6a9      	b.n	56fe <_vfiprintf_r+0x3a6>
    59aa:	464a      	mov	r2, r9
    59ac:	9b04      	ldr	r3, [sp, #16]
    59ae:	1a9b      	subs	r3, r3, r2
    59b0:	469a      	mov	sl, r3
    59b2:	2b00      	cmp	r3, #0
    59b4:	dc00      	bgt.n	59b8 <_vfiprintf_r+0x660>
    59b6:	e684      	b.n	56c2 <_vfiprintf_r+0x36a>
    59b8:	2b10      	cmp	r3, #16
    59ba:	dc00      	bgt.n	59be <_vfiprintf_r+0x666>
    59bc:	e383      	b.n	60c6 <_vfiprintf_r+0xd6e>
    59be:	4b9d      	ldr	r3, [pc, #628]	; (5c34 <_vfiprintf_r+0x8dc>)
    59c0:	46a0      	mov	r8, r4
    59c2:	0031      	movs	r1, r6
    59c4:	4654      	mov	r4, sl
    59c6:	4662      	mov	r2, ip
    59c8:	46ba      	mov	sl, r7
    59ca:	465f      	mov	r7, fp
    59cc:	46ab      	mov	fp, r5
    59ce:	001d      	movs	r5, r3
    59d0:	e005      	b.n	59de <_vfiprintf_r+0x686>
    59d2:	1c96      	adds	r6, r2, #2
    59d4:	001a      	movs	r2, r3
    59d6:	3108      	adds	r1, #8
    59d8:	3c10      	subs	r4, #16
    59da:	2c10      	cmp	r4, #16
    59dc:	dd1a      	ble.n	5a14 <_vfiprintf_r+0x6bc>
    59de:	2310      	movs	r3, #16
    59e0:	3010      	adds	r0, #16
    59e2:	604b      	str	r3, [r1, #4]
    59e4:	1c53      	adds	r3, r2, #1
    59e6:	600d      	str	r5, [r1, #0]
    59e8:	9014      	str	r0, [sp, #80]	; 0x50
    59ea:	9313      	str	r3, [sp, #76]	; 0x4c
    59ec:	2b07      	cmp	r3, #7
    59ee:	ddf0      	ble.n	59d2 <_vfiprintf_r+0x67a>
    59f0:	2800      	cmp	r0, #0
    59f2:	d100      	bne.n	59f6 <_vfiprintf_r+0x69e>
    59f4:	e091      	b.n	5b1a <_vfiprintf_r+0x7c2>
    59f6:	0039      	movs	r1, r7
    59f8:	9801      	ldr	r0, [sp, #4]
    59fa:	aa12      	add	r2, sp, #72	; 0x48
    59fc:	f7ff fc5e 	bl	52bc <__sprint_r.part.0>
    5a00:	2800      	cmp	r0, #0
    5a02:	d000      	beq.n	5a06 <_vfiprintf_r+0x6ae>
    5a04:	e1b1      	b.n	5d6a <_vfiprintf_r+0xa12>
    5a06:	9a13      	ldr	r2, [sp, #76]	; 0x4c
    5a08:	3c10      	subs	r4, #16
    5a0a:	9814      	ldr	r0, [sp, #80]	; 0x50
    5a0c:	1c56      	adds	r6, r2, #1
    5a0e:	a915      	add	r1, sp, #84	; 0x54
    5a10:	2c10      	cmp	r4, #16
    5a12:	dce4      	bgt.n	59de <_vfiprintf_r+0x686>
    5a14:	002b      	movs	r3, r5
    5a16:	46b4      	mov	ip, r6
    5a18:	465d      	mov	r5, fp
    5a1a:	000e      	movs	r6, r1
    5a1c:	46bb      	mov	fp, r7
    5a1e:	4657      	mov	r7, sl
    5a20:	46a2      	mov	sl, r4
    5a22:	4644      	mov	r4, r8
    5a24:	4698      	mov	r8, r3
    5a26:	4643      	mov	r3, r8
    5a28:	6033      	str	r3, [r6, #0]
    5a2a:	4653      	mov	r3, sl
    5a2c:	6073      	str	r3, [r6, #4]
    5a2e:	4663      	mov	r3, ip
    5a30:	4450      	add	r0, sl
    5a32:	9014      	str	r0, [sp, #80]	; 0x50
    5a34:	9313      	str	r3, [sp, #76]	; 0x4c
    5a36:	2b07      	cmp	r3, #7
    5a38:	dc00      	bgt.n	5a3c <_vfiprintf_r+0x6e4>
    5a3a:	e1fc      	b.n	5e36 <_vfiprintf_r+0xade>
    5a3c:	2800      	cmp	r0, #0
    5a3e:	d100      	bne.n	5a42 <_vfiprintf_r+0x6ea>
    5a40:	e2d9      	b.n	5ff6 <_vfiprintf_r+0xc9e>
    5a42:	4659      	mov	r1, fp
    5a44:	9801      	ldr	r0, [sp, #4]
    5a46:	aa12      	add	r2, sp, #72	; 0x48
    5a48:	f7ff fc38 	bl	52bc <__sprint_r.part.0>
    5a4c:	2800      	cmp	r0, #0
    5a4e:	d15b      	bne.n	5b08 <_vfiprintf_r+0x7b0>
    5a50:	9b13      	ldr	r3, [sp, #76]	; 0x4c
    5a52:	9a03      	ldr	r2, [sp, #12]
    5a54:	469c      	mov	ip, r3
    5a56:	1c59      	adds	r1, r3, #1
    5a58:	9b02      	ldr	r3, [sp, #8]
    5a5a:	9814      	ldr	r0, [sp, #80]	; 0x50
    5a5c:	1a9b      	subs	r3, r3, r2
    5a5e:	469a      	mov	sl, r3
    5a60:	ae15      	add	r6, sp, #84	; 0x54
    5a62:	2b00      	cmp	r3, #0
    5a64:	dc00      	bgt.n	5a68 <_vfiprintf_r+0x710>
    5a66:	e633      	b.n	56d0 <_vfiprintf_r+0x378>
    5a68:	2b10      	cmp	r3, #16
    5a6a:	dc00      	bgt.n	5a6e <_vfiprintf_r+0x716>
    5a6c:	e2bc      	b.n	5fe8 <_vfiprintf_r+0xc90>
    5a6e:	4b71      	ldr	r3, [pc, #452]	; (5c34 <_vfiprintf_r+0x8dc>)
    5a70:	46a0      	mov	r8, r4
    5a72:	0031      	movs	r1, r6
    5a74:	4654      	mov	r4, sl
    5a76:	4662      	mov	r2, ip
    5a78:	46ba      	mov	sl, r7
    5a7a:	465f      	mov	r7, fp
    5a7c:	46ab      	mov	fp, r5
    5a7e:	001d      	movs	r5, r3
    5a80:	e005      	b.n	5a8e <_vfiprintf_r+0x736>
    5a82:	1c96      	adds	r6, r2, #2
    5a84:	001a      	movs	r2, r3
    5a86:	3108      	adds	r1, #8
    5a88:	3c10      	subs	r4, #16
    5a8a:	2c10      	cmp	r4, #16
    5a8c:	dd19      	ble.n	5ac2 <_vfiprintf_r+0x76a>
    5a8e:	2310      	movs	r3, #16
    5a90:	3010      	adds	r0, #16
    5a92:	604b      	str	r3, [r1, #4]
    5a94:	1c53      	adds	r3, r2, #1
    5a96:	600d      	str	r5, [r1, #0]
    5a98:	9014      	str	r0, [sp, #80]	; 0x50
    5a9a:	9313      	str	r3, [sp, #76]	; 0x4c
    5a9c:	2b07      	cmp	r3, #7
    5a9e:	ddf0      	ble.n	5a82 <_vfiprintf_r+0x72a>
    5aa0:	2800      	cmp	r0, #0
    5aa2:	d025      	beq.n	5af0 <_vfiprintf_r+0x798>
    5aa4:	0039      	movs	r1, r7
    5aa6:	9801      	ldr	r0, [sp, #4]
    5aa8:	aa12      	add	r2, sp, #72	; 0x48
    5aaa:	f7ff fc07 	bl	52bc <__sprint_r.part.0>
    5aae:	2800      	cmp	r0, #0
    5ab0:	d000      	beq.n	5ab4 <_vfiprintf_r+0x75c>
    5ab2:	e15a      	b.n	5d6a <_vfiprintf_r+0xa12>
    5ab4:	9a13      	ldr	r2, [sp, #76]	; 0x4c
    5ab6:	3c10      	subs	r4, #16
    5ab8:	9814      	ldr	r0, [sp, #80]	; 0x50
    5aba:	1c56      	adds	r6, r2, #1
    5abc:	a915      	add	r1, sp, #84	; 0x54
    5abe:	2c10      	cmp	r4, #16
    5ac0:	dce5      	bgt.n	5a8e <_vfiprintf_r+0x736>
    5ac2:	0032      	movs	r2, r6
    5ac4:	002b      	movs	r3, r5
    5ac6:	000e      	movs	r6, r1
    5ac8:	465d      	mov	r5, fp
    5aca:	0011      	movs	r1, r2
    5acc:	46bb      	mov	fp, r7
    5ace:	4657      	mov	r7, sl
    5ad0:	46a2      	mov	sl, r4
    5ad2:	4644      	mov	r4, r8
    5ad4:	4698      	mov	r8, r3
    5ad6:	4643      	mov	r3, r8
    5ad8:	6033      	str	r3, [r6, #0]
    5ada:	4653      	mov	r3, sl
    5adc:	4450      	add	r0, sl
    5ade:	6073      	str	r3, [r6, #4]
    5ae0:	9014      	str	r0, [sp, #80]	; 0x50
    5ae2:	9113      	str	r1, [sp, #76]	; 0x4c
    5ae4:	2907      	cmp	r1, #7
    5ae6:	dd00      	ble.n	5aea <_vfiprintf_r+0x792>
    5ae8:	e141      	b.n	5d6e <_vfiprintf_r+0xa16>
    5aea:	3608      	adds	r6, #8
    5aec:	3101      	adds	r1, #1
    5aee:	e5ef      	b.n	56d0 <_vfiprintf_r+0x378>
    5af0:	2601      	movs	r6, #1
    5af2:	2200      	movs	r2, #0
    5af4:	a915      	add	r1, sp, #84	; 0x54
    5af6:	e7c7      	b.n	5a88 <_vfiprintf_r+0x730>
    5af8:	4659      	mov	r1, fp
    5afa:	9801      	ldr	r0, [sp, #4]
    5afc:	aa12      	add	r2, sp, #72	; 0x48
    5afe:	f7ff fbdd 	bl	52bc <__sprint_r.part.0>
    5b02:	2800      	cmp	r0, #0
    5b04:	d100      	bne.n	5b08 <_vfiprintf_r+0x7b0>
    5b06:	e60e      	b.n	5726 <_vfiprintf_r+0x3ce>
    5b08:	46da      	mov	sl, fp
    5b0a:	4653      	mov	r3, sl
    5b0c:	6e5b      	ldr	r3, [r3, #100]	; 0x64
    5b0e:	07db      	lsls	r3, r3, #31
    5b10:	d400      	bmi.n	5b14 <_vfiprintf_r+0x7bc>
    5b12:	e61d      	b.n	5750 <_vfiprintf_r+0x3f8>
    5b14:	4653      	mov	r3, sl
    5b16:	899b      	ldrh	r3, [r3, #12]
    5b18:	e620      	b.n	575c <_vfiprintf_r+0x404>
    5b1a:	2601      	movs	r6, #1
    5b1c:	2200      	movs	r2, #0
    5b1e:	a915      	add	r1, sp, #84	; 0x54
    5b20:	e75a      	b.n	59d8 <_vfiprintf_r+0x680>
    5b22:	2800      	cmp	r0, #0
    5b24:	d100      	bne.n	5b28 <_vfiprintf_r+0x7d0>
    5b26:	e151      	b.n	5dcc <_vfiprintf_r+0xa74>
    5b28:	4659      	mov	r1, fp
    5b2a:	9801      	ldr	r0, [sp, #4]
    5b2c:	aa12      	add	r2, sp, #72	; 0x48
    5b2e:	f7ff fbc5 	bl	52bc <__sprint_r.part.0>
    5b32:	2800      	cmp	r0, #0
    5b34:	d1e8      	bne.n	5b08 <_vfiprintf_r+0x7b0>
    5b36:	9b13      	ldr	r3, [sp, #76]	; 0x4c
    5b38:	9814      	ldr	r0, [sp, #80]	; 0x50
    5b3a:	469c      	mov	ip, r3
    5b3c:	1c59      	adds	r1, r3, #1
    5b3e:	ae15      	add	r6, sp, #84	; 0x54
    5b40:	e59e      	b.n	5680 <_vfiprintf_r+0x328>
    5b42:	ab11      	add	r3, sp, #68	; 0x44
    5b44:	9315      	str	r3, [sp, #84]	; 0x54
    5b46:	2302      	movs	r3, #2
    5b48:	2101      	movs	r1, #1
    5b4a:	2002      	movs	r0, #2
    5b4c:	9316      	str	r3, [sp, #88]	; 0x58
    5b4e:	ae15      	add	r6, sp, #84	; 0x54
    5b50:	468c      	mov	ip, r1
    5b52:	4663      	mov	r3, ip
    5b54:	3608      	adds	r6, #8
    5b56:	1c59      	adds	r1, r3, #1
    5b58:	e5af      	b.n	56ba <_vfiprintf_r+0x362>
    5b5a:	200f      	movs	r0, #15
    5b5c:	9a06      	ldr	r2, [sp, #24]
    5b5e:	9b07      	ldr	r3, [sp, #28]
    5b60:	46a8      	mov	r8, r5
    5b62:	46b4      	mov	ip, r6
    5b64:	9e0c      	ldr	r6, [sp, #48]	; 0x30
    5b66:	0001      	movs	r1, r0
    5b68:	4011      	ands	r1, r2
    5b6a:	5c71      	ldrb	r1, [r6, r1]
    5b6c:	071d      	lsls	r5, r3, #28
    5b6e:	0917      	lsrs	r7, r2, #4
    5b70:	3c01      	subs	r4, #1
    5b72:	433d      	orrs	r5, r7
    5b74:	7021      	strb	r1, [r4, #0]
    5b76:	0919      	lsrs	r1, r3, #4
    5b78:	000b      	movs	r3, r1
    5b7a:	0029      	movs	r1, r5
    5b7c:	002a      	movs	r2, r5
    5b7e:	4319      	orrs	r1, r3
    5b80:	d1f1      	bne.n	5b66 <_vfiprintf_r+0x80e>
    5b82:	9206      	str	r2, [sp, #24]
    5b84:	9307      	str	r3, [sp, #28]
    5b86:	ab3e      	add	r3, sp, #248	; 0xf8
    5b88:	1b1b      	subs	r3, r3, r4
    5b8a:	4666      	mov	r6, ip
    5b8c:	4645      	mov	r5, r8
    5b8e:	464f      	mov	r7, r9
    5b90:	9303      	str	r3, [sp, #12]
    5b92:	e4c5      	b.n	5520 <_vfiprintf_r+0x1c8>
    5b94:	2380      	movs	r3, #128	; 0x80
    5b96:	464a      	mov	r2, r9
    5b98:	00db      	lsls	r3, r3, #3
    5b9a:	2700      	movs	r7, #0
    5b9c:	401a      	ands	r2, r3
    5b9e:	464b      	mov	r3, r9
    5ba0:	46aa      	mov	sl, r5
    5ba2:	46b1      	mov	r9, r6
    5ba4:	003d      	movs	r5, r7
    5ba6:	9e06      	ldr	r6, [sp, #24]
    5ba8:	9f07      	ldr	r7, [sp, #28]
    5baa:	4690      	mov	r8, r2
    5bac:	ac3e      	add	r4, sp, #248	; 0xf8
    5bae:	9303      	str	r3, [sp, #12]
    5bb0:	e00a      	b.n	5bc8 <_vfiprintf_r+0x870>
    5bb2:	220a      	movs	r2, #10
    5bb4:	2300      	movs	r3, #0
    5bb6:	0030      	movs	r0, r6
    5bb8:	0039      	movs	r1, r7
    5bba:	f001 fcf7 	bl	75ac <__aeabi_uldivmod>
    5bbe:	2f00      	cmp	r7, #0
    5bc0:	d100      	bne.n	5bc4 <_vfiprintf_r+0x86c>
    5bc2:	e214      	b.n	5fee <_vfiprintf_r+0xc96>
    5bc4:	0006      	movs	r6, r0
    5bc6:	000f      	movs	r7, r1
    5bc8:	220a      	movs	r2, #10
    5bca:	2300      	movs	r3, #0
    5bcc:	0030      	movs	r0, r6
    5bce:	0039      	movs	r1, r7
    5bd0:	f001 fcec 	bl	75ac <__aeabi_uldivmod>
    5bd4:	4643      	mov	r3, r8
    5bd6:	3c01      	subs	r4, #1
    5bd8:	3230      	adds	r2, #48	; 0x30
    5bda:	7022      	strb	r2, [r4, #0]
    5bdc:	3501      	adds	r5, #1
    5bde:	2b00      	cmp	r3, #0
    5be0:	d0e7      	beq.n	5bb2 <_vfiprintf_r+0x85a>
    5be2:	9b0b      	ldr	r3, [sp, #44]	; 0x2c
    5be4:	781b      	ldrb	r3, [r3, #0]
    5be6:	42ab      	cmp	r3, r5
    5be8:	d1e3      	bne.n	5bb2 <_vfiprintf_r+0x85a>
    5bea:	2dff      	cmp	r5, #255	; 0xff
    5bec:	d0e1      	beq.n	5bb2 <_vfiprintf_r+0x85a>
    5bee:	2f00      	cmp	r7, #0
    5bf0:	d000      	beq.n	5bf4 <_vfiprintf_r+0x89c>
    5bf2:	e1a0      	b.n	5f36 <_vfiprintf_r+0xbde>
    5bf4:	2e09      	cmp	r6, #9
    5bf6:	d900      	bls.n	5bfa <_vfiprintf_r+0x8a2>
    5bf8:	e19d      	b.n	5f36 <_vfiprintf_r+0xbde>
    5bfa:	9b03      	ldr	r3, [sp, #12]
    5bfc:	9606      	str	r6, [sp, #24]
    5bfe:	9707      	str	r7, [sp, #28]
    5c00:	4655      	mov	r5, sl
    5c02:	464e      	mov	r6, r9
    5c04:	4699      	mov	r9, r3
    5c06:	ab3e      	add	r3, sp, #248	; 0xf8
    5c08:	1b1b      	subs	r3, r3, r4
    5c0a:	464f      	mov	r7, r9
    5c0c:	9303      	str	r3, [sp, #12]
    5c0e:	e487      	b.n	5520 <_vfiprintf_r+0x1c8>
    5c10:	9814      	ldr	r0, [sp, #80]	; 0x50
    5c12:	2b10      	cmp	r3, #16
    5c14:	dc00      	bgt.n	5c18 <_vfiprintf_r+0x8c0>
    5c16:	e23e      	b.n	6096 <_vfiprintf_r+0xd3e>
    5c18:	46a4      	mov	ip, r4
    5c1a:	4b07      	ldr	r3, [pc, #28]	; (5c38 <_vfiprintf_r+0x8e0>)
    5c1c:	4644      	mov	r4, r8
    5c1e:	46ba      	mov	sl, r7
    5c20:	0032      	movs	r2, r6
    5c22:	465f      	mov	r7, fp
    5c24:	46e0      	mov	r8, ip
    5c26:	46ab      	mov	fp, r5
    5c28:	9913      	ldr	r1, [sp, #76]	; 0x4c
    5c2a:	001d      	movs	r5, r3
    5c2c:	e00c      	b.n	5c48 <_vfiprintf_r+0x8f0>
    5c2e:	46c0      	nop			; (mov r8, r8)
    5c30:	0000a400 	.word	0x0000a400
    5c34:	0000a17c 	.word	0x0000a17c
    5c38:	0000a15c 	.word	0x0000a15c
    5c3c:	1c8e      	adds	r6, r1, #2
    5c3e:	0019      	movs	r1, r3
    5c40:	3208      	adds	r2, #8
    5c42:	3c10      	subs	r4, #16
    5c44:	2c10      	cmp	r4, #16
    5c46:	dd18      	ble.n	5c7a <_vfiprintf_r+0x922>
    5c48:	2310      	movs	r3, #16
    5c4a:	3010      	adds	r0, #16
    5c4c:	6053      	str	r3, [r2, #4]
    5c4e:	1c4b      	adds	r3, r1, #1
    5c50:	6015      	str	r5, [r2, #0]
    5c52:	9014      	str	r0, [sp, #80]	; 0x50
    5c54:	9313      	str	r3, [sp, #76]	; 0x4c
    5c56:	2b07      	cmp	r3, #7
    5c58:	ddf0      	ble.n	5c3c <_vfiprintf_r+0x8e4>
    5c5a:	2800      	cmp	r0, #0
    5c5c:	d026      	beq.n	5cac <_vfiprintf_r+0x954>
    5c5e:	0039      	movs	r1, r7
    5c60:	9801      	ldr	r0, [sp, #4]
    5c62:	aa12      	add	r2, sp, #72	; 0x48
    5c64:	f7ff fb2a 	bl	52bc <__sprint_r.part.0>
    5c68:	2800      	cmp	r0, #0
    5c6a:	d17e      	bne.n	5d6a <_vfiprintf_r+0xa12>
    5c6c:	9913      	ldr	r1, [sp, #76]	; 0x4c
    5c6e:	3c10      	subs	r4, #16
    5c70:	9814      	ldr	r0, [sp, #80]	; 0x50
    5c72:	1c4e      	adds	r6, r1, #1
    5c74:	aa15      	add	r2, sp, #84	; 0x54
    5c76:	2c10      	cmp	r4, #16
    5c78:	dce6      	bgt.n	5c48 <_vfiprintf_r+0x8f0>
    5c7a:	4643      	mov	r3, r8
    5c7c:	0029      	movs	r1, r5
    5c7e:	46a0      	mov	r8, r4
    5c80:	0034      	movs	r4, r6
    5c82:	465d      	mov	r5, fp
    5c84:	46a4      	mov	ip, r4
    5c86:	46bb      	mov	fp, r7
    5c88:	0016      	movs	r6, r2
    5c8a:	4657      	mov	r7, sl
    5c8c:	001c      	movs	r4, r3
    5c8e:	468a      	mov	sl, r1
    5c90:	4653      	mov	r3, sl
    5c92:	6033      	str	r3, [r6, #0]
    5c94:	4643      	mov	r3, r8
    5c96:	6073      	str	r3, [r6, #4]
    5c98:	4663      	mov	r3, ip
    5c9a:	4440      	add	r0, r8
    5c9c:	9014      	str	r0, [sp, #80]	; 0x50
    5c9e:	9313      	str	r3, [sp, #76]	; 0x4c
    5ca0:	2b07      	cmp	r3, #7
    5ca2:	dd00      	ble.n	5ca6 <_vfiprintf_r+0x94e>
    5ca4:	e0b1      	b.n	5e0a <_vfiprintf_r+0xab2>
    5ca6:	3608      	adds	r6, #8
    5ca8:	1c59      	adds	r1, r3, #1
    5caa:	e4d7      	b.n	565c <_vfiprintf_r+0x304>
    5cac:	2100      	movs	r1, #0
    5cae:	2601      	movs	r6, #1
    5cb0:	aa15      	add	r2, sp, #84	; 0x54
    5cb2:	e7c6      	b.n	5c42 <_vfiprintf_r+0x8ea>
    5cb4:	9013      	str	r0, [sp, #76]	; 0x4c
    5cb6:	077b      	lsls	r3, r7, #29
    5cb8:	d54d      	bpl.n	5d56 <_vfiprintf_r+0x9fe>
    5cba:	464a      	mov	r2, r9
    5cbc:	9b04      	ldr	r3, [sp, #16]
    5cbe:	1a9c      	subs	r4, r3, r2
    5cc0:	2c00      	cmp	r4, #0
    5cc2:	dd48      	ble.n	5d56 <_vfiprintf_r+0x9fe>
    5cc4:	ae15      	add	r6, sp, #84	; 0x54
    5cc6:	2c10      	cmp	r4, #16
    5cc8:	dc00      	bgt.n	5ccc <_vfiprintf_r+0x974>
    5cca:	e1eb      	b.n	60a4 <_vfiprintf_r+0xd4c>
    5ccc:	4bd7      	ldr	r3, [pc, #860]	; (602c <_vfiprintf_r+0xcd4>)
    5cce:	46a8      	mov	r8, r5
    5cd0:	001d      	movs	r5, r3
    5cd2:	9b01      	ldr	r3, [sp, #4]
    5cd4:	2710      	movs	r7, #16
    5cd6:	0031      	movs	r1, r6
    5cd8:	469a      	mov	sl, r3
    5cda:	9a13      	ldr	r2, [sp, #76]	; 0x4c
    5cdc:	e005      	b.n	5cea <_vfiprintf_r+0x992>
    5cde:	1c96      	adds	r6, r2, #2
    5ce0:	001a      	movs	r2, r3
    5ce2:	3108      	adds	r1, #8
    5ce4:	3c10      	subs	r4, #16
    5ce6:	2c10      	cmp	r4, #16
    5ce8:	dd18      	ble.n	5d1c <_vfiprintf_r+0x9c4>
    5cea:	3010      	adds	r0, #16
    5cec:	1c53      	adds	r3, r2, #1
    5cee:	600d      	str	r5, [r1, #0]
    5cf0:	604f      	str	r7, [r1, #4]
    5cf2:	9014      	str	r0, [sp, #80]	; 0x50
    5cf4:	9313      	str	r3, [sp, #76]	; 0x4c
    5cf6:	2b07      	cmp	r3, #7
    5cf8:	ddf1      	ble.n	5cde <_vfiprintf_r+0x986>
    5cfa:	2800      	cmp	r0, #0
    5cfc:	d027      	beq.n	5d4e <_vfiprintf_r+0x9f6>
    5cfe:	4659      	mov	r1, fp
    5d00:	4650      	mov	r0, sl
    5d02:	aa12      	add	r2, sp, #72	; 0x48
    5d04:	f7ff fada 	bl	52bc <__sprint_r.part.0>
    5d08:	2800      	cmp	r0, #0
    5d0a:	d000      	beq.n	5d0e <_vfiprintf_r+0x9b6>
    5d0c:	e6fc      	b.n	5b08 <_vfiprintf_r+0x7b0>
    5d0e:	9a13      	ldr	r2, [sp, #76]	; 0x4c
    5d10:	3c10      	subs	r4, #16
    5d12:	9814      	ldr	r0, [sp, #80]	; 0x50
    5d14:	1c56      	adds	r6, r2, #1
    5d16:	a915      	add	r1, sp, #84	; 0x54
    5d18:	2c10      	cmp	r4, #16
    5d1a:	dce6      	bgt.n	5cea <_vfiprintf_r+0x992>
    5d1c:	0033      	movs	r3, r6
    5d1e:	46aa      	mov	sl, r5
    5d20:	000e      	movs	r6, r1
    5d22:	4645      	mov	r5, r8
    5d24:	0019      	movs	r1, r3
    5d26:	4653      	mov	r3, sl
    5d28:	1900      	adds	r0, r0, r4
    5d2a:	c618      	stmia	r6!, {r3, r4}
    5d2c:	9014      	str	r0, [sp, #80]	; 0x50
    5d2e:	9113      	str	r1, [sp, #76]	; 0x4c
    5d30:	2907      	cmp	r1, #7
    5d32:	dc00      	bgt.n	5d36 <_vfiprintf_r+0x9de>
    5d34:	e4eb      	b.n	570e <_vfiprintf_r+0x3b6>
    5d36:	2800      	cmp	r0, #0
    5d38:	d00d      	beq.n	5d56 <_vfiprintf_r+0x9fe>
    5d3a:	4659      	mov	r1, fp
    5d3c:	9801      	ldr	r0, [sp, #4]
    5d3e:	aa12      	add	r2, sp, #72	; 0x48
    5d40:	f7ff fabc 	bl	52bc <__sprint_r.part.0>
    5d44:	2800      	cmp	r0, #0
    5d46:	d000      	beq.n	5d4a <_vfiprintf_r+0x9f2>
    5d48:	e6de      	b.n	5b08 <_vfiprintf_r+0x7b0>
    5d4a:	9814      	ldr	r0, [sp, #80]	; 0x50
    5d4c:	e4df      	b.n	570e <_vfiprintf_r+0x3b6>
    5d4e:	2601      	movs	r6, #1
    5d50:	2200      	movs	r2, #0
    5d52:	a915      	add	r1, sp, #84	; 0x54
    5d54:	e7c6      	b.n	5ce4 <_vfiprintf_r+0x98c>
    5d56:	9b04      	ldr	r3, [sp, #16]
    5d58:	454b      	cmp	r3, r9
    5d5a:	da00      	bge.n	5d5e <_vfiprintf_r+0xa06>
    5d5c:	464b      	mov	r3, r9
    5d5e:	9a05      	ldr	r2, [sp, #20]
    5d60:	4694      	mov	ip, r2
    5d62:	449c      	add	ip, r3
    5d64:	4663      	mov	r3, ip
    5d66:	9305      	str	r3, [sp, #20]
    5d68:	e4dd      	b.n	5726 <_vfiprintf_r+0x3ce>
    5d6a:	46ba      	mov	sl, r7
    5d6c:	e4eb      	b.n	5746 <_vfiprintf_r+0x3ee>
    5d6e:	2800      	cmp	r0, #0
    5d70:	d100      	bne.n	5d74 <_vfiprintf_r+0xa1c>
    5d72:	e611      	b.n	5998 <_vfiprintf_r+0x640>
    5d74:	4659      	mov	r1, fp
    5d76:	9801      	ldr	r0, [sp, #4]
    5d78:	aa12      	add	r2, sp, #72	; 0x48
    5d7a:	f7ff fa9f 	bl	52bc <__sprint_r.part.0>
    5d7e:	2800      	cmp	r0, #0
    5d80:	d000      	beq.n	5d84 <_vfiprintf_r+0xa2c>
    5d82:	e6c1      	b.n	5b08 <_vfiprintf_r+0x7b0>
    5d84:	9b13      	ldr	r3, [sp, #76]	; 0x4c
    5d86:	9814      	ldr	r0, [sp, #80]	; 0x50
    5d88:	9302      	str	r3, [sp, #8]
    5d8a:	1c59      	adds	r1, r3, #1
    5d8c:	ae15      	add	r6, sp, #84	; 0x54
    5d8e:	e49f      	b.n	56d0 <_vfiprintf_r+0x378>
    5d90:	9213      	str	r2, [sp, #76]	; 0x4c
    5d92:	ae15      	add	r6, sp, #84	; 0x54
    5d94:	e426      	b.n	55e4 <_vfiprintf_r+0x28c>
    5d96:	9b02      	ldr	r3, [sp, #8]
    5d98:	2b00      	cmp	r3, #0
    5d9a:	d001      	beq.n	5da0 <_vfiprintf_r+0xa48>
    5d9c:	f7ff fbb4 	bl	5508 <_vfiprintf_r+0x1b0>
    5da0:	2300      	movs	r3, #0
    5da2:	ac3e      	add	r4, sp, #248	; 0xf8
    5da4:	9302      	str	r3, [sp, #8]
    5da6:	9303      	str	r3, [sp, #12]
    5da8:	f7ff fbba 	bl	5520 <_vfiprintf_r+0x1c8>
    5dac:	464b      	mov	r3, r9
    5dae:	06db      	lsls	r3, r3, #27
    5db0:	d45d      	bmi.n	5e6e <_vfiprintf_r+0xb16>
    5db2:	464b      	mov	r3, r9
    5db4:	065b      	lsls	r3, r3, #25
    5db6:	d556      	bpl.n	5e66 <_vfiprintf_r+0xb0e>
    5db8:	9a08      	ldr	r2, [sp, #32]
    5dba:	ca08      	ldmia	r2!, {r3}
    5dbc:	b29b      	uxth	r3, r3
    5dbe:	9306      	str	r3, [sp, #24]
    5dc0:	2300      	movs	r3, #0
    5dc2:	9208      	str	r2, [sp, #32]
    5dc4:	9307      	str	r3, [sp, #28]
    5dc6:	3301      	adds	r3, #1
    5dc8:	f7ff fbc7 	bl	555a <_vfiprintf_r+0x202>
    5dcc:	9b09      	ldr	r3, [sp, #36]	; 0x24
    5dce:	2b00      	cmp	r3, #0
    5dd0:	d070      	beq.n	5eb4 <_vfiprintf_r+0xb5c>
    5dd2:	ab11      	add	r3, sp, #68	; 0x44
    5dd4:	9315      	str	r3, [sp, #84]	; 0x54
    5dd6:	2302      	movs	r3, #2
    5dd8:	9316      	str	r3, [sp, #88]	; 0x58
    5dda:	3b01      	subs	r3, #1
    5ddc:	469c      	mov	ip, r3
    5dde:	2002      	movs	r0, #2
    5de0:	ae15      	add	r6, sp, #84	; 0x54
    5de2:	e6b6      	b.n	5b52 <_vfiprintf_r+0x7fa>
    5de4:	2300      	movs	r3, #0
    5de6:	2101      	movs	r1, #1
    5de8:	469c      	mov	ip, r3
    5dea:	ae15      	add	r6, sp, #84	; 0x54
    5dec:	e465      	b.n	56ba <_vfiprintf_r+0x362>
    5dee:	9906      	ldr	r1, [sp, #24]
    5df0:	9a07      	ldr	r2, [sp, #28]
    5df2:	2400      	movs	r4, #0
    5df4:	424b      	negs	r3, r1
    5df6:	4194      	sbcs	r4, r2
    5df8:	9306      	str	r3, [sp, #24]
    5dfa:	9407      	str	r4, [sp, #28]
    5dfc:	232d      	movs	r3, #45	; 0x2d
    5dfe:	aa10      	add	r2, sp, #64	; 0x40
    5e00:	70d3      	strb	r3, [r2, #3]
    5e02:	46b9      	mov	r9, r7
    5e04:	3b2c      	subs	r3, #44	; 0x2c
    5e06:	f7ff fbab 	bl	5560 <_vfiprintf_r+0x208>
    5e0a:	2800      	cmp	r0, #0
    5e0c:	d100      	bne.n	5e10 <_vfiprintf_r+0xab8>
    5e0e:	e084      	b.n	5f1a <_vfiprintf_r+0xbc2>
    5e10:	4659      	mov	r1, fp
    5e12:	9801      	ldr	r0, [sp, #4]
    5e14:	aa12      	add	r2, sp, #72	; 0x48
    5e16:	f7ff fa51 	bl	52bc <__sprint_r.part.0>
    5e1a:	2800      	cmp	r0, #0
    5e1c:	d000      	beq.n	5e20 <_vfiprintf_r+0xac8>
    5e1e:	e673      	b.n	5b08 <_vfiprintf_r+0x7b0>
    5e20:	9b13      	ldr	r3, [sp, #76]	; 0x4c
    5e22:	9814      	ldr	r0, [sp, #80]	; 0x50
    5e24:	469c      	mov	ip, r3
    5e26:	1c59      	adds	r1, r3, #1
    5e28:	ae15      	add	r6, sp, #84	; 0x54
    5e2a:	f7ff fc17 	bl	565c <_vfiprintf_r+0x304>
    5e2e:	782a      	ldrb	r2, [r5, #0]
    5e30:	9308      	str	r3, [sp, #32]
    5e32:	f7ff faf5 	bl	5420 <_vfiprintf_r+0xc8>
    5e36:	3608      	adds	r6, #8
    5e38:	1c59      	adds	r1, r3, #1
    5e3a:	e442      	b.n	56c2 <_vfiprintf_r+0x36a>
    5e3c:	05bb      	lsls	r3, r7, #22
    5e3e:	d500      	bpl.n	5e42 <_vfiprintf_r+0xaea>
    5e40:	e0eb      	b.n	601a <_vfiprintf_r+0xcc2>
    5e42:	9b08      	ldr	r3, [sp, #32]
    5e44:	cb04      	ldmia	r3!, {r2}
    5e46:	9206      	str	r2, [sp, #24]
    5e48:	2200      	movs	r2, #0
    5e4a:	9308      	str	r3, [sp, #32]
    5e4c:	9207      	str	r2, [sp, #28]
    5e4e:	f7ff fb80 	bl	5552 <_vfiprintf_r+0x1fa>
    5e52:	05bb      	lsls	r3, r7, #22
    5e54:	d500      	bpl.n	5e58 <_vfiprintf_r+0xb00>
    5e56:	e0f5      	b.n	6044 <_vfiprintf_r+0xcec>
    5e58:	ca08      	ldmia	r2!, {r3}
    5e5a:	9306      	str	r3, [sp, #24]
    5e5c:	17db      	asrs	r3, r3, #31
    5e5e:	9307      	str	r3, [sp, #28]
    5e60:	9208      	str	r2, [sp, #32]
    5e62:	f7ff fb37 	bl	54d4 <_vfiprintf_r+0x17c>
    5e66:	464b      	mov	r3, r9
    5e68:	059b      	lsls	r3, r3, #22
    5e6a:	d500      	bpl.n	5e6e <_vfiprintf_r+0xb16>
    5e6c:	e0f2      	b.n	6054 <_vfiprintf_r+0xcfc>
    5e6e:	9b08      	ldr	r3, [sp, #32]
    5e70:	cb04      	ldmia	r3!, {r2}
    5e72:	9206      	str	r2, [sp, #24]
    5e74:	2200      	movs	r2, #0
    5e76:	9308      	str	r3, [sp, #32]
    5e78:	9207      	str	r2, [sp, #28]
    5e7a:	2301      	movs	r3, #1
    5e7c:	f7ff fb6d 	bl	555a <_vfiprintf_r+0x202>
    5e80:	9908      	ldr	r1, [sp, #32]
    5e82:	9a05      	ldr	r2, [sp, #20]
    5e84:	c908      	ldmia	r1!, {r3}
    5e86:	601a      	str	r2, [r3, #0]
    5e88:	17d2      	asrs	r2, r2, #31
    5e8a:	605a      	str	r2, [r3, #4]
    5e8c:	9108      	str	r1, [sp, #32]
    5e8e:	f7ff faa8 	bl	53e2 <_vfiprintf_r+0x8a>
    5e92:	9b0b      	ldr	r3, [sp, #44]	; 0x2c
    5e94:	2b00      	cmp	r3, #0
    5e96:	d101      	bne.n	5e9c <_vfiprintf_r+0xb44>
    5e98:	f7ff fb04 	bl	54a4 <_vfiprintf_r+0x14c>
    5e9c:	9b0b      	ldr	r3, [sp, #44]	; 0x2c
    5e9e:	781b      	ldrb	r3, [r3, #0]
    5ea0:	2b00      	cmp	r3, #0
    5ea2:	d101      	bne.n	5ea8 <_vfiprintf_r+0xb50>
    5ea4:	f7ff fafe 	bl	54a4 <_vfiprintf_r+0x14c>
    5ea8:	2380      	movs	r3, #128	; 0x80
    5eaa:	00db      	lsls	r3, r3, #3
    5eac:	782a      	ldrb	r2, [r5, #0]
    5eae:	431f      	orrs	r7, r3
    5eb0:	f7ff fab6 	bl	5420 <_vfiprintf_r+0xc8>
    5eb4:	469c      	mov	ip, r3
    5eb6:	2101      	movs	r1, #1
    5eb8:	ae15      	add	r6, sp, #84	; 0x54
    5eba:	f7ff fbfe 	bl	56ba <_vfiprintf_r+0x362>
    5ebe:	4b5c      	ldr	r3, [pc, #368]	; (6030 <_vfiprintf_r+0xcd8>)
    5ec0:	930c      	str	r3, [sp, #48]	; 0x30
    5ec2:	06bb      	lsls	r3, r7, #26
    5ec4:	d54e      	bpl.n	5f64 <_vfiprintf_r+0xc0c>
    5ec6:	2307      	movs	r3, #7
    5ec8:	9908      	ldr	r1, [sp, #32]
    5eca:	3107      	adds	r1, #7
    5ecc:	4399      	bics	r1, r3
    5ece:	c918      	ldmia	r1!, {r3, r4}
    5ed0:	9306      	str	r3, [sp, #24]
    5ed2:	9407      	str	r4, [sp, #28]
    5ed4:	9108      	str	r1, [sp, #32]
    5ed6:	07fb      	lsls	r3, r7, #31
    5ed8:	d50a      	bpl.n	5ef0 <_vfiprintf_r+0xb98>
    5eda:	9806      	ldr	r0, [sp, #24]
    5edc:	9907      	ldr	r1, [sp, #28]
    5ede:	0003      	movs	r3, r0
    5ee0:	430b      	orrs	r3, r1
    5ee2:	d005      	beq.n	5ef0 <_vfiprintf_r+0xb98>
    5ee4:	2130      	movs	r1, #48	; 0x30
    5ee6:	ab11      	add	r3, sp, #68	; 0x44
    5ee8:	7019      	strb	r1, [r3, #0]
    5eea:	705a      	strb	r2, [r3, #1]
    5eec:	2302      	movs	r3, #2
    5eee:	431f      	orrs	r7, r3
    5ef0:	4b50      	ldr	r3, [pc, #320]	; (6034 <_vfiprintf_r+0xcdc>)
    5ef2:	401f      	ands	r7, r3
    5ef4:	46b9      	mov	r9, r7
    5ef6:	2302      	movs	r3, #2
    5ef8:	f7ff fb2f 	bl	555a <_vfiprintf_r+0x202>
    5efc:	46b9      	mov	r9, r7
    5efe:	e4a3      	b.n	5848 <_vfiprintf_r+0x4f0>
    5f00:	4b4d      	ldr	r3, [pc, #308]	; (6038 <_vfiprintf_r+0xce0>)
    5f02:	930c      	str	r3, [sp, #48]	; 0x30
    5f04:	e7dd      	b.n	5ec2 <_vfiprintf_r+0xb6a>
    5f06:	0020      	movs	r0, r4
    5f08:	f7ff f974 	bl	51f4 <strlen>
    5f0c:	4643      	mov	r3, r8
    5f0e:	9308      	str	r3, [sp, #32]
    5f10:	2300      	movs	r3, #0
    5f12:	9003      	str	r0, [sp, #12]
    5f14:	9302      	str	r3, [sp, #8]
    5f16:	f7ff fb03 	bl	5520 <_vfiprintf_r+0x1c8>
    5f1a:	ab10      	add	r3, sp, #64	; 0x40
    5f1c:	78db      	ldrb	r3, [r3, #3]
    5f1e:	2b00      	cmp	r3, #0
    5f20:	d072      	beq.n	6008 <_vfiprintf_r+0xcb0>
    5f22:	ab10      	add	r3, sp, #64	; 0x40
    5f24:	3303      	adds	r3, #3
    5f26:	9315      	str	r3, [sp, #84]	; 0x54
    5f28:	2301      	movs	r3, #1
    5f2a:	2101      	movs	r1, #1
    5f2c:	2001      	movs	r0, #1
    5f2e:	9316      	str	r3, [sp, #88]	; 0x58
    5f30:	ae15      	add	r6, sp, #84	; 0x54
    5f32:	f7ff fba2 	bl	567a <_vfiprintf_r+0x322>
    5f36:	9b0e      	ldr	r3, [sp, #56]	; 0x38
    5f38:	990d      	ldr	r1, [sp, #52]	; 0x34
    5f3a:	1ae4      	subs	r4, r4, r3
    5f3c:	001a      	movs	r2, r3
    5f3e:	0020      	movs	r0, r4
    5f40:	f7ff f986 	bl	5250 <strncpy>
    5f44:	990b      	ldr	r1, [sp, #44]	; 0x2c
    5f46:	0030      	movs	r0, r6
    5f48:	784b      	ldrb	r3, [r1, #1]
    5f4a:	468c      	mov	ip, r1
    5f4c:	1e5a      	subs	r2, r3, #1
    5f4e:	4193      	sbcs	r3, r2
    5f50:	449c      	add	ip, r3
    5f52:	4663      	mov	r3, ip
    5f54:	220a      	movs	r2, #10
    5f56:	930b      	str	r3, [sp, #44]	; 0x2c
    5f58:	0039      	movs	r1, r7
    5f5a:	2300      	movs	r3, #0
    5f5c:	f001 fb26 	bl	75ac <__aeabi_uldivmod>
    5f60:	2500      	movs	r5, #0
    5f62:	e62f      	b.n	5bc4 <_vfiprintf_r+0x86c>
    5f64:	06fb      	lsls	r3, r7, #27
    5f66:	d40b      	bmi.n	5f80 <_vfiprintf_r+0xc28>
    5f68:	067b      	lsls	r3, r7, #25
    5f6a:	d507      	bpl.n	5f7c <_vfiprintf_r+0xc24>
    5f6c:	9908      	ldr	r1, [sp, #32]
    5f6e:	c908      	ldmia	r1!, {r3}
    5f70:	b29b      	uxth	r3, r3
    5f72:	9306      	str	r3, [sp, #24]
    5f74:	2300      	movs	r3, #0
    5f76:	9108      	str	r1, [sp, #32]
    5f78:	9307      	str	r3, [sp, #28]
    5f7a:	e7ac      	b.n	5ed6 <_vfiprintf_r+0xb7e>
    5f7c:	05bb      	lsls	r3, r7, #22
    5f7e:	d46d      	bmi.n	605c <_vfiprintf_r+0xd04>
    5f80:	9b08      	ldr	r3, [sp, #32]
    5f82:	cb02      	ldmia	r3!, {r1}
    5f84:	9106      	str	r1, [sp, #24]
    5f86:	2100      	movs	r1, #0
    5f88:	9308      	str	r3, [sp, #32]
    5f8a:	9107      	str	r1, [sp, #28]
    5f8c:	e7a3      	b.n	5ed6 <_vfiprintf_r+0xb7e>
    5f8e:	4653      	mov	r3, sl
    5f90:	6d98      	ldr	r0, [r3, #88]	; 0x58
    5f92:	f7fe f9d7 	bl	4344 <__retarget_lock_release_recursive>
    5f96:	4653      	mov	r3, sl
    5f98:	899b      	ldrh	r3, [r3, #12]
    5f9a:	f7ff fbdf 	bl	575c <_vfiprintf_r+0x404>
    5f9e:	46b9      	mov	r9, r7
    5fa0:	2b01      	cmp	r3, #1
    5fa2:	d000      	beq.n	5fa6 <_vfiprintf_r+0xc4e>
    5fa4:	e4c9      	b.n	593a <_vfiprintf_r+0x5e2>
    5fa6:	f7ff faaf 	bl	5508 <_vfiprintf_r+0x1b0>
    5faa:	2320      	movs	r3, #32
    5fac:	786a      	ldrb	r2, [r5, #1]
    5fae:	431f      	orrs	r7, r3
    5fb0:	3501      	adds	r5, #1
    5fb2:	f7ff fa35 	bl	5420 <_vfiprintf_r+0xc8>
    5fb6:	2380      	movs	r3, #128	; 0x80
    5fb8:	009b      	lsls	r3, r3, #2
    5fba:	786a      	ldrb	r2, [r5, #1]
    5fbc:	431f      	orrs	r7, r3
    5fbe:	3501      	adds	r5, #1
    5fc0:	f7ff fa2e 	bl	5420 <_vfiprintf_r+0xc8>
    5fc4:	9a08      	ldr	r2, [sp, #32]
    5fc6:	9905      	ldr	r1, [sp, #20]
    5fc8:	ca08      	ldmia	r2!, {r3}
    5fca:	6019      	str	r1, [r3, #0]
    5fcc:	9208      	str	r2, [sp, #32]
    5fce:	f7ff fa08 	bl	53e2 <_vfiprintf_r+0x8a>
    5fd2:	9b02      	ldr	r3, [sp, #8]
    5fd4:	9303      	str	r3, [sp, #12]
    5fd6:	2b06      	cmp	r3, #6
    5fd8:	d813      	bhi.n	6002 <_vfiprintf_r+0xcaa>
    5fda:	9b03      	ldr	r3, [sp, #12]
    5fdc:	4c17      	ldr	r4, [pc, #92]	; (603c <_vfiprintf_r+0xce4>)
    5fde:	4699      	mov	r9, r3
    5fe0:	4643      	mov	r3, r8
    5fe2:	9308      	str	r3, [sp, #32]
    5fe4:	f7ff fb1f 	bl	5626 <_vfiprintf_r+0x2ce>
    5fe8:	4b15      	ldr	r3, [pc, #84]	; (6040 <_vfiprintf_r+0xce8>)
    5fea:	4698      	mov	r8, r3
    5fec:	e573      	b.n	5ad6 <_vfiprintf_r+0x77e>
    5fee:	2e09      	cmp	r6, #9
    5ff0:	d900      	bls.n	5ff4 <_vfiprintf_r+0xc9c>
    5ff2:	e5e7      	b.n	5bc4 <_vfiprintf_r+0x86c>
    5ff4:	e601      	b.n	5bfa <_vfiprintf_r+0x8a2>
    5ff6:	2300      	movs	r3, #0
    5ff8:	2101      	movs	r1, #1
    5ffa:	469c      	mov	ip, r3
    5ffc:	ae15      	add	r6, sp, #84	; 0x54
    5ffe:	f7ff fb60 	bl	56c2 <_vfiprintf_r+0x36a>
    6002:	2306      	movs	r3, #6
    6004:	9303      	str	r3, [sp, #12]
    6006:	e7e8      	b.n	5fda <_vfiprintf_r+0xc82>
    6008:	9b09      	ldr	r3, [sp, #36]	; 0x24
    600a:	2b00      	cmp	r3, #0
    600c:	d000      	beq.n	6010 <_vfiprintf_r+0xcb8>
    600e:	e598      	b.n	5b42 <_vfiprintf_r+0x7ea>
    6010:	469c      	mov	ip, r3
    6012:	2101      	movs	r1, #1
    6014:	ae15      	add	r6, sp, #84	; 0x54
    6016:	f7ff fb54 	bl	56c2 <_vfiprintf_r+0x36a>
    601a:	9a08      	ldr	r2, [sp, #32]
    601c:	ca08      	ldmia	r2!, {r3}
    601e:	b2db      	uxtb	r3, r3
    6020:	9306      	str	r3, [sp, #24]
    6022:	2300      	movs	r3, #0
    6024:	9208      	str	r2, [sp, #32]
    6026:	9307      	str	r3, [sp, #28]
    6028:	f7ff fa93 	bl	5552 <_vfiprintf_r+0x1fa>
    602c:	0000a15c 	.word	0x0000a15c
    6030:	0000a3ec 	.word	0x0000a3ec
    6034:	fffffbff 	.word	0xfffffbff
    6038:	0000a400 	.word	0x0000a400
    603c:	0000a414 	.word	0x0000a414
    6040:	0000a17c 	.word	0x0000a17c
    6044:	ca08      	ldmia	r2!, {r3}
    6046:	b25b      	sxtb	r3, r3
    6048:	9306      	str	r3, [sp, #24]
    604a:	17db      	asrs	r3, r3, #31
    604c:	9307      	str	r3, [sp, #28]
    604e:	9208      	str	r2, [sp, #32]
    6050:	f7ff fa40 	bl	54d4 <_vfiprintf_r+0x17c>
    6054:	9a08      	ldr	r2, [sp, #32]
    6056:	ca08      	ldmia	r2!, {r3}
    6058:	b2db      	uxtb	r3, r3
    605a:	e6b0      	b.n	5dbe <_vfiprintf_r+0xa66>
    605c:	9908      	ldr	r1, [sp, #32]
    605e:	c908      	ldmia	r1!, {r3}
    6060:	b2db      	uxtb	r3, r3
    6062:	9306      	str	r3, [sp, #24]
    6064:	2300      	movs	r3, #0
    6066:	9108      	str	r1, [sp, #32]
    6068:	9307      	str	r3, [sp, #28]
    606a:	e734      	b.n	5ed6 <_vfiprintf_r+0xb7e>
    606c:	9a08      	ldr	r2, [sp, #32]
    606e:	9905      	ldr	r1, [sp, #20]
    6070:	ca08      	ldmia	r2!, {r3}
    6072:	8019      	strh	r1, [r3, #0]
    6074:	9208      	str	r2, [sp, #32]
    6076:	f7ff f9b4 	bl	53e2 <_vfiprintf_r+0x8a>
    607a:	4653      	mov	r3, sl
    607c:	6d98      	ldr	r0, [r3, #88]	; 0x58
    607e:	f7fe f961 	bl	4344 <__retarget_lock_release_recursive>
    6082:	f7ff f9f2 	bl	546a <_vfiprintf_r+0x112>
    6086:	4643      	mov	r3, r8
    6088:	9308      	str	r3, [sp, #32]
    608a:	9b02      	ldr	r3, [sp, #8]
    608c:	9303      	str	r3, [sp, #12]
    608e:	2300      	movs	r3, #0
    6090:	9302      	str	r3, [sp, #8]
    6092:	f7ff fa45 	bl	5520 <_vfiprintf_r+0x1c8>
    6096:	9b13      	ldr	r3, [sp, #76]	; 0x4c
    6098:	930f      	str	r3, [sp, #60]	; 0x3c
    609a:	3301      	adds	r3, #1
    609c:	469c      	mov	ip, r3
    609e:	4b1a      	ldr	r3, [pc, #104]	; (6108 <_vfiprintf_r+0xdb0>)
    60a0:	469a      	mov	sl, r3
    60a2:	e5f5      	b.n	5c90 <_vfiprintf_r+0x938>
    60a4:	9b13      	ldr	r3, [sp, #76]	; 0x4c
    60a6:	9302      	str	r3, [sp, #8]
    60a8:	1c59      	adds	r1, r3, #1
    60aa:	4b17      	ldr	r3, [pc, #92]	; (6108 <_vfiprintf_r+0xdb0>)
    60ac:	469a      	mov	sl, r3
    60ae:	e63a      	b.n	5d26 <_vfiprintf_r+0x9ce>
    60b0:	4659      	mov	r1, fp
    60b2:	9801      	ldr	r0, [sp, #4]
    60b4:	aa12      	add	r2, sp, #72	; 0x48
    60b6:	f7ff f901 	bl	52bc <__sprint_r.part.0>
    60ba:	2800      	cmp	r0, #0
    60bc:	d101      	bne.n	60c2 <_vfiprintf_r+0xd6a>
    60be:	f7ff fb40 	bl	5742 <_vfiprintf_r+0x3ea>
    60c2:	f7ff fb40 	bl	5746 <_vfiprintf_r+0x3ee>
    60c6:	4b11      	ldr	r3, [pc, #68]	; (610c <_vfiprintf_r+0xdb4>)
    60c8:	468c      	mov	ip, r1
    60ca:	4698      	mov	r8, r3
    60cc:	e4ab      	b.n	5a26 <_vfiprintf_r+0x6ce>
    60ce:	6e5b      	ldr	r3, [r3, #100]	; 0x64
    60d0:	07db      	lsls	r3, r3, #31
    60d2:	d407      	bmi.n	60e4 <_vfiprintf_r+0xd8c>
    60d4:	4653      	mov	r3, sl
    60d6:	899b      	ldrh	r3, [r3, #12]
    60d8:	059b      	lsls	r3, r3, #22
    60da:	d403      	bmi.n	60e4 <_vfiprintf_r+0xd8c>
    60dc:	4653      	mov	r3, sl
    60de:	6d98      	ldr	r0, [r3, #88]	; 0x58
    60e0:	f7fe f930 	bl	4344 <__retarget_lock_release_recursive>
    60e4:	2301      	movs	r3, #1
    60e6:	425b      	negs	r3, r3
    60e8:	9305      	str	r3, [sp, #20]
    60ea:	f7ff fb3b 	bl	5764 <_vfiprintf_r+0x40c>
    60ee:	9908      	ldr	r1, [sp, #32]
    60f0:	c904      	ldmia	r1!, {r2}
    60f2:	9202      	str	r2, [sp, #8]
    60f4:	2a00      	cmp	r2, #0
    60f6:	da02      	bge.n	60fe <_vfiprintf_r+0xda6>
    60f8:	2201      	movs	r2, #1
    60fa:	4252      	negs	r2, r2
    60fc:	9202      	str	r2, [sp, #8]
    60fe:	786a      	ldrb	r2, [r5, #1]
    6100:	9108      	str	r1, [sp, #32]
    6102:	001d      	movs	r5, r3
    6104:	f7ff f98c 	bl	5420 <_vfiprintf_r+0xc8>
    6108:	0000a15c 	.word	0x0000a15c
    610c:	0000a17c 	.word	0x0000a17c

00006110 <vfiprintf>:
    6110:	b510      	push	{r4, lr}
    6112:	0004      	movs	r4, r0
    6114:	0013      	movs	r3, r2
    6116:	4a03      	ldr	r2, [pc, #12]	; (6124 <vfiprintf+0x14>)
    6118:	6810      	ldr	r0, [r2, #0]
    611a:	000a      	movs	r2, r1
    611c:	0021      	movs	r1, r4
    611e:	f7ff f91b 	bl	5358 <_vfiprintf_r>
    6122:	bd10      	pop	{r4, pc}
    6124:	000106f0 	.word	0x000106f0

00006128 <__sbprintf>:
    6128:	b5f0      	push	{r4, r5, r6, r7, lr}
    612a:	001f      	movs	r7, r3
    612c:	2302      	movs	r3, #2
    612e:	4c1f      	ldr	r4, [pc, #124]	; (61ac <__sbprintf+0x84>)
    6130:	0015      	movs	r5, r2
    6132:	44a5      	add	sp, r4
    6134:	000c      	movs	r4, r1
    6136:	8989      	ldrh	r1, [r1, #12]
    6138:	466a      	mov	r2, sp
    613a:	4399      	bics	r1, r3
    613c:	466b      	mov	r3, sp
    613e:	8199      	strh	r1, [r3, #12]
    6140:	6e63      	ldr	r3, [r4, #100]	; 0x64
    6142:	2180      	movs	r1, #128	; 0x80
    6144:	9319      	str	r3, [sp, #100]	; 0x64
    6146:	89e3      	ldrh	r3, [r4, #14]
    6148:	0006      	movs	r6, r0
    614a:	81d3      	strh	r3, [r2, #14]
    614c:	69e3      	ldr	r3, [r4, #28]
    614e:	00c9      	lsls	r1, r1, #3
    6150:	9307      	str	r3, [sp, #28]
    6152:	6a63      	ldr	r3, [r4, #36]	; 0x24
    6154:	a816      	add	r0, sp, #88	; 0x58
    6156:	9309      	str	r3, [sp, #36]	; 0x24
    6158:	ab1a      	add	r3, sp, #104	; 0x68
    615a:	9300      	str	r3, [sp, #0]
    615c:	9304      	str	r3, [sp, #16]
    615e:	2300      	movs	r3, #0
    6160:	9102      	str	r1, [sp, #8]
    6162:	9105      	str	r1, [sp, #20]
    6164:	9306      	str	r3, [sp, #24]
    6166:	f7fe f8dd 	bl	4324 <__retarget_lock_init_recursive>
    616a:	002a      	movs	r2, r5
    616c:	003b      	movs	r3, r7
    616e:	4669      	mov	r1, sp
    6170:	0030      	movs	r0, r6
    6172:	f7ff f8f1 	bl	5358 <_vfiprintf_r>
    6176:	1e05      	subs	r5, r0, #0
    6178:	da0e      	bge.n	6198 <__sbprintf+0x70>
    617a:	466b      	mov	r3, sp
    617c:	899b      	ldrh	r3, [r3, #12]
    617e:	065b      	lsls	r3, r3, #25
    6180:	d503      	bpl.n	618a <__sbprintf+0x62>
    6182:	2240      	movs	r2, #64	; 0x40
    6184:	89a3      	ldrh	r3, [r4, #12]
    6186:	4313      	orrs	r3, r2
    6188:	81a3      	strh	r3, [r4, #12]
    618a:	9816      	ldr	r0, [sp, #88]	; 0x58
    618c:	f7fe f8ce 	bl	432c <__retarget_lock_close_recursive>
    6190:	0028      	movs	r0, r5
    6192:	4b07      	ldr	r3, [pc, #28]	; (61b0 <__sbprintf+0x88>)
    6194:	449d      	add	sp, r3
    6196:	bdf0      	pop	{r4, r5, r6, r7, pc}
    6198:	4669      	mov	r1, sp
    619a:	0030      	movs	r0, r6
    619c:	f7fd fd4c 	bl	3c38 <_fflush_r>
    61a0:	2800      	cmp	r0, #0
    61a2:	d0ea      	beq.n	617a <__sbprintf+0x52>
    61a4:	2501      	movs	r5, #1
    61a6:	426d      	negs	r5, r5
    61a8:	e7e7      	b.n	617a <__sbprintf+0x52>
    61aa:	46c0      	nop			; (mov r8, r8)
    61ac:	fffffb94 	.word	0xfffffb94
    61b0:	0000046c 	.word	0x0000046c

000061b4 <_write_r>:
    61b4:	b570      	push	{r4, r5, r6, lr}
    61b6:	0004      	movs	r4, r0
    61b8:	0008      	movs	r0, r1
    61ba:	0011      	movs	r1, r2
    61bc:	001a      	movs	r2, r3
    61be:	2300      	movs	r3, #0
    61c0:	4d05      	ldr	r5, [pc, #20]	; (61d8 <_write_r+0x24>)
    61c2:	602b      	str	r3, [r5, #0]
    61c4:	f003 fd7e 	bl	9cc4 <_write>
    61c8:	1c43      	adds	r3, r0, #1
    61ca:	d000      	beq.n	61ce <_write_r+0x1a>
    61cc:	bd70      	pop	{r4, r5, r6, pc}
    61ce:	682b      	ldr	r3, [r5, #0]
    61d0:	2b00      	cmp	r3, #0
    61d2:	d0fb      	beq.n	61cc <_write_r+0x18>
    61d4:	6023      	str	r3, [r4, #0]
    61d6:	e7f9      	b.n	61cc <_write_r+0x18>
    61d8:	40000058 	.word	0x40000058

000061dc <__assert_func>:
    61dc:	b530      	push	{r4, r5, lr}
    61de:	0014      	movs	r4, r2
    61e0:	001a      	movs	r2, r3
    61e2:	4b0a      	ldr	r3, [pc, #40]	; (620c <__assert_func+0x30>)
    61e4:	0005      	movs	r5, r0
    61e6:	681b      	ldr	r3, [r3, #0]
    61e8:	b085      	sub	sp, #20
    61ea:	68d8      	ldr	r0, [r3, #12]
    61ec:	2c00      	cmp	r4, #0
    61ee:	d009      	beq.n	6204 <__assert_func+0x28>
    61f0:	4b07      	ldr	r3, [pc, #28]	; (6210 <__assert_func+0x34>)
    61f2:	9301      	str	r3, [sp, #4]
    61f4:	9100      	str	r1, [sp, #0]
    61f6:	002b      	movs	r3, r5
    61f8:	4906      	ldr	r1, [pc, #24]	; (6214 <__assert_func+0x38>)
    61fa:	9402      	str	r4, [sp, #8]
    61fc:	f000 f8aa 	bl	6354 <fiprintf>
    6200:	f000 feb0 	bl	6f64 <abort>
    6204:	4b04      	ldr	r3, [pc, #16]	; (6218 <__assert_func+0x3c>)
    6206:	001c      	movs	r4, r3
    6208:	e7f3      	b.n	61f2 <__assert_func+0x16>
    620a:	46c0      	nop			; (mov r8, r8)
    620c:	000106f0 	.word	0x000106f0
    6210:	0000a588 	.word	0x0000a588
    6214:	0000a598 	.word	0x0000a598
    6218:	0000a594 	.word	0x0000a594

0000621c <__assert>:
    621c:	0013      	movs	r3, r2
    621e:	b510      	push	{r4, lr}
    6220:	2200      	movs	r2, #0
    6222:	f7ff ffdb 	bl	61dc <__assert_func>
    6226:	46c0      	nop			; (mov r8, r8)

00006228 <_close_r>:
    6228:	2300      	movs	r3, #0
    622a:	b570      	push	{r4, r5, r6, lr}
    622c:	4d06      	ldr	r5, [pc, #24]	; (6248 <_close_r+0x20>)
    622e:	0004      	movs	r4, r0
    6230:	0008      	movs	r0, r1
    6232:	602b      	str	r3, [r5, #0]
    6234:	f003 fd00 	bl	9c38 <_close>
    6238:	1c43      	adds	r3, r0, #1
    623a:	d000      	beq.n	623e <_close_r+0x16>
    623c:	bd70      	pop	{r4, r5, r6, pc}
    623e:	682b      	ldr	r3, [r5, #0]
    6240:	2b00      	cmp	r3, #0
    6242:	d0fb      	beq.n	623c <_close_r+0x14>
    6244:	6023      	str	r3, [r4, #0]
    6246:	e7f9      	b.n	623c <_close_r+0x14>
    6248:	40000058 	.word	0x40000058

0000624c <_fclose_r>:
    624c:	b5f8      	push	{r3, r4, r5, r6, r7, lr}
    624e:	0006      	movs	r6, r0
    6250:	1e0c      	subs	r4, r1, #0
    6252:	d04d      	beq.n	62f0 <_fclose_r+0xa4>
    6254:	2800      	cmp	r0, #0
    6256:	d002      	beq.n	625e <_fclose_r+0x12>
    6258:	6b83      	ldr	r3, [r0, #56]	; 0x38
    625a:	2b00      	cmp	r3, #0
    625c:	d04a      	beq.n	62f4 <_fclose_r+0xa8>
    625e:	2701      	movs	r7, #1
    6260:	6e63      	ldr	r3, [r4, #100]	; 0x64
    6262:	423b      	tst	r3, r7
    6264:	d035      	beq.n	62d2 <_fclose_r+0x86>
    6266:	220c      	movs	r2, #12
    6268:	5ea3      	ldrsh	r3, [r4, r2]
    626a:	2b00      	cmp	r3, #0
    626c:	d040      	beq.n	62f0 <_fclose_r+0xa4>
    626e:	0021      	movs	r1, r4
    6270:	0030      	movs	r0, r6
    6272:	f7fd fc41 	bl	3af8 <__sflush_r>
    6276:	6ae3      	ldr	r3, [r4, #44]	; 0x2c
    6278:	0005      	movs	r5, r0
    627a:	2b00      	cmp	r3, #0
    627c:	d004      	beq.n	6288 <_fclose_r+0x3c>
    627e:	0030      	movs	r0, r6
    6280:	69e1      	ldr	r1, [r4, #28]
    6282:	4798      	blx	r3
    6284:	2800      	cmp	r0, #0
    6286:	db3c      	blt.n	6302 <_fclose_r+0xb6>
    6288:	89a3      	ldrh	r3, [r4, #12]
    628a:	061b      	lsls	r3, r3, #24
    628c:	d43e      	bmi.n	630c <_fclose_r+0xc0>
    628e:	6b21      	ldr	r1, [r4, #48]	; 0x30
    6290:	2900      	cmp	r1, #0
    6292:	d008      	beq.n	62a6 <_fclose_r+0x5a>
    6294:	0023      	movs	r3, r4
    6296:	3340      	adds	r3, #64	; 0x40
    6298:	4299      	cmp	r1, r3
    629a:	d002      	beq.n	62a2 <_fclose_r+0x56>
    629c:	0030      	movs	r0, r6
    629e:	f7fd ff0f 	bl	40c0 <_free_r>
    62a2:	2300      	movs	r3, #0
    62a4:	6323      	str	r3, [r4, #48]	; 0x30
    62a6:	6c61      	ldr	r1, [r4, #68]	; 0x44
    62a8:	2900      	cmp	r1, #0
    62aa:	d004      	beq.n	62b6 <_fclose_r+0x6a>
    62ac:	0030      	movs	r0, r6
    62ae:	f7fd ff07 	bl	40c0 <_free_r>
    62b2:	2300      	movs	r3, #0
    62b4:	6463      	str	r3, [r4, #68]	; 0x44
    62b6:	f7fd fe75 	bl	3fa4 <__sfp_lock_acquire>
    62ba:	2300      	movs	r3, #0
    62bc:	81a3      	strh	r3, [r4, #12]
    62be:	6e63      	ldr	r3, [r4, #100]	; 0x64
    62c0:	07db      	lsls	r3, r3, #31
    62c2:	d52c      	bpl.n	631e <_fclose_r+0xd2>
    62c4:	6da0      	ldr	r0, [r4, #88]	; 0x58
    62c6:	f7fe f831 	bl	432c <__retarget_lock_close_recursive>
    62ca:	f7fd fe73 	bl	3fb4 <__sfp_lock_release>
    62ce:	0028      	movs	r0, r5
    62d0:	bdf8      	pop	{r3, r4, r5, r6, r7, pc}
    62d2:	89a3      	ldrh	r3, [r4, #12]
    62d4:	059b      	lsls	r3, r3, #22
    62d6:	d4ca      	bmi.n	626e <_fclose_r+0x22>
    62d8:	6da0      	ldr	r0, [r4, #88]	; 0x58
    62da:	f7fe f82b 	bl	4334 <__retarget_lock_acquire_recursive>
    62de:	220c      	movs	r2, #12
    62e0:	5ea3      	ldrsh	r3, [r4, r2]
    62e2:	2b00      	cmp	r3, #0
    62e4:	d1c3      	bne.n	626e <_fclose_r+0x22>
    62e6:	6e63      	ldr	r3, [r4, #100]	; 0x64
    62e8:	001d      	movs	r5, r3
    62ea:	403d      	ands	r5, r7
    62ec:	423b      	tst	r3, r7
    62ee:	d012      	beq.n	6316 <_fclose_r+0xca>
    62f0:	2500      	movs	r5, #0
    62f2:	e7ec      	b.n	62ce <_fclose_r+0x82>
    62f4:	2701      	movs	r7, #1
    62f6:	f7fd fd59 	bl	3dac <__sinit>
    62fa:	6e63      	ldr	r3, [r4, #100]	; 0x64
    62fc:	423b      	tst	r3, r7
    62fe:	d1b2      	bne.n	6266 <_fclose_r+0x1a>
    6300:	e7e7      	b.n	62d2 <_fclose_r+0x86>
    6302:	2501      	movs	r5, #1
    6304:	89a3      	ldrh	r3, [r4, #12]
    6306:	426d      	negs	r5, r5
    6308:	061b      	lsls	r3, r3, #24
    630a:	d5c0      	bpl.n	628e <_fclose_r+0x42>
    630c:	0030      	movs	r0, r6
    630e:	6921      	ldr	r1, [r4, #16]
    6310:	f7fd fed6 	bl	40c0 <_free_r>
    6314:	e7bb      	b.n	628e <_fclose_r+0x42>
    6316:	6da0      	ldr	r0, [r4, #88]	; 0x58
    6318:	f7fe f814 	bl	4344 <__retarget_lock_release_recursive>
    631c:	e7d7      	b.n	62ce <_fclose_r+0x82>
    631e:	6da0      	ldr	r0, [r4, #88]	; 0x58
    6320:	f7fe f810 	bl	4344 <__retarget_lock_release_recursive>
    6324:	e7ce      	b.n	62c4 <_fclose_r+0x78>
    6326:	46c0      	nop			; (mov r8, r8)

00006328 <fclose>:
    6328:	b510      	push	{r4, lr}
    632a:	4b03      	ldr	r3, [pc, #12]	; (6338 <fclose+0x10>)
    632c:	0001      	movs	r1, r0
    632e:	6818      	ldr	r0, [r3, #0]
    6330:	f7ff ff8c 	bl	624c <_fclose_r>
    6334:	bd10      	pop	{r4, pc}
    6336:	46c0      	nop			; (mov r8, r8)
    6338:	000106f0 	.word	0x000106f0

0000633c <_fiprintf_r>:
    633c:	b40c      	push	{r2, r3}
    633e:	b500      	push	{lr}
    6340:	b083      	sub	sp, #12
    6342:	ab04      	add	r3, sp, #16
    6344:	cb04      	ldmia	r3!, {r2}
    6346:	9301      	str	r3, [sp, #4]
    6348:	f7ff f806 	bl	5358 <_vfiprintf_r>
    634c:	b003      	add	sp, #12
    634e:	bc08      	pop	{r3}
    6350:	b002      	add	sp, #8
    6352:	4718      	bx	r3

00006354 <fiprintf>:
    6354:	b40e      	push	{r1, r2, r3}
    6356:	b500      	push	{lr}
    6358:	b082      	sub	sp, #8
    635a:	ab03      	add	r3, sp, #12
    635c:	0001      	movs	r1, r0
    635e:	4805      	ldr	r0, [pc, #20]	; (6374 <fiprintf+0x20>)
    6360:	cb04      	ldmia	r3!, {r2}
    6362:	6800      	ldr	r0, [r0, #0]
    6364:	9301      	str	r3, [sp, #4]
    6366:	f7fe fff7 	bl	5358 <_vfiprintf_r>
    636a:	b002      	add	sp, #8
    636c:	bc08      	pop	{r3}
    636e:	b003      	add	sp, #12
    6370:	4718      	bx	r3
    6372:	46c0      	nop			; (mov r8, r8)
    6374:	000106f0 	.word	0x000106f0

00006378 <__fputwc>:
    6378:	b5f0      	push	{r4, r5, r6, r7, lr}
    637a:	46ce      	mov	lr, r9
    637c:	4647      	mov	r7, r8
    637e:	b580      	push	{r7, lr}
    6380:	b083      	sub	sp, #12
    6382:	4680      	mov	r8, r0
    6384:	4689      	mov	r9, r1
    6386:	0014      	movs	r4, r2
    6388:	f000 fa6c 	bl	6864 <__locale_mb_cur_max>
    638c:	2801      	cmp	r0, #1
    638e:	d103      	bne.n	6398 <__fputwc+0x20>
    6390:	464b      	mov	r3, r9
    6392:	3b01      	subs	r3, #1
    6394:	2bfe      	cmp	r3, #254	; 0xfe
    6396:	d930      	bls.n	63fa <__fputwc+0x82>
    6398:	0023      	movs	r3, r4
    639a:	af01      	add	r7, sp, #4
    639c:	464a      	mov	r2, r9
    639e:	0039      	movs	r1, r7
    63a0:	4640      	mov	r0, r8
    63a2:	335c      	adds	r3, #92	; 0x5c
    63a4:	f000 fd86 	bl	6eb4 <_wcrtomb_r>
    63a8:	0006      	movs	r6, r0
    63aa:	1c43      	adds	r3, r0, #1
    63ac:	d02b      	beq.n	6406 <__fputwc+0x8e>
    63ae:	2800      	cmp	r0, #0
    63b0:	d021      	beq.n	63f6 <__fputwc+0x7e>
    63b2:	7839      	ldrb	r1, [r7, #0]
    63b4:	2500      	movs	r5, #0
    63b6:	e007      	b.n	63c8 <__fputwc+0x50>
    63b8:	6823      	ldr	r3, [r4, #0]
    63ba:	1c5a      	adds	r2, r3, #1
    63bc:	6022      	str	r2, [r4, #0]
    63be:	7019      	strb	r1, [r3, #0]
    63c0:	3501      	adds	r5, #1
    63c2:	42b5      	cmp	r5, r6
    63c4:	d217      	bcs.n	63f6 <__fputwc+0x7e>
    63c6:	5d79      	ldrb	r1, [r7, r5]
    63c8:	68a3      	ldr	r3, [r4, #8]
    63ca:	3b01      	subs	r3, #1
    63cc:	60a3      	str	r3, [r4, #8]
    63ce:	2b00      	cmp	r3, #0
    63d0:	daf2      	bge.n	63b8 <__fputwc+0x40>
    63d2:	69a2      	ldr	r2, [r4, #24]
    63d4:	4293      	cmp	r3, r2
    63d6:	db01      	blt.n	63dc <__fputwc+0x64>
    63d8:	290a      	cmp	r1, #10
    63da:	d1ed      	bne.n	63b8 <__fputwc+0x40>
    63dc:	0022      	movs	r2, r4
    63de:	4640      	mov	r0, r8
    63e0:	f000 fcf8 	bl	6dd4 <__swbuf_r>
    63e4:	1c43      	adds	r3, r0, #1
    63e6:	d1eb      	bne.n	63c0 <__fputwc+0x48>
    63e8:	0006      	movs	r6, r0
    63ea:	0030      	movs	r0, r6
    63ec:	b003      	add	sp, #12
    63ee:	bcc0      	pop	{r6, r7}
    63f0:	46b9      	mov	r9, r7
    63f2:	46b0      	mov	r8, r6
    63f4:	bdf0      	pop	{r4, r5, r6, r7, pc}
    63f6:	464e      	mov	r6, r9
    63f8:	e7f7      	b.n	63ea <__fputwc+0x72>
    63fa:	464b      	mov	r3, r9
    63fc:	af01      	add	r7, sp, #4
    63fe:	b2d9      	uxtb	r1, r3
    6400:	2601      	movs	r6, #1
    6402:	7039      	strb	r1, [r7, #0]
    6404:	e7d6      	b.n	63b4 <__fputwc+0x3c>
    6406:	2240      	movs	r2, #64	; 0x40
    6408:	89a3      	ldrh	r3, [r4, #12]
    640a:	4313      	orrs	r3, r2
    640c:	81a3      	strh	r3, [r4, #12]
    640e:	e7ec      	b.n	63ea <__fputwc+0x72>

00006410 <_fputwc_r>:
    6410:	6e53      	ldr	r3, [r2, #100]	; 0x64
    6412:	b570      	push	{r4, r5, r6, lr}
    6414:	0005      	movs	r5, r0
    6416:	000e      	movs	r6, r1
    6418:	0014      	movs	r4, r2
    641a:	07db      	lsls	r3, r3, #31
    641c:	d41e      	bmi.n	645c <_fputwc_r+0x4c>
    641e:	89a1      	ldrh	r1, [r4, #12]
    6420:	230c      	movs	r3, #12
    6422:	5ed2      	ldrsh	r2, [r2, r3]
    6424:	058b      	lsls	r3, r1, #22
    6426:	d516      	bpl.n	6456 <_fputwc_r+0x46>
    6428:	2380      	movs	r3, #128	; 0x80
    642a:	019b      	lsls	r3, r3, #6
    642c:	4219      	tst	r1, r3
    642e:	d104      	bne.n	643a <_fputwc_r+0x2a>
    6430:	431a      	orrs	r2, r3
    6432:	81a2      	strh	r2, [r4, #12]
    6434:	6e62      	ldr	r2, [r4, #100]	; 0x64
    6436:	4313      	orrs	r3, r2
    6438:	6663      	str	r3, [r4, #100]	; 0x64
    643a:	0028      	movs	r0, r5
    643c:	0022      	movs	r2, r4
    643e:	0031      	movs	r1, r6
    6440:	f7ff ff9a 	bl	6378 <__fputwc>
    6444:	6e63      	ldr	r3, [r4, #100]	; 0x64
    6446:	0005      	movs	r5, r0
    6448:	07db      	lsls	r3, r3, #31
    644a:	d402      	bmi.n	6452 <_fputwc_r+0x42>
    644c:	89a3      	ldrh	r3, [r4, #12]
    644e:	059b      	lsls	r3, r3, #22
    6450:	d508      	bpl.n	6464 <_fputwc_r+0x54>
    6452:	0028      	movs	r0, r5
    6454:	bd70      	pop	{r4, r5, r6, pc}
    6456:	6da0      	ldr	r0, [r4, #88]	; 0x58
    6458:	f7fd ff6c 	bl	4334 <__retarget_lock_acquire_recursive>
    645c:	230c      	movs	r3, #12
    645e:	5ee2      	ldrsh	r2, [r4, r3]
    6460:	89a1      	ldrh	r1, [r4, #12]
    6462:	e7e1      	b.n	6428 <_fputwc_r+0x18>
    6464:	6da0      	ldr	r0, [r4, #88]	; 0x58
    6466:	f7fd ff6d 	bl	4344 <__retarget_lock_release_recursive>
    646a:	e7f2      	b.n	6452 <_fputwc_r+0x42>

0000646c <fputwc>:
    646c:	4b1b      	ldr	r3, [pc, #108]	; (64dc <fputwc+0x70>)
    646e:	b570      	push	{r4, r5, r6, lr}
    6470:	681e      	ldr	r6, [r3, #0]
    6472:	0005      	movs	r5, r0
    6474:	000c      	movs	r4, r1
    6476:	2e00      	cmp	r6, #0
    6478:	d002      	beq.n	6480 <fputwc+0x14>
    647a:	6bb3      	ldr	r3, [r6, #56]	; 0x38
    647c:	2b00      	cmp	r3, #0
    647e:	d025      	beq.n	64cc <fputwc+0x60>
    6480:	6e63      	ldr	r3, [r4, #100]	; 0x64
    6482:	07db      	lsls	r3, r3, #31
    6484:	d41e      	bmi.n	64c4 <fputwc+0x58>
    6486:	89a1      	ldrh	r1, [r4, #12]
    6488:	230c      	movs	r3, #12
    648a:	5ee2      	ldrsh	r2, [r4, r3]
    648c:	058b      	lsls	r3, r1, #22
    648e:	d516      	bpl.n	64be <fputwc+0x52>
    6490:	2380      	movs	r3, #128	; 0x80
    6492:	019b      	lsls	r3, r3, #6
    6494:	4219      	tst	r1, r3
    6496:	d104      	bne.n	64a2 <fputwc+0x36>
    6498:	431a      	orrs	r2, r3
    649a:	81a2      	strh	r2, [r4, #12]
    649c:	6e62      	ldr	r2, [r4, #100]	; 0x64
    649e:	4313      	orrs	r3, r2
    64a0:	6663      	str	r3, [r4, #100]	; 0x64
    64a2:	0029      	movs	r1, r5
    64a4:	0022      	movs	r2, r4
    64a6:	0030      	movs	r0, r6
    64a8:	f7ff ff66 	bl	6378 <__fputwc>
    64ac:	6e63      	ldr	r3, [r4, #100]	; 0x64
    64ae:	0005      	movs	r5, r0
    64b0:	07db      	lsls	r3, r3, #31
    64b2:	d402      	bmi.n	64ba <fputwc+0x4e>
    64b4:	89a3      	ldrh	r3, [r4, #12]
    64b6:	059b      	lsls	r3, r3, #22
    64b8:	d50c      	bpl.n	64d4 <fputwc+0x68>
    64ba:	0028      	movs	r0, r5
    64bc:	bd70      	pop	{r4, r5, r6, pc}
    64be:	6da0      	ldr	r0, [r4, #88]	; 0x58
    64c0:	f7fd ff38 	bl	4334 <__retarget_lock_acquire_recursive>
    64c4:	230c      	movs	r3, #12
    64c6:	5ee2      	ldrsh	r2, [r4, r3]
    64c8:	89a1      	ldrh	r1, [r4, #12]
    64ca:	e7e1      	b.n	6490 <fputwc+0x24>
    64cc:	0030      	movs	r0, r6
    64ce:	f7fd fc6d 	bl	3dac <__sinit>
    64d2:	e7d5      	b.n	6480 <fputwc+0x14>
    64d4:	6da0      	ldr	r0, [r4, #88]	; 0x58
    64d6:	f7fd ff35 	bl	4344 <__retarget_lock_release_recursive>
    64da:	e7ee      	b.n	64ba <fputwc+0x4e>
    64dc:	000106f0 	.word	0x000106f0

000064e0 <_fstat_r>:
    64e0:	2300      	movs	r3, #0
    64e2:	b570      	push	{r4, r5, r6, lr}
    64e4:	4d07      	ldr	r5, [pc, #28]	; (6504 <_fstat_r+0x24>)
    64e6:	0004      	movs	r4, r0
    64e8:	0008      	movs	r0, r1
    64ea:	0011      	movs	r1, r2
    64ec:	602b      	str	r3, [r5, #0]
    64ee:	f003 fbab 	bl	9c48 <_fstat>
    64f2:	1c43      	adds	r3, r0, #1
    64f4:	d000      	beq.n	64f8 <_fstat_r+0x18>
    64f6:	bd70      	pop	{r4, r5, r6, pc}
    64f8:	682b      	ldr	r3, [r5, #0]
    64fa:	2b00      	cmp	r3, #0
    64fc:	d0fb      	beq.n	64f6 <_fstat_r+0x16>
    64fe:	6023      	str	r3, [r4, #0]
    6500:	e7f9      	b.n	64f6 <_fstat_r+0x16>
    6502:	46c0      	nop			; (mov r8, r8)
    6504:	40000058 	.word	0x40000058

00006508 <__sfvwrite_r>:
    6508:	b5f0      	push	{r4, r5, r6, r7, lr}
    650a:	46de      	mov	lr, fp
    650c:	4645      	mov	r5, r8
    650e:	4657      	mov	r7, sl
    6510:	464e      	mov	r6, r9
    6512:	b5e0      	push	{r5, r6, r7, lr}
    6514:	6893      	ldr	r3, [r2, #8]
    6516:	4683      	mov	fp, r0
    6518:	000c      	movs	r4, r1
    651a:	4690      	mov	r8, r2
    651c:	b083      	sub	sp, #12
    651e:	2b00      	cmp	r3, #0
    6520:	d023      	beq.n	656a <__sfvwrite_r+0x62>
    6522:	898b      	ldrh	r3, [r1, #12]
    6524:	071a      	lsls	r2, r3, #28
    6526:	d528      	bpl.n	657a <__sfvwrite_r+0x72>
    6528:	690a      	ldr	r2, [r1, #16]
    652a:	2a00      	cmp	r2, #0
    652c:	d025      	beq.n	657a <__sfvwrite_r+0x72>
    652e:	4642      	mov	r2, r8
    6530:	6816      	ldr	r6, [r2, #0]
    6532:	079a      	lsls	r2, r3, #30
    6534:	d52d      	bpl.n	6592 <__sfvwrite_r+0x8a>
    6536:	2700      	movs	r7, #0
    6538:	4bac      	ldr	r3, [pc, #688]	; (67ec <__sfvwrite_r+0x2e4>)
    653a:	2500      	movs	r5, #0
    653c:	4699      	mov	r9, r3
    653e:	46ba      	mov	sl, r7
    6540:	2d00      	cmp	r5, #0
    6542:	d058      	beq.n	65f6 <__sfvwrite_r+0xee>
    6544:	002b      	movs	r3, r5
    6546:	454d      	cmp	r5, r9
    6548:	d900      	bls.n	654c <__sfvwrite_r+0x44>
    654a:	4ba8      	ldr	r3, [pc, #672]	; (67ec <__sfvwrite_r+0x2e4>)
    654c:	4652      	mov	r2, sl
    654e:	4658      	mov	r0, fp
    6550:	69e1      	ldr	r1, [r4, #28]
    6552:	6a67      	ldr	r7, [r4, #36]	; 0x24
    6554:	47b8      	blx	r7
    6556:	2800      	cmp	r0, #0
    6558:	dd58      	ble.n	660c <__sfvwrite_r+0x104>
    655a:	4643      	mov	r3, r8
    655c:	689b      	ldr	r3, [r3, #8]
    655e:	4482      	add	sl, r0
    6560:	1a2d      	subs	r5, r5, r0
    6562:	1a18      	subs	r0, r3, r0
    6564:	4643      	mov	r3, r8
    6566:	6098      	str	r0, [r3, #8]
    6568:	d1ea      	bne.n	6540 <__sfvwrite_r+0x38>
    656a:	2000      	movs	r0, #0
    656c:	b003      	add	sp, #12
    656e:	bcf0      	pop	{r4, r5, r6, r7}
    6570:	46bb      	mov	fp, r7
    6572:	46b2      	mov	sl, r6
    6574:	46a9      	mov	r9, r5
    6576:	46a0      	mov	r8, r4
    6578:	bdf0      	pop	{r4, r5, r6, r7, pc}
    657a:	0021      	movs	r1, r4
    657c:	4658      	mov	r0, fp
    657e:	f7fc f9cb 	bl	2918 <__swsetup_r>
    6582:	2800      	cmp	r0, #0
    6584:	d000      	beq.n	6588 <__sfvwrite_r+0x80>
    6586:	e12d      	b.n	67e4 <__sfvwrite_r+0x2dc>
    6588:	4642      	mov	r2, r8
    658a:	89a3      	ldrh	r3, [r4, #12]
    658c:	6816      	ldr	r6, [r2, #0]
    658e:	079a      	lsls	r2, r3, #30
    6590:	d4d1      	bmi.n	6536 <__sfvwrite_r+0x2e>
    6592:	07da      	lsls	r2, r3, #31
    6594:	d442      	bmi.n	661c <__sfvwrite_r+0x114>
    6596:	2200      	movs	r2, #0
    6598:	2700      	movs	r7, #0
    659a:	4691      	mov	r9, r2
    659c:	2f00      	cmp	r7, #0
    659e:	d025      	beq.n	65ec <__sfvwrite_r+0xe4>
    65a0:	2280      	movs	r2, #128	; 0x80
    65a2:	0092      	lsls	r2, r2, #2
    65a4:	68a5      	ldr	r5, [r4, #8]
    65a6:	4213      	tst	r3, r2
    65a8:	d100      	bne.n	65ac <__sfvwrite_r+0xa4>
    65aa:	e080      	b.n	66ae <__sfvwrite_r+0x1a6>
    65ac:	46aa      	mov	sl, r5
    65ae:	42bd      	cmp	r5, r7
    65b0:	d900      	bls.n	65b4 <__sfvwrite_r+0xac>
    65b2:	e0af      	b.n	6714 <__sfvwrite_r+0x20c>
    65b4:	2290      	movs	r2, #144	; 0x90
    65b6:	00d2      	lsls	r2, r2, #3
    65b8:	4213      	tst	r3, r2
    65ba:	d000      	beq.n	65be <__sfvwrite_r+0xb6>
    65bc:	e0bb      	b.n	6736 <__sfvwrite_r+0x22e>
    65be:	6820      	ldr	r0, [r4, #0]
    65c0:	4652      	mov	r2, sl
    65c2:	4649      	mov	r1, r9
    65c4:	f000 f9ae 	bl	6924 <memmove>
    65c8:	68a3      	ldr	r3, [r4, #8]
    65ca:	1b5d      	subs	r5, r3, r5
    65cc:	60a5      	str	r5, [r4, #8]
    65ce:	003d      	movs	r5, r7
    65d0:	2700      	movs	r7, #0
    65d2:	6823      	ldr	r3, [r4, #0]
    65d4:	4453      	add	r3, sl
    65d6:	6023      	str	r3, [r4, #0]
    65d8:	4643      	mov	r3, r8
    65da:	689b      	ldr	r3, [r3, #8]
    65dc:	44a9      	add	r9, r5
    65de:	1b5d      	subs	r5, r3, r5
    65e0:	4643      	mov	r3, r8
    65e2:	609d      	str	r5, [r3, #8]
    65e4:	d0c1      	beq.n	656a <__sfvwrite_r+0x62>
    65e6:	89a3      	ldrh	r3, [r4, #12]
    65e8:	2f00      	cmp	r7, #0
    65ea:	d1d9      	bne.n	65a0 <__sfvwrite_r+0x98>
    65ec:	6832      	ldr	r2, [r6, #0]
    65ee:	6877      	ldr	r7, [r6, #4]
    65f0:	4691      	mov	r9, r2
    65f2:	3608      	adds	r6, #8
    65f4:	e7d2      	b.n	659c <__sfvwrite_r+0x94>
    65f6:	6833      	ldr	r3, [r6, #0]
    65f8:	6875      	ldr	r5, [r6, #4]
    65fa:	469a      	mov	sl, r3
    65fc:	3608      	adds	r6, #8
    65fe:	e79f      	b.n	6540 <__sfvwrite_r+0x38>
    6600:	0021      	movs	r1, r4
    6602:	9801      	ldr	r0, [sp, #4]
    6604:	f7fd fb18 	bl	3c38 <_fflush_r>
    6608:	2800      	cmp	r0, #0
    660a:	d02f      	beq.n	666c <__sfvwrite_r+0x164>
    660c:	220c      	movs	r2, #12
    660e:	5ea3      	ldrsh	r3, [r4, r2]
    6610:	2240      	movs	r2, #64	; 0x40
    6612:	2001      	movs	r0, #1
    6614:	4313      	orrs	r3, r2
    6616:	81a3      	strh	r3, [r4, #12]
    6618:	4240      	negs	r0, r0
    661a:	e7a7      	b.n	656c <__sfvwrite_r+0x64>
    661c:	2300      	movs	r3, #0
    661e:	2200      	movs	r2, #0
    6620:	46b1      	mov	r9, r6
    6622:	2700      	movs	r7, #0
    6624:	001e      	movs	r6, r3
    6626:	465b      	mov	r3, fp
    6628:	2000      	movs	r0, #0
    662a:	4692      	mov	sl, r2
    662c:	9301      	str	r3, [sp, #4]
    662e:	2f00      	cmp	r7, #0
    6630:	d027      	beq.n	6682 <__sfvwrite_r+0x17a>
    6632:	2800      	cmp	r0, #0
    6634:	d02f      	beq.n	6696 <__sfvwrite_r+0x18e>
    6636:	0033      	movs	r3, r6
    6638:	46bb      	mov	fp, r7
    663a:	429f      	cmp	r7, r3
    663c:	d900      	bls.n	6640 <__sfvwrite_r+0x138>
    663e:	469b      	mov	fp, r3
    6640:	6820      	ldr	r0, [r4, #0]
    6642:	6922      	ldr	r2, [r4, #16]
    6644:	6963      	ldr	r3, [r4, #20]
    6646:	4290      	cmp	r0, r2
    6648:	d904      	bls.n	6654 <__sfvwrite_r+0x14c>
    664a:	68a2      	ldr	r2, [r4, #8]
    664c:	189d      	adds	r5, r3, r2
    664e:	45ab      	cmp	fp, r5
    6650:	dd00      	ble.n	6654 <__sfvwrite_r+0x14c>
    6652:	e09e      	b.n	6792 <__sfvwrite_r+0x28a>
    6654:	455b      	cmp	r3, fp
    6656:	dc61      	bgt.n	671c <__sfvwrite_r+0x214>
    6658:	6a65      	ldr	r5, [r4, #36]	; 0x24
    665a:	4652      	mov	r2, sl
    665c:	69e1      	ldr	r1, [r4, #28]
    665e:	9801      	ldr	r0, [sp, #4]
    6660:	47a8      	blx	r5
    6662:	1e05      	subs	r5, r0, #0
    6664:	ddd2      	ble.n	660c <__sfvwrite_r+0x104>
    6666:	2001      	movs	r0, #1
    6668:	1b76      	subs	r6, r6, r5
    666a:	d0c9      	beq.n	6600 <__sfvwrite_r+0xf8>
    666c:	4643      	mov	r3, r8
    666e:	689b      	ldr	r3, [r3, #8]
    6670:	44aa      	add	sl, r5
    6672:	1b7f      	subs	r7, r7, r5
    6674:	1b5d      	subs	r5, r3, r5
    6676:	4643      	mov	r3, r8
    6678:	609d      	str	r5, [r3, #8]
    667a:	d100      	bne.n	667e <__sfvwrite_r+0x176>
    667c:	e775      	b.n	656a <__sfvwrite_r+0x62>
    667e:	2f00      	cmp	r7, #0
    6680:	d1d7      	bne.n	6632 <__sfvwrite_r+0x12a>
    6682:	464b      	mov	r3, r9
    6684:	681b      	ldr	r3, [r3, #0]
    6686:	469a      	mov	sl, r3
    6688:	464b      	mov	r3, r9
    668a:	685f      	ldr	r7, [r3, #4]
    668c:	2308      	movs	r3, #8
    668e:	469c      	mov	ip, r3
    6690:	44e1      	add	r9, ip
    6692:	2f00      	cmp	r7, #0
    6694:	d0f5      	beq.n	6682 <__sfvwrite_r+0x17a>
    6696:	003a      	movs	r2, r7
    6698:	210a      	movs	r1, #10
    669a:	4650      	mov	r0, sl
    669c:	f7fd fef6 	bl	448c <memchr>
    66a0:	2800      	cmp	r0, #0
    66a2:	d100      	bne.n	66a6 <__sfvwrite_r+0x19e>
    66a4:	e095      	b.n	67d2 <__sfvwrite_r+0x2ca>
    66a6:	4653      	mov	r3, sl
    66a8:	3001      	adds	r0, #1
    66aa:	1ac6      	subs	r6, r0, r3
    66ac:	e7c3      	b.n	6636 <__sfvwrite_r+0x12e>
    66ae:	6820      	ldr	r0, [r4, #0]
    66b0:	6923      	ldr	r3, [r4, #16]
    66b2:	4298      	cmp	r0, r3
    66b4:	d816      	bhi.n	66e4 <__sfvwrite_r+0x1dc>
    66b6:	6963      	ldr	r3, [r4, #20]
    66b8:	469a      	mov	sl, r3
    66ba:	42bb      	cmp	r3, r7
    66bc:	d812      	bhi.n	66e4 <__sfvwrite_r+0x1dc>
    66be:	4b4c      	ldr	r3, [pc, #304]	; (67f0 <__sfvwrite_r+0x2e8>)
    66c0:	0038      	movs	r0, r7
    66c2:	429f      	cmp	r7, r3
    66c4:	d900      	bls.n	66c8 <__sfvwrite_r+0x1c0>
    66c6:	484b      	ldr	r0, [pc, #300]	; (67f4 <__sfvwrite_r+0x2ec>)
    66c8:	4651      	mov	r1, sl
    66ca:	f000 fe45 	bl	7358 <__divsi3>
    66ce:	4653      	mov	r3, sl
    66d0:	6a65      	ldr	r5, [r4, #36]	; 0x24
    66d2:	4343      	muls	r3, r0
    66d4:	464a      	mov	r2, r9
    66d6:	4658      	mov	r0, fp
    66d8:	69e1      	ldr	r1, [r4, #28]
    66da:	47a8      	blx	r5
    66dc:	1e05      	subs	r5, r0, #0
    66de:	dd95      	ble.n	660c <__sfvwrite_r+0x104>
    66e0:	1b7f      	subs	r7, r7, r5
    66e2:	e779      	b.n	65d8 <__sfvwrite_r+0xd0>
    66e4:	42bd      	cmp	r5, r7
    66e6:	d900      	bls.n	66ea <__sfvwrite_r+0x1e2>
    66e8:	003d      	movs	r5, r7
    66ea:	002a      	movs	r2, r5
    66ec:	4649      	mov	r1, r9
    66ee:	f000 f919 	bl	6924 <memmove>
    66f2:	68a3      	ldr	r3, [r4, #8]
    66f4:	6822      	ldr	r2, [r4, #0]
    66f6:	1b5b      	subs	r3, r3, r5
    66f8:	1952      	adds	r2, r2, r5
    66fa:	60a3      	str	r3, [r4, #8]
    66fc:	6022      	str	r2, [r4, #0]
    66fe:	2b00      	cmp	r3, #0
    6700:	d1ee      	bne.n	66e0 <__sfvwrite_r+0x1d8>
    6702:	0021      	movs	r1, r4
    6704:	4658      	mov	r0, fp
    6706:	f7fd fa97 	bl	3c38 <_fflush_r>
    670a:	2800      	cmp	r0, #0
    670c:	d000      	beq.n	6710 <__sfvwrite_r+0x208>
    670e:	e77d      	b.n	660c <__sfvwrite_r+0x104>
    6710:	1b7f      	subs	r7, r7, r5
    6712:	e761      	b.n	65d8 <__sfvwrite_r+0xd0>
    6714:	003d      	movs	r5, r7
    6716:	46ba      	mov	sl, r7
    6718:	6820      	ldr	r0, [r4, #0]
    671a:	e751      	b.n	65c0 <__sfvwrite_r+0xb8>
    671c:	465a      	mov	r2, fp
    671e:	4651      	mov	r1, sl
    6720:	f000 f900 	bl	6924 <memmove>
    6724:	465a      	mov	r2, fp
    6726:	68a3      	ldr	r3, [r4, #8]
    6728:	465d      	mov	r5, fp
    672a:	1a9b      	subs	r3, r3, r2
    672c:	60a3      	str	r3, [r4, #8]
    672e:	6823      	ldr	r3, [r4, #0]
    6730:	445b      	add	r3, fp
    6732:	6023      	str	r3, [r4, #0]
    6734:	e797      	b.n	6666 <__sfvwrite_r+0x15e>
    6736:	6960      	ldr	r0, [r4, #20]
    6738:	6822      	ldr	r2, [r4, #0]
    673a:	6921      	ldr	r1, [r4, #16]
    673c:	1a55      	subs	r5, r2, r1
    673e:	0042      	lsls	r2, r0, #1
    6740:	1812      	adds	r2, r2, r0
    6742:	0fd0      	lsrs	r0, r2, #31
    6744:	1882      	adds	r2, r0, r2
    6746:	1c68      	adds	r0, r5, #1
    6748:	1052      	asrs	r2, r2, #1
    674a:	19c0      	adds	r0, r0, r7
    674c:	4692      	mov	sl, r2
    674e:	9501      	str	r5, [sp, #4]
    6750:	4290      	cmp	r0, r2
    6752:	d901      	bls.n	6758 <__sfvwrite_r+0x250>
    6754:	4682      	mov	sl, r0
    6756:	0002      	movs	r2, r0
    6758:	055b      	lsls	r3, r3, #21
    675a:	d529      	bpl.n	67b0 <__sfvwrite_r+0x2a8>
    675c:	0011      	movs	r1, r2
    675e:	4658      	mov	r0, fp
    6760:	f7f9 fedc 	bl	51c <_malloc_r>
    6764:	1e05      	subs	r5, r0, #0
    6766:	d037      	beq.n	67d8 <__sfvwrite_r+0x2d0>
    6768:	9a01      	ldr	r2, [sp, #4]
    676a:	6921      	ldr	r1, [r4, #16]
    676c:	f7fa f998 	bl	aa0 <memcpy>
    6770:	89a3      	ldrh	r3, [r4, #12]
    6772:	4a21      	ldr	r2, [pc, #132]	; (67f8 <__sfvwrite_r+0x2f0>)
    6774:	4013      	ands	r3, r2
    6776:	2280      	movs	r2, #128	; 0x80
    6778:	4313      	orrs	r3, r2
    677a:	81a3      	strh	r3, [r4, #12]
    677c:	4652      	mov	r2, sl
    677e:	9b01      	ldr	r3, [sp, #4]
    6780:	6125      	str	r5, [r4, #16]
    6782:	18e8      	adds	r0, r5, r3
    6784:	1ad3      	subs	r3, r2, r3
    6786:	003d      	movs	r5, r7
    6788:	46ba      	mov	sl, r7
    678a:	6020      	str	r0, [r4, #0]
    678c:	6162      	str	r2, [r4, #20]
    678e:	60a3      	str	r3, [r4, #8]
    6790:	e716      	b.n	65c0 <__sfvwrite_r+0xb8>
    6792:	4651      	mov	r1, sl
    6794:	002a      	movs	r2, r5
    6796:	f000 f8c5 	bl	6924 <memmove>
    679a:	6823      	ldr	r3, [r4, #0]
    679c:	0021      	movs	r1, r4
    679e:	195b      	adds	r3, r3, r5
    67a0:	9801      	ldr	r0, [sp, #4]
    67a2:	6023      	str	r3, [r4, #0]
    67a4:	f7fd fa48 	bl	3c38 <_fflush_r>
    67a8:	2800      	cmp	r0, #0
    67aa:	d100      	bne.n	67ae <__sfvwrite_r+0x2a6>
    67ac:	e75b      	b.n	6666 <__sfvwrite_r+0x15e>
    67ae:	e72d      	b.n	660c <__sfvwrite_r+0x104>
    67b0:	4658      	mov	r0, fp
    67b2:	f000 f921 	bl	69f8 <_realloc_r>
    67b6:	1e05      	subs	r5, r0, #0
    67b8:	d1e0      	bne.n	677c <__sfvwrite_r+0x274>
    67ba:	6921      	ldr	r1, [r4, #16]
    67bc:	4658      	mov	r0, fp
    67be:	f7fd fc7f 	bl	40c0 <_free_r>
    67c2:	2280      	movs	r2, #128	; 0x80
    67c4:	4659      	mov	r1, fp
    67c6:	89a3      	ldrh	r3, [r4, #12]
    67c8:	4393      	bics	r3, r2
    67ca:	3a74      	subs	r2, #116	; 0x74
    67cc:	b21b      	sxth	r3, r3
    67ce:	600a      	str	r2, [r1, #0]
    67d0:	e71e      	b.n	6610 <__sfvwrite_r+0x108>
    67d2:	1c7b      	adds	r3, r7, #1
    67d4:	001e      	movs	r6, r3
    67d6:	e72f      	b.n	6638 <__sfvwrite_r+0x130>
    67d8:	230c      	movs	r3, #12
    67da:	465a      	mov	r2, fp
    67dc:	6013      	str	r3, [r2, #0]
    67de:	220c      	movs	r2, #12
    67e0:	5ea3      	ldrsh	r3, [r4, r2]
    67e2:	e715      	b.n	6610 <__sfvwrite_r+0x108>
    67e4:	2001      	movs	r0, #1
    67e6:	4240      	negs	r0, r0
    67e8:	e6c0      	b.n	656c <__sfvwrite_r+0x64>
    67ea:	46c0      	nop			; (mov r8, r8)
    67ec:	7ffffc00 	.word	0x7ffffc00
    67f0:	7ffffffe 	.word	0x7ffffffe
    67f4:	7fffffff 	.word	0x7fffffff
    67f8:	fffffb7f 	.word	0xfffffb7f

000067fc <_isatty_r>:
    67fc:	2300      	movs	r3, #0
    67fe:	b570      	push	{r4, r5, r6, lr}
    6800:	4d06      	ldr	r5, [pc, #24]	; (681c <_isatty_r+0x20>)
    6802:	0004      	movs	r4, r0
    6804:	0008      	movs	r0, r1
    6806:	602b      	str	r3, [r5, #0]
    6808:	f003 fa2e 	bl	9c68 <_isatty>
    680c:	1c43      	adds	r3, r0, #1
    680e:	d000      	beq.n	6812 <_isatty_r+0x16>
    6810:	bd70      	pop	{r4, r5, r6, pc}
    6812:	682b      	ldr	r3, [r5, #0]
    6814:	2b00      	cmp	r3, #0
    6816:	d0fb      	beq.n	6810 <_isatty_r+0x14>
    6818:	6023      	str	r3, [r4, #0]
    681a:	e7f9      	b.n	6810 <_isatty_r+0x14>
    681c:	40000058 	.word	0x40000058

00006820 <_setlocale_r>:
    6820:	b570      	push	{r4, r5, r6, lr}
    6822:	1e14      	subs	r4, r2, #0
    6824:	d005      	beq.n	6832 <_setlocale_r+0x12>
    6826:	0010      	movs	r0, r2
    6828:	490b      	ldr	r1, [pc, #44]	; (6858 <_setlocale_r+0x38>)
    682a:	f000 fa8f 	bl	6d4c <strcmp>
    682e:	2800      	cmp	r0, #0
    6830:	d102      	bne.n	6838 <_setlocale_r+0x18>
    6832:	4d0a      	ldr	r5, [pc, #40]	; (685c <_setlocale_r+0x3c>)
    6834:	0028      	movs	r0, r5
    6836:	bd70      	pop	{r4, r5, r6, pc}
    6838:	4d08      	ldr	r5, [pc, #32]	; (685c <_setlocale_r+0x3c>)
    683a:	0020      	movs	r0, r4
    683c:	0029      	movs	r1, r5
    683e:	f000 fa85 	bl	6d4c <strcmp>
    6842:	2800      	cmp	r0, #0
    6844:	d0f6      	beq.n	6834 <_setlocale_r+0x14>
    6846:	0020      	movs	r0, r4
    6848:	4905      	ldr	r1, [pc, #20]	; (6860 <_setlocale_r+0x40>)
    684a:	f000 fa7f 	bl	6d4c <strcmp>
    684e:	2800      	cmp	r0, #0
    6850:	d0f0      	beq.n	6834 <_setlocale_r+0x14>
    6852:	2000      	movs	r0, #0
    6854:	e7ef      	b.n	6836 <_setlocale_r+0x16>
    6856:	46c0      	nop			; (mov r8, r8)
    6858:	0000a5cc 	.word	0x0000a5cc
    685c:	0000a5c8 	.word	0x0000a5c8
    6860:	0000a5d4 	.word	0x0000a5d4

00006864 <__locale_mb_cur_max>:
    6864:	2394      	movs	r3, #148	; 0x94
    6866:	4a02      	ldr	r2, [pc, #8]	; (6870 <__locale_mb_cur_max+0xc>)
    6868:	005b      	lsls	r3, r3, #1
    686a:	5cd0      	ldrb	r0, [r2, r3]
    686c:	4770      	bx	lr
    686e:	46c0      	nop			; (mov r8, r8)
    6870:	00010f30 	.word	0x00010f30

00006874 <setlocale>:
    6874:	b570      	push	{r4, r5, r6, lr}
    6876:	1e0c      	subs	r4, r1, #0
    6878:	d005      	beq.n	6886 <setlocale+0x12>
    687a:	0020      	movs	r0, r4
    687c:	490b      	ldr	r1, [pc, #44]	; (68ac <setlocale+0x38>)
    687e:	f000 fa65 	bl	6d4c <strcmp>
    6882:	2800      	cmp	r0, #0
    6884:	d102      	bne.n	688c <setlocale+0x18>
    6886:	4d0a      	ldr	r5, [pc, #40]	; (68b0 <setlocale+0x3c>)
    6888:	0028      	movs	r0, r5
    688a:	bd70      	pop	{r4, r5, r6, pc}
    688c:	4d08      	ldr	r5, [pc, #32]	; (68b0 <setlocale+0x3c>)
    688e:	0020      	movs	r0, r4
    6890:	0029      	movs	r1, r5
    6892:	f000 fa5b 	bl	6d4c <strcmp>
    6896:	2800      	cmp	r0, #0
    6898:	d0f6      	beq.n	6888 <setlocale+0x14>
    689a:	0020      	movs	r0, r4
    689c:	4905      	ldr	r1, [pc, #20]	; (68b4 <setlocale+0x40>)
    689e:	f000 fa55 	bl	6d4c <strcmp>
    68a2:	2800      	cmp	r0, #0
    68a4:	d0f0      	beq.n	6888 <setlocale+0x14>
    68a6:	2000      	movs	r0, #0
    68a8:	e7ef      	b.n	688a <setlocale+0x16>
    68aa:	46c0      	nop			; (mov r8, r8)
    68ac:	0000a5cc 	.word	0x0000a5cc
    68b0:	0000a5c8 	.word	0x0000a5c8
    68b4:	0000a5d4 	.word	0x0000a5d4

000068b8 <_lseek_r>:
    68b8:	b570      	push	{r4, r5, r6, lr}
    68ba:	0004      	movs	r4, r0
    68bc:	0008      	movs	r0, r1
    68be:	0011      	movs	r1, r2
    68c0:	001a      	movs	r2, r3
    68c2:	2300      	movs	r3, #0
    68c4:	4d05      	ldr	r5, [pc, #20]	; (68dc <_lseek_r+0x24>)
    68c6:	602b      	str	r3, [r5, #0]
    68c8:	f003 f9de 	bl	9c88 <_lseek>
    68cc:	1c43      	adds	r3, r0, #1
    68ce:	d000      	beq.n	68d2 <_lseek_r+0x1a>
    68d0:	bd70      	pop	{r4, r5, r6, pc}
    68d2:	682b      	ldr	r3, [r5, #0]
    68d4:	2b00      	cmp	r3, #0
    68d6:	d0fb      	beq.n	68d0 <_lseek_r+0x18>
    68d8:	6023      	str	r3, [r4, #0]
    68da:	e7f9      	b.n	68d0 <_lseek_r+0x18>
    68dc:	40000058 	.word	0x40000058

000068e0 <_mbtowc_r>:
    68e0:	b530      	push	{r4, r5, lr}
    68e2:	b083      	sub	sp, #12
    68e4:	9c06      	ldr	r4, [sp, #24]
    68e6:	4d03      	ldr	r5, [pc, #12]	; (68f4 <_mbtowc_r+0x14>)
    68e8:	9400      	str	r4, [sp, #0]
    68ea:	24e4      	movs	r4, #228	; 0xe4
    68ec:	592c      	ldr	r4, [r5, r4]
    68ee:	47a0      	blx	r4
    68f0:	b003      	add	sp, #12
    68f2:	bd30      	pop	{r4, r5, pc}
    68f4:	00010f30 	.word	0x00010f30

000068f8 <__ascii_mbtowc>:
    68f8:	b082      	sub	sp, #8
    68fa:	2900      	cmp	r1, #0
    68fc:	d00a      	beq.n	6914 <__ascii_mbtowc+0x1c>
    68fe:	2a00      	cmp	r2, #0
    6900:	d00b      	beq.n	691a <__ascii_mbtowc+0x22>
    6902:	2b00      	cmp	r3, #0
    6904:	d00b      	beq.n	691e <__ascii_mbtowc+0x26>
    6906:	7813      	ldrb	r3, [r2, #0]
    6908:	600b      	str	r3, [r1, #0]
    690a:	7810      	ldrb	r0, [r2, #0]
    690c:	1e43      	subs	r3, r0, #1
    690e:	4198      	sbcs	r0, r3
    6910:	b002      	add	sp, #8
    6912:	4770      	bx	lr
    6914:	a901      	add	r1, sp, #4
    6916:	2a00      	cmp	r2, #0
    6918:	d1f3      	bne.n	6902 <__ascii_mbtowc+0xa>
    691a:	2000      	movs	r0, #0
    691c:	e7f8      	b.n	6910 <__ascii_mbtowc+0x18>
    691e:	2002      	movs	r0, #2
    6920:	4240      	negs	r0, r0
    6922:	e7f5      	b.n	6910 <__ascii_mbtowc+0x18>

00006924 <memmove>:
    6924:	b5f0      	push	{r4, r5, r6, r7, lr}
    6926:	4288      	cmp	r0, r1
    6928:	d90a      	bls.n	6940 <memmove+0x1c>
    692a:	188b      	adds	r3, r1, r2
    692c:	4298      	cmp	r0, r3
    692e:	d207      	bcs.n	6940 <memmove+0x1c>
    6930:	1e53      	subs	r3, r2, #1
    6932:	2a00      	cmp	r2, #0
    6934:	d003      	beq.n	693e <memmove+0x1a>
    6936:	5cca      	ldrb	r2, [r1, r3]
    6938:	54c2      	strb	r2, [r0, r3]
    693a:	3b01      	subs	r3, #1
    693c:	d2fb      	bcs.n	6936 <memmove+0x12>
    693e:	bdf0      	pop	{r4, r5, r6, r7, pc}
    6940:	2a0f      	cmp	r2, #15
    6942:	d80b      	bhi.n	695c <memmove+0x38>
    6944:	0005      	movs	r5, r0
    6946:	1e56      	subs	r6, r2, #1
    6948:	2a00      	cmp	r2, #0
    694a:	d0f8      	beq.n	693e <memmove+0x1a>
    694c:	2300      	movs	r3, #0
    694e:	5ccc      	ldrb	r4, [r1, r3]
    6950:	001a      	movs	r2, r3
    6952:	54ec      	strb	r4, [r5, r3]
    6954:	3301      	adds	r3, #1
    6956:	4296      	cmp	r6, r2
    6958:	d1f9      	bne.n	694e <memmove+0x2a>
    695a:	e7f0      	b.n	693e <memmove+0x1a>
    695c:	2703      	movs	r7, #3
    695e:	000d      	movs	r5, r1
    6960:	003e      	movs	r6, r7
    6962:	4305      	orrs	r5, r0
    6964:	000c      	movs	r4, r1
    6966:	0003      	movs	r3, r0
    6968:	402e      	ands	r6, r5
    696a:	422f      	tst	r7, r5
    696c:	d12b      	bne.n	69c6 <memmove+0xa2>
    696e:	0015      	movs	r5, r2
    6970:	3d10      	subs	r5, #16
    6972:	092d      	lsrs	r5, r5, #4
    6974:	46ac      	mov	ip, r5
    6976:	012f      	lsls	r7, r5, #4
    6978:	183f      	adds	r7, r7, r0
    697a:	6825      	ldr	r5, [r4, #0]
    697c:	601d      	str	r5, [r3, #0]
    697e:	6865      	ldr	r5, [r4, #4]
    6980:	605d      	str	r5, [r3, #4]
    6982:	68a5      	ldr	r5, [r4, #8]
    6984:	609d      	str	r5, [r3, #8]
    6986:	68e5      	ldr	r5, [r4, #12]
    6988:	3410      	adds	r4, #16
    698a:	60dd      	str	r5, [r3, #12]
    698c:	001d      	movs	r5, r3
    698e:	3310      	adds	r3, #16
    6990:	42bd      	cmp	r5, r7
    6992:	d1f2      	bne.n	697a <memmove+0x56>
    6994:	4665      	mov	r5, ip
    6996:	230f      	movs	r3, #15
    6998:	240c      	movs	r4, #12
    699a:	3501      	adds	r5, #1
    699c:	012d      	lsls	r5, r5, #4
    699e:	1949      	adds	r1, r1, r5
    69a0:	4013      	ands	r3, r2
    69a2:	1945      	adds	r5, r0, r5
    69a4:	4214      	tst	r4, r2
    69a6:	d011      	beq.n	69cc <memmove+0xa8>
    69a8:	598c      	ldr	r4, [r1, r6]
    69aa:	51ac      	str	r4, [r5, r6]
    69ac:	3604      	adds	r6, #4
    69ae:	1b9c      	subs	r4, r3, r6
    69b0:	2c03      	cmp	r4, #3
    69b2:	d8f9      	bhi.n	69a8 <memmove+0x84>
    69b4:	3b04      	subs	r3, #4
    69b6:	089b      	lsrs	r3, r3, #2
    69b8:	3301      	adds	r3, #1
    69ba:	009b      	lsls	r3, r3, #2
    69bc:	18ed      	adds	r5, r5, r3
    69be:	18c9      	adds	r1, r1, r3
    69c0:	2303      	movs	r3, #3
    69c2:	401a      	ands	r2, r3
    69c4:	e7bf      	b.n	6946 <memmove+0x22>
    69c6:	0005      	movs	r5, r0
    69c8:	1e56      	subs	r6, r2, #1
    69ca:	e7bf      	b.n	694c <memmove+0x28>
    69cc:	001a      	movs	r2, r3
    69ce:	e7ba      	b.n	6946 <memmove+0x22>

000069d0 <_read_r>:
    69d0:	b570      	push	{r4, r5, r6, lr}
    69d2:	0004      	movs	r4, r0
    69d4:	0008      	movs	r0, r1
    69d6:	0011      	movs	r1, r2
    69d8:	001a      	movs	r2, r3
    69da:	2300      	movs	r3, #0
    69dc:	4d05      	ldr	r5, [pc, #20]	; (69f4 <_read_r+0x24>)
    69de:	602b      	str	r3, [r5, #0]
    69e0:	f003 f95a 	bl	9c98 <_read>
    69e4:	1c43      	adds	r3, r0, #1
    69e6:	d000      	beq.n	69ea <_read_r+0x1a>
    69e8:	bd70      	pop	{r4, r5, r6, pc}
    69ea:	682b      	ldr	r3, [r5, #0]
    69ec:	2b00      	cmp	r3, #0
    69ee:	d0fb      	beq.n	69e8 <_read_r+0x18>
    69f0:	6023      	str	r3, [r4, #0]
    69f2:	e7f9      	b.n	69e8 <_read_r+0x18>
    69f4:	40000058 	.word	0x40000058

000069f8 <_realloc_r>:
    69f8:	b5f0      	push	{r4, r5, r6, r7, lr}
    69fa:	4657      	mov	r7, sl
    69fc:	4645      	mov	r5, r8
    69fe:	46de      	mov	lr, fp
    6a00:	464e      	mov	r6, r9
    6a02:	b5e0      	push	{r5, r6, r7, lr}
    6a04:	000c      	movs	r4, r1
    6a06:	0007      	movs	r7, r0
    6a08:	4690      	mov	r8, r2
    6a0a:	b083      	sub	sp, #12
    6a0c:	2900      	cmp	r1, #0
    6a0e:	d100      	bne.n	6a12 <_realloc_r+0x1a>
    6a10:	e0a8      	b.n	6b64 <_realloc_r+0x16c>
    6a12:	4645      	mov	r5, r8
    6a14:	350b      	adds	r5, #11
    6a16:	f7fa f8e9 	bl	bec <__malloc_lock>
    6a1a:	2d16      	cmp	r5, #22
    6a1c:	d870      	bhi.n	6b00 <_realloc_r+0x108>
    6a1e:	2510      	movs	r5, #16
    6a20:	2310      	movs	r3, #16
    6a22:	45a8      	cmp	r8, r5
    6a24:	d870      	bhi.n	6b08 <_realloc_r+0x110>
    6a26:	0026      	movs	r6, r4
    6a28:	3e08      	subs	r6, #8
    6a2a:	6871      	ldr	r1, [r6, #4]
    6a2c:	2203      	movs	r2, #3
    6a2e:	0008      	movs	r0, r1
    6a30:	4390      	bics	r0, r2
    6a32:	4681      	mov	r9, r0
    6a34:	9600      	str	r6, [sp, #0]
    6a36:	4298      	cmp	r0, r3
    6a38:	db00      	blt.n	6a3c <_realloc_r+0x44>
    6a3a:	e077      	b.n	6b2c <_realloc_r+0x134>
    6a3c:	4ac2      	ldr	r2, [pc, #776]	; (6d48 <_realloc_r+0x350>)
    6a3e:	1830      	adds	r0, r6, r0
    6a40:	4693      	mov	fp, r2
    6a42:	6892      	ldr	r2, [r2, #8]
    6a44:	4282      	cmp	r2, r0
    6a46:	d100      	bne.n	6a4a <_realloc_r+0x52>
    6a48:	e0ca      	b.n	6be0 <_realloc_r+0x1e8>
    6a4a:	6842      	ldr	r2, [r0, #4]
    6a4c:	9001      	str	r0, [sp, #4]
    6a4e:	9200      	str	r2, [sp, #0]
    6a50:	2201      	movs	r2, #1
    6a52:	4692      	mov	sl, r2
    6a54:	4650      	mov	r0, sl
    6a56:	9a00      	ldr	r2, [sp, #0]
    6a58:	4382      	bics	r2, r0
    6a5a:	9801      	ldr	r0, [sp, #4]
    6a5c:	4694      	mov	ip, r2
    6a5e:	4683      	mov	fp, r0
    6a60:	44dc      	add	ip, fp
    6a62:	4662      	mov	r2, ip
    6a64:	4650      	mov	r0, sl
    6a66:	6852      	ldr	r2, [r2, #4]
    6a68:	4202      	tst	r2, r0
    6a6a:	d000      	beq.n	6a6e <_realloc_r+0x76>
    6a6c:	e071      	b.n	6b52 <_realloc_r+0x15a>
    6a6e:	2003      	movs	r0, #3
    6a70:	9a00      	ldr	r2, [sp, #0]
    6a72:	46cb      	mov	fp, r9
    6a74:	4382      	bics	r2, r0
    6a76:	4694      	mov	ip, r2
    6a78:	44e3      	add	fp, ip
    6a7a:	459b      	cmp	fp, r3
    6a7c:	da50      	bge.n	6b20 <_realloc_r+0x128>
    6a7e:	4652      	mov	r2, sl
    6a80:	420a      	tst	r2, r1
    6a82:	d111      	bne.n	6aa8 <_realloc_r+0xb0>
    6a84:	2103      	movs	r1, #3
    6a86:	6832      	ldr	r2, [r6, #0]
    6a88:	1ab2      	subs	r2, r6, r2
    6a8a:	4692      	mov	sl, r2
    6a8c:	6852      	ldr	r2, [r2, #4]
    6a8e:	438a      	bics	r2, r1
    6a90:	4661      	mov	r1, ip
    6a92:	1851      	adds	r1, r2, r1
    6a94:	4449      	add	r1, r9
    6a96:	468b      	mov	fp, r1
    6a98:	4299      	cmp	r1, r3
    6a9a:	db00      	blt.n	6a9e <_realloc_r+0xa6>
    6a9c:	e078      	b.n	6b90 <_realloc_r+0x198>
    6a9e:	444a      	add	r2, r9
    6aa0:	4693      	mov	fp, r2
    6aa2:	429a      	cmp	r2, r3
    6aa4:	db00      	blt.n	6aa8 <_realloc_r+0xb0>
    6aa6:	e078      	b.n	6b9a <_realloc_r+0x1a2>
    6aa8:	4641      	mov	r1, r8
    6aaa:	0038      	movs	r0, r7
    6aac:	f7f9 fd36 	bl	51c <_malloc_r>
    6ab0:	4680      	mov	r8, r0
    6ab2:	2800      	cmp	r0, #0
    6ab4:	d020      	beq.n	6af8 <_realloc_r+0x100>
    6ab6:	6873      	ldr	r3, [r6, #4]
    6ab8:	46b4      	mov	ip, r6
    6aba:	9300      	str	r3, [sp, #0]
    6abc:	2301      	movs	r3, #1
    6abe:	9900      	ldr	r1, [sp, #0]
    6ac0:	0002      	movs	r2, r0
    6ac2:	4399      	bics	r1, r3
    6ac4:	000b      	movs	r3, r1
    6ac6:	3a08      	subs	r2, #8
    6ac8:	4463      	add	r3, ip
    6aca:	4293      	cmp	r3, r2
    6acc:	d100      	bne.n	6ad0 <_realloc_r+0xd8>
    6ace:	e0f7      	b.n	6cc0 <_realloc_r+0x2c8>
    6ad0:	464a      	mov	r2, r9
    6ad2:	3a04      	subs	r2, #4
    6ad4:	2a24      	cmp	r2, #36	; 0x24
    6ad6:	d900      	bls.n	6ada <_realloc_r+0xe2>
    6ad8:	e0f7      	b.n	6cca <_realloc_r+0x2d2>
    6ada:	0003      	movs	r3, r0
    6adc:	0021      	movs	r1, r4
    6ade:	2a13      	cmp	r2, #19
    6ae0:	d900      	bls.n	6ae4 <_realloc_r+0xec>
    6ae2:	e0c8      	b.n	6c76 <_realloc_r+0x27e>
    6ae4:	680a      	ldr	r2, [r1, #0]
    6ae6:	601a      	str	r2, [r3, #0]
    6ae8:	684a      	ldr	r2, [r1, #4]
    6aea:	605a      	str	r2, [r3, #4]
    6aec:	688a      	ldr	r2, [r1, #8]
    6aee:	609a      	str	r2, [r3, #8]
    6af0:	0021      	movs	r1, r4
    6af2:	0038      	movs	r0, r7
    6af4:	f7fd fae4 	bl	40c0 <_free_r>
    6af8:	0038      	movs	r0, r7
    6afa:	f7fa f87f 	bl	bfc <__malloc_unlock>
    6afe:	e007      	b.n	6b10 <_realloc_r+0x118>
    6b00:	2307      	movs	r3, #7
    6b02:	439d      	bics	r5, r3
    6b04:	1e2b      	subs	r3, r5, #0
    6b06:	da8c      	bge.n	6a22 <_realloc_r+0x2a>
    6b08:	230c      	movs	r3, #12
    6b0a:	603b      	str	r3, [r7, #0]
    6b0c:	2300      	movs	r3, #0
    6b0e:	4698      	mov	r8, r3
    6b10:	4640      	mov	r0, r8
    6b12:	b003      	add	sp, #12
    6b14:	bcf0      	pop	{r4, r5, r6, r7}
    6b16:	46bb      	mov	fp, r7
    6b18:	46b2      	mov	sl, r6
    6b1a:	46a9      	mov	r9, r5
    6b1c:	46a0      	mov	r8, r4
    6b1e:	bdf0      	pop	{r4, r5, r6, r7, pc}
    6b20:	46d9      	mov	r9, fp
    6b22:	9a01      	ldr	r2, [sp, #4]
    6b24:	68d3      	ldr	r3, [r2, #12]
    6b26:	6892      	ldr	r2, [r2, #8]
    6b28:	60d3      	str	r3, [r2, #12]
    6b2a:	609a      	str	r2, [r3, #8]
    6b2c:	464b      	mov	r3, r9
    6b2e:	1b5b      	subs	r3, r3, r5
    6b30:	2b0f      	cmp	r3, #15
    6b32:	d81c      	bhi.n	6b6e <_realloc_r+0x176>
    6b34:	2101      	movs	r1, #1
    6b36:	464a      	mov	r2, r9
    6b38:	6873      	ldr	r3, [r6, #4]
    6b3a:	400b      	ands	r3, r1
    6b3c:	4313      	orrs	r3, r2
    6b3e:	6073      	str	r3, [r6, #4]
    6b40:	444e      	add	r6, r9
    6b42:	6873      	ldr	r3, [r6, #4]
    6b44:	4319      	orrs	r1, r3
    6b46:	6071      	str	r1, [r6, #4]
    6b48:	0038      	movs	r0, r7
    6b4a:	f7fa f857 	bl	bfc <__malloc_unlock>
    6b4e:	46a0      	mov	r8, r4
    6b50:	e7de      	b.n	6b10 <_realloc_r+0x118>
    6b52:	4208      	tst	r0, r1
    6b54:	d1a8      	bne.n	6aa8 <_realloc_r+0xb0>
    6b56:	2103      	movs	r1, #3
    6b58:	6832      	ldr	r2, [r6, #0]
    6b5a:	1ab2      	subs	r2, r6, r2
    6b5c:	4692      	mov	sl, r2
    6b5e:	6852      	ldr	r2, [r2, #4]
    6b60:	438a      	bics	r2, r1
    6b62:	e79c      	b.n	6a9e <_realloc_r+0xa6>
    6b64:	0011      	movs	r1, r2
    6b66:	f7f9 fcd9 	bl	51c <_malloc_r>
    6b6a:	4680      	mov	r8, r0
    6b6c:	e7d0      	b.n	6b10 <_realloc_r+0x118>
    6b6e:	2001      	movs	r0, #1
    6b70:	6872      	ldr	r2, [r6, #4]
    6b72:	1971      	adds	r1, r6, r5
    6b74:	4002      	ands	r2, r0
    6b76:	4303      	orrs	r3, r0
    6b78:	4315      	orrs	r5, r2
    6b7a:	6075      	str	r5, [r6, #4]
    6b7c:	604b      	str	r3, [r1, #4]
    6b7e:	444e      	add	r6, r9
    6b80:	6873      	ldr	r3, [r6, #4]
    6b82:	3108      	adds	r1, #8
    6b84:	4318      	orrs	r0, r3
    6b86:	6070      	str	r0, [r6, #4]
    6b88:	0038      	movs	r0, r7
    6b8a:	f7fd fa99 	bl	40c0 <_free_r>
    6b8e:	e7db      	b.n	6b48 <_realloc_r+0x150>
    6b90:	9a01      	ldr	r2, [sp, #4]
    6b92:	68d3      	ldr	r3, [r2, #12]
    6b94:	6892      	ldr	r2, [r2, #8]
    6b96:	60d3      	str	r3, [r2, #12]
    6b98:	609a      	str	r2, [r3, #8]
    6b9a:	4653      	mov	r3, sl
    6b9c:	4652      	mov	r2, sl
    6b9e:	68db      	ldr	r3, [r3, #12]
    6ba0:	6892      	ldr	r2, [r2, #8]
    6ba2:	4656      	mov	r6, sl
    6ba4:	60d3      	str	r3, [r2, #12]
    6ba6:	609a      	str	r2, [r3, #8]
    6ba8:	464a      	mov	r2, r9
    6baa:	3a04      	subs	r2, #4
    6bac:	3608      	adds	r6, #8
    6bae:	2a24      	cmp	r2, #36	; 0x24
    6bb0:	d86b      	bhi.n	6c8a <_realloc_r+0x292>
    6bb2:	0033      	movs	r3, r6
    6bb4:	2a13      	cmp	r2, #19
    6bb6:	d909      	bls.n	6bcc <_realloc_r+0x1d4>
    6bb8:	4653      	mov	r3, sl
    6bba:	6821      	ldr	r1, [r4, #0]
    6bbc:	6099      	str	r1, [r3, #8]
    6bbe:	6861      	ldr	r1, [r4, #4]
    6bc0:	60d9      	str	r1, [r3, #12]
    6bc2:	2a1b      	cmp	r2, #27
    6bc4:	d900      	bls.n	6bc8 <_realloc_r+0x1d0>
    6bc6:	e08e      	b.n	6ce6 <_realloc_r+0x2ee>
    6bc8:	3408      	adds	r4, #8
    6bca:	3310      	adds	r3, #16
    6bcc:	6822      	ldr	r2, [r4, #0]
    6bce:	46d9      	mov	r9, fp
    6bd0:	601a      	str	r2, [r3, #0]
    6bd2:	6862      	ldr	r2, [r4, #4]
    6bd4:	605a      	str	r2, [r3, #4]
    6bd6:	68a2      	ldr	r2, [r4, #8]
    6bd8:	0034      	movs	r4, r6
    6bda:	609a      	str	r2, [r3, #8]
    6bdc:	4656      	mov	r6, sl
    6bde:	e7a5      	b.n	6b2c <_realloc_r+0x134>
    6be0:	6850      	ldr	r0, [r2, #4]
    6be2:	2203      	movs	r2, #3
    6be4:	4390      	bics	r0, r2
    6be6:	320d      	adds	r2, #13
    6be8:	4682      	mov	sl, r0
    6bea:	4694      	mov	ip, r2
    6bec:	44ca      	add	sl, r9
    6bee:	44ac      	add	ip, r5
    6bf0:	45e2      	cmp	sl, ip
    6bf2:	da52      	bge.n	6c9a <_realloc_r+0x2a2>
    6bf4:	07ca      	lsls	r2, r1, #31
    6bf6:	d500      	bpl.n	6bfa <_realloc_r+0x202>
    6bf8:	e756      	b.n	6aa8 <_realloc_r+0xb0>
    6bfa:	6831      	ldr	r1, [r6, #0]
    6bfc:	1a72      	subs	r2, r6, r1
    6bfe:	2103      	movs	r1, #3
    6c00:	4692      	mov	sl, r2
    6c02:	6852      	ldr	r2, [r2, #4]
    6c04:	438a      	bics	r2, r1
    6c06:	1810      	adds	r0, r2, r0
    6c08:	0001      	movs	r1, r0
    6c0a:	4449      	add	r1, r9
    6c0c:	9100      	str	r1, [sp, #0]
    6c0e:	458c      	cmp	ip, r1
    6c10:	dd00      	ble.n	6c14 <_realloc_r+0x21c>
    6c12:	e744      	b.n	6a9e <_realloc_r+0xa6>
    6c14:	4653      	mov	r3, sl
    6c16:	4652      	mov	r2, sl
    6c18:	68db      	ldr	r3, [r3, #12]
    6c1a:	6892      	ldr	r2, [r2, #8]
    6c1c:	60d3      	str	r3, [r2, #12]
    6c1e:	609a      	str	r2, [r3, #8]
    6c20:	2308      	movs	r3, #8
    6c22:	464a      	mov	r2, r9
    6c24:	4453      	add	r3, sl
    6c26:	3a04      	subs	r2, #4
    6c28:	4698      	mov	r8, r3
    6c2a:	2a24      	cmp	r2, #36	; 0x24
    6c2c:	d875      	bhi.n	6d1a <_realloc_r+0x322>
    6c2e:	2a13      	cmp	r2, #19
    6c30:	d908      	bls.n	6c44 <_realloc_r+0x24c>
    6c32:	4653      	mov	r3, sl
    6c34:	6821      	ldr	r1, [r4, #0]
    6c36:	6099      	str	r1, [r3, #8]
    6c38:	6861      	ldr	r1, [r4, #4]
    6c3a:	60d9      	str	r1, [r3, #12]
    6c3c:	2a1b      	cmp	r2, #27
    6c3e:	d871      	bhi.n	6d24 <_realloc_r+0x32c>
    6c40:	3408      	adds	r4, #8
    6c42:	3310      	adds	r3, #16
    6c44:	6822      	ldr	r2, [r4, #0]
    6c46:	601a      	str	r2, [r3, #0]
    6c48:	6862      	ldr	r2, [r4, #4]
    6c4a:	605a      	str	r2, [r3, #4]
    6c4c:	68a2      	ldr	r2, [r4, #8]
    6c4e:	609a      	str	r2, [r3, #8]
    6c50:	4653      	mov	r3, sl
    6c52:	1959      	adds	r1, r3, r5
    6c54:	465b      	mov	r3, fp
    6c56:	6099      	str	r1, [r3, #8]
    6c58:	9b00      	ldr	r3, [sp, #0]
    6c5a:	0038      	movs	r0, r7
    6c5c:	1b5a      	subs	r2, r3, r5
    6c5e:	2301      	movs	r3, #1
    6c60:	431a      	orrs	r2, r3
    6c62:	604a      	str	r2, [r1, #4]
    6c64:	4652      	mov	r2, sl
    6c66:	6852      	ldr	r2, [r2, #4]
    6c68:	4013      	ands	r3, r2
    6c6a:	431d      	orrs	r5, r3
    6c6c:	4653      	mov	r3, sl
    6c6e:	605d      	str	r5, [r3, #4]
    6c70:	f7f9 ffc4 	bl	bfc <__malloc_unlock>
    6c74:	e74c      	b.n	6b10 <_realloc_r+0x118>
    6c76:	6821      	ldr	r1, [r4, #0]
    6c78:	6001      	str	r1, [r0, #0]
    6c7a:	6861      	ldr	r1, [r4, #4]
    6c7c:	6041      	str	r1, [r0, #4]
    6c7e:	2a1b      	cmp	r2, #27
    6c80:	d827      	bhi.n	6cd2 <_realloc_r+0x2da>
    6c82:	0021      	movs	r1, r4
    6c84:	3308      	adds	r3, #8
    6c86:	3108      	adds	r1, #8
    6c88:	e72c      	b.n	6ae4 <_realloc_r+0xec>
    6c8a:	0021      	movs	r1, r4
    6c8c:	0030      	movs	r0, r6
    6c8e:	0034      	movs	r4, r6
    6c90:	f7ff fe48 	bl	6924 <memmove>
    6c94:	46d9      	mov	r9, fp
    6c96:	4656      	mov	r6, sl
    6c98:	e748      	b.n	6b2c <_realloc_r+0x134>
    6c9a:	465b      	mov	r3, fp
    6c9c:	9800      	ldr	r0, [sp, #0]
    6c9e:	46a0      	mov	r8, r4
    6ca0:	1941      	adds	r1, r0, r5
    6ca2:	6099      	str	r1, [r3, #8]
    6ca4:	4653      	mov	r3, sl
    6ca6:	1b5a      	subs	r2, r3, r5
    6ca8:	2301      	movs	r3, #1
    6caa:	431a      	orrs	r2, r3
    6cac:	604a      	str	r2, [r1, #4]
    6cae:	6841      	ldr	r1, [r0, #4]
    6cb0:	400b      	ands	r3, r1
    6cb2:	431d      	orrs	r5, r3
    6cb4:	6045      	str	r5, [r0, #4]
    6cb6:	0038      	movs	r0, r7
    6cb8:	9100      	str	r1, [sp, #0]
    6cba:	f7f9 ff9f 	bl	bfc <__malloc_unlock>
    6cbe:	e727      	b.n	6b10 <_realloc_r+0x118>
    6cc0:	2203      	movs	r2, #3
    6cc2:	685b      	ldr	r3, [r3, #4]
    6cc4:	4393      	bics	r3, r2
    6cc6:	4499      	add	r9, r3
    6cc8:	e730      	b.n	6b2c <_realloc_r+0x134>
    6cca:	0021      	movs	r1, r4
    6ccc:	f7ff fe2a 	bl	6924 <memmove>
    6cd0:	e70e      	b.n	6af0 <_realloc_r+0xf8>
    6cd2:	68a1      	ldr	r1, [r4, #8]
    6cd4:	6081      	str	r1, [r0, #8]
    6cd6:	68e1      	ldr	r1, [r4, #12]
    6cd8:	60c1      	str	r1, [r0, #12]
    6cda:	2a24      	cmp	r2, #36	; 0x24
    6cdc:	d00c      	beq.n	6cf8 <_realloc_r+0x300>
    6cde:	0021      	movs	r1, r4
    6ce0:	3310      	adds	r3, #16
    6ce2:	3110      	adds	r1, #16
    6ce4:	e6fe      	b.n	6ae4 <_realloc_r+0xec>
    6ce6:	68a1      	ldr	r1, [r4, #8]
    6ce8:	6119      	str	r1, [r3, #16]
    6cea:	68e1      	ldr	r1, [r4, #12]
    6cec:	6159      	str	r1, [r3, #20]
    6cee:	2a24      	cmp	r2, #36	; 0x24
    6cf0:	d00b      	beq.n	6d0a <_realloc_r+0x312>
    6cf2:	3410      	adds	r4, #16
    6cf4:	3318      	adds	r3, #24
    6cf6:	e769      	b.n	6bcc <_realloc_r+0x1d4>
    6cf8:	6922      	ldr	r2, [r4, #16]
    6cfa:	0021      	movs	r1, r4
    6cfc:	6102      	str	r2, [r0, #16]
    6cfe:	0002      	movs	r2, r0
    6d00:	6960      	ldr	r0, [r4, #20]
    6d02:	3118      	adds	r1, #24
    6d04:	3318      	adds	r3, #24
    6d06:	6150      	str	r0, [r2, #20]
    6d08:	e6ec      	b.n	6ae4 <_realloc_r+0xec>
    6d0a:	6922      	ldr	r2, [r4, #16]
    6d0c:	619a      	str	r2, [r3, #24]
    6d0e:	4652      	mov	r2, sl
    6d10:	6961      	ldr	r1, [r4, #20]
    6d12:	3320      	adds	r3, #32
    6d14:	61d1      	str	r1, [r2, #28]
    6d16:	3418      	adds	r4, #24
    6d18:	e758      	b.n	6bcc <_realloc_r+0x1d4>
    6d1a:	0021      	movs	r1, r4
    6d1c:	0018      	movs	r0, r3
    6d1e:	f7ff fe01 	bl	6924 <memmove>
    6d22:	e795      	b.n	6c50 <_realloc_r+0x258>
    6d24:	68a1      	ldr	r1, [r4, #8]
    6d26:	6119      	str	r1, [r3, #16]
    6d28:	68e1      	ldr	r1, [r4, #12]
    6d2a:	6159      	str	r1, [r3, #20]
    6d2c:	2a24      	cmp	r2, #36	; 0x24
    6d2e:	d002      	beq.n	6d36 <_realloc_r+0x33e>
    6d30:	3410      	adds	r4, #16
    6d32:	3318      	adds	r3, #24
    6d34:	e786      	b.n	6c44 <_realloc_r+0x24c>
    6d36:	6922      	ldr	r2, [r4, #16]
    6d38:	619a      	str	r2, [r3, #24]
    6d3a:	4652      	mov	r2, sl
    6d3c:	6961      	ldr	r1, [r4, #20]
    6d3e:	3320      	adds	r3, #32
    6d40:	61d1      	str	r1, [r2, #28]
    6d42:	3418      	adds	r4, #24
    6d44:	e77e      	b.n	6c44 <_realloc_r+0x24c>
    6d46:	46c0      	nop			; (mov r8, r8)
    6d48:	00010b20 	.word	0x00010b20

00006d4c <strcmp>:
    6d4c:	4602      	mov	r2, r0
    6d4e:	b570      	push	{r4, r5, r6, lr}
    6d50:	430a      	orrs	r2, r1
    6d52:	0792      	lsls	r2, r2, #30
    6d54:	d12a      	bne.n	6dac <strcmp+0x60>
    6d56:	4d1e      	ldr	r5, [pc, #120]	; (6dd0 <strcmp+0x84>)
    6d58:	01ee      	lsls	r6, r5, #7
    6d5a:	c804      	ldmia	r0!, {r2}
    6d5c:	c908      	ldmia	r1!, {r3}
    6d5e:	1b54      	subs	r4, r2, r5
    6d60:	4394      	bics	r4, r2
    6d62:	4034      	ands	r4, r6
    6d64:	d017      	beq.n	6d96 <strcmp+0x4a>
    6d66:	b2d0      	uxtb	r0, r2
    6d68:	b2d9      	uxtb	r1, r3
    6d6a:	1a40      	subs	r0, r0, r1
    6d6c:	0621      	lsls	r1, r4, #24
    6d6e:	4301      	orrs	r1, r0
    6d70:	d110      	bne.n	6d94 <strcmp+0x48>
    6d72:	b290      	uxth	r0, r2
    6d74:	b299      	uxth	r1, r3
    6d76:	1a40      	subs	r0, r0, r1
    6d78:	0421      	lsls	r1, r4, #16
    6d7a:	4301      	orrs	r1, r0
    6d7c:	d10a      	bne.n	6d94 <strcmp+0x48>
    6d7e:	0210      	lsls	r0, r2, #8
    6d80:	0219      	lsls	r1, r3, #8
    6d82:	0a00      	lsrs	r0, r0, #8
    6d84:	0a09      	lsrs	r1, r1, #8
    6d86:	1a40      	subs	r0, r0, r1
    6d88:	0221      	lsls	r1, r4, #8
    6d8a:	4301      	orrs	r1, r0
    6d8c:	d102      	bne.n	6d94 <strcmp+0x48>
    6d8e:	0e10      	lsrs	r0, r2, #24
    6d90:	0e19      	lsrs	r1, r3, #24
    6d92:	1a40      	subs	r0, r0, r1
    6d94:	bd70      	pop	{r4, r5, r6, pc}
    6d96:	429a      	cmp	r2, r3
    6d98:	d0df      	beq.n	6d5a <strcmp+0xe>
    6d9a:	ba10      	rev	r0, r2
    6d9c:	ba19      	rev	r1, r3
    6d9e:	4288      	cmp	r0, r1
    6da0:	d901      	bls.n	6da6 <strcmp+0x5a>
    6da2:	2001      	movs	r0, #1
    6da4:	bd70      	pop	{r4, r5, r6, pc}
    6da6:	2000      	movs	r0, #0
    6da8:	43c0      	mvns	r0, r0
    6daa:	bd70      	pop	{r4, r5, r6, pc}
    6dac:	7802      	ldrb	r2, [r0, #0]
    6dae:	780b      	ldrb	r3, [r1, #0]
    6db0:	3001      	adds	r0, #1
    6db2:	3101      	adds	r1, #1
    6db4:	2a00      	cmp	r2, #0
    6db6:	d009      	beq.n	6dcc <strcmp+0x80>
    6db8:	429a      	cmp	r2, r3
    6dba:	d107      	bne.n	6dcc <strcmp+0x80>
    6dbc:	7802      	ldrb	r2, [r0, #0]
    6dbe:	780b      	ldrb	r3, [r1, #0]
    6dc0:	3001      	adds	r0, #1
    6dc2:	3101      	adds	r1, #1
    6dc4:	2a00      	cmp	r2, #0
    6dc6:	d001      	beq.n	6dcc <strcmp+0x80>
    6dc8:	429a      	cmp	r2, r3
    6dca:	d0ef      	beq.n	6dac <strcmp+0x60>
    6dcc:	1ad0      	subs	r0, r2, r3
    6dce:	bd70      	pop	{r4, r5, r6, pc}
    6dd0:	01010101 	.word	0x01010101

00006dd4 <__swbuf_r>:
    6dd4:	b5f8      	push	{r3, r4, r5, r6, r7, lr}
    6dd6:	0005      	movs	r5, r0
    6dd8:	000e      	movs	r6, r1
    6dda:	0014      	movs	r4, r2
    6ddc:	2800      	cmp	r0, #0
    6dde:	d002      	beq.n	6de6 <__swbuf_r+0x12>
    6de0:	6b83      	ldr	r3, [r0, #56]	; 0x38
    6de2:	2b00      	cmp	r3, #0
    6de4:	d04b      	beq.n	6e7e <__swbuf_r+0xaa>
    6de6:	69a3      	ldr	r3, [r4, #24]
    6de8:	89a2      	ldrh	r2, [r4, #12]
    6dea:	60a3      	str	r3, [r4, #8]
    6dec:	230c      	movs	r3, #12
    6dee:	5ee0      	ldrsh	r0, [r4, r3]
    6df0:	0713      	lsls	r3, r2, #28
    6df2:	d51f      	bpl.n	6e34 <__swbuf_r+0x60>
    6df4:	6923      	ldr	r3, [r4, #16]
    6df6:	2b00      	cmp	r3, #0
    6df8:	d01c      	beq.n	6e34 <__swbuf_r+0x60>
    6dfa:	21ff      	movs	r1, #255	; 0xff
    6dfc:	b2f7      	uxtb	r7, r6
    6dfe:	400e      	ands	r6, r1
    6e00:	2180      	movs	r1, #128	; 0x80
    6e02:	0189      	lsls	r1, r1, #6
    6e04:	420a      	tst	r2, r1
    6e06:	d026      	beq.n	6e56 <__swbuf_r+0x82>
    6e08:	6822      	ldr	r2, [r4, #0]
    6e0a:	6961      	ldr	r1, [r4, #20]
    6e0c:	1ad3      	subs	r3, r2, r3
    6e0e:	4299      	cmp	r1, r3
    6e10:	dd2c      	ble.n	6e6c <__swbuf_r+0x98>
    6e12:	3301      	adds	r3, #1
    6e14:	68a1      	ldr	r1, [r4, #8]
    6e16:	3901      	subs	r1, #1
    6e18:	60a1      	str	r1, [r4, #8]
    6e1a:	1c51      	adds	r1, r2, #1
    6e1c:	6021      	str	r1, [r4, #0]
    6e1e:	7017      	strb	r7, [r2, #0]
    6e20:	6962      	ldr	r2, [r4, #20]
    6e22:	429a      	cmp	r2, r3
    6e24:	d02e      	beq.n	6e84 <__swbuf_r+0xb0>
    6e26:	89a3      	ldrh	r3, [r4, #12]
    6e28:	07db      	lsls	r3, r3, #31
    6e2a:	d501      	bpl.n	6e30 <__swbuf_r+0x5c>
    6e2c:	2e0a      	cmp	r6, #10
    6e2e:	d029      	beq.n	6e84 <__swbuf_r+0xb0>
    6e30:	0030      	movs	r0, r6
    6e32:	bdf8      	pop	{r3, r4, r5, r6, r7, pc}
    6e34:	0021      	movs	r1, r4
    6e36:	0028      	movs	r0, r5
    6e38:	f7fb fd6e 	bl	2918 <__swsetup_r>
    6e3c:	2800      	cmp	r0, #0
    6e3e:	d127      	bne.n	6e90 <__swbuf_r+0xbc>
    6e40:	21ff      	movs	r1, #255	; 0xff
    6e42:	b2f7      	uxtb	r7, r6
    6e44:	400e      	ands	r6, r1
    6e46:	2180      	movs	r1, #128	; 0x80
    6e48:	89a2      	ldrh	r2, [r4, #12]
    6e4a:	0189      	lsls	r1, r1, #6
    6e4c:	230c      	movs	r3, #12
    6e4e:	5ee0      	ldrsh	r0, [r4, r3]
    6e50:	6923      	ldr	r3, [r4, #16]
    6e52:	420a      	tst	r2, r1
    6e54:	d1d8      	bne.n	6e08 <__swbuf_r+0x34>
    6e56:	4301      	orrs	r1, r0
    6e58:	4a0f      	ldr	r2, [pc, #60]	; (6e98 <__swbuf_r+0xc4>)
    6e5a:	81a1      	strh	r1, [r4, #12]
    6e5c:	6e61      	ldr	r1, [r4, #100]	; 0x64
    6e5e:	400a      	ands	r2, r1
    6e60:	6662      	str	r2, [r4, #100]	; 0x64
    6e62:	6961      	ldr	r1, [r4, #20]
    6e64:	6822      	ldr	r2, [r4, #0]
    6e66:	1ad3      	subs	r3, r2, r3
    6e68:	4299      	cmp	r1, r3
    6e6a:	dcd2      	bgt.n	6e12 <__swbuf_r+0x3e>
    6e6c:	0021      	movs	r1, r4
    6e6e:	0028      	movs	r0, r5
    6e70:	f7fc fee2 	bl	3c38 <_fflush_r>
    6e74:	2800      	cmp	r0, #0
    6e76:	d10b      	bne.n	6e90 <__swbuf_r+0xbc>
    6e78:	2301      	movs	r3, #1
    6e7a:	6822      	ldr	r2, [r4, #0]
    6e7c:	e7ca      	b.n	6e14 <__swbuf_r+0x40>
    6e7e:	f7fc ff95 	bl	3dac <__sinit>
    6e82:	e7b0      	b.n	6de6 <__swbuf_r+0x12>
    6e84:	0021      	movs	r1, r4
    6e86:	0028      	movs	r0, r5
    6e88:	f7fc fed6 	bl	3c38 <_fflush_r>
    6e8c:	2800      	cmp	r0, #0
    6e8e:	d0cf      	beq.n	6e30 <__swbuf_r+0x5c>
    6e90:	2601      	movs	r6, #1
    6e92:	4276      	negs	r6, r6
    6e94:	e7cc      	b.n	6e30 <__swbuf_r+0x5c>
    6e96:	46c0      	nop			; (mov r8, r8)
    6e98:	ffffdfff 	.word	0xffffdfff

00006e9c <__swbuf>:
    6e9c:	0003      	movs	r3, r0
    6e9e:	b510      	push	{r4, lr}
    6ea0:	000a      	movs	r2, r1
    6ea2:	4903      	ldr	r1, [pc, #12]	; (6eb0 <__swbuf+0x14>)
    6ea4:	6808      	ldr	r0, [r1, #0]
    6ea6:	0019      	movs	r1, r3
    6ea8:	f7ff ff94 	bl	6dd4 <__swbuf_r>
    6eac:	bd10      	pop	{r4, pc}
    6eae:	46c0      	nop			; (mov r8, r8)
    6eb0:	000106f0 	.word	0x000106f0

00006eb4 <_wcrtomb_r>:
    6eb4:	b570      	push	{r4, r5, r6, lr}
    6eb6:	0004      	movs	r4, r0
    6eb8:	001d      	movs	r5, r3
    6eba:	b084      	sub	sp, #16
    6ebc:	2900      	cmp	r1, #0
    6ebe:	d009      	beq.n	6ed4 <_wcrtomb_r+0x20>
    6ec0:	23e0      	movs	r3, #224	; 0xe0
    6ec2:	480b      	ldr	r0, [pc, #44]	; (6ef0 <_wcrtomb_r+0x3c>)
    6ec4:	58c6      	ldr	r6, [r0, r3]
    6ec6:	002b      	movs	r3, r5
    6ec8:	0020      	movs	r0, r4
    6eca:	47b0      	blx	r6
    6ecc:	1c43      	adds	r3, r0, #1
    6ece:	d00a      	beq.n	6ee6 <_wcrtomb_r+0x32>
    6ed0:	b004      	add	sp, #16
    6ed2:	bd70      	pop	{r4, r5, r6, pc}
    6ed4:	23e0      	movs	r3, #224	; 0xe0
    6ed6:	4a06      	ldr	r2, [pc, #24]	; (6ef0 <_wcrtomb_r+0x3c>)
    6ed8:	a901      	add	r1, sp, #4
    6eda:	58d6      	ldr	r6, [r2, r3]
    6edc:	002b      	movs	r3, r5
    6ede:	2200      	movs	r2, #0
    6ee0:	47b0      	blx	r6
    6ee2:	1c43      	adds	r3, r0, #1
    6ee4:	d1f4      	bne.n	6ed0 <_wcrtomb_r+0x1c>
    6ee6:	2300      	movs	r3, #0
    6ee8:	602b      	str	r3, [r5, #0]
    6eea:	338a      	adds	r3, #138	; 0x8a
    6eec:	6023      	str	r3, [r4, #0]
    6eee:	e7ef      	b.n	6ed0 <_wcrtomb_r+0x1c>
    6ef0:	00010f30 	.word	0x00010f30

00006ef4 <wcrtomb>:
    6ef4:	4b0e      	ldr	r3, [pc, #56]	; (6f30 <wcrtomb+0x3c>)
    6ef6:	b570      	push	{r4, r5, r6, lr}
    6ef8:	0014      	movs	r4, r2
    6efa:	681d      	ldr	r5, [r3, #0]
    6efc:	23e0      	movs	r3, #224	; 0xe0
    6efe:	4a0d      	ldr	r2, [pc, #52]	; (6f34 <wcrtomb+0x40>)
    6f00:	b084      	sub	sp, #16
    6f02:	58d6      	ldr	r6, [r2, r3]
    6f04:	0023      	movs	r3, r4
    6f06:	2800      	cmp	r0, #0
    6f08:	d007      	beq.n	6f1a <wcrtomb+0x26>
    6f0a:	000a      	movs	r2, r1
    6f0c:	0001      	movs	r1, r0
    6f0e:	0028      	movs	r0, r5
    6f10:	47b0      	blx	r6
    6f12:	1c43      	adds	r3, r0, #1
    6f14:	d007      	beq.n	6f26 <wcrtomb+0x32>
    6f16:	b004      	add	sp, #16
    6f18:	bd70      	pop	{r4, r5, r6, pc}
    6f1a:	2200      	movs	r2, #0
    6f1c:	0028      	movs	r0, r5
    6f1e:	a901      	add	r1, sp, #4
    6f20:	47b0      	blx	r6
    6f22:	1c43      	adds	r3, r0, #1
    6f24:	d1f7      	bne.n	6f16 <wcrtomb+0x22>
    6f26:	2300      	movs	r3, #0
    6f28:	6023      	str	r3, [r4, #0]
    6f2a:	338a      	adds	r3, #138	; 0x8a
    6f2c:	602b      	str	r3, [r5, #0]
    6f2e:	e7f2      	b.n	6f16 <wcrtomb+0x22>
    6f30:	000106f0 	.word	0x000106f0
    6f34:	00010f30 	.word	0x00010f30

00006f38 <_wctomb_r>:
    6f38:	b570      	push	{r4, r5, r6, lr}
    6f3a:	24e0      	movs	r4, #224	; 0xe0
    6f3c:	4d01      	ldr	r5, [pc, #4]	; (6f44 <_wctomb_r+0xc>)
    6f3e:	592c      	ldr	r4, [r5, r4]
    6f40:	47a0      	blx	r4
    6f42:	bd70      	pop	{r4, r5, r6, pc}
    6f44:	00010f30 	.word	0x00010f30

00006f48 <__ascii_wctomb>:
    6f48:	2900      	cmp	r1, #0
    6f4a:	d009      	beq.n	6f60 <__ascii_wctomb+0x18>
    6f4c:	2aff      	cmp	r2, #255	; 0xff
    6f4e:	d802      	bhi.n	6f56 <__ascii_wctomb+0xe>
    6f50:	2001      	movs	r0, #1
    6f52:	700a      	strb	r2, [r1, #0]
    6f54:	4770      	bx	lr
    6f56:	238a      	movs	r3, #138	; 0x8a
    6f58:	6003      	str	r3, [r0, #0]
    6f5a:	2001      	movs	r0, #1
    6f5c:	4240      	negs	r0, r0
    6f5e:	e7f9      	b.n	6f54 <__ascii_wctomb+0xc>
    6f60:	2000      	movs	r0, #0
    6f62:	e7f7      	b.n	6f54 <__ascii_wctomb+0xc>

00006f64 <abort>:
    6f64:	2006      	movs	r0, #6
    6f66:	b510      	push	{r4, lr}
    6f68:	f000 f8a8 	bl	70bc <raise>
    6f6c:	2001      	movs	r0, #1
    6f6e:	f002 feb1 	bl	9cd4 <_exit>
    6f72:	46c0      	nop			; (mov r8, r8)

00006f74 <_init_signal_r>:
    6f74:	b570      	push	{r4, r5, r6, lr}
    6f76:	25b7      	movs	r5, #183	; 0xb7
    6f78:	00ad      	lsls	r5, r5, #2
    6f7a:	5943      	ldr	r3, [r0, r5]
    6f7c:	0004      	movs	r4, r0
    6f7e:	2b00      	cmp	r3, #0
    6f80:	d001      	beq.n	6f86 <_init_signal_r+0x12>
    6f82:	2000      	movs	r0, #0
    6f84:	bd70      	pop	{r4, r5, r6, pc}
    6f86:	2180      	movs	r1, #128	; 0x80
    6f88:	f7f9 fac8 	bl	51c <_malloc_r>
    6f8c:	5160      	str	r0, [r4, r5]
    6f8e:	2800      	cmp	r0, #0
    6f90:	d006      	beq.n	6fa0 <_init_signal_r+0x2c>
    6f92:	0002      	movs	r2, r0
    6f94:	2300      	movs	r3, #0
    6f96:	3280      	adds	r2, #128	; 0x80
    6f98:	c008      	stmia	r0!, {r3}
    6f9a:	4290      	cmp	r0, r2
    6f9c:	d1fc      	bne.n	6f98 <_init_signal_r+0x24>
    6f9e:	e7f0      	b.n	6f82 <_init_signal_r+0xe>
    6fa0:	2001      	movs	r0, #1
    6fa2:	4240      	negs	r0, r0
    6fa4:	e7ee      	b.n	6f84 <_init_signal_r+0x10>
    6fa6:	46c0      	nop			; (mov r8, r8)

00006fa8 <_signal_r>:
    6fa8:	b5f0      	push	{r4, r5, r6, r7, lr}
    6faa:	46c6      	mov	lr, r8
    6fac:	0006      	movs	r6, r0
    6fae:	000c      	movs	r4, r1
    6fb0:	0017      	movs	r7, r2
    6fb2:	b500      	push	{lr}
    6fb4:	291f      	cmp	r1, #31
    6fb6:	d80c      	bhi.n	6fd2 <_signal_r+0x2a>
    6fb8:	23b7      	movs	r3, #183	; 0xb7
    6fba:	009b      	lsls	r3, r3, #2
    6fbc:	58c5      	ldr	r5, [r0, r3]
    6fbe:	4698      	mov	r8, r3
    6fc0:	2d00      	cmp	r5, #0
    6fc2:	d00b      	beq.n	6fdc <_signal_r+0x34>
    6fc4:	00a4      	lsls	r4, r4, #2
    6fc6:	192d      	adds	r5, r5, r4
    6fc8:	6828      	ldr	r0, [r5, #0]
    6fca:	602f      	str	r7, [r5, #0]
    6fcc:	bc80      	pop	{r7}
    6fce:	46b8      	mov	r8, r7
    6fd0:	bdf0      	pop	{r4, r5, r6, r7, pc}
    6fd2:	2316      	movs	r3, #22
    6fd4:	6003      	str	r3, [r0, #0]
    6fd6:	2001      	movs	r0, #1
    6fd8:	4240      	negs	r0, r0
    6fda:	e7f7      	b.n	6fcc <_signal_r+0x24>
    6fdc:	2180      	movs	r1, #128	; 0x80
    6fde:	f7f9 fa9d 	bl	51c <_malloc_r>
    6fe2:	4643      	mov	r3, r8
    6fe4:	1e05      	subs	r5, r0, #0
    6fe6:	50f0      	str	r0, [r6, r3]
    6fe8:	d007      	beq.n	6ffa <_signal_r+0x52>
    6fea:	0001      	movs	r1, r0
    6fec:	0003      	movs	r3, r0
    6fee:	2200      	movs	r2, #0
    6ff0:	3180      	adds	r1, #128	; 0x80
    6ff2:	c304      	stmia	r3!, {r2}
    6ff4:	428b      	cmp	r3, r1
    6ff6:	d1fc      	bne.n	6ff2 <_signal_r+0x4a>
    6ff8:	e7e4      	b.n	6fc4 <_signal_r+0x1c>
    6ffa:	2001      	movs	r0, #1
    6ffc:	4240      	negs	r0, r0
    6ffe:	e7e5      	b.n	6fcc <_signal_r+0x24>

00007000 <_raise_r>:
    7000:	b570      	push	{r4, r5, r6, lr}
    7002:	0005      	movs	r5, r0
    7004:	000c      	movs	r4, r1
    7006:	291f      	cmp	r1, #31
    7008:	d822      	bhi.n	7050 <_raise_r+0x50>
    700a:	23b7      	movs	r3, #183	; 0xb7
    700c:	009b      	lsls	r3, r3, #2
    700e:	58c3      	ldr	r3, [r0, r3]
    7010:	2b00      	cmp	r3, #0
    7012:	d00e      	beq.n	7032 <_raise_r+0x32>
    7014:	008a      	lsls	r2, r1, #2
    7016:	189b      	adds	r3, r3, r2
    7018:	681a      	ldr	r2, [r3, #0]
    701a:	2a00      	cmp	r2, #0
    701c:	d009      	beq.n	7032 <_raise_r+0x32>
    701e:	2a01      	cmp	r2, #1
    7020:	d014      	beq.n	704c <_raise_r+0x4c>
    7022:	1c51      	adds	r1, r2, #1
    7024:	d00e      	beq.n	7044 <_raise_r+0x44>
    7026:	2100      	movs	r1, #0
    7028:	0020      	movs	r0, r4
    702a:	6019      	str	r1, [r3, #0]
    702c:	4790      	blx	r2
    702e:	2000      	movs	r0, #0
    7030:	bd70      	pop	{r4, r5, r6, pc}
    7032:	0028      	movs	r0, r5
    7034:	f000 f902 	bl	723c <_getpid_r>
    7038:	0022      	movs	r2, r4
    703a:	0001      	movs	r1, r0
    703c:	0028      	movs	r0, r5
    703e:	f000 f8e9 	bl	7214 <_kill_r>
    7042:	e7f5      	b.n	7030 <_raise_r+0x30>
    7044:	2316      	movs	r3, #22
    7046:	6003      	str	r3, [r0, #0]
    7048:	2001      	movs	r0, #1
    704a:	e7f1      	b.n	7030 <_raise_r+0x30>
    704c:	2000      	movs	r0, #0
    704e:	e7ef      	b.n	7030 <_raise_r+0x30>
    7050:	2316      	movs	r3, #22
    7052:	6003      	str	r3, [r0, #0]
    7054:	2001      	movs	r0, #1
    7056:	4240      	negs	r0, r0
    7058:	e7ea      	b.n	7030 <_raise_r+0x30>
    705a:	46c0      	nop			; (mov r8, r8)

0000705c <__sigtramp_r>:
    705c:	b570      	push	{r4, r5, r6, lr}
    705e:	0004      	movs	r4, r0
    7060:	000d      	movs	r5, r1
    7062:	291f      	cmp	r1, #31
    7064:	d827      	bhi.n	70b6 <__sigtramp_r+0x5a>
    7066:	26b7      	movs	r6, #183	; 0xb7
    7068:	00b6      	lsls	r6, r6, #2
    706a:	5982      	ldr	r2, [r0, r6]
    706c:	2a00      	cmp	r2, #0
    706e:	d010      	beq.n	7092 <__sigtramp_r+0x36>
    7070:	00a8      	lsls	r0, r5, #2
    7072:	1812      	adds	r2, r2, r0
    7074:	6813      	ldr	r3, [r2, #0]
    7076:	2b00      	cmp	r3, #0
    7078:	d009      	beq.n	708e <__sigtramp_r+0x32>
    707a:	1c59      	adds	r1, r3, #1
    707c:	d019      	beq.n	70b2 <__sigtramp_r+0x56>
    707e:	2b01      	cmp	r3, #1
    7080:	d015      	beq.n	70ae <__sigtramp_r+0x52>
    7082:	2100      	movs	r1, #0
    7084:	0028      	movs	r0, r5
    7086:	6011      	str	r1, [r2, #0]
    7088:	4798      	blx	r3
    708a:	2000      	movs	r0, #0
    708c:	bd70      	pop	{r4, r5, r6, pc}
    708e:	2001      	movs	r0, #1
    7090:	e7fc      	b.n	708c <__sigtramp_r+0x30>
    7092:	2180      	movs	r1, #128	; 0x80
    7094:	f7f9 fa42 	bl	51c <_malloc_r>
    7098:	1e02      	subs	r2, r0, #0
    709a:	51a0      	str	r0, [r4, r6]
    709c:	d00b      	beq.n	70b6 <__sigtramp_r+0x5a>
    709e:	0004      	movs	r4, r0
    70a0:	0003      	movs	r3, r0
    70a2:	2000      	movs	r0, #0
    70a4:	3480      	adds	r4, #128	; 0x80
    70a6:	c301      	stmia	r3!, {r0}
    70a8:	42a3      	cmp	r3, r4
    70aa:	d1fc      	bne.n	70a6 <__sigtramp_r+0x4a>
    70ac:	e7e0      	b.n	7070 <__sigtramp_r+0x14>
    70ae:	2003      	movs	r0, #3
    70b0:	e7ec      	b.n	708c <__sigtramp_r+0x30>
    70b2:	2002      	movs	r0, #2
    70b4:	e7ea      	b.n	708c <__sigtramp_r+0x30>
    70b6:	2001      	movs	r0, #1
    70b8:	4240      	negs	r0, r0
    70ba:	e7e7      	b.n	708c <__sigtramp_r+0x30>

000070bc <raise>:
    70bc:	4b16      	ldr	r3, [pc, #88]	; (7118 <raise+0x5c>)
    70be:	b570      	push	{r4, r5, r6, lr}
    70c0:	0004      	movs	r4, r0
    70c2:	681d      	ldr	r5, [r3, #0]
    70c4:	281f      	cmp	r0, #31
    70c6:	d821      	bhi.n	710c <raise+0x50>
    70c8:	23b7      	movs	r3, #183	; 0xb7
    70ca:	009b      	lsls	r3, r3, #2
    70cc:	58eb      	ldr	r3, [r5, r3]
    70ce:	2b00      	cmp	r3, #0
    70d0:	d00d      	beq.n	70ee <raise+0x32>
    70d2:	0082      	lsls	r2, r0, #2
    70d4:	189b      	adds	r3, r3, r2
    70d6:	681a      	ldr	r2, [r3, #0]
    70d8:	2a00      	cmp	r2, #0
    70da:	d008      	beq.n	70ee <raise+0x32>
    70dc:	2a01      	cmp	r2, #1
    70de:	d013      	beq.n	7108 <raise+0x4c>
    70e0:	1c51      	adds	r1, r2, #1
    70e2:	d00d      	beq.n	7100 <raise+0x44>
    70e4:	2100      	movs	r1, #0
    70e6:	6019      	str	r1, [r3, #0]
    70e8:	4790      	blx	r2
    70ea:	2000      	movs	r0, #0
    70ec:	bd70      	pop	{r4, r5, r6, pc}
    70ee:	0028      	movs	r0, r5
    70f0:	f000 f8a4 	bl	723c <_getpid_r>
    70f4:	0022      	movs	r2, r4
    70f6:	0001      	movs	r1, r0
    70f8:	0028      	movs	r0, r5
    70fa:	f000 f88b 	bl	7214 <_kill_r>
    70fe:	e7f5      	b.n	70ec <raise+0x30>
    7100:	2316      	movs	r3, #22
    7102:	2001      	movs	r0, #1
    7104:	602b      	str	r3, [r5, #0]
    7106:	e7f1      	b.n	70ec <raise+0x30>
    7108:	2000      	movs	r0, #0
    710a:	e7ef      	b.n	70ec <raise+0x30>
    710c:	2316      	movs	r3, #22
    710e:	2001      	movs	r0, #1
    7110:	602b      	str	r3, [r5, #0]
    7112:	4240      	negs	r0, r0
    7114:	e7ea      	b.n	70ec <raise+0x30>
    7116:	46c0      	nop			; (mov r8, r8)
    7118:	000106f0 	.word	0x000106f0

0000711c <signal>:
    711c:	b5f8      	push	{r3, r4, r5, r6, r7, lr}
    711e:	4b13      	ldr	r3, [pc, #76]	; (716c <signal+0x50>)
    7120:	0004      	movs	r4, r0
    7122:	000d      	movs	r5, r1
    7124:	681e      	ldr	r6, [r3, #0]
    7126:	281f      	cmp	r0, #31
    7128:	d809      	bhi.n	713e <signal+0x22>
    712a:	27b7      	movs	r7, #183	; 0xb7
    712c:	00bf      	lsls	r7, r7, #2
    712e:	59f0      	ldr	r0, [r6, r7]
    7130:	2800      	cmp	r0, #0
    7132:	d009      	beq.n	7148 <signal+0x2c>
    7134:	00a4      	lsls	r4, r4, #2
    7136:	1904      	adds	r4, r0, r4
    7138:	6820      	ldr	r0, [r4, #0]
    713a:	6025      	str	r5, [r4, #0]
    713c:	bdf8      	pop	{r3, r4, r5, r6, r7, pc}
    713e:	2316      	movs	r3, #22
    7140:	2001      	movs	r0, #1
    7142:	6033      	str	r3, [r6, #0]
    7144:	4240      	negs	r0, r0
    7146:	e7f9      	b.n	713c <signal+0x20>
    7148:	2180      	movs	r1, #128	; 0x80
    714a:	0030      	movs	r0, r6
    714c:	f7f9 f9e6 	bl	51c <_malloc_r>
    7150:	51f0      	str	r0, [r6, r7]
    7152:	2800      	cmp	r0, #0
    7154:	d007      	beq.n	7166 <signal+0x4a>
    7156:	0001      	movs	r1, r0
    7158:	0003      	movs	r3, r0
    715a:	2200      	movs	r2, #0
    715c:	3180      	adds	r1, #128	; 0x80
    715e:	c304      	stmia	r3!, {r2}
    7160:	4299      	cmp	r1, r3
    7162:	d1fc      	bne.n	715e <signal+0x42>
    7164:	e7e6      	b.n	7134 <signal+0x18>
    7166:	2001      	movs	r0, #1
    7168:	4240      	negs	r0, r0
    716a:	e7e7      	b.n	713c <signal+0x20>
    716c:	000106f0 	.word	0x000106f0

00007170 <_init_signal>:
    7170:	b570      	push	{r4, r5, r6, lr}
    7172:	25b7      	movs	r5, #183	; 0xb7
    7174:	4b0c      	ldr	r3, [pc, #48]	; (71a8 <_init_signal+0x38>)
    7176:	00ad      	lsls	r5, r5, #2
    7178:	681c      	ldr	r4, [r3, #0]
    717a:	5963      	ldr	r3, [r4, r5]
    717c:	2b00      	cmp	r3, #0
    717e:	d001      	beq.n	7184 <_init_signal+0x14>
    7180:	2000      	movs	r0, #0
    7182:	bd70      	pop	{r4, r5, r6, pc}
    7184:	2180      	movs	r1, #128	; 0x80
    7186:	0020      	movs	r0, r4
    7188:	f7f9 f9c8 	bl	51c <_malloc_r>
    718c:	5160      	str	r0, [r4, r5]
    718e:	2800      	cmp	r0, #0
    7190:	d006      	beq.n	71a0 <_init_signal+0x30>
    7192:	0002      	movs	r2, r0
    7194:	2300      	movs	r3, #0
    7196:	3280      	adds	r2, #128	; 0x80
    7198:	c008      	stmia	r0!, {r3}
    719a:	4290      	cmp	r0, r2
    719c:	d1fc      	bne.n	7198 <_init_signal+0x28>
    719e:	e7ef      	b.n	7180 <_init_signal+0x10>
    71a0:	2001      	movs	r0, #1
    71a2:	4240      	negs	r0, r0
    71a4:	e7ed      	b.n	7182 <_init_signal+0x12>
    71a6:	46c0      	nop			; (mov r8, r8)
    71a8:	000106f0 	.word	0x000106f0

000071ac <__sigtramp>:
    71ac:	4b18      	ldr	r3, [pc, #96]	; (7210 <__sigtramp+0x64>)
    71ae:	b570      	push	{r4, r5, r6, lr}
    71b0:	0005      	movs	r5, r0
    71b2:	681c      	ldr	r4, [r3, #0]
    71b4:	281f      	cmp	r0, #31
    71b6:	d828      	bhi.n	720a <__sigtramp+0x5e>
    71b8:	26b7      	movs	r6, #183	; 0xb7
    71ba:	00b6      	lsls	r6, r6, #2
    71bc:	59a2      	ldr	r2, [r4, r6]
    71be:	2a00      	cmp	r2, #0
    71c0:	d010      	beq.n	71e4 <__sigtramp+0x38>
    71c2:	00a8      	lsls	r0, r5, #2
    71c4:	1812      	adds	r2, r2, r0
    71c6:	6813      	ldr	r3, [r2, #0]
    71c8:	2b00      	cmp	r3, #0
    71ca:	d009      	beq.n	71e0 <__sigtramp+0x34>
    71cc:	1c59      	adds	r1, r3, #1
    71ce:	d01a      	beq.n	7206 <__sigtramp+0x5a>
    71d0:	2b01      	cmp	r3, #1
    71d2:	d016      	beq.n	7202 <__sigtramp+0x56>
    71d4:	2100      	movs	r1, #0
    71d6:	0028      	movs	r0, r5
    71d8:	6011      	str	r1, [r2, #0]
    71da:	4798      	blx	r3
    71dc:	2000      	movs	r0, #0
    71de:	bd70      	pop	{r4, r5, r6, pc}
    71e0:	2001      	movs	r0, #1
    71e2:	e7fc      	b.n	71de <__sigtramp+0x32>
    71e4:	2180      	movs	r1, #128	; 0x80
    71e6:	0020      	movs	r0, r4
    71e8:	f7f9 f998 	bl	51c <_malloc_r>
    71ec:	1e02      	subs	r2, r0, #0
    71ee:	51a0      	str	r0, [r4, r6]
    71f0:	d00b      	beq.n	720a <__sigtramp+0x5e>
    71f2:	0004      	movs	r4, r0
    71f4:	0003      	movs	r3, r0
    71f6:	2100      	movs	r1, #0
    71f8:	3480      	adds	r4, #128	; 0x80
    71fa:	c302      	stmia	r3!, {r1}
    71fc:	42a3      	cmp	r3, r4
    71fe:	d1fc      	bne.n	71fa <__sigtramp+0x4e>
    7200:	e7df      	b.n	71c2 <__sigtramp+0x16>
    7202:	2003      	movs	r0, #3
    7204:	e7eb      	b.n	71de <__sigtramp+0x32>
    7206:	2002      	movs	r0, #2
    7208:	e7e9      	b.n	71de <__sigtramp+0x32>
    720a:	2001      	movs	r0, #1
    720c:	4240      	negs	r0, r0
    720e:	e7e6      	b.n	71de <__sigtramp+0x32>
    7210:	000106f0 	.word	0x000106f0

00007214 <_kill_r>:
    7214:	2300      	movs	r3, #0
    7216:	b570      	push	{r4, r5, r6, lr}
    7218:	4d07      	ldr	r5, [pc, #28]	; (7238 <_kill_r+0x24>)
    721a:	0004      	movs	r4, r0
    721c:	0008      	movs	r0, r1
    721e:	0011      	movs	r1, r2
    7220:	602b      	str	r3, [r5, #0]
    7222:	f002 fd29 	bl	9c78 <_kill>
    7226:	1c43      	adds	r3, r0, #1
    7228:	d000      	beq.n	722c <_kill_r+0x18>
    722a:	bd70      	pop	{r4, r5, r6, pc}
    722c:	682b      	ldr	r3, [r5, #0]
    722e:	2b00      	cmp	r3, #0
    7230:	d0fb      	beq.n	722a <_kill_r+0x16>
    7232:	6023      	str	r3, [r4, #0]
    7234:	e7f9      	b.n	722a <_kill_r+0x16>
    7236:	46c0      	nop			; (mov r8, r8)
    7238:	40000058 	.word	0x40000058

0000723c <_getpid_r>:
    723c:	b510      	push	{r4, lr}
    723e:	f002 fd0b 	bl	9c58 <_getpid>
    7242:	bd10      	pop	{r4, pc}

00007244 <__udivsi3>:
    7244:	2200      	movs	r2, #0
    7246:	0843      	lsrs	r3, r0, #1
    7248:	428b      	cmp	r3, r1
    724a:	d374      	bcc.n	7336 <__udivsi3+0xf2>
    724c:	0903      	lsrs	r3, r0, #4
    724e:	428b      	cmp	r3, r1
    7250:	d35f      	bcc.n	7312 <__udivsi3+0xce>
    7252:	0a03      	lsrs	r3, r0, #8
    7254:	428b      	cmp	r3, r1
    7256:	d344      	bcc.n	72e2 <__udivsi3+0x9e>
    7258:	0b03      	lsrs	r3, r0, #12
    725a:	428b      	cmp	r3, r1
    725c:	d328      	bcc.n	72b0 <__udivsi3+0x6c>
    725e:	0c03      	lsrs	r3, r0, #16
    7260:	428b      	cmp	r3, r1
    7262:	d30d      	bcc.n	7280 <__udivsi3+0x3c>
    7264:	22ff      	movs	r2, #255	; 0xff
    7266:	0209      	lsls	r1, r1, #8
    7268:	ba12      	rev	r2, r2
    726a:	0c03      	lsrs	r3, r0, #16
    726c:	428b      	cmp	r3, r1
    726e:	d302      	bcc.n	7276 <__udivsi3+0x32>
    7270:	1212      	asrs	r2, r2, #8
    7272:	0209      	lsls	r1, r1, #8
    7274:	d065      	beq.n	7342 <__udivsi3+0xfe>
    7276:	0b03      	lsrs	r3, r0, #12
    7278:	428b      	cmp	r3, r1
    727a:	d319      	bcc.n	72b0 <__udivsi3+0x6c>
    727c:	e000      	b.n	7280 <__udivsi3+0x3c>
    727e:	0a09      	lsrs	r1, r1, #8
    7280:	0bc3      	lsrs	r3, r0, #15
    7282:	428b      	cmp	r3, r1
    7284:	d301      	bcc.n	728a <__udivsi3+0x46>
    7286:	03cb      	lsls	r3, r1, #15
    7288:	1ac0      	subs	r0, r0, r3
    728a:	4152      	adcs	r2, r2
    728c:	0b83      	lsrs	r3, r0, #14
    728e:	428b      	cmp	r3, r1
    7290:	d301      	bcc.n	7296 <__udivsi3+0x52>
    7292:	038b      	lsls	r3, r1, #14
    7294:	1ac0      	subs	r0, r0, r3
    7296:	4152      	adcs	r2, r2
    7298:	0b43      	lsrs	r3, r0, #13
    729a:	428b      	cmp	r3, r1
    729c:	d301      	bcc.n	72a2 <__udivsi3+0x5e>
    729e:	034b      	lsls	r3, r1, #13
    72a0:	1ac0      	subs	r0, r0, r3
    72a2:	4152      	adcs	r2, r2
    72a4:	0b03      	lsrs	r3, r0, #12
    72a6:	428b      	cmp	r3, r1
    72a8:	d301      	bcc.n	72ae <__udivsi3+0x6a>
    72aa:	030b      	lsls	r3, r1, #12
    72ac:	1ac0      	subs	r0, r0, r3
    72ae:	4152      	adcs	r2, r2
    72b0:	0ac3      	lsrs	r3, r0, #11
    72b2:	428b      	cmp	r3, r1
    72b4:	d301      	bcc.n	72ba <__udivsi3+0x76>
    72b6:	02cb      	lsls	r3, r1, #11
    72b8:	1ac0      	subs	r0, r0, r3
    72ba:	4152      	adcs	r2, r2
    72bc:	0a83      	lsrs	r3, r0, #10
    72be:	428b      	cmp	r3, r1
    72c0:	d301      	bcc.n	72c6 <__udivsi3+0x82>
    72c2:	028b      	lsls	r3, r1, #10
    72c4:	1ac0      	subs	r0, r0, r3
    72c6:	4152      	adcs	r2, r2
    72c8:	0a43      	lsrs	r3, r0, #9
    72ca:	428b      	cmp	r3, r1
    72cc:	d301      	bcc.n	72d2 <__udivsi3+0x8e>
    72ce:	024b      	lsls	r3, r1, #9
    72d0:	1ac0      	subs	r0, r0, r3
    72d2:	4152      	adcs	r2, r2
    72d4:	0a03      	lsrs	r3, r0, #8
    72d6:	428b      	cmp	r3, r1
    72d8:	d301      	bcc.n	72de <__udivsi3+0x9a>
    72da:	020b      	lsls	r3, r1, #8
    72dc:	1ac0      	subs	r0, r0, r3
    72de:	4152      	adcs	r2, r2
    72e0:	d2cd      	bcs.n	727e <__udivsi3+0x3a>
    72e2:	09c3      	lsrs	r3, r0, #7
    72e4:	428b      	cmp	r3, r1
    72e6:	d301      	bcc.n	72ec <__udivsi3+0xa8>
    72e8:	01cb      	lsls	r3, r1, #7
    72ea:	1ac0      	subs	r0, r0, r3
    72ec:	4152      	adcs	r2, r2
    72ee:	0983      	lsrs	r3, r0, #6
    72f0:	428b      	cmp	r3, r1
    72f2:	d301      	bcc.n	72f8 <__udivsi3+0xb4>
    72f4:	018b      	lsls	r3, r1, #6
    72f6:	1ac0      	subs	r0, r0, r3
    72f8:	4152      	adcs	r2, r2
    72fa:	0943      	lsrs	r3, r0, #5
    72fc:	428b      	cmp	r3, r1
    72fe:	d301      	bcc.n	7304 <__udivsi3+0xc0>
    7300:	014b      	lsls	r3, r1, #5
    7302:	1ac0      	subs	r0, r0, r3
    7304:	4152      	adcs	r2, r2
    7306:	0903      	lsrs	r3, r0, #4
    7308:	428b      	cmp	r3, r1
    730a:	d301      	bcc.n	7310 <__udivsi3+0xcc>
    730c:	010b      	lsls	r3, r1, #4
    730e:	1ac0      	subs	r0, r0, r3
    7310:	4152      	adcs	r2, r2
    7312:	08c3      	lsrs	r3, r0, #3
    7314:	428b      	cmp	r3, r1
    7316:	d301      	bcc.n	731c <__udivsi3+0xd8>
    7318:	00cb      	lsls	r3, r1, #3
    731a:	1ac0      	subs	r0, r0, r3
    731c:	4152      	adcs	r2, r2
    731e:	0883      	lsrs	r3, r0, #2
    7320:	428b      	cmp	r3, r1
    7322:	d301      	bcc.n	7328 <__udivsi3+0xe4>
    7324:	008b      	lsls	r3, r1, #2
    7326:	1ac0      	subs	r0, r0, r3
    7328:	4152      	adcs	r2, r2
    732a:	0843      	lsrs	r3, r0, #1
    732c:	428b      	cmp	r3, r1
    732e:	d301      	bcc.n	7334 <__udivsi3+0xf0>
    7330:	004b      	lsls	r3, r1, #1
    7332:	1ac0      	subs	r0, r0, r3
    7334:	4152      	adcs	r2, r2
    7336:	1a41      	subs	r1, r0, r1
    7338:	d200      	bcs.n	733c <__udivsi3+0xf8>
    733a:	4601      	mov	r1, r0
    733c:	4152      	adcs	r2, r2
    733e:	4610      	mov	r0, r2
    7340:	4770      	bx	lr
    7342:	e7ff      	b.n	7344 <__udivsi3+0x100>
    7344:	b501      	push	{r0, lr}
    7346:	2000      	movs	r0, #0
    7348:	f000 f8f0 	bl	752c <__aeabi_idiv0>
    734c:	bd02      	pop	{r1, pc}
    734e:	46c0      	nop			; (mov r8, r8)

00007350 <__aeabi_uidivmod>:
    7350:	2900      	cmp	r1, #0
    7352:	d0f7      	beq.n	7344 <__udivsi3+0x100>
    7354:	e776      	b.n	7244 <__udivsi3>
    7356:	4770      	bx	lr

00007358 <__divsi3>:
    7358:	4603      	mov	r3, r0
    735a:	430b      	orrs	r3, r1
    735c:	d47f      	bmi.n	745e <__divsi3+0x106>
    735e:	2200      	movs	r2, #0
    7360:	0843      	lsrs	r3, r0, #1
    7362:	428b      	cmp	r3, r1
    7364:	d374      	bcc.n	7450 <__divsi3+0xf8>
    7366:	0903      	lsrs	r3, r0, #4
    7368:	428b      	cmp	r3, r1
    736a:	d35f      	bcc.n	742c <__divsi3+0xd4>
    736c:	0a03      	lsrs	r3, r0, #8
    736e:	428b      	cmp	r3, r1
    7370:	d344      	bcc.n	73fc <__divsi3+0xa4>
    7372:	0b03      	lsrs	r3, r0, #12
    7374:	428b      	cmp	r3, r1
    7376:	d328      	bcc.n	73ca <__divsi3+0x72>
    7378:	0c03      	lsrs	r3, r0, #16
    737a:	428b      	cmp	r3, r1
    737c:	d30d      	bcc.n	739a <__divsi3+0x42>
    737e:	22ff      	movs	r2, #255	; 0xff
    7380:	0209      	lsls	r1, r1, #8
    7382:	ba12      	rev	r2, r2
    7384:	0c03      	lsrs	r3, r0, #16
    7386:	428b      	cmp	r3, r1
    7388:	d302      	bcc.n	7390 <__divsi3+0x38>
    738a:	1212      	asrs	r2, r2, #8
    738c:	0209      	lsls	r1, r1, #8
    738e:	d065      	beq.n	745c <__divsi3+0x104>
    7390:	0b03      	lsrs	r3, r0, #12
    7392:	428b      	cmp	r3, r1
    7394:	d319      	bcc.n	73ca <__divsi3+0x72>
    7396:	e000      	b.n	739a <__divsi3+0x42>
    7398:	0a09      	lsrs	r1, r1, #8
    739a:	0bc3      	lsrs	r3, r0, #15
    739c:	428b      	cmp	r3, r1
    739e:	d301      	bcc.n	73a4 <__divsi3+0x4c>
    73a0:	03cb      	lsls	r3, r1, #15
    73a2:	1ac0      	subs	r0, r0, r3
    73a4:	4152      	adcs	r2, r2
    73a6:	0b83      	lsrs	r3, r0, #14
    73a8:	428b      	cmp	r3, r1
    73aa:	d301      	bcc.n	73b0 <__divsi3+0x58>
    73ac:	038b      	lsls	r3, r1, #14
    73ae:	1ac0      	subs	r0, r0, r3
    73b0:	4152      	adcs	r2, r2
    73b2:	0b43      	lsrs	r3, r0, #13
    73b4:	428b      	cmp	r3, r1
    73b6:	d301      	bcc.n	73bc <__divsi3+0x64>
    73b8:	034b      	lsls	r3, r1, #13
    73ba:	1ac0      	subs	r0, r0, r3
    73bc:	4152      	adcs	r2, r2
    73be:	0b03      	lsrs	r3, r0, #12
    73c0:	428b      	cmp	r3, r1
    73c2:	d301      	bcc.n	73c8 <__divsi3+0x70>
    73c4:	030b      	lsls	r3, r1, #12
    73c6:	1ac0      	subs	r0, r0, r3
    73c8:	4152      	adcs	r2, r2
    73ca:	0ac3      	lsrs	r3, r0, #11
    73cc:	428b      	cmp	r3, r1
    73ce:	d301      	bcc.n	73d4 <__divsi3+0x7c>
    73d0:	02cb      	lsls	r3, r1, #11
    73d2:	1ac0      	subs	r0, r0, r3
    73d4:	4152      	adcs	r2, r2
    73d6:	0a83      	lsrs	r3, r0, #10
    73d8:	428b      	cmp	r3, r1
    73da:	d301      	bcc.n	73e0 <__divsi3+0x88>
    73dc:	028b      	lsls	r3, r1, #10
    73de:	1ac0      	subs	r0, r0, r3
    73e0:	4152      	adcs	r2, r2
    73e2:	0a43      	lsrs	r3, r0, #9
    73e4:	428b      	cmp	r3, r1
    73e6:	d301      	bcc.n	73ec <__divsi3+0x94>
    73e8:	024b      	lsls	r3, r1, #9
    73ea:	1ac0      	subs	r0, r0, r3
    73ec:	4152      	adcs	r2, r2
    73ee:	0a03      	lsrs	r3, r0, #8
    73f0:	428b      	cmp	r3, r1
    73f2:	d301      	bcc.n	73f8 <__divsi3+0xa0>
    73f4:	020b      	lsls	r3, r1, #8
    73f6:	1ac0      	subs	r0, r0, r3
    73f8:	4152      	adcs	r2, r2
    73fa:	d2cd      	bcs.n	7398 <__divsi3+0x40>
    73fc:	09c3      	lsrs	r3, r0, #7
    73fe:	428b      	cmp	r3, r1
    7400:	d301      	bcc.n	7406 <__divsi3+0xae>
    7402:	01cb      	lsls	r3, r1, #7
    7404:	1ac0      	subs	r0, r0, r3
    7406:	4152      	adcs	r2, r2
    7408:	0983      	lsrs	r3, r0, #6
    740a:	428b      	cmp	r3, r1
    740c:	d301      	bcc.n	7412 <__divsi3+0xba>
    740e:	018b      	lsls	r3, r1, #6
    7410:	1ac0      	subs	r0, r0, r3
    7412:	4152      	adcs	r2, r2
    7414:	0943      	lsrs	r3, r0, #5
    7416:	428b      	cmp	r3, r1
    7418:	d301      	bcc.n	741e <__divsi3+0xc6>
    741a:	014b      	lsls	r3, r1, #5
    741c:	1ac0      	subs	r0, r0, r3
    741e:	4152      	adcs	r2, r2
    7420:	0903      	lsrs	r3, r0, #4
    7422:	428b      	cmp	r3, r1
    7424:	d301      	bcc.n	742a <__divsi3+0xd2>
    7426:	010b      	lsls	r3, r1, #4
    7428:	1ac0      	subs	r0, r0, r3
    742a:	4152      	adcs	r2, r2
    742c:	08c3      	lsrs	r3, r0, #3
    742e:	428b      	cmp	r3, r1
    7430:	d301      	bcc.n	7436 <__divsi3+0xde>
    7432:	00cb      	lsls	r3, r1, #3
    7434:	1ac0      	subs	r0, r0, r3
    7436:	4152      	adcs	r2, r2
    7438:	0883      	lsrs	r3, r0, #2
    743a:	428b      	cmp	r3, r1
    743c:	d301      	bcc.n	7442 <__divsi3+0xea>
    743e:	008b      	lsls	r3, r1, #2
    7440:	1ac0      	subs	r0, r0, r3
    7442:	4152      	adcs	r2, r2
    7444:	0843      	lsrs	r3, r0, #1
    7446:	428b      	cmp	r3, r1
    7448:	d301      	bcc.n	744e <__divsi3+0xf6>
    744a:	004b      	lsls	r3, r1, #1
    744c:	1ac0      	subs	r0, r0, r3
    744e:	4152      	adcs	r2, r2
    7450:	1a41      	subs	r1, r0, r1
    7452:	d200      	bcs.n	7456 <__divsi3+0xfe>
    7454:	4601      	mov	r1, r0
    7456:	4152      	adcs	r2, r2
    7458:	4610      	mov	r0, r2
    745a:	4770      	bx	lr
    745c:	e05d      	b.n	751a <__divsi3+0x1c2>
    745e:	0fca      	lsrs	r2, r1, #31
    7460:	d000      	beq.n	7464 <__divsi3+0x10c>
    7462:	4249      	negs	r1, r1
    7464:	1003      	asrs	r3, r0, #32
    7466:	d300      	bcc.n	746a <__divsi3+0x112>
    7468:	4240      	negs	r0, r0
    746a:	4053      	eors	r3, r2
    746c:	2200      	movs	r2, #0
    746e:	469c      	mov	ip, r3
    7470:	0903      	lsrs	r3, r0, #4
    7472:	428b      	cmp	r3, r1
    7474:	d32d      	bcc.n	74d2 <__divsi3+0x17a>
    7476:	0a03      	lsrs	r3, r0, #8
    7478:	428b      	cmp	r3, r1
    747a:	d312      	bcc.n	74a2 <__divsi3+0x14a>
    747c:	22fc      	movs	r2, #252	; 0xfc
    747e:	0189      	lsls	r1, r1, #6
    7480:	ba12      	rev	r2, r2
    7482:	0a03      	lsrs	r3, r0, #8
    7484:	428b      	cmp	r3, r1
    7486:	d30c      	bcc.n	74a2 <__divsi3+0x14a>
    7488:	0189      	lsls	r1, r1, #6
    748a:	1192      	asrs	r2, r2, #6
    748c:	428b      	cmp	r3, r1
    748e:	d308      	bcc.n	74a2 <__divsi3+0x14a>
    7490:	0189      	lsls	r1, r1, #6
    7492:	1192      	asrs	r2, r2, #6
    7494:	428b      	cmp	r3, r1
    7496:	d304      	bcc.n	74a2 <__divsi3+0x14a>
    7498:	0189      	lsls	r1, r1, #6
    749a:	d03a      	beq.n	7512 <__divsi3+0x1ba>
    749c:	1192      	asrs	r2, r2, #6
    749e:	e000      	b.n	74a2 <__divsi3+0x14a>
    74a0:	0989      	lsrs	r1, r1, #6
    74a2:	09c3      	lsrs	r3, r0, #7
    74a4:	428b      	cmp	r3, r1
    74a6:	d301      	bcc.n	74ac <__divsi3+0x154>
    74a8:	01cb      	lsls	r3, r1, #7
    74aa:	1ac0      	subs	r0, r0, r3
    74ac:	4152      	adcs	r2, r2
    74ae:	0983      	lsrs	r3, r0, #6
    74b0:	428b      	cmp	r3, r1
    74b2:	d301      	bcc.n	74b8 <__divsi3+0x160>
    74b4:	018b      	lsls	r3, r1, #6
    74b6:	1ac0      	subs	r0, r0, r3
    74b8:	4152      	adcs	r2, r2
    74ba:	0943      	lsrs	r3, r0, #5
    74bc:	428b      	cmp	r3, r1
    74be:	d301      	bcc.n	74c4 <__divsi3+0x16c>
    74c0:	014b      	lsls	r3, r1, #5
    74c2:	1ac0      	subs	r0, r0, r3
    74c4:	4152      	adcs	r2, r2
    74c6:	0903      	lsrs	r3, r0, #4
    74c8:	428b      	cmp	r3, r1
    74ca:	d301      	bcc.n	74d0 <__divsi3+0x178>
    74cc:	010b      	lsls	r3, r1, #4
    74ce:	1ac0      	subs	r0, r0, r3
    74d0:	4152      	adcs	r2, r2
    74d2:	08c3      	lsrs	r3, r0, #3
    74d4:	428b      	cmp	r3, r1
    74d6:	d301      	bcc.n	74dc <__divsi3+0x184>
    74d8:	00cb      	lsls	r3, r1, #3
    74da:	1ac0      	subs	r0, r0, r3
    74dc:	4152      	adcs	r2, r2
    74de:	0883      	lsrs	r3, r0, #2
    74e0:	428b      	cmp	r3, r1
    74e2:	d301      	bcc.n	74e8 <__divsi3+0x190>
    74e4:	008b      	lsls	r3, r1, #2
    74e6:	1ac0      	subs	r0, r0, r3
    74e8:	4152      	adcs	r2, r2
    74ea:	d2d9      	bcs.n	74a0 <__divsi3+0x148>
    74ec:	0843      	lsrs	r3, r0, #1
    74ee:	428b      	cmp	r3, r1
    74f0:	d301      	bcc.n	74f6 <__divsi3+0x19e>
    74f2:	004b      	lsls	r3, r1, #1
    74f4:	1ac0      	subs	r0, r0, r3
    74f6:	4152      	adcs	r2, r2
    74f8:	1a41      	subs	r1, r0, r1
    74fa:	d200      	bcs.n	74fe <__divsi3+0x1a6>
    74fc:	4601      	mov	r1, r0
    74fe:	4663      	mov	r3, ip
    7500:	4152      	adcs	r2, r2
    7502:	105b      	asrs	r3, r3, #1
    7504:	4610      	mov	r0, r2
    7506:	d301      	bcc.n	750c <__divsi3+0x1b4>
    7508:	4240      	negs	r0, r0
    750a:	2b00      	cmp	r3, #0
    750c:	d500      	bpl.n	7510 <__divsi3+0x1b8>
    750e:	4249      	negs	r1, r1
    7510:	4770      	bx	lr
    7512:	4663      	mov	r3, ip
    7514:	105b      	asrs	r3, r3, #1
    7516:	d300      	bcc.n	751a <__divsi3+0x1c2>
    7518:	4240      	negs	r0, r0
    751a:	b501      	push	{r0, lr}
    751c:	2000      	movs	r0, #0
    751e:	f000 f805 	bl	752c <__aeabi_idiv0>
    7522:	bd02      	pop	{r1, pc}

00007524 <__aeabi_idivmod>:
    7524:	2900      	cmp	r1, #0
    7526:	d0f8      	beq.n	751a <__divsi3+0x1c2>
    7528:	e716      	b.n	7358 <__divsi3>
    752a:	4770      	bx	lr

0000752c <__aeabi_idiv0>:
    752c:	4770      	bx	lr
    752e:	46c0      	nop			; (mov r8, r8)

00007530 <__aeabi_cdrcmple>:
    7530:	4684      	mov	ip, r0
    7532:	0010      	movs	r0, r2
    7534:	4662      	mov	r2, ip
    7536:	468c      	mov	ip, r1
    7538:	0019      	movs	r1, r3
    753a:	4663      	mov	r3, ip
    753c:	e000      	b.n	7540 <__aeabi_cdcmpeq>
    753e:	46c0      	nop			; (mov r8, r8)

00007540 <__aeabi_cdcmpeq>:
    7540:	b51f      	push	{r0, r1, r2, r3, r4, lr}
    7542:	f001 fc43 	bl	8dcc <__ledf2>
    7546:	2800      	cmp	r0, #0
    7548:	d401      	bmi.n	754e <__aeabi_cdcmpeq+0xe>
    754a:	2100      	movs	r1, #0
    754c:	42c8      	cmn	r0, r1
    754e:	bd1f      	pop	{r0, r1, r2, r3, r4, pc}

00007550 <__aeabi_dcmpeq>:
    7550:	b510      	push	{r4, lr}
    7552:	f001 fb93 	bl	8c7c <__eqdf2>
    7556:	4240      	negs	r0, r0
    7558:	3001      	adds	r0, #1
    755a:	bd10      	pop	{r4, pc}

0000755c <__aeabi_dcmplt>:
    755c:	b510      	push	{r4, lr}
    755e:	f001 fc35 	bl	8dcc <__ledf2>
    7562:	2800      	cmp	r0, #0
    7564:	db01      	blt.n	756a <__aeabi_dcmplt+0xe>
    7566:	2000      	movs	r0, #0
    7568:	bd10      	pop	{r4, pc}
    756a:	2001      	movs	r0, #1
    756c:	bd10      	pop	{r4, pc}
    756e:	46c0      	nop			; (mov r8, r8)

00007570 <__aeabi_dcmple>:
    7570:	b510      	push	{r4, lr}
    7572:	f001 fc2b 	bl	8dcc <__ledf2>
    7576:	2800      	cmp	r0, #0
    7578:	dd01      	ble.n	757e <__aeabi_dcmple+0xe>
    757a:	2000      	movs	r0, #0
    757c:	bd10      	pop	{r4, pc}
    757e:	2001      	movs	r0, #1
    7580:	bd10      	pop	{r4, pc}
    7582:	46c0      	nop			; (mov r8, r8)

00007584 <__aeabi_dcmpgt>:
    7584:	b510      	push	{r4, lr}
    7586:	f001 fbbb 	bl	8d00 <__gedf2>
    758a:	2800      	cmp	r0, #0
    758c:	dc01      	bgt.n	7592 <__aeabi_dcmpgt+0xe>
    758e:	2000      	movs	r0, #0
    7590:	bd10      	pop	{r4, pc}
    7592:	2001      	movs	r0, #1
    7594:	bd10      	pop	{r4, pc}
    7596:	46c0      	nop			; (mov r8, r8)

00007598 <__aeabi_dcmpge>:
    7598:	b510      	push	{r4, lr}
    759a:	f001 fbb1 	bl	8d00 <__gedf2>
    759e:	2800      	cmp	r0, #0
    75a0:	da01      	bge.n	75a6 <__aeabi_dcmpge+0xe>
    75a2:	2000      	movs	r0, #0
    75a4:	bd10      	pop	{r4, pc}
    75a6:	2001      	movs	r0, #1
    75a8:	bd10      	pop	{r4, pc}
    75aa:	46c0      	nop			; (mov r8, r8)

000075ac <__aeabi_uldivmod>:
    75ac:	2b00      	cmp	r3, #0
    75ae:	d111      	bne.n	75d4 <__aeabi_uldivmod+0x28>
    75b0:	2a00      	cmp	r2, #0
    75b2:	d10f      	bne.n	75d4 <__aeabi_uldivmod+0x28>
    75b4:	2900      	cmp	r1, #0
    75b6:	d100      	bne.n	75ba <__aeabi_uldivmod+0xe>
    75b8:	2800      	cmp	r0, #0
    75ba:	d002      	beq.n	75c2 <__aeabi_uldivmod+0x16>
    75bc:	2100      	movs	r1, #0
    75be:	43c9      	mvns	r1, r1
    75c0:	0008      	movs	r0, r1
    75c2:	b407      	push	{r0, r1, r2}
    75c4:	4802      	ldr	r0, [pc, #8]	; (75d0 <__aeabi_uldivmod+0x24>)
    75c6:	a102      	add	r1, pc, #8	; (adr r1, 75d0 <__aeabi_uldivmod+0x24>)
    75c8:	1840      	adds	r0, r0, r1
    75ca:	9002      	str	r0, [sp, #8]
    75cc:	bd03      	pop	{r0, r1, pc}
    75ce:	46c0      	nop			; (mov r8, r8)
    75d0:	ffffff5d 	.word	0xffffff5d
    75d4:	b403      	push	{r0, r1}
    75d6:	4668      	mov	r0, sp
    75d8:	b501      	push	{r0, lr}
    75da:	9802      	ldr	r0, [sp, #8]
    75dc:	f000 f806 	bl	75ec <__udivmoddi4>
    75e0:	9b01      	ldr	r3, [sp, #4]
    75e2:	469e      	mov	lr, r3
    75e4:	b002      	add	sp, #8
    75e6:	bc0c      	pop	{r2, r3}
    75e8:	4770      	bx	lr
    75ea:	46c0      	nop			; (mov r8, r8)

000075ec <__udivmoddi4>:
    75ec:	b5f0      	push	{r4, r5, r6, r7, lr}
    75ee:	4657      	mov	r7, sl
    75f0:	464e      	mov	r6, r9
    75f2:	4645      	mov	r5, r8
    75f4:	46de      	mov	lr, fp
    75f6:	b5e0      	push	{r5, r6, r7, lr}
    75f8:	0004      	movs	r4, r0
    75fa:	000d      	movs	r5, r1
    75fc:	4692      	mov	sl, r2
    75fe:	4699      	mov	r9, r3
    7600:	b083      	sub	sp, #12
    7602:	428b      	cmp	r3, r1
    7604:	d830      	bhi.n	7668 <__udivmoddi4+0x7c>
    7606:	d02d      	beq.n	7664 <__udivmoddi4+0x78>
    7608:	4649      	mov	r1, r9
    760a:	4650      	mov	r0, sl
    760c:	f002 fb08 	bl	9c20 <__clzdi2>
    7610:	0029      	movs	r1, r5
    7612:	0006      	movs	r6, r0
    7614:	0020      	movs	r0, r4
    7616:	f002 fb03 	bl	9c20 <__clzdi2>
    761a:	1a33      	subs	r3, r6, r0
    761c:	4698      	mov	r8, r3
    761e:	3b20      	subs	r3, #32
    7620:	469b      	mov	fp, r3
    7622:	d433      	bmi.n	768c <__udivmoddi4+0xa0>
    7624:	465a      	mov	r2, fp
    7626:	4653      	mov	r3, sl
    7628:	4093      	lsls	r3, r2
    762a:	4642      	mov	r2, r8
    762c:	001f      	movs	r7, r3
    762e:	4653      	mov	r3, sl
    7630:	4093      	lsls	r3, r2
    7632:	001e      	movs	r6, r3
    7634:	42af      	cmp	r7, r5
    7636:	d83a      	bhi.n	76ae <__udivmoddi4+0xc2>
    7638:	42af      	cmp	r7, r5
    763a:	d100      	bne.n	763e <__udivmoddi4+0x52>
    763c:	e078      	b.n	7730 <__udivmoddi4+0x144>
    763e:	465b      	mov	r3, fp
    7640:	1ba4      	subs	r4, r4, r6
    7642:	41bd      	sbcs	r5, r7
    7644:	2b00      	cmp	r3, #0
    7646:	da00      	bge.n	764a <__udivmoddi4+0x5e>
    7648:	e075      	b.n	7736 <__udivmoddi4+0x14a>
    764a:	2200      	movs	r2, #0
    764c:	2300      	movs	r3, #0
    764e:	9200      	str	r2, [sp, #0]
    7650:	9301      	str	r3, [sp, #4]
    7652:	2301      	movs	r3, #1
    7654:	465a      	mov	r2, fp
    7656:	4093      	lsls	r3, r2
    7658:	9301      	str	r3, [sp, #4]
    765a:	2301      	movs	r3, #1
    765c:	4642      	mov	r2, r8
    765e:	4093      	lsls	r3, r2
    7660:	9300      	str	r3, [sp, #0]
    7662:	e028      	b.n	76b6 <__udivmoddi4+0xca>
    7664:	4282      	cmp	r2, r0
    7666:	d9cf      	bls.n	7608 <__udivmoddi4+0x1c>
    7668:	2200      	movs	r2, #0
    766a:	2300      	movs	r3, #0
    766c:	9200      	str	r2, [sp, #0]
    766e:	9301      	str	r3, [sp, #4]
    7670:	9b0c      	ldr	r3, [sp, #48]	; 0x30
    7672:	2b00      	cmp	r3, #0
    7674:	d001      	beq.n	767a <__udivmoddi4+0x8e>
    7676:	601c      	str	r4, [r3, #0]
    7678:	605d      	str	r5, [r3, #4]
    767a:	9800      	ldr	r0, [sp, #0]
    767c:	9901      	ldr	r1, [sp, #4]
    767e:	b003      	add	sp, #12
    7680:	bcf0      	pop	{r4, r5, r6, r7}
    7682:	46bb      	mov	fp, r7
    7684:	46b2      	mov	sl, r6
    7686:	46a9      	mov	r9, r5
    7688:	46a0      	mov	r8, r4
    768a:	bdf0      	pop	{r4, r5, r6, r7, pc}
    768c:	4642      	mov	r2, r8
    768e:	2320      	movs	r3, #32
    7690:	1a9b      	subs	r3, r3, r2
    7692:	4652      	mov	r2, sl
    7694:	40da      	lsrs	r2, r3
    7696:	4641      	mov	r1, r8
    7698:	0013      	movs	r3, r2
    769a:	464a      	mov	r2, r9
    769c:	408a      	lsls	r2, r1
    769e:	0017      	movs	r7, r2
    76a0:	4642      	mov	r2, r8
    76a2:	431f      	orrs	r7, r3
    76a4:	4653      	mov	r3, sl
    76a6:	4093      	lsls	r3, r2
    76a8:	001e      	movs	r6, r3
    76aa:	42af      	cmp	r7, r5
    76ac:	d9c4      	bls.n	7638 <__udivmoddi4+0x4c>
    76ae:	2200      	movs	r2, #0
    76b0:	2300      	movs	r3, #0
    76b2:	9200      	str	r2, [sp, #0]
    76b4:	9301      	str	r3, [sp, #4]
    76b6:	4643      	mov	r3, r8
    76b8:	2b00      	cmp	r3, #0
    76ba:	d0d9      	beq.n	7670 <__udivmoddi4+0x84>
    76bc:	07fb      	lsls	r3, r7, #31
    76be:	0872      	lsrs	r2, r6, #1
    76c0:	431a      	orrs	r2, r3
    76c2:	4646      	mov	r6, r8
    76c4:	087b      	lsrs	r3, r7, #1
    76c6:	e00e      	b.n	76e6 <__udivmoddi4+0xfa>
    76c8:	42ab      	cmp	r3, r5
    76ca:	d101      	bne.n	76d0 <__udivmoddi4+0xe4>
    76cc:	42a2      	cmp	r2, r4
    76ce:	d80c      	bhi.n	76ea <__udivmoddi4+0xfe>
    76d0:	1aa4      	subs	r4, r4, r2
    76d2:	419d      	sbcs	r5, r3
    76d4:	2001      	movs	r0, #1
    76d6:	1924      	adds	r4, r4, r4
    76d8:	416d      	adcs	r5, r5
    76da:	2100      	movs	r1, #0
    76dc:	3e01      	subs	r6, #1
    76de:	1824      	adds	r4, r4, r0
    76e0:	414d      	adcs	r5, r1
    76e2:	2e00      	cmp	r6, #0
    76e4:	d006      	beq.n	76f4 <__udivmoddi4+0x108>
    76e6:	42ab      	cmp	r3, r5
    76e8:	d9ee      	bls.n	76c8 <__udivmoddi4+0xdc>
    76ea:	3e01      	subs	r6, #1
    76ec:	1924      	adds	r4, r4, r4
    76ee:	416d      	adcs	r5, r5
    76f0:	2e00      	cmp	r6, #0
    76f2:	d1f8      	bne.n	76e6 <__udivmoddi4+0xfa>
    76f4:	9800      	ldr	r0, [sp, #0]
    76f6:	9901      	ldr	r1, [sp, #4]
    76f8:	465b      	mov	r3, fp
    76fa:	1900      	adds	r0, r0, r4
    76fc:	4169      	adcs	r1, r5
    76fe:	2b00      	cmp	r3, #0
    7700:	db24      	blt.n	774c <__udivmoddi4+0x160>
    7702:	002b      	movs	r3, r5
    7704:	465a      	mov	r2, fp
    7706:	4644      	mov	r4, r8
    7708:	40d3      	lsrs	r3, r2
    770a:	002a      	movs	r2, r5
    770c:	40e2      	lsrs	r2, r4
    770e:	001c      	movs	r4, r3
    7710:	465b      	mov	r3, fp
    7712:	0015      	movs	r5, r2
    7714:	2b00      	cmp	r3, #0
    7716:	db2a      	blt.n	776e <__udivmoddi4+0x182>
    7718:	0026      	movs	r6, r4
    771a:	409e      	lsls	r6, r3
    771c:	0033      	movs	r3, r6
    771e:	0026      	movs	r6, r4
    7720:	4647      	mov	r7, r8
    7722:	40be      	lsls	r6, r7
    7724:	0032      	movs	r2, r6
    7726:	1a80      	subs	r0, r0, r2
    7728:	4199      	sbcs	r1, r3
    772a:	9000      	str	r0, [sp, #0]
    772c:	9101      	str	r1, [sp, #4]
    772e:	e79f      	b.n	7670 <__udivmoddi4+0x84>
    7730:	42a3      	cmp	r3, r4
    7732:	d8bc      	bhi.n	76ae <__udivmoddi4+0xc2>
    7734:	e783      	b.n	763e <__udivmoddi4+0x52>
    7736:	4642      	mov	r2, r8
    7738:	2320      	movs	r3, #32
    773a:	2100      	movs	r1, #0
    773c:	1a9b      	subs	r3, r3, r2
    773e:	2200      	movs	r2, #0
    7740:	9100      	str	r1, [sp, #0]
    7742:	9201      	str	r2, [sp, #4]
    7744:	2201      	movs	r2, #1
    7746:	40da      	lsrs	r2, r3
    7748:	9201      	str	r2, [sp, #4]
    774a:	e786      	b.n	765a <__udivmoddi4+0x6e>
    774c:	4642      	mov	r2, r8
    774e:	2320      	movs	r3, #32
    7750:	1a9b      	subs	r3, r3, r2
    7752:	002a      	movs	r2, r5
    7754:	4646      	mov	r6, r8
    7756:	409a      	lsls	r2, r3
    7758:	0023      	movs	r3, r4
    775a:	40f3      	lsrs	r3, r6
    775c:	4644      	mov	r4, r8
    775e:	4313      	orrs	r3, r2
    7760:	002a      	movs	r2, r5
    7762:	40e2      	lsrs	r2, r4
    7764:	001c      	movs	r4, r3
    7766:	465b      	mov	r3, fp
    7768:	0015      	movs	r5, r2
    776a:	2b00      	cmp	r3, #0
    776c:	dad4      	bge.n	7718 <__udivmoddi4+0x12c>
    776e:	4642      	mov	r2, r8
    7770:	002f      	movs	r7, r5
    7772:	2320      	movs	r3, #32
    7774:	0026      	movs	r6, r4
    7776:	4097      	lsls	r7, r2
    7778:	1a9b      	subs	r3, r3, r2
    777a:	40de      	lsrs	r6, r3
    777c:	003b      	movs	r3, r7
    777e:	4333      	orrs	r3, r6
    7780:	e7cd      	b.n	771e <__udivmoddi4+0x132>
    7782:	46c0      	nop			; (mov r8, r8)

00007784 <__aeabi_fadd>:
    7784:	b5f0      	push	{r4, r5, r6, r7, lr}
    7786:	46c6      	mov	lr, r8
    7788:	0243      	lsls	r3, r0, #9
    778a:	0a5b      	lsrs	r3, r3, #9
    778c:	024e      	lsls	r6, r1, #9
    778e:	0045      	lsls	r5, r0, #1
    7790:	004f      	lsls	r7, r1, #1
    7792:	00da      	lsls	r2, r3, #3
    7794:	0fc4      	lsrs	r4, r0, #31
    7796:	469c      	mov	ip, r3
    7798:	0a70      	lsrs	r0, r6, #9
    779a:	4690      	mov	r8, r2
    779c:	b500      	push	{lr}
    779e:	0e2d      	lsrs	r5, r5, #24
    77a0:	0e3f      	lsrs	r7, r7, #24
    77a2:	0fc9      	lsrs	r1, r1, #31
    77a4:	09b6      	lsrs	r6, r6, #6
    77a6:	428c      	cmp	r4, r1
    77a8:	d04b      	beq.n	7842 <__aeabi_fadd+0xbe>
    77aa:	1bea      	subs	r2, r5, r7
    77ac:	2a00      	cmp	r2, #0
    77ae:	dd36      	ble.n	781e <__aeabi_fadd+0x9a>
    77b0:	2f00      	cmp	r7, #0
    77b2:	d061      	beq.n	7878 <__aeabi_fadd+0xf4>
    77b4:	2dff      	cmp	r5, #255	; 0xff
    77b6:	d100      	bne.n	77ba <__aeabi_fadd+0x36>
    77b8:	e0ad      	b.n	7916 <__aeabi_fadd+0x192>
    77ba:	2380      	movs	r3, #128	; 0x80
    77bc:	04db      	lsls	r3, r3, #19
    77be:	431e      	orrs	r6, r3
    77c0:	2a1b      	cmp	r2, #27
    77c2:	dc00      	bgt.n	77c6 <__aeabi_fadd+0x42>
    77c4:	e0d3      	b.n	796e <__aeabi_fadd+0x1ea>
    77c6:	2001      	movs	r0, #1
    77c8:	4643      	mov	r3, r8
    77ca:	1a18      	subs	r0, r3, r0
    77cc:	0143      	lsls	r3, r0, #5
    77ce:	d400      	bmi.n	77d2 <__aeabi_fadd+0x4e>
    77d0:	e08c      	b.n	78ec <__aeabi_fadd+0x168>
    77d2:	0180      	lsls	r0, r0, #6
    77d4:	0987      	lsrs	r7, r0, #6
    77d6:	0038      	movs	r0, r7
    77d8:	f002 fa04 	bl	9be4 <__clzsi2>
    77dc:	3805      	subs	r0, #5
    77de:	4087      	lsls	r7, r0
    77e0:	4285      	cmp	r5, r0
    77e2:	dc00      	bgt.n	77e6 <__aeabi_fadd+0x62>
    77e4:	e0b6      	b.n	7954 <__aeabi_fadd+0x1d0>
    77e6:	1a2d      	subs	r5, r5, r0
    77e8:	48b3      	ldr	r0, [pc, #716]	; (7ab8 <__aeabi_fadd+0x334>)
    77ea:	4038      	ands	r0, r7
    77ec:	0743      	lsls	r3, r0, #29
    77ee:	d004      	beq.n	77fa <__aeabi_fadd+0x76>
    77f0:	230f      	movs	r3, #15
    77f2:	4003      	ands	r3, r0
    77f4:	2b04      	cmp	r3, #4
    77f6:	d000      	beq.n	77fa <__aeabi_fadd+0x76>
    77f8:	3004      	adds	r0, #4
    77fa:	0143      	lsls	r3, r0, #5
    77fc:	d400      	bmi.n	7800 <__aeabi_fadd+0x7c>
    77fe:	e078      	b.n	78f2 <__aeabi_fadd+0x16e>
    7800:	1c6a      	adds	r2, r5, #1
    7802:	2dfe      	cmp	r5, #254	; 0xfe
    7804:	d065      	beq.n	78d2 <__aeabi_fadd+0x14e>
    7806:	0180      	lsls	r0, r0, #6
    7808:	0a43      	lsrs	r3, r0, #9
    780a:	469c      	mov	ip, r3
    780c:	b2d2      	uxtb	r2, r2
    780e:	4663      	mov	r3, ip
    7810:	05d0      	lsls	r0, r2, #23
    7812:	4318      	orrs	r0, r3
    7814:	07e4      	lsls	r4, r4, #31
    7816:	4320      	orrs	r0, r4
    7818:	bc80      	pop	{r7}
    781a:	46b8      	mov	r8, r7
    781c:	bdf0      	pop	{r4, r5, r6, r7, pc}
    781e:	2a00      	cmp	r2, #0
    7820:	d035      	beq.n	788e <__aeabi_fadd+0x10a>
    7822:	1b7a      	subs	r2, r7, r5
    7824:	2d00      	cmp	r5, #0
    7826:	d000      	beq.n	782a <__aeabi_fadd+0xa6>
    7828:	e0af      	b.n	798a <__aeabi_fadd+0x206>
    782a:	4643      	mov	r3, r8
    782c:	2b00      	cmp	r3, #0
    782e:	d100      	bne.n	7832 <__aeabi_fadd+0xae>
    7830:	e0a7      	b.n	7982 <__aeabi_fadd+0x1fe>
    7832:	1e53      	subs	r3, r2, #1
    7834:	2a01      	cmp	r2, #1
    7836:	d100      	bne.n	783a <__aeabi_fadd+0xb6>
    7838:	e12f      	b.n	7a9a <__aeabi_fadd+0x316>
    783a:	2aff      	cmp	r2, #255	; 0xff
    783c:	d069      	beq.n	7912 <__aeabi_fadd+0x18e>
    783e:	001a      	movs	r2, r3
    7840:	e0aa      	b.n	7998 <__aeabi_fadd+0x214>
    7842:	1be9      	subs	r1, r5, r7
    7844:	2900      	cmp	r1, #0
    7846:	dd70      	ble.n	792a <__aeabi_fadd+0x1a6>
    7848:	2f00      	cmp	r7, #0
    784a:	d037      	beq.n	78bc <__aeabi_fadd+0x138>
    784c:	2dff      	cmp	r5, #255	; 0xff
    784e:	d062      	beq.n	7916 <__aeabi_fadd+0x192>
    7850:	2380      	movs	r3, #128	; 0x80
    7852:	04db      	lsls	r3, r3, #19
    7854:	431e      	orrs	r6, r3
    7856:	291b      	cmp	r1, #27
    7858:	dc00      	bgt.n	785c <__aeabi_fadd+0xd8>
    785a:	e0b0      	b.n	79be <__aeabi_fadd+0x23a>
    785c:	2001      	movs	r0, #1
    785e:	4440      	add	r0, r8
    7860:	0143      	lsls	r3, r0, #5
    7862:	d543      	bpl.n	78ec <__aeabi_fadd+0x168>
    7864:	3501      	adds	r5, #1
    7866:	2dff      	cmp	r5, #255	; 0xff
    7868:	d033      	beq.n	78d2 <__aeabi_fadd+0x14e>
    786a:	2301      	movs	r3, #1
    786c:	4a93      	ldr	r2, [pc, #588]	; (7abc <__aeabi_fadd+0x338>)
    786e:	4003      	ands	r3, r0
    7870:	0840      	lsrs	r0, r0, #1
    7872:	4010      	ands	r0, r2
    7874:	4318      	orrs	r0, r3
    7876:	e7b9      	b.n	77ec <__aeabi_fadd+0x68>
    7878:	2e00      	cmp	r6, #0
    787a:	d100      	bne.n	787e <__aeabi_fadd+0xfa>
    787c:	e083      	b.n	7986 <__aeabi_fadd+0x202>
    787e:	1e51      	subs	r1, r2, #1
    7880:	2a01      	cmp	r2, #1
    7882:	d100      	bne.n	7886 <__aeabi_fadd+0x102>
    7884:	e0d8      	b.n	7a38 <__aeabi_fadd+0x2b4>
    7886:	2aff      	cmp	r2, #255	; 0xff
    7888:	d045      	beq.n	7916 <__aeabi_fadd+0x192>
    788a:	000a      	movs	r2, r1
    788c:	e798      	b.n	77c0 <__aeabi_fadd+0x3c>
    788e:	27fe      	movs	r7, #254	; 0xfe
    7890:	1c6a      	adds	r2, r5, #1
    7892:	4217      	tst	r7, r2
    7894:	d000      	beq.n	7898 <__aeabi_fadd+0x114>
    7896:	e086      	b.n	79a6 <__aeabi_fadd+0x222>
    7898:	2d00      	cmp	r5, #0
    789a:	d000      	beq.n	789e <__aeabi_fadd+0x11a>
    789c:	e0b7      	b.n	7a0e <__aeabi_fadd+0x28a>
    789e:	4643      	mov	r3, r8
    78a0:	2b00      	cmp	r3, #0
    78a2:	d100      	bne.n	78a6 <__aeabi_fadd+0x122>
    78a4:	e0f3      	b.n	7a8e <__aeabi_fadd+0x30a>
    78a6:	2200      	movs	r2, #0
    78a8:	2e00      	cmp	r6, #0
    78aa:	d0b0      	beq.n	780e <__aeabi_fadd+0x8a>
    78ac:	1b98      	subs	r0, r3, r6
    78ae:	0143      	lsls	r3, r0, #5
    78b0:	d400      	bmi.n	78b4 <__aeabi_fadd+0x130>
    78b2:	e0fa      	b.n	7aaa <__aeabi_fadd+0x326>
    78b4:	4643      	mov	r3, r8
    78b6:	000c      	movs	r4, r1
    78b8:	1af0      	subs	r0, r6, r3
    78ba:	e797      	b.n	77ec <__aeabi_fadd+0x68>
    78bc:	2e00      	cmp	r6, #0
    78be:	d100      	bne.n	78c2 <__aeabi_fadd+0x13e>
    78c0:	e0c8      	b.n	7a54 <__aeabi_fadd+0x2d0>
    78c2:	1e4a      	subs	r2, r1, #1
    78c4:	2901      	cmp	r1, #1
    78c6:	d100      	bne.n	78ca <__aeabi_fadd+0x146>
    78c8:	e0ae      	b.n	7a28 <__aeabi_fadd+0x2a4>
    78ca:	29ff      	cmp	r1, #255	; 0xff
    78cc:	d023      	beq.n	7916 <__aeabi_fadd+0x192>
    78ce:	0011      	movs	r1, r2
    78d0:	e7c1      	b.n	7856 <__aeabi_fadd+0xd2>
    78d2:	2300      	movs	r3, #0
    78d4:	22ff      	movs	r2, #255	; 0xff
    78d6:	469c      	mov	ip, r3
    78d8:	e799      	b.n	780e <__aeabi_fadd+0x8a>
    78da:	21fe      	movs	r1, #254	; 0xfe
    78dc:	1c6a      	adds	r2, r5, #1
    78de:	4211      	tst	r1, r2
    78e0:	d077      	beq.n	79d2 <__aeabi_fadd+0x24e>
    78e2:	2aff      	cmp	r2, #255	; 0xff
    78e4:	d0f5      	beq.n	78d2 <__aeabi_fadd+0x14e>
    78e6:	0015      	movs	r5, r2
    78e8:	4446      	add	r6, r8
    78ea:	0870      	lsrs	r0, r6, #1
    78ec:	0743      	lsls	r3, r0, #29
    78ee:	d000      	beq.n	78f2 <__aeabi_fadd+0x16e>
    78f0:	e77e      	b.n	77f0 <__aeabi_fadd+0x6c>
    78f2:	08c3      	lsrs	r3, r0, #3
    78f4:	2dff      	cmp	r5, #255	; 0xff
    78f6:	d00e      	beq.n	7916 <__aeabi_fadd+0x192>
    78f8:	025b      	lsls	r3, r3, #9
    78fa:	0a5b      	lsrs	r3, r3, #9
    78fc:	469c      	mov	ip, r3
    78fe:	b2ea      	uxtb	r2, r5
    7900:	e785      	b.n	780e <__aeabi_fadd+0x8a>
    7902:	2e00      	cmp	r6, #0
    7904:	d007      	beq.n	7916 <__aeabi_fadd+0x192>
    7906:	2280      	movs	r2, #128	; 0x80
    7908:	03d2      	lsls	r2, r2, #15
    790a:	4213      	tst	r3, r2
    790c:	d003      	beq.n	7916 <__aeabi_fadd+0x192>
    790e:	4210      	tst	r0, r2
    7910:	d101      	bne.n	7916 <__aeabi_fadd+0x192>
    7912:	000c      	movs	r4, r1
    7914:	0003      	movs	r3, r0
    7916:	2b00      	cmp	r3, #0
    7918:	d0db      	beq.n	78d2 <__aeabi_fadd+0x14e>
    791a:	2080      	movs	r0, #128	; 0x80
    791c:	03c0      	lsls	r0, r0, #15
    791e:	4318      	orrs	r0, r3
    7920:	0240      	lsls	r0, r0, #9
    7922:	0a43      	lsrs	r3, r0, #9
    7924:	469c      	mov	ip, r3
    7926:	22ff      	movs	r2, #255	; 0xff
    7928:	e771      	b.n	780e <__aeabi_fadd+0x8a>
    792a:	2900      	cmp	r1, #0
    792c:	d0d5      	beq.n	78da <__aeabi_fadd+0x156>
    792e:	1b7a      	subs	r2, r7, r5
    7930:	2d00      	cmp	r5, #0
    7932:	d160      	bne.n	79f6 <__aeabi_fadd+0x272>
    7934:	4643      	mov	r3, r8
    7936:	2b00      	cmp	r3, #0
    7938:	d024      	beq.n	7984 <__aeabi_fadd+0x200>
    793a:	1e53      	subs	r3, r2, #1
    793c:	2a01      	cmp	r2, #1
    793e:	d073      	beq.n	7a28 <__aeabi_fadd+0x2a4>
    7940:	2aff      	cmp	r2, #255	; 0xff
    7942:	d0e7      	beq.n	7914 <__aeabi_fadd+0x190>
    7944:	001a      	movs	r2, r3
    7946:	2a1b      	cmp	r2, #27
    7948:	dc00      	bgt.n	794c <__aeabi_fadd+0x1c8>
    794a:	e085      	b.n	7a58 <__aeabi_fadd+0x2d4>
    794c:	2001      	movs	r0, #1
    794e:	003d      	movs	r5, r7
    7950:	1980      	adds	r0, r0, r6
    7952:	e785      	b.n	7860 <__aeabi_fadd+0xdc>
    7954:	2320      	movs	r3, #32
    7956:	003a      	movs	r2, r7
    7958:	1b45      	subs	r5, r0, r5
    795a:	0038      	movs	r0, r7
    795c:	3501      	adds	r5, #1
    795e:	40ea      	lsrs	r2, r5
    7960:	1b5d      	subs	r5, r3, r5
    7962:	40a8      	lsls	r0, r5
    7964:	1e43      	subs	r3, r0, #1
    7966:	4198      	sbcs	r0, r3
    7968:	2500      	movs	r5, #0
    796a:	4310      	orrs	r0, r2
    796c:	e73e      	b.n	77ec <__aeabi_fadd+0x68>
    796e:	2320      	movs	r3, #32
    7970:	0030      	movs	r0, r6
    7972:	1a9b      	subs	r3, r3, r2
    7974:	0031      	movs	r1, r6
    7976:	4098      	lsls	r0, r3
    7978:	40d1      	lsrs	r1, r2
    797a:	1e43      	subs	r3, r0, #1
    797c:	4198      	sbcs	r0, r3
    797e:	4308      	orrs	r0, r1
    7980:	e722      	b.n	77c8 <__aeabi_fadd+0x44>
    7982:	000c      	movs	r4, r1
    7984:	0003      	movs	r3, r0
    7986:	0015      	movs	r5, r2
    7988:	e7b4      	b.n	78f4 <__aeabi_fadd+0x170>
    798a:	2fff      	cmp	r7, #255	; 0xff
    798c:	d0c1      	beq.n	7912 <__aeabi_fadd+0x18e>
    798e:	2380      	movs	r3, #128	; 0x80
    7990:	4640      	mov	r0, r8
    7992:	04db      	lsls	r3, r3, #19
    7994:	4318      	orrs	r0, r3
    7996:	4680      	mov	r8, r0
    7998:	2a1b      	cmp	r2, #27
    799a:	dd51      	ble.n	7a40 <__aeabi_fadd+0x2bc>
    799c:	2001      	movs	r0, #1
    799e:	000c      	movs	r4, r1
    79a0:	003d      	movs	r5, r7
    79a2:	1a30      	subs	r0, r6, r0
    79a4:	e712      	b.n	77cc <__aeabi_fadd+0x48>
    79a6:	4643      	mov	r3, r8
    79a8:	1b9f      	subs	r7, r3, r6
    79aa:	017b      	lsls	r3, r7, #5
    79ac:	d42b      	bmi.n	7a06 <__aeabi_fadd+0x282>
    79ae:	2f00      	cmp	r7, #0
    79b0:	d000      	beq.n	79b4 <__aeabi_fadd+0x230>
    79b2:	e710      	b.n	77d6 <__aeabi_fadd+0x52>
    79b4:	2300      	movs	r3, #0
    79b6:	2400      	movs	r4, #0
    79b8:	2200      	movs	r2, #0
    79ba:	469c      	mov	ip, r3
    79bc:	e727      	b.n	780e <__aeabi_fadd+0x8a>
    79be:	2320      	movs	r3, #32
    79c0:	0032      	movs	r2, r6
    79c2:	0030      	movs	r0, r6
    79c4:	40ca      	lsrs	r2, r1
    79c6:	1a59      	subs	r1, r3, r1
    79c8:	4088      	lsls	r0, r1
    79ca:	1e43      	subs	r3, r0, #1
    79cc:	4198      	sbcs	r0, r3
    79ce:	4310      	orrs	r0, r2
    79d0:	e745      	b.n	785e <__aeabi_fadd+0xda>
    79d2:	2d00      	cmp	r5, #0
    79d4:	d14a      	bne.n	7a6c <__aeabi_fadd+0x2e8>
    79d6:	4643      	mov	r3, r8
    79d8:	2b00      	cmp	r3, #0
    79da:	d063      	beq.n	7aa4 <__aeabi_fadd+0x320>
    79dc:	2200      	movs	r2, #0
    79de:	2e00      	cmp	r6, #0
    79e0:	d100      	bne.n	79e4 <__aeabi_fadd+0x260>
    79e2:	e714      	b.n	780e <__aeabi_fadd+0x8a>
    79e4:	0030      	movs	r0, r6
    79e6:	4440      	add	r0, r8
    79e8:	0143      	lsls	r3, r0, #5
    79ea:	d400      	bmi.n	79ee <__aeabi_fadd+0x26a>
    79ec:	e77e      	b.n	78ec <__aeabi_fadd+0x168>
    79ee:	4b32      	ldr	r3, [pc, #200]	; (7ab8 <__aeabi_fadd+0x334>)
    79f0:	3501      	adds	r5, #1
    79f2:	4018      	ands	r0, r3
    79f4:	e77a      	b.n	78ec <__aeabi_fadd+0x168>
    79f6:	2fff      	cmp	r7, #255	; 0xff
    79f8:	d08c      	beq.n	7914 <__aeabi_fadd+0x190>
    79fa:	2380      	movs	r3, #128	; 0x80
    79fc:	4641      	mov	r1, r8
    79fe:	04db      	lsls	r3, r3, #19
    7a00:	4319      	orrs	r1, r3
    7a02:	4688      	mov	r8, r1
    7a04:	e79f      	b.n	7946 <__aeabi_fadd+0x1c2>
    7a06:	4643      	mov	r3, r8
    7a08:	000c      	movs	r4, r1
    7a0a:	1af7      	subs	r7, r6, r3
    7a0c:	e6e3      	b.n	77d6 <__aeabi_fadd+0x52>
    7a0e:	4642      	mov	r2, r8
    7a10:	2a00      	cmp	r2, #0
    7a12:	d000      	beq.n	7a16 <__aeabi_fadd+0x292>
    7a14:	e775      	b.n	7902 <__aeabi_fadd+0x17e>
    7a16:	2e00      	cmp	r6, #0
    7a18:	d000      	beq.n	7a1c <__aeabi_fadd+0x298>
    7a1a:	e77a      	b.n	7912 <__aeabi_fadd+0x18e>
    7a1c:	2380      	movs	r3, #128	; 0x80
    7a1e:	03db      	lsls	r3, r3, #15
    7a20:	2400      	movs	r4, #0
    7a22:	469c      	mov	ip, r3
    7a24:	22ff      	movs	r2, #255	; 0xff
    7a26:	e6f2      	b.n	780e <__aeabi_fadd+0x8a>
    7a28:	0030      	movs	r0, r6
    7a2a:	4440      	add	r0, r8
    7a2c:	2501      	movs	r5, #1
    7a2e:	0143      	lsls	r3, r0, #5
    7a30:	d400      	bmi.n	7a34 <__aeabi_fadd+0x2b0>
    7a32:	e75b      	b.n	78ec <__aeabi_fadd+0x168>
    7a34:	2502      	movs	r5, #2
    7a36:	e718      	b.n	786a <__aeabi_fadd+0xe6>
    7a38:	4643      	mov	r3, r8
    7a3a:	2501      	movs	r5, #1
    7a3c:	1b98      	subs	r0, r3, r6
    7a3e:	e6c5      	b.n	77cc <__aeabi_fadd+0x48>
    7a40:	2320      	movs	r3, #32
    7a42:	4644      	mov	r4, r8
    7a44:	4640      	mov	r0, r8
    7a46:	40d4      	lsrs	r4, r2
    7a48:	1a9a      	subs	r2, r3, r2
    7a4a:	4090      	lsls	r0, r2
    7a4c:	1e43      	subs	r3, r0, #1
    7a4e:	4198      	sbcs	r0, r3
    7a50:	4320      	orrs	r0, r4
    7a52:	e7a4      	b.n	799e <__aeabi_fadd+0x21a>
    7a54:	000d      	movs	r5, r1
    7a56:	e74d      	b.n	78f4 <__aeabi_fadd+0x170>
    7a58:	2320      	movs	r3, #32
    7a5a:	4641      	mov	r1, r8
    7a5c:	4640      	mov	r0, r8
    7a5e:	40d1      	lsrs	r1, r2
    7a60:	1a9a      	subs	r2, r3, r2
    7a62:	4090      	lsls	r0, r2
    7a64:	1e43      	subs	r3, r0, #1
    7a66:	4198      	sbcs	r0, r3
    7a68:	4308      	orrs	r0, r1
    7a6a:	e770      	b.n	794e <__aeabi_fadd+0x1ca>
    7a6c:	4642      	mov	r2, r8
    7a6e:	2a00      	cmp	r2, #0
    7a70:	d100      	bne.n	7a74 <__aeabi_fadd+0x2f0>
    7a72:	e74f      	b.n	7914 <__aeabi_fadd+0x190>
    7a74:	2e00      	cmp	r6, #0
    7a76:	d100      	bne.n	7a7a <__aeabi_fadd+0x2f6>
    7a78:	e74d      	b.n	7916 <__aeabi_fadd+0x192>
    7a7a:	2280      	movs	r2, #128	; 0x80
    7a7c:	03d2      	lsls	r2, r2, #15
    7a7e:	4213      	tst	r3, r2
    7a80:	d100      	bne.n	7a84 <__aeabi_fadd+0x300>
    7a82:	e748      	b.n	7916 <__aeabi_fadd+0x192>
    7a84:	4210      	tst	r0, r2
    7a86:	d000      	beq.n	7a8a <__aeabi_fadd+0x306>
    7a88:	e745      	b.n	7916 <__aeabi_fadd+0x192>
    7a8a:	0003      	movs	r3, r0
    7a8c:	e743      	b.n	7916 <__aeabi_fadd+0x192>
    7a8e:	2e00      	cmp	r6, #0
    7a90:	d090      	beq.n	79b4 <__aeabi_fadd+0x230>
    7a92:	000c      	movs	r4, r1
    7a94:	4684      	mov	ip, r0
    7a96:	2200      	movs	r2, #0
    7a98:	e6b9      	b.n	780e <__aeabi_fadd+0x8a>
    7a9a:	4643      	mov	r3, r8
    7a9c:	000c      	movs	r4, r1
    7a9e:	1af0      	subs	r0, r6, r3
    7aa0:	3501      	adds	r5, #1
    7aa2:	e693      	b.n	77cc <__aeabi_fadd+0x48>
    7aa4:	4684      	mov	ip, r0
    7aa6:	2200      	movs	r2, #0
    7aa8:	e6b1      	b.n	780e <__aeabi_fadd+0x8a>
    7aaa:	2800      	cmp	r0, #0
    7aac:	d000      	beq.n	7ab0 <__aeabi_fadd+0x32c>
    7aae:	e71d      	b.n	78ec <__aeabi_fadd+0x168>
    7ab0:	2300      	movs	r3, #0
    7ab2:	2400      	movs	r4, #0
    7ab4:	469c      	mov	ip, r3
    7ab6:	e6aa      	b.n	780e <__aeabi_fadd+0x8a>
    7ab8:	fbffffff 	.word	0xfbffffff
    7abc:	7dffffff 	.word	0x7dffffff

00007ac0 <__aeabi_fdiv>:
    7ac0:	b5f0      	push	{r4, r5, r6, r7, lr}
    7ac2:	464f      	mov	r7, r9
    7ac4:	4646      	mov	r6, r8
    7ac6:	46d6      	mov	lr, sl
    7ac8:	0245      	lsls	r5, r0, #9
    7aca:	b5c0      	push	{r6, r7, lr}
    7acc:	0047      	lsls	r7, r0, #1
    7ace:	1c0c      	adds	r4, r1, #0
    7ad0:	0a6d      	lsrs	r5, r5, #9
    7ad2:	0e3f      	lsrs	r7, r7, #24
    7ad4:	0fc6      	lsrs	r6, r0, #31
    7ad6:	2f00      	cmp	r7, #0
    7ad8:	d100      	bne.n	7adc <__aeabi_fdiv+0x1c>
    7ada:	e070      	b.n	7bbe <__aeabi_fdiv+0xfe>
    7adc:	2fff      	cmp	r7, #255	; 0xff
    7ade:	d100      	bne.n	7ae2 <__aeabi_fdiv+0x22>
    7ae0:	e075      	b.n	7bce <__aeabi_fdiv+0x10e>
    7ae2:	00eb      	lsls	r3, r5, #3
    7ae4:	2580      	movs	r5, #128	; 0x80
    7ae6:	04ed      	lsls	r5, r5, #19
    7ae8:	431d      	orrs	r5, r3
    7aea:	2300      	movs	r3, #0
    7aec:	4699      	mov	r9, r3
    7aee:	469a      	mov	sl, r3
    7af0:	3f7f      	subs	r7, #127	; 0x7f
    7af2:	0260      	lsls	r0, r4, #9
    7af4:	0a43      	lsrs	r3, r0, #9
    7af6:	4698      	mov	r8, r3
    7af8:	0063      	lsls	r3, r4, #1
    7afa:	0e1b      	lsrs	r3, r3, #24
    7afc:	0fe4      	lsrs	r4, r4, #31
    7afe:	2b00      	cmp	r3, #0
    7b00:	d04e      	beq.n	7ba0 <__aeabi_fdiv+0xe0>
    7b02:	2bff      	cmp	r3, #255	; 0xff
    7b04:	d046      	beq.n	7b94 <__aeabi_fdiv+0xd4>
    7b06:	4642      	mov	r2, r8
    7b08:	00d0      	lsls	r0, r2, #3
    7b0a:	2280      	movs	r2, #128	; 0x80
    7b0c:	04d2      	lsls	r2, r2, #19
    7b0e:	4302      	orrs	r2, r0
    7b10:	4690      	mov	r8, r2
    7b12:	2200      	movs	r2, #0
    7b14:	3b7f      	subs	r3, #127	; 0x7f
    7b16:	0031      	movs	r1, r6
    7b18:	1aff      	subs	r7, r7, r3
    7b1a:	464b      	mov	r3, r9
    7b1c:	4061      	eors	r1, r4
    7b1e:	b2c9      	uxtb	r1, r1
    7b20:	4313      	orrs	r3, r2
    7b22:	2b0f      	cmp	r3, #15
    7b24:	d900      	bls.n	7b28 <__aeabi_fdiv+0x68>
    7b26:	e0b5      	b.n	7c94 <__aeabi_fdiv+0x1d4>
    7b28:	486e      	ldr	r0, [pc, #440]	; (7ce4 <__aeabi_fdiv+0x224>)
    7b2a:	009b      	lsls	r3, r3, #2
    7b2c:	58c3      	ldr	r3, [r0, r3]
    7b2e:	469f      	mov	pc, r3
    7b30:	2300      	movs	r3, #0
    7b32:	4698      	mov	r8, r3
    7b34:	0026      	movs	r6, r4
    7b36:	4645      	mov	r5, r8
    7b38:	4692      	mov	sl, r2
    7b3a:	4653      	mov	r3, sl
    7b3c:	2b02      	cmp	r3, #2
    7b3e:	d100      	bne.n	7b42 <__aeabi_fdiv+0x82>
    7b40:	e089      	b.n	7c56 <__aeabi_fdiv+0x196>
    7b42:	2b03      	cmp	r3, #3
    7b44:	d100      	bne.n	7b48 <__aeabi_fdiv+0x88>
    7b46:	e09e      	b.n	7c86 <__aeabi_fdiv+0x1c6>
    7b48:	2b01      	cmp	r3, #1
    7b4a:	d018      	beq.n	7b7e <__aeabi_fdiv+0xbe>
    7b4c:	003b      	movs	r3, r7
    7b4e:	337f      	adds	r3, #127	; 0x7f
    7b50:	2b00      	cmp	r3, #0
    7b52:	dd69      	ble.n	7c28 <__aeabi_fdiv+0x168>
    7b54:	076a      	lsls	r2, r5, #29
    7b56:	d004      	beq.n	7b62 <__aeabi_fdiv+0xa2>
    7b58:	220f      	movs	r2, #15
    7b5a:	402a      	ands	r2, r5
    7b5c:	2a04      	cmp	r2, #4
    7b5e:	d000      	beq.n	7b62 <__aeabi_fdiv+0xa2>
    7b60:	3504      	adds	r5, #4
    7b62:	012a      	lsls	r2, r5, #4
    7b64:	d503      	bpl.n	7b6e <__aeabi_fdiv+0xae>
    7b66:	4b60      	ldr	r3, [pc, #384]	; (7ce8 <__aeabi_fdiv+0x228>)
    7b68:	401d      	ands	r5, r3
    7b6a:	003b      	movs	r3, r7
    7b6c:	3380      	adds	r3, #128	; 0x80
    7b6e:	2bfe      	cmp	r3, #254	; 0xfe
    7b70:	dd00      	ble.n	7b74 <__aeabi_fdiv+0xb4>
    7b72:	e070      	b.n	7c56 <__aeabi_fdiv+0x196>
    7b74:	01ad      	lsls	r5, r5, #6
    7b76:	0a6d      	lsrs	r5, r5, #9
    7b78:	b2d8      	uxtb	r0, r3
    7b7a:	e002      	b.n	7b82 <__aeabi_fdiv+0xc2>
    7b7c:	000e      	movs	r6, r1
    7b7e:	2000      	movs	r0, #0
    7b80:	2500      	movs	r5, #0
    7b82:	05c0      	lsls	r0, r0, #23
    7b84:	4328      	orrs	r0, r5
    7b86:	07f6      	lsls	r6, r6, #31
    7b88:	4330      	orrs	r0, r6
    7b8a:	bce0      	pop	{r5, r6, r7}
    7b8c:	46ba      	mov	sl, r7
    7b8e:	46b1      	mov	r9, r6
    7b90:	46a8      	mov	r8, r5
    7b92:	bdf0      	pop	{r4, r5, r6, r7, pc}
    7b94:	4643      	mov	r3, r8
    7b96:	2b00      	cmp	r3, #0
    7b98:	d13f      	bne.n	7c1a <__aeabi_fdiv+0x15a>
    7b9a:	2202      	movs	r2, #2
    7b9c:	3fff      	subs	r7, #255	; 0xff
    7b9e:	e003      	b.n	7ba8 <__aeabi_fdiv+0xe8>
    7ba0:	4643      	mov	r3, r8
    7ba2:	2b00      	cmp	r3, #0
    7ba4:	d12d      	bne.n	7c02 <__aeabi_fdiv+0x142>
    7ba6:	2201      	movs	r2, #1
    7ba8:	0031      	movs	r1, r6
    7baa:	464b      	mov	r3, r9
    7bac:	4061      	eors	r1, r4
    7bae:	b2c9      	uxtb	r1, r1
    7bb0:	4313      	orrs	r3, r2
    7bb2:	2b0f      	cmp	r3, #15
    7bb4:	d834      	bhi.n	7c20 <__aeabi_fdiv+0x160>
    7bb6:	484d      	ldr	r0, [pc, #308]	; (7cec <__aeabi_fdiv+0x22c>)
    7bb8:	009b      	lsls	r3, r3, #2
    7bba:	58c3      	ldr	r3, [r0, r3]
    7bbc:	469f      	mov	pc, r3
    7bbe:	2d00      	cmp	r5, #0
    7bc0:	d113      	bne.n	7bea <__aeabi_fdiv+0x12a>
    7bc2:	2304      	movs	r3, #4
    7bc4:	4699      	mov	r9, r3
    7bc6:	3b03      	subs	r3, #3
    7bc8:	2700      	movs	r7, #0
    7bca:	469a      	mov	sl, r3
    7bcc:	e791      	b.n	7af2 <__aeabi_fdiv+0x32>
    7bce:	2d00      	cmp	r5, #0
    7bd0:	d105      	bne.n	7bde <__aeabi_fdiv+0x11e>
    7bd2:	2308      	movs	r3, #8
    7bd4:	4699      	mov	r9, r3
    7bd6:	3b06      	subs	r3, #6
    7bd8:	27ff      	movs	r7, #255	; 0xff
    7bda:	469a      	mov	sl, r3
    7bdc:	e789      	b.n	7af2 <__aeabi_fdiv+0x32>
    7bde:	230c      	movs	r3, #12
    7be0:	4699      	mov	r9, r3
    7be2:	3b09      	subs	r3, #9
    7be4:	27ff      	movs	r7, #255	; 0xff
    7be6:	469a      	mov	sl, r3
    7be8:	e783      	b.n	7af2 <__aeabi_fdiv+0x32>
    7bea:	0028      	movs	r0, r5
    7bec:	f001 fffa 	bl	9be4 <__clzsi2>
    7bf0:	2776      	movs	r7, #118	; 0x76
    7bf2:	1f43      	subs	r3, r0, #5
    7bf4:	409d      	lsls	r5, r3
    7bf6:	2300      	movs	r3, #0
    7bf8:	427f      	negs	r7, r7
    7bfa:	4699      	mov	r9, r3
    7bfc:	469a      	mov	sl, r3
    7bfe:	1a3f      	subs	r7, r7, r0
    7c00:	e777      	b.n	7af2 <__aeabi_fdiv+0x32>
    7c02:	4640      	mov	r0, r8
    7c04:	f001 ffee 	bl	9be4 <__clzsi2>
    7c08:	4642      	mov	r2, r8
    7c0a:	1f43      	subs	r3, r0, #5
    7c0c:	409a      	lsls	r2, r3
    7c0e:	2376      	movs	r3, #118	; 0x76
    7c10:	425b      	negs	r3, r3
    7c12:	4690      	mov	r8, r2
    7c14:	1a1b      	subs	r3, r3, r0
    7c16:	2200      	movs	r2, #0
    7c18:	e77d      	b.n	7b16 <__aeabi_fdiv+0x56>
    7c1a:	23ff      	movs	r3, #255	; 0xff
    7c1c:	2203      	movs	r2, #3
    7c1e:	e77a      	b.n	7b16 <__aeabi_fdiv+0x56>
    7c20:	000e      	movs	r6, r1
    7c22:	20ff      	movs	r0, #255	; 0xff
    7c24:	2500      	movs	r5, #0
    7c26:	e7ac      	b.n	7b82 <__aeabi_fdiv+0xc2>
    7c28:	2001      	movs	r0, #1
    7c2a:	1ac0      	subs	r0, r0, r3
    7c2c:	281b      	cmp	r0, #27
    7c2e:	dca6      	bgt.n	7b7e <__aeabi_fdiv+0xbe>
    7c30:	379e      	adds	r7, #158	; 0x9e
    7c32:	002a      	movs	r2, r5
    7c34:	40bd      	lsls	r5, r7
    7c36:	40c2      	lsrs	r2, r0
    7c38:	1e6b      	subs	r3, r5, #1
    7c3a:	419d      	sbcs	r5, r3
    7c3c:	4315      	orrs	r5, r2
    7c3e:	076b      	lsls	r3, r5, #29
    7c40:	d004      	beq.n	7c4c <__aeabi_fdiv+0x18c>
    7c42:	230f      	movs	r3, #15
    7c44:	402b      	ands	r3, r5
    7c46:	2b04      	cmp	r3, #4
    7c48:	d000      	beq.n	7c4c <__aeabi_fdiv+0x18c>
    7c4a:	3504      	adds	r5, #4
    7c4c:	016b      	lsls	r3, r5, #5
    7c4e:	d544      	bpl.n	7cda <__aeabi_fdiv+0x21a>
    7c50:	2001      	movs	r0, #1
    7c52:	2500      	movs	r5, #0
    7c54:	e795      	b.n	7b82 <__aeabi_fdiv+0xc2>
    7c56:	20ff      	movs	r0, #255	; 0xff
    7c58:	2500      	movs	r5, #0
    7c5a:	e792      	b.n	7b82 <__aeabi_fdiv+0xc2>
    7c5c:	2580      	movs	r5, #128	; 0x80
    7c5e:	2600      	movs	r6, #0
    7c60:	20ff      	movs	r0, #255	; 0xff
    7c62:	03ed      	lsls	r5, r5, #15
    7c64:	e78d      	b.n	7b82 <__aeabi_fdiv+0xc2>
    7c66:	2300      	movs	r3, #0
    7c68:	4698      	mov	r8, r3
    7c6a:	2080      	movs	r0, #128	; 0x80
    7c6c:	03c0      	lsls	r0, r0, #15
    7c6e:	4205      	tst	r5, r0
    7c70:	d009      	beq.n	7c86 <__aeabi_fdiv+0x1c6>
    7c72:	4643      	mov	r3, r8
    7c74:	4203      	tst	r3, r0
    7c76:	d106      	bne.n	7c86 <__aeabi_fdiv+0x1c6>
    7c78:	4645      	mov	r5, r8
    7c7a:	4305      	orrs	r5, r0
    7c7c:	026d      	lsls	r5, r5, #9
    7c7e:	0026      	movs	r6, r4
    7c80:	20ff      	movs	r0, #255	; 0xff
    7c82:	0a6d      	lsrs	r5, r5, #9
    7c84:	e77d      	b.n	7b82 <__aeabi_fdiv+0xc2>
    7c86:	2080      	movs	r0, #128	; 0x80
    7c88:	03c0      	lsls	r0, r0, #15
    7c8a:	4305      	orrs	r5, r0
    7c8c:	026d      	lsls	r5, r5, #9
    7c8e:	20ff      	movs	r0, #255	; 0xff
    7c90:	0a6d      	lsrs	r5, r5, #9
    7c92:	e776      	b.n	7b82 <__aeabi_fdiv+0xc2>
    7c94:	4642      	mov	r2, r8
    7c96:	016b      	lsls	r3, r5, #5
    7c98:	0150      	lsls	r0, r2, #5
    7c9a:	4283      	cmp	r3, r0
    7c9c:	d219      	bcs.n	7cd2 <__aeabi_fdiv+0x212>
    7c9e:	221b      	movs	r2, #27
    7ca0:	2500      	movs	r5, #0
    7ca2:	3f01      	subs	r7, #1
    7ca4:	2601      	movs	r6, #1
    7ca6:	001c      	movs	r4, r3
    7ca8:	006d      	lsls	r5, r5, #1
    7caa:	005b      	lsls	r3, r3, #1
    7cac:	2c00      	cmp	r4, #0
    7cae:	db01      	blt.n	7cb4 <__aeabi_fdiv+0x1f4>
    7cb0:	4298      	cmp	r0, r3
    7cb2:	d801      	bhi.n	7cb8 <__aeabi_fdiv+0x1f8>
    7cb4:	1a1b      	subs	r3, r3, r0
    7cb6:	4335      	orrs	r5, r6
    7cb8:	3a01      	subs	r2, #1
    7cba:	2a00      	cmp	r2, #0
    7cbc:	d1f3      	bne.n	7ca6 <__aeabi_fdiv+0x1e6>
    7cbe:	1e5a      	subs	r2, r3, #1
    7cc0:	4193      	sbcs	r3, r2
    7cc2:	431d      	orrs	r5, r3
    7cc4:	003b      	movs	r3, r7
    7cc6:	337f      	adds	r3, #127	; 0x7f
    7cc8:	000e      	movs	r6, r1
    7cca:	2b00      	cmp	r3, #0
    7ccc:	dd00      	ble.n	7cd0 <__aeabi_fdiv+0x210>
    7cce:	e741      	b.n	7b54 <__aeabi_fdiv+0x94>
    7cd0:	e7aa      	b.n	7c28 <__aeabi_fdiv+0x168>
    7cd2:	221a      	movs	r2, #26
    7cd4:	2501      	movs	r5, #1
    7cd6:	1a1b      	subs	r3, r3, r0
    7cd8:	e7e4      	b.n	7ca4 <__aeabi_fdiv+0x1e4>
    7cda:	01ad      	lsls	r5, r5, #6
    7cdc:	2000      	movs	r0, #0
    7cde:	0a6d      	lsrs	r5, r5, #9
    7ce0:	e74f      	b.n	7b82 <__aeabi_fdiv+0xc2>
    7ce2:	46c0      	nop			; (mov r8, r8)
    7ce4:	00009e58 	.word	0x00009e58
    7ce8:	f7ffffff 	.word	0xf7ffffff
    7cec:	00009e98 	.word	0x00009e98

00007cf0 <__aeabi_fmul>:
    7cf0:	b5f0      	push	{r4, r5, r6, r7, lr}
    7cf2:	464f      	mov	r7, r9
    7cf4:	4646      	mov	r6, r8
    7cf6:	46d6      	mov	lr, sl
    7cf8:	0244      	lsls	r4, r0, #9
    7cfa:	0045      	lsls	r5, r0, #1
    7cfc:	b5c0      	push	{r6, r7, lr}
    7cfe:	0a64      	lsrs	r4, r4, #9
    7d00:	1c0f      	adds	r7, r1, #0
    7d02:	0e2d      	lsrs	r5, r5, #24
    7d04:	0fc6      	lsrs	r6, r0, #31
    7d06:	2d00      	cmp	r5, #0
    7d08:	d100      	bne.n	7d0c <__aeabi_fmul+0x1c>
    7d0a:	e08d      	b.n	7e28 <__aeabi_fmul+0x138>
    7d0c:	2dff      	cmp	r5, #255	; 0xff
    7d0e:	d100      	bne.n	7d12 <__aeabi_fmul+0x22>
    7d10:	e092      	b.n	7e38 <__aeabi_fmul+0x148>
    7d12:	2300      	movs	r3, #0
    7d14:	2080      	movs	r0, #128	; 0x80
    7d16:	4699      	mov	r9, r3
    7d18:	469a      	mov	sl, r3
    7d1a:	00e4      	lsls	r4, r4, #3
    7d1c:	04c0      	lsls	r0, r0, #19
    7d1e:	4304      	orrs	r4, r0
    7d20:	3d7f      	subs	r5, #127	; 0x7f
    7d22:	0278      	lsls	r0, r7, #9
    7d24:	0a43      	lsrs	r3, r0, #9
    7d26:	4698      	mov	r8, r3
    7d28:	007b      	lsls	r3, r7, #1
    7d2a:	0e1b      	lsrs	r3, r3, #24
    7d2c:	0fff      	lsrs	r7, r7, #31
    7d2e:	2b00      	cmp	r3, #0
    7d30:	d100      	bne.n	7d34 <__aeabi_fmul+0x44>
    7d32:	e070      	b.n	7e16 <__aeabi_fmul+0x126>
    7d34:	2bff      	cmp	r3, #255	; 0xff
    7d36:	d100      	bne.n	7d3a <__aeabi_fmul+0x4a>
    7d38:	e086      	b.n	7e48 <__aeabi_fmul+0x158>
    7d3a:	4642      	mov	r2, r8
    7d3c:	00d0      	lsls	r0, r2, #3
    7d3e:	2280      	movs	r2, #128	; 0x80
    7d40:	3b7f      	subs	r3, #127	; 0x7f
    7d42:	18ed      	adds	r5, r5, r3
    7d44:	2300      	movs	r3, #0
    7d46:	04d2      	lsls	r2, r2, #19
    7d48:	4302      	orrs	r2, r0
    7d4a:	4690      	mov	r8, r2
    7d4c:	469c      	mov	ip, r3
    7d4e:	0031      	movs	r1, r6
    7d50:	464b      	mov	r3, r9
    7d52:	4079      	eors	r1, r7
    7d54:	1c68      	adds	r0, r5, #1
    7d56:	2b0f      	cmp	r3, #15
    7d58:	d81c      	bhi.n	7d94 <__aeabi_fmul+0xa4>
    7d5a:	4a76      	ldr	r2, [pc, #472]	; (7f34 <__aeabi_fmul+0x244>)
    7d5c:	009b      	lsls	r3, r3, #2
    7d5e:	58d3      	ldr	r3, [r2, r3]
    7d60:	469f      	mov	pc, r3
    7d62:	0039      	movs	r1, r7
    7d64:	4644      	mov	r4, r8
    7d66:	46e2      	mov	sl, ip
    7d68:	4653      	mov	r3, sl
    7d6a:	2b02      	cmp	r3, #2
    7d6c:	d00f      	beq.n	7d8e <__aeabi_fmul+0x9e>
    7d6e:	2b03      	cmp	r3, #3
    7d70:	d100      	bne.n	7d74 <__aeabi_fmul+0x84>
    7d72:	e0d7      	b.n	7f24 <__aeabi_fmul+0x234>
    7d74:	2b01      	cmp	r3, #1
    7d76:	d137      	bne.n	7de8 <__aeabi_fmul+0xf8>
    7d78:	2000      	movs	r0, #0
    7d7a:	2400      	movs	r4, #0
    7d7c:	05c0      	lsls	r0, r0, #23
    7d7e:	4320      	orrs	r0, r4
    7d80:	07c9      	lsls	r1, r1, #31
    7d82:	4308      	orrs	r0, r1
    7d84:	bce0      	pop	{r5, r6, r7}
    7d86:	46ba      	mov	sl, r7
    7d88:	46b1      	mov	r9, r6
    7d8a:	46a8      	mov	r8, r5
    7d8c:	bdf0      	pop	{r4, r5, r6, r7, pc}
    7d8e:	20ff      	movs	r0, #255	; 0xff
    7d90:	2400      	movs	r4, #0
    7d92:	e7f3      	b.n	7d7c <__aeabi_fmul+0x8c>
    7d94:	0c26      	lsrs	r6, r4, #16
    7d96:	0424      	lsls	r4, r4, #16
    7d98:	0c22      	lsrs	r2, r4, #16
    7d9a:	4644      	mov	r4, r8
    7d9c:	0424      	lsls	r4, r4, #16
    7d9e:	0c24      	lsrs	r4, r4, #16
    7da0:	4643      	mov	r3, r8
    7da2:	0027      	movs	r7, r4
    7da4:	0c1b      	lsrs	r3, r3, #16
    7da6:	4357      	muls	r7, r2
    7da8:	4374      	muls	r4, r6
    7daa:	435a      	muls	r2, r3
    7dac:	435e      	muls	r6, r3
    7dae:	1912      	adds	r2, r2, r4
    7db0:	0c3b      	lsrs	r3, r7, #16
    7db2:	189b      	adds	r3, r3, r2
    7db4:	429c      	cmp	r4, r3
    7db6:	d903      	bls.n	7dc0 <__aeabi_fmul+0xd0>
    7db8:	2280      	movs	r2, #128	; 0x80
    7dba:	0252      	lsls	r2, r2, #9
    7dbc:	4694      	mov	ip, r2
    7dbe:	4466      	add	r6, ip
    7dc0:	043f      	lsls	r7, r7, #16
    7dc2:	041a      	lsls	r2, r3, #16
    7dc4:	0c3f      	lsrs	r7, r7, #16
    7dc6:	19d2      	adds	r2, r2, r7
    7dc8:	0194      	lsls	r4, r2, #6
    7dca:	1e67      	subs	r7, r4, #1
    7dcc:	41bc      	sbcs	r4, r7
    7dce:	0c1b      	lsrs	r3, r3, #16
    7dd0:	0e92      	lsrs	r2, r2, #26
    7dd2:	199b      	adds	r3, r3, r6
    7dd4:	4314      	orrs	r4, r2
    7dd6:	019b      	lsls	r3, r3, #6
    7dd8:	431c      	orrs	r4, r3
    7dda:	011b      	lsls	r3, r3, #4
    7ddc:	d400      	bmi.n	7de0 <__aeabi_fmul+0xf0>
    7dde:	e09b      	b.n	7f18 <__aeabi_fmul+0x228>
    7de0:	2301      	movs	r3, #1
    7de2:	0862      	lsrs	r2, r4, #1
    7de4:	401c      	ands	r4, r3
    7de6:	4314      	orrs	r4, r2
    7de8:	0002      	movs	r2, r0
    7dea:	327f      	adds	r2, #127	; 0x7f
    7dec:	2a00      	cmp	r2, #0
    7dee:	dd64      	ble.n	7eba <__aeabi_fmul+0x1ca>
    7df0:	0763      	lsls	r3, r4, #29
    7df2:	d004      	beq.n	7dfe <__aeabi_fmul+0x10e>
    7df4:	230f      	movs	r3, #15
    7df6:	4023      	ands	r3, r4
    7df8:	2b04      	cmp	r3, #4
    7dfa:	d000      	beq.n	7dfe <__aeabi_fmul+0x10e>
    7dfc:	3404      	adds	r4, #4
    7dfe:	0123      	lsls	r3, r4, #4
    7e00:	d503      	bpl.n	7e0a <__aeabi_fmul+0x11a>
    7e02:	0002      	movs	r2, r0
    7e04:	4b4c      	ldr	r3, [pc, #304]	; (7f38 <__aeabi_fmul+0x248>)
    7e06:	3280      	adds	r2, #128	; 0x80
    7e08:	401c      	ands	r4, r3
    7e0a:	2afe      	cmp	r2, #254	; 0xfe
    7e0c:	dcbf      	bgt.n	7d8e <__aeabi_fmul+0x9e>
    7e0e:	01a4      	lsls	r4, r4, #6
    7e10:	0a64      	lsrs	r4, r4, #9
    7e12:	b2d0      	uxtb	r0, r2
    7e14:	e7b2      	b.n	7d7c <__aeabi_fmul+0x8c>
    7e16:	4643      	mov	r3, r8
    7e18:	2b00      	cmp	r3, #0
    7e1a:	d13d      	bne.n	7e98 <__aeabi_fmul+0x1a8>
    7e1c:	464a      	mov	r2, r9
    7e1e:	3301      	adds	r3, #1
    7e20:	431a      	orrs	r2, r3
    7e22:	4691      	mov	r9, r2
    7e24:	469c      	mov	ip, r3
    7e26:	e792      	b.n	7d4e <__aeabi_fmul+0x5e>
    7e28:	2c00      	cmp	r4, #0
    7e2a:	d129      	bne.n	7e80 <__aeabi_fmul+0x190>
    7e2c:	2304      	movs	r3, #4
    7e2e:	4699      	mov	r9, r3
    7e30:	3b03      	subs	r3, #3
    7e32:	2500      	movs	r5, #0
    7e34:	469a      	mov	sl, r3
    7e36:	e774      	b.n	7d22 <__aeabi_fmul+0x32>
    7e38:	2c00      	cmp	r4, #0
    7e3a:	d11b      	bne.n	7e74 <__aeabi_fmul+0x184>
    7e3c:	2308      	movs	r3, #8
    7e3e:	4699      	mov	r9, r3
    7e40:	3b06      	subs	r3, #6
    7e42:	25ff      	movs	r5, #255	; 0xff
    7e44:	469a      	mov	sl, r3
    7e46:	e76c      	b.n	7d22 <__aeabi_fmul+0x32>
    7e48:	4643      	mov	r3, r8
    7e4a:	35ff      	adds	r5, #255	; 0xff
    7e4c:	2b00      	cmp	r3, #0
    7e4e:	d10b      	bne.n	7e68 <__aeabi_fmul+0x178>
    7e50:	2302      	movs	r3, #2
    7e52:	464a      	mov	r2, r9
    7e54:	431a      	orrs	r2, r3
    7e56:	4691      	mov	r9, r2
    7e58:	469c      	mov	ip, r3
    7e5a:	e778      	b.n	7d4e <__aeabi_fmul+0x5e>
    7e5c:	4653      	mov	r3, sl
    7e5e:	0031      	movs	r1, r6
    7e60:	2b02      	cmp	r3, #2
    7e62:	d000      	beq.n	7e66 <__aeabi_fmul+0x176>
    7e64:	e783      	b.n	7d6e <__aeabi_fmul+0x7e>
    7e66:	e792      	b.n	7d8e <__aeabi_fmul+0x9e>
    7e68:	2303      	movs	r3, #3
    7e6a:	464a      	mov	r2, r9
    7e6c:	431a      	orrs	r2, r3
    7e6e:	4691      	mov	r9, r2
    7e70:	469c      	mov	ip, r3
    7e72:	e76c      	b.n	7d4e <__aeabi_fmul+0x5e>
    7e74:	230c      	movs	r3, #12
    7e76:	4699      	mov	r9, r3
    7e78:	3b09      	subs	r3, #9
    7e7a:	25ff      	movs	r5, #255	; 0xff
    7e7c:	469a      	mov	sl, r3
    7e7e:	e750      	b.n	7d22 <__aeabi_fmul+0x32>
    7e80:	0020      	movs	r0, r4
    7e82:	f001 feaf 	bl	9be4 <__clzsi2>
    7e86:	2576      	movs	r5, #118	; 0x76
    7e88:	1f43      	subs	r3, r0, #5
    7e8a:	409c      	lsls	r4, r3
    7e8c:	2300      	movs	r3, #0
    7e8e:	426d      	negs	r5, r5
    7e90:	4699      	mov	r9, r3
    7e92:	469a      	mov	sl, r3
    7e94:	1a2d      	subs	r5, r5, r0
    7e96:	e744      	b.n	7d22 <__aeabi_fmul+0x32>
    7e98:	4640      	mov	r0, r8
    7e9a:	f001 fea3 	bl	9be4 <__clzsi2>
    7e9e:	4642      	mov	r2, r8
    7ea0:	1f43      	subs	r3, r0, #5
    7ea2:	409a      	lsls	r2, r3
    7ea4:	2300      	movs	r3, #0
    7ea6:	1a2d      	subs	r5, r5, r0
    7ea8:	4690      	mov	r8, r2
    7eaa:	469c      	mov	ip, r3
    7eac:	3d76      	subs	r5, #118	; 0x76
    7eae:	e74e      	b.n	7d4e <__aeabi_fmul+0x5e>
    7eb0:	2480      	movs	r4, #128	; 0x80
    7eb2:	2100      	movs	r1, #0
    7eb4:	20ff      	movs	r0, #255	; 0xff
    7eb6:	03e4      	lsls	r4, r4, #15
    7eb8:	e760      	b.n	7d7c <__aeabi_fmul+0x8c>
    7eba:	2301      	movs	r3, #1
    7ebc:	1a9b      	subs	r3, r3, r2
    7ebe:	2b1b      	cmp	r3, #27
    7ec0:	dd00      	ble.n	7ec4 <__aeabi_fmul+0x1d4>
    7ec2:	e759      	b.n	7d78 <__aeabi_fmul+0x88>
    7ec4:	0022      	movs	r2, r4
    7ec6:	309e      	adds	r0, #158	; 0x9e
    7ec8:	40da      	lsrs	r2, r3
    7eca:	4084      	lsls	r4, r0
    7ecc:	0013      	movs	r3, r2
    7ece:	1e62      	subs	r2, r4, #1
    7ed0:	4194      	sbcs	r4, r2
    7ed2:	431c      	orrs	r4, r3
    7ed4:	0763      	lsls	r3, r4, #29
    7ed6:	d004      	beq.n	7ee2 <__aeabi_fmul+0x1f2>
    7ed8:	230f      	movs	r3, #15
    7eda:	4023      	ands	r3, r4
    7edc:	2b04      	cmp	r3, #4
    7ede:	d000      	beq.n	7ee2 <__aeabi_fmul+0x1f2>
    7ee0:	3404      	adds	r4, #4
    7ee2:	0163      	lsls	r3, r4, #5
    7ee4:	d51a      	bpl.n	7f1c <__aeabi_fmul+0x22c>
    7ee6:	2001      	movs	r0, #1
    7ee8:	2400      	movs	r4, #0
    7eea:	e747      	b.n	7d7c <__aeabi_fmul+0x8c>
    7eec:	2080      	movs	r0, #128	; 0x80
    7eee:	03c0      	lsls	r0, r0, #15
    7ef0:	4204      	tst	r4, r0
    7ef2:	d009      	beq.n	7f08 <__aeabi_fmul+0x218>
    7ef4:	4643      	mov	r3, r8
    7ef6:	4203      	tst	r3, r0
    7ef8:	d106      	bne.n	7f08 <__aeabi_fmul+0x218>
    7efa:	4644      	mov	r4, r8
    7efc:	4304      	orrs	r4, r0
    7efe:	0264      	lsls	r4, r4, #9
    7f00:	0039      	movs	r1, r7
    7f02:	20ff      	movs	r0, #255	; 0xff
    7f04:	0a64      	lsrs	r4, r4, #9
    7f06:	e739      	b.n	7d7c <__aeabi_fmul+0x8c>
    7f08:	2080      	movs	r0, #128	; 0x80
    7f0a:	03c0      	lsls	r0, r0, #15
    7f0c:	4304      	orrs	r4, r0
    7f0e:	0264      	lsls	r4, r4, #9
    7f10:	0031      	movs	r1, r6
    7f12:	20ff      	movs	r0, #255	; 0xff
    7f14:	0a64      	lsrs	r4, r4, #9
    7f16:	e731      	b.n	7d7c <__aeabi_fmul+0x8c>
    7f18:	0028      	movs	r0, r5
    7f1a:	e765      	b.n	7de8 <__aeabi_fmul+0xf8>
    7f1c:	01a4      	lsls	r4, r4, #6
    7f1e:	2000      	movs	r0, #0
    7f20:	0a64      	lsrs	r4, r4, #9
    7f22:	e72b      	b.n	7d7c <__aeabi_fmul+0x8c>
    7f24:	2080      	movs	r0, #128	; 0x80
    7f26:	03c0      	lsls	r0, r0, #15
    7f28:	4304      	orrs	r4, r0
    7f2a:	0264      	lsls	r4, r4, #9
    7f2c:	20ff      	movs	r0, #255	; 0xff
    7f2e:	0a64      	lsrs	r4, r4, #9
    7f30:	e724      	b.n	7d7c <__aeabi_fmul+0x8c>
    7f32:	46c0      	nop			; (mov r8, r8)
    7f34:	00009ed8 	.word	0x00009ed8
    7f38:	f7ffffff 	.word	0xf7ffffff

00007f3c <__aeabi_f2iz>:
    7f3c:	0241      	lsls	r1, r0, #9
    7f3e:	0042      	lsls	r2, r0, #1
    7f40:	0fc3      	lsrs	r3, r0, #31
    7f42:	0a49      	lsrs	r1, r1, #9
    7f44:	2000      	movs	r0, #0
    7f46:	0e12      	lsrs	r2, r2, #24
    7f48:	2a7e      	cmp	r2, #126	; 0x7e
    7f4a:	dd03      	ble.n	7f54 <__aeabi_f2iz+0x18>
    7f4c:	2a9d      	cmp	r2, #157	; 0x9d
    7f4e:	dd02      	ble.n	7f56 <__aeabi_f2iz+0x1a>
    7f50:	4a09      	ldr	r2, [pc, #36]	; (7f78 <__aeabi_f2iz+0x3c>)
    7f52:	1898      	adds	r0, r3, r2
    7f54:	4770      	bx	lr
    7f56:	2080      	movs	r0, #128	; 0x80
    7f58:	0400      	lsls	r0, r0, #16
    7f5a:	4301      	orrs	r1, r0
    7f5c:	2a95      	cmp	r2, #149	; 0x95
    7f5e:	dc07      	bgt.n	7f70 <__aeabi_f2iz+0x34>
    7f60:	2096      	movs	r0, #150	; 0x96
    7f62:	1a82      	subs	r2, r0, r2
    7f64:	40d1      	lsrs	r1, r2
    7f66:	4248      	negs	r0, r1
    7f68:	2b00      	cmp	r3, #0
    7f6a:	d1f3      	bne.n	7f54 <__aeabi_f2iz+0x18>
    7f6c:	0008      	movs	r0, r1
    7f6e:	e7f1      	b.n	7f54 <__aeabi_f2iz+0x18>
    7f70:	3a96      	subs	r2, #150	; 0x96
    7f72:	4091      	lsls	r1, r2
    7f74:	e7f7      	b.n	7f66 <__aeabi_f2iz+0x2a>
    7f76:	46c0      	nop			; (mov r8, r8)
    7f78:	7fffffff 	.word	0x7fffffff

00007f7c <__aeabi_i2f>:
    7f7c:	b5f8      	push	{r3, r4, r5, r6, r7, lr}
    7f7e:	2800      	cmp	r0, #0
    7f80:	d013      	beq.n	7faa <__aeabi_i2f+0x2e>
    7f82:	17c3      	asrs	r3, r0, #31
    7f84:	18c6      	adds	r6, r0, r3
    7f86:	405e      	eors	r6, r3
    7f88:	0fc4      	lsrs	r4, r0, #31
    7f8a:	0030      	movs	r0, r6
    7f8c:	f001 fe2a 	bl	9be4 <__clzsi2>
    7f90:	239e      	movs	r3, #158	; 0x9e
    7f92:	0005      	movs	r5, r0
    7f94:	1a1b      	subs	r3, r3, r0
    7f96:	2b96      	cmp	r3, #150	; 0x96
    7f98:	dc0f      	bgt.n	7fba <__aeabi_i2f+0x3e>
    7f9a:	2808      	cmp	r0, #8
    7f9c:	dd01      	ble.n	7fa2 <__aeabi_i2f+0x26>
    7f9e:	3d08      	subs	r5, #8
    7fa0:	40ae      	lsls	r6, r5
    7fa2:	0276      	lsls	r6, r6, #9
    7fa4:	0a76      	lsrs	r6, r6, #9
    7fa6:	b2d8      	uxtb	r0, r3
    7fa8:	e002      	b.n	7fb0 <__aeabi_i2f+0x34>
    7faa:	2400      	movs	r4, #0
    7fac:	2000      	movs	r0, #0
    7fae:	2600      	movs	r6, #0
    7fb0:	05c0      	lsls	r0, r0, #23
    7fb2:	4330      	orrs	r0, r6
    7fb4:	07e4      	lsls	r4, r4, #31
    7fb6:	4320      	orrs	r0, r4
    7fb8:	bdf8      	pop	{r3, r4, r5, r6, r7, pc}
    7fba:	2b99      	cmp	r3, #153	; 0x99
    7fbc:	dd0c      	ble.n	7fd8 <__aeabi_i2f+0x5c>
    7fbe:	2205      	movs	r2, #5
    7fc0:	0031      	movs	r1, r6
    7fc2:	1a12      	subs	r2, r2, r0
    7fc4:	40d1      	lsrs	r1, r2
    7fc6:	000a      	movs	r2, r1
    7fc8:	0001      	movs	r1, r0
    7fca:	0030      	movs	r0, r6
    7fcc:	311b      	adds	r1, #27
    7fce:	4088      	lsls	r0, r1
    7fd0:	1e41      	subs	r1, r0, #1
    7fd2:	4188      	sbcs	r0, r1
    7fd4:	4302      	orrs	r2, r0
    7fd6:	0016      	movs	r6, r2
    7fd8:	2d05      	cmp	r5, #5
    7fda:	dc12      	bgt.n	8002 <__aeabi_i2f+0x86>
    7fdc:	0031      	movs	r1, r6
    7fde:	4f0d      	ldr	r7, [pc, #52]	; (8014 <__aeabi_i2f+0x98>)
    7fe0:	4039      	ands	r1, r7
    7fe2:	0772      	lsls	r2, r6, #29
    7fe4:	d009      	beq.n	7ffa <__aeabi_i2f+0x7e>
    7fe6:	200f      	movs	r0, #15
    7fe8:	4030      	ands	r0, r6
    7fea:	2804      	cmp	r0, #4
    7fec:	d005      	beq.n	7ffa <__aeabi_i2f+0x7e>
    7fee:	3104      	adds	r1, #4
    7ff0:	014a      	lsls	r2, r1, #5
    7ff2:	d502      	bpl.n	7ffa <__aeabi_i2f+0x7e>
    7ff4:	239f      	movs	r3, #159	; 0x9f
    7ff6:	4039      	ands	r1, r7
    7ff8:	1b5b      	subs	r3, r3, r5
    7ffa:	0189      	lsls	r1, r1, #6
    7ffc:	0a4e      	lsrs	r6, r1, #9
    7ffe:	b2d8      	uxtb	r0, r3
    8000:	e7d6      	b.n	7fb0 <__aeabi_i2f+0x34>
    8002:	1f6a      	subs	r2, r5, #5
    8004:	4096      	lsls	r6, r2
    8006:	0031      	movs	r1, r6
    8008:	4f02      	ldr	r7, [pc, #8]	; (8014 <__aeabi_i2f+0x98>)
    800a:	4039      	ands	r1, r7
    800c:	0772      	lsls	r2, r6, #29
    800e:	d0f4      	beq.n	7ffa <__aeabi_i2f+0x7e>
    8010:	e7e9      	b.n	7fe6 <__aeabi_i2f+0x6a>
    8012:	46c0      	nop			; (mov r8, r8)
    8014:	fbffffff 	.word	0xfbffffff

00008018 <__aeabi_dadd>:
    8018:	b5f0      	push	{r4, r5, r6, r7, lr}
    801a:	464f      	mov	r7, r9
    801c:	4646      	mov	r6, r8
    801e:	46d6      	mov	lr, sl
    8020:	000d      	movs	r5, r1
    8022:	0004      	movs	r4, r0
    8024:	b5c0      	push	{r6, r7, lr}
    8026:	001f      	movs	r7, r3
    8028:	0011      	movs	r1, r2
    802a:	0328      	lsls	r0, r5, #12
    802c:	0f62      	lsrs	r2, r4, #29
    802e:	0a40      	lsrs	r0, r0, #9
    8030:	4310      	orrs	r0, r2
    8032:	007a      	lsls	r2, r7, #1
    8034:	0d52      	lsrs	r2, r2, #21
    8036:	00e3      	lsls	r3, r4, #3
    8038:	033c      	lsls	r4, r7, #12
    803a:	4691      	mov	r9, r2
    803c:	0a64      	lsrs	r4, r4, #9
    803e:	0ffa      	lsrs	r2, r7, #31
    8040:	0f4f      	lsrs	r7, r1, #29
    8042:	006e      	lsls	r6, r5, #1
    8044:	4327      	orrs	r7, r4
    8046:	4692      	mov	sl, r2
    8048:	46b8      	mov	r8, r7
    804a:	0d76      	lsrs	r6, r6, #21
    804c:	0fed      	lsrs	r5, r5, #31
    804e:	00c9      	lsls	r1, r1, #3
    8050:	4295      	cmp	r5, r2
    8052:	d100      	bne.n	8056 <__aeabi_dadd+0x3e>
    8054:	e099      	b.n	818a <__aeabi_dadd+0x172>
    8056:	464c      	mov	r4, r9
    8058:	1b34      	subs	r4, r6, r4
    805a:	46a4      	mov	ip, r4
    805c:	2c00      	cmp	r4, #0
    805e:	dc00      	bgt.n	8062 <__aeabi_dadd+0x4a>
    8060:	e07c      	b.n	815c <__aeabi_dadd+0x144>
    8062:	464a      	mov	r2, r9
    8064:	2a00      	cmp	r2, #0
    8066:	d100      	bne.n	806a <__aeabi_dadd+0x52>
    8068:	e0b8      	b.n	81dc <__aeabi_dadd+0x1c4>
    806a:	4ac5      	ldr	r2, [pc, #788]	; (8380 <__aeabi_dadd+0x368>)
    806c:	4296      	cmp	r6, r2
    806e:	d100      	bne.n	8072 <__aeabi_dadd+0x5a>
    8070:	e11c      	b.n	82ac <__aeabi_dadd+0x294>
    8072:	2280      	movs	r2, #128	; 0x80
    8074:	003c      	movs	r4, r7
    8076:	0412      	lsls	r2, r2, #16
    8078:	4314      	orrs	r4, r2
    807a:	46a0      	mov	r8, r4
    807c:	4662      	mov	r2, ip
    807e:	2a38      	cmp	r2, #56	; 0x38
    8080:	dd00      	ble.n	8084 <__aeabi_dadd+0x6c>
    8082:	e161      	b.n	8348 <__aeabi_dadd+0x330>
    8084:	2a1f      	cmp	r2, #31
    8086:	dd00      	ble.n	808a <__aeabi_dadd+0x72>
    8088:	e1cc      	b.n	8424 <__aeabi_dadd+0x40c>
    808a:	4664      	mov	r4, ip
    808c:	2220      	movs	r2, #32
    808e:	1b12      	subs	r2, r2, r4
    8090:	4644      	mov	r4, r8
    8092:	4094      	lsls	r4, r2
    8094:	000f      	movs	r7, r1
    8096:	46a1      	mov	r9, r4
    8098:	4664      	mov	r4, ip
    809a:	4091      	lsls	r1, r2
    809c:	40e7      	lsrs	r7, r4
    809e:	464c      	mov	r4, r9
    80a0:	1e4a      	subs	r2, r1, #1
    80a2:	4191      	sbcs	r1, r2
    80a4:	433c      	orrs	r4, r7
    80a6:	4642      	mov	r2, r8
    80a8:	4321      	orrs	r1, r4
    80aa:	4664      	mov	r4, ip
    80ac:	40e2      	lsrs	r2, r4
    80ae:	1a80      	subs	r0, r0, r2
    80b0:	1a5c      	subs	r4, r3, r1
    80b2:	42a3      	cmp	r3, r4
    80b4:	419b      	sbcs	r3, r3
    80b6:	425f      	negs	r7, r3
    80b8:	1bc7      	subs	r7, r0, r7
    80ba:	023b      	lsls	r3, r7, #8
    80bc:	d400      	bmi.n	80c0 <__aeabi_dadd+0xa8>
    80be:	e0d0      	b.n	8262 <__aeabi_dadd+0x24a>
    80c0:	027f      	lsls	r7, r7, #9
    80c2:	0a7f      	lsrs	r7, r7, #9
    80c4:	2f00      	cmp	r7, #0
    80c6:	d100      	bne.n	80ca <__aeabi_dadd+0xb2>
    80c8:	e0ff      	b.n	82ca <__aeabi_dadd+0x2b2>
    80ca:	0038      	movs	r0, r7
    80cc:	f001 fd8a 	bl	9be4 <__clzsi2>
    80d0:	0001      	movs	r1, r0
    80d2:	3908      	subs	r1, #8
    80d4:	2320      	movs	r3, #32
    80d6:	0022      	movs	r2, r4
    80d8:	1a5b      	subs	r3, r3, r1
    80da:	408f      	lsls	r7, r1
    80dc:	40da      	lsrs	r2, r3
    80de:	408c      	lsls	r4, r1
    80e0:	4317      	orrs	r7, r2
    80e2:	42b1      	cmp	r1, r6
    80e4:	da00      	bge.n	80e8 <__aeabi_dadd+0xd0>
    80e6:	e0ff      	b.n	82e8 <__aeabi_dadd+0x2d0>
    80e8:	1b89      	subs	r1, r1, r6
    80ea:	1c4b      	adds	r3, r1, #1
    80ec:	2b1f      	cmp	r3, #31
    80ee:	dd00      	ble.n	80f2 <__aeabi_dadd+0xda>
    80f0:	e0a8      	b.n	8244 <__aeabi_dadd+0x22c>
    80f2:	2220      	movs	r2, #32
    80f4:	0039      	movs	r1, r7
    80f6:	1ad2      	subs	r2, r2, r3
    80f8:	0020      	movs	r0, r4
    80fa:	4094      	lsls	r4, r2
    80fc:	4091      	lsls	r1, r2
    80fe:	40d8      	lsrs	r0, r3
    8100:	1e62      	subs	r2, r4, #1
    8102:	4194      	sbcs	r4, r2
    8104:	40df      	lsrs	r7, r3
    8106:	2600      	movs	r6, #0
    8108:	4301      	orrs	r1, r0
    810a:	430c      	orrs	r4, r1
    810c:	0763      	lsls	r3, r4, #29
    810e:	d009      	beq.n	8124 <__aeabi_dadd+0x10c>
    8110:	230f      	movs	r3, #15
    8112:	4023      	ands	r3, r4
    8114:	2b04      	cmp	r3, #4
    8116:	d005      	beq.n	8124 <__aeabi_dadd+0x10c>
    8118:	1d23      	adds	r3, r4, #4
    811a:	42a3      	cmp	r3, r4
    811c:	41a4      	sbcs	r4, r4
    811e:	4264      	negs	r4, r4
    8120:	193f      	adds	r7, r7, r4
    8122:	001c      	movs	r4, r3
    8124:	023b      	lsls	r3, r7, #8
    8126:	d400      	bmi.n	812a <__aeabi_dadd+0x112>
    8128:	e09e      	b.n	8268 <__aeabi_dadd+0x250>
    812a:	4b95      	ldr	r3, [pc, #596]	; (8380 <__aeabi_dadd+0x368>)
    812c:	3601      	adds	r6, #1
    812e:	429e      	cmp	r6, r3
    8130:	d100      	bne.n	8134 <__aeabi_dadd+0x11c>
    8132:	e0b7      	b.n	82a4 <__aeabi_dadd+0x28c>
    8134:	4a93      	ldr	r2, [pc, #588]	; (8384 <__aeabi_dadd+0x36c>)
    8136:	08e4      	lsrs	r4, r4, #3
    8138:	4017      	ands	r7, r2
    813a:	077b      	lsls	r3, r7, #29
    813c:	0571      	lsls	r1, r6, #21
    813e:	027f      	lsls	r7, r7, #9
    8140:	4323      	orrs	r3, r4
    8142:	0b3f      	lsrs	r7, r7, #12
    8144:	0d4a      	lsrs	r2, r1, #21
    8146:	0512      	lsls	r2, r2, #20
    8148:	433a      	orrs	r2, r7
    814a:	07ed      	lsls	r5, r5, #31
    814c:	432a      	orrs	r2, r5
    814e:	0018      	movs	r0, r3
    8150:	0011      	movs	r1, r2
    8152:	bce0      	pop	{r5, r6, r7}
    8154:	46ba      	mov	sl, r7
    8156:	46b1      	mov	r9, r6
    8158:	46a8      	mov	r8, r5
    815a:	bdf0      	pop	{r4, r5, r6, r7, pc}
    815c:	2c00      	cmp	r4, #0
    815e:	d04b      	beq.n	81f8 <__aeabi_dadd+0x1e0>
    8160:	464c      	mov	r4, r9
    8162:	1ba4      	subs	r4, r4, r6
    8164:	46a4      	mov	ip, r4
    8166:	2e00      	cmp	r6, #0
    8168:	d000      	beq.n	816c <__aeabi_dadd+0x154>
    816a:	e123      	b.n	83b4 <__aeabi_dadd+0x39c>
    816c:	0004      	movs	r4, r0
    816e:	431c      	orrs	r4, r3
    8170:	d100      	bne.n	8174 <__aeabi_dadd+0x15c>
    8172:	e1af      	b.n	84d4 <__aeabi_dadd+0x4bc>
    8174:	4662      	mov	r2, ip
    8176:	1e54      	subs	r4, r2, #1
    8178:	2a01      	cmp	r2, #1
    817a:	d100      	bne.n	817e <__aeabi_dadd+0x166>
    817c:	e215      	b.n	85aa <__aeabi_dadd+0x592>
    817e:	4d80      	ldr	r5, [pc, #512]	; (8380 <__aeabi_dadd+0x368>)
    8180:	45ac      	cmp	ip, r5
    8182:	d100      	bne.n	8186 <__aeabi_dadd+0x16e>
    8184:	e1c8      	b.n	8518 <__aeabi_dadd+0x500>
    8186:	46a4      	mov	ip, r4
    8188:	e11b      	b.n	83c2 <__aeabi_dadd+0x3aa>
    818a:	464a      	mov	r2, r9
    818c:	1ab2      	subs	r2, r6, r2
    818e:	4694      	mov	ip, r2
    8190:	2a00      	cmp	r2, #0
    8192:	dc00      	bgt.n	8196 <__aeabi_dadd+0x17e>
    8194:	e0ac      	b.n	82f0 <__aeabi_dadd+0x2d8>
    8196:	464a      	mov	r2, r9
    8198:	2a00      	cmp	r2, #0
    819a:	d043      	beq.n	8224 <__aeabi_dadd+0x20c>
    819c:	4a78      	ldr	r2, [pc, #480]	; (8380 <__aeabi_dadd+0x368>)
    819e:	4296      	cmp	r6, r2
    81a0:	d100      	bne.n	81a4 <__aeabi_dadd+0x18c>
    81a2:	e1af      	b.n	8504 <__aeabi_dadd+0x4ec>
    81a4:	2280      	movs	r2, #128	; 0x80
    81a6:	003c      	movs	r4, r7
    81a8:	0412      	lsls	r2, r2, #16
    81aa:	4314      	orrs	r4, r2
    81ac:	46a0      	mov	r8, r4
    81ae:	4662      	mov	r2, ip
    81b0:	2a38      	cmp	r2, #56	; 0x38
    81b2:	dc67      	bgt.n	8284 <__aeabi_dadd+0x26c>
    81b4:	2a1f      	cmp	r2, #31
    81b6:	dc00      	bgt.n	81ba <__aeabi_dadd+0x1a2>
    81b8:	e15f      	b.n	847a <__aeabi_dadd+0x462>
    81ba:	4647      	mov	r7, r8
    81bc:	3a20      	subs	r2, #32
    81be:	40d7      	lsrs	r7, r2
    81c0:	4662      	mov	r2, ip
    81c2:	2a20      	cmp	r2, #32
    81c4:	d005      	beq.n	81d2 <__aeabi_dadd+0x1ba>
    81c6:	4664      	mov	r4, ip
    81c8:	2240      	movs	r2, #64	; 0x40
    81ca:	1b12      	subs	r2, r2, r4
    81cc:	4644      	mov	r4, r8
    81ce:	4094      	lsls	r4, r2
    81d0:	4321      	orrs	r1, r4
    81d2:	1e4a      	subs	r2, r1, #1
    81d4:	4191      	sbcs	r1, r2
    81d6:	000c      	movs	r4, r1
    81d8:	433c      	orrs	r4, r7
    81da:	e057      	b.n	828c <__aeabi_dadd+0x274>
    81dc:	003a      	movs	r2, r7
    81de:	430a      	orrs	r2, r1
    81e0:	d100      	bne.n	81e4 <__aeabi_dadd+0x1cc>
    81e2:	e105      	b.n	83f0 <__aeabi_dadd+0x3d8>
    81e4:	0022      	movs	r2, r4
    81e6:	3a01      	subs	r2, #1
    81e8:	2c01      	cmp	r4, #1
    81ea:	d100      	bne.n	81ee <__aeabi_dadd+0x1d6>
    81ec:	e182      	b.n	84f4 <__aeabi_dadd+0x4dc>
    81ee:	4c64      	ldr	r4, [pc, #400]	; (8380 <__aeabi_dadd+0x368>)
    81f0:	45a4      	cmp	ip, r4
    81f2:	d05b      	beq.n	82ac <__aeabi_dadd+0x294>
    81f4:	4694      	mov	ip, r2
    81f6:	e741      	b.n	807c <__aeabi_dadd+0x64>
    81f8:	4c63      	ldr	r4, [pc, #396]	; (8388 <__aeabi_dadd+0x370>)
    81fa:	1c77      	adds	r7, r6, #1
    81fc:	4227      	tst	r7, r4
    81fe:	d000      	beq.n	8202 <__aeabi_dadd+0x1ea>
    8200:	e0c4      	b.n	838c <__aeabi_dadd+0x374>
    8202:	0004      	movs	r4, r0
    8204:	431c      	orrs	r4, r3
    8206:	2e00      	cmp	r6, #0
    8208:	d000      	beq.n	820c <__aeabi_dadd+0x1f4>
    820a:	e169      	b.n	84e0 <__aeabi_dadd+0x4c8>
    820c:	2c00      	cmp	r4, #0
    820e:	d100      	bne.n	8212 <__aeabi_dadd+0x1fa>
    8210:	e1bf      	b.n	8592 <__aeabi_dadd+0x57a>
    8212:	4644      	mov	r4, r8
    8214:	430c      	orrs	r4, r1
    8216:	d000      	beq.n	821a <__aeabi_dadd+0x202>
    8218:	e1d0      	b.n	85bc <__aeabi_dadd+0x5a4>
    821a:	0742      	lsls	r2, r0, #29
    821c:	08db      	lsrs	r3, r3, #3
    821e:	4313      	orrs	r3, r2
    8220:	08c0      	lsrs	r0, r0, #3
    8222:	e029      	b.n	8278 <__aeabi_dadd+0x260>
    8224:	003a      	movs	r2, r7
    8226:	430a      	orrs	r2, r1
    8228:	d100      	bne.n	822c <__aeabi_dadd+0x214>
    822a:	e170      	b.n	850e <__aeabi_dadd+0x4f6>
    822c:	4662      	mov	r2, ip
    822e:	4664      	mov	r4, ip
    8230:	3a01      	subs	r2, #1
    8232:	2c01      	cmp	r4, #1
    8234:	d100      	bne.n	8238 <__aeabi_dadd+0x220>
    8236:	e0e0      	b.n	83fa <__aeabi_dadd+0x3e2>
    8238:	4c51      	ldr	r4, [pc, #324]	; (8380 <__aeabi_dadd+0x368>)
    823a:	45a4      	cmp	ip, r4
    823c:	d100      	bne.n	8240 <__aeabi_dadd+0x228>
    823e:	e161      	b.n	8504 <__aeabi_dadd+0x4ec>
    8240:	4694      	mov	ip, r2
    8242:	e7b4      	b.n	81ae <__aeabi_dadd+0x196>
    8244:	003a      	movs	r2, r7
    8246:	391f      	subs	r1, #31
    8248:	40ca      	lsrs	r2, r1
    824a:	0011      	movs	r1, r2
    824c:	2b20      	cmp	r3, #32
    824e:	d003      	beq.n	8258 <__aeabi_dadd+0x240>
    8250:	2240      	movs	r2, #64	; 0x40
    8252:	1ad3      	subs	r3, r2, r3
    8254:	409f      	lsls	r7, r3
    8256:	433c      	orrs	r4, r7
    8258:	1e63      	subs	r3, r4, #1
    825a:	419c      	sbcs	r4, r3
    825c:	2700      	movs	r7, #0
    825e:	2600      	movs	r6, #0
    8260:	430c      	orrs	r4, r1
    8262:	0763      	lsls	r3, r4, #29
    8264:	d000      	beq.n	8268 <__aeabi_dadd+0x250>
    8266:	e753      	b.n	8110 <__aeabi_dadd+0xf8>
    8268:	46b4      	mov	ip, r6
    826a:	08e4      	lsrs	r4, r4, #3
    826c:	077b      	lsls	r3, r7, #29
    826e:	4323      	orrs	r3, r4
    8270:	08f8      	lsrs	r0, r7, #3
    8272:	4a43      	ldr	r2, [pc, #268]	; (8380 <__aeabi_dadd+0x368>)
    8274:	4594      	cmp	ip, r2
    8276:	d01d      	beq.n	82b4 <__aeabi_dadd+0x29c>
    8278:	4662      	mov	r2, ip
    827a:	0307      	lsls	r7, r0, #12
    827c:	0552      	lsls	r2, r2, #21
    827e:	0b3f      	lsrs	r7, r7, #12
    8280:	0d52      	lsrs	r2, r2, #21
    8282:	e760      	b.n	8146 <__aeabi_dadd+0x12e>
    8284:	4644      	mov	r4, r8
    8286:	430c      	orrs	r4, r1
    8288:	1e62      	subs	r2, r4, #1
    828a:	4194      	sbcs	r4, r2
    828c:	18e4      	adds	r4, r4, r3
    828e:	429c      	cmp	r4, r3
    8290:	419b      	sbcs	r3, r3
    8292:	425f      	negs	r7, r3
    8294:	183f      	adds	r7, r7, r0
    8296:	023b      	lsls	r3, r7, #8
    8298:	d5e3      	bpl.n	8262 <__aeabi_dadd+0x24a>
    829a:	4b39      	ldr	r3, [pc, #228]	; (8380 <__aeabi_dadd+0x368>)
    829c:	3601      	adds	r6, #1
    829e:	429e      	cmp	r6, r3
    82a0:	d000      	beq.n	82a4 <__aeabi_dadd+0x28c>
    82a2:	e0b5      	b.n	8410 <__aeabi_dadd+0x3f8>
    82a4:	0032      	movs	r2, r6
    82a6:	2700      	movs	r7, #0
    82a8:	2300      	movs	r3, #0
    82aa:	e74c      	b.n	8146 <__aeabi_dadd+0x12e>
    82ac:	0742      	lsls	r2, r0, #29
    82ae:	08db      	lsrs	r3, r3, #3
    82b0:	4313      	orrs	r3, r2
    82b2:	08c0      	lsrs	r0, r0, #3
    82b4:	001a      	movs	r2, r3
    82b6:	4302      	orrs	r2, r0
    82b8:	d100      	bne.n	82bc <__aeabi_dadd+0x2a4>
    82ba:	e1e1      	b.n	8680 <__aeabi_dadd+0x668>
    82bc:	2780      	movs	r7, #128	; 0x80
    82be:	033f      	lsls	r7, r7, #12
    82c0:	4307      	orrs	r7, r0
    82c2:	033f      	lsls	r7, r7, #12
    82c4:	4a2e      	ldr	r2, [pc, #184]	; (8380 <__aeabi_dadd+0x368>)
    82c6:	0b3f      	lsrs	r7, r7, #12
    82c8:	e73d      	b.n	8146 <__aeabi_dadd+0x12e>
    82ca:	0020      	movs	r0, r4
    82cc:	f001 fc8a 	bl	9be4 <__clzsi2>
    82d0:	0001      	movs	r1, r0
    82d2:	3118      	adds	r1, #24
    82d4:	291f      	cmp	r1, #31
    82d6:	dc00      	bgt.n	82da <__aeabi_dadd+0x2c2>
    82d8:	e6fc      	b.n	80d4 <__aeabi_dadd+0xbc>
    82da:	3808      	subs	r0, #8
    82dc:	4084      	lsls	r4, r0
    82de:	0027      	movs	r7, r4
    82e0:	2400      	movs	r4, #0
    82e2:	42b1      	cmp	r1, r6
    82e4:	db00      	blt.n	82e8 <__aeabi_dadd+0x2d0>
    82e6:	e6ff      	b.n	80e8 <__aeabi_dadd+0xd0>
    82e8:	4a26      	ldr	r2, [pc, #152]	; (8384 <__aeabi_dadd+0x36c>)
    82ea:	1a76      	subs	r6, r6, r1
    82ec:	4017      	ands	r7, r2
    82ee:	e70d      	b.n	810c <__aeabi_dadd+0xf4>
    82f0:	2a00      	cmp	r2, #0
    82f2:	d02f      	beq.n	8354 <__aeabi_dadd+0x33c>
    82f4:	464a      	mov	r2, r9
    82f6:	1b92      	subs	r2, r2, r6
    82f8:	4694      	mov	ip, r2
    82fa:	2e00      	cmp	r6, #0
    82fc:	d100      	bne.n	8300 <__aeabi_dadd+0x2e8>
    82fe:	e0ad      	b.n	845c <__aeabi_dadd+0x444>
    8300:	4a1f      	ldr	r2, [pc, #124]	; (8380 <__aeabi_dadd+0x368>)
    8302:	4591      	cmp	r9, r2
    8304:	d100      	bne.n	8308 <__aeabi_dadd+0x2f0>
    8306:	e10f      	b.n	8528 <__aeabi_dadd+0x510>
    8308:	2280      	movs	r2, #128	; 0x80
    830a:	0412      	lsls	r2, r2, #16
    830c:	4310      	orrs	r0, r2
    830e:	4662      	mov	r2, ip
    8310:	2a38      	cmp	r2, #56	; 0x38
    8312:	dd00      	ble.n	8316 <__aeabi_dadd+0x2fe>
    8314:	e10f      	b.n	8536 <__aeabi_dadd+0x51e>
    8316:	2a1f      	cmp	r2, #31
    8318:	dd00      	ble.n	831c <__aeabi_dadd+0x304>
    831a:	e180      	b.n	861e <__aeabi_dadd+0x606>
    831c:	4664      	mov	r4, ip
    831e:	2220      	movs	r2, #32
    8320:	001e      	movs	r6, r3
    8322:	1b12      	subs	r2, r2, r4
    8324:	4667      	mov	r7, ip
    8326:	0004      	movs	r4, r0
    8328:	4093      	lsls	r3, r2
    832a:	4094      	lsls	r4, r2
    832c:	40fe      	lsrs	r6, r7
    832e:	1e5a      	subs	r2, r3, #1
    8330:	4193      	sbcs	r3, r2
    8332:	40f8      	lsrs	r0, r7
    8334:	4334      	orrs	r4, r6
    8336:	431c      	orrs	r4, r3
    8338:	4480      	add	r8, r0
    833a:	1864      	adds	r4, r4, r1
    833c:	428c      	cmp	r4, r1
    833e:	41bf      	sbcs	r7, r7
    8340:	427f      	negs	r7, r7
    8342:	464e      	mov	r6, r9
    8344:	4447      	add	r7, r8
    8346:	e7a6      	b.n	8296 <__aeabi_dadd+0x27e>
    8348:	4642      	mov	r2, r8
    834a:	430a      	orrs	r2, r1
    834c:	0011      	movs	r1, r2
    834e:	1e4a      	subs	r2, r1, #1
    8350:	4191      	sbcs	r1, r2
    8352:	e6ad      	b.n	80b0 <__aeabi_dadd+0x98>
    8354:	4c0c      	ldr	r4, [pc, #48]	; (8388 <__aeabi_dadd+0x370>)
    8356:	1c72      	adds	r2, r6, #1
    8358:	4222      	tst	r2, r4
    835a:	d000      	beq.n	835e <__aeabi_dadd+0x346>
    835c:	e0a1      	b.n	84a2 <__aeabi_dadd+0x48a>
    835e:	0002      	movs	r2, r0
    8360:	431a      	orrs	r2, r3
    8362:	2e00      	cmp	r6, #0
    8364:	d000      	beq.n	8368 <__aeabi_dadd+0x350>
    8366:	e0fa      	b.n	855e <__aeabi_dadd+0x546>
    8368:	2a00      	cmp	r2, #0
    836a:	d100      	bne.n	836e <__aeabi_dadd+0x356>
    836c:	e145      	b.n	85fa <__aeabi_dadd+0x5e2>
    836e:	003a      	movs	r2, r7
    8370:	430a      	orrs	r2, r1
    8372:	d000      	beq.n	8376 <__aeabi_dadd+0x35e>
    8374:	e146      	b.n	8604 <__aeabi_dadd+0x5ec>
    8376:	0742      	lsls	r2, r0, #29
    8378:	08db      	lsrs	r3, r3, #3
    837a:	4313      	orrs	r3, r2
    837c:	08c0      	lsrs	r0, r0, #3
    837e:	e77b      	b.n	8278 <__aeabi_dadd+0x260>
    8380:	000007ff 	.word	0x000007ff
    8384:	ff7fffff 	.word	0xff7fffff
    8388:	000007fe 	.word	0x000007fe
    838c:	4647      	mov	r7, r8
    838e:	1a5c      	subs	r4, r3, r1
    8390:	1bc2      	subs	r2, r0, r7
    8392:	42a3      	cmp	r3, r4
    8394:	41bf      	sbcs	r7, r7
    8396:	427f      	negs	r7, r7
    8398:	46b9      	mov	r9, r7
    839a:	0017      	movs	r7, r2
    839c:	464a      	mov	r2, r9
    839e:	1abf      	subs	r7, r7, r2
    83a0:	023a      	lsls	r2, r7, #8
    83a2:	d500      	bpl.n	83a6 <__aeabi_dadd+0x38e>
    83a4:	e08d      	b.n	84c2 <__aeabi_dadd+0x4aa>
    83a6:	0023      	movs	r3, r4
    83a8:	433b      	orrs	r3, r7
    83aa:	d000      	beq.n	83ae <__aeabi_dadd+0x396>
    83ac:	e68a      	b.n	80c4 <__aeabi_dadd+0xac>
    83ae:	2000      	movs	r0, #0
    83b0:	2500      	movs	r5, #0
    83b2:	e761      	b.n	8278 <__aeabi_dadd+0x260>
    83b4:	4cb4      	ldr	r4, [pc, #720]	; (8688 <__aeabi_dadd+0x670>)
    83b6:	45a1      	cmp	r9, r4
    83b8:	d100      	bne.n	83bc <__aeabi_dadd+0x3a4>
    83ba:	e0ad      	b.n	8518 <__aeabi_dadd+0x500>
    83bc:	2480      	movs	r4, #128	; 0x80
    83be:	0424      	lsls	r4, r4, #16
    83c0:	4320      	orrs	r0, r4
    83c2:	4664      	mov	r4, ip
    83c4:	2c38      	cmp	r4, #56	; 0x38
    83c6:	dc3d      	bgt.n	8444 <__aeabi_dadd+0x42c>
    83c8:	4662      	mov	r2, ip
    83ca:	2c1f      	cmp	r4, #31
    83cc:	dd00      	ble.n	83d0 <__aeabi_dadd+0x3b8>
    83ce:	e0b7      	b.n	8540 <__aeabi_dadd+0x528>
    83d0:	2520      	movs	r5, #32
    83d2:	001e      	movs	r6, r3
    83d4:	1b2d      	subs	r5, r5, r4
    83d6:	0004      	movs	r4, r0
    83d8:	40ab      	lsls	r3, r5
    83da:	40ac      	lsls	r4, r5
    83dc:	40d6      	lsrs	r6, r2
    83de:	40d0      	lsrs	r0, r2
    83e0:	4642      	mov	r2, r8
    83e2:	1e5d      	subs	r5, r3, #1
    83e4:	41ab      	sbcs	r3, r5
    83e6:	4334      	orrs	r4, r6
    83e8:	1a12      	subs	r2, r2, r0
    83ea:	4690      	mov	r8, r2
    83ec:	4323      	orrs	r3, r4
    83ee:	e02c      	b.n	844a <__aeabi_dadd+0x432>
    83f0:	0742      	lsls	r2, r0, #29
    83f2:	08db      	lsrs	r3, r3, #3
    83f4:	4313      	orrs	r3, r2
    83f6:	08c0      	lsrs	r0, r0, #3
    83f8:	e73b      	b.n	8272 <__aeabi_dadd+0x25a>
    83fa:	185c      	adds	r4, r3, r1
    83fc:	429c      	cmp	r4, r3
    83fe:	419b      	sbcs	r3, r3
    8400:	4440      	add	r0, r8
    8402:	425b      	negs	r3, r3
    8404:	18c7      	adds	r7, r0, r3
    8406:	2601      	movs	r6, #1
    8408:	023b      	lsls	r3, r7, #8
    840a:	d400      	bmi.n	840e <__aeabi_dadd+0x3f6>
    840c:	e729      	b.n	8262 <__aeabi_dadd+0x24a>
    840e:	2602      	movs	r6, #2
    8410:	4a9e      	ldr	r2, [pc, #632]	; (868c <__aeabi_dadd+0x674>)
    8412:	0863      	lsrs	r3, r4, #1
    8414:	4017      	ands	r7, r2
    8416:	2201      	movs	r2, #1
    8418:	4014      	ands	r4, r2
    841a:	431c      	orrs	r4, r3
    841c:	07fb      	lsls	r3, r7, #31
    841e:	431c      	orrs	r4, r3
    8420:	087f      	lsrs	r7, r7, #1
    8422:	e673      	b.n	810c <__aeabi_dadd+0xf4>
    8424:	4644      	mov	r4, r8
    8426:	3a20      	subs	r2, #32
    8428:	40d4      	lsrs	r4, r2
    842a:	4662      	mov	r2, ip
    842c:	2a20      	cmp	r2, #32
    842e:	d005      	beq.n	843c <__aeabi_dadd+0x424>
    8430:	4667      	mov	r7, ip
    8432:	2240      	movs	r2, #64	; 0x40
    8434:	1bd2      	subs	r2, r2, r7
    8436:	4647      	mov	r7, r8
    8438:	4097      	lsls	r7, r2
    843a:	4339      	orrs	r1, r7
    843c:	1e4a      	subs	r2, r1, #1
    843e:	4191      	sbcs	r1, r2
    8440:	4321      	orrs	r1, r4
    8442:	e635      	b.n	80b0 <__aeabi_dadd+0x98>
    8444:	4303      	orrs	r3, r0
    8446:	1e58      	subs	r0, r3, #1
    8448:	4183      	sbcs	r3, r0
    844a:	1acc      	subs	r4, r1, r3
    844c:	42a1      	cmp	r1, r4
    844e:	41bf      	sbcs	r7, r7
    8450:	4643      	mov	r3, r8
    8452:	427f      	negs	r7, r7
    8454:	4655      	mov	r5, sl
    8456:	464e      	mov	r6, r9
    8458:	1bdf      	subs	r7, r3, r7
    845a:	e62e      	b.n	80ba <__aeabi_dadd+0xa2>
    845c:	0002      	movs	r2, r0
    845e:	431a      	orrs	r2, r3
    8460:	d100      	bne.n	8464 <__aeabi_dadd+0x44c>
    8462:	e0bd      	b.n	85e0 <__aeabi_dadd+0x5c8>
    8464:	4662      	mov	r2, ip
    8466:	4664      	mov	r4, ip
    8468:	3a01      	subs	r2, #1
    846a:	2c01      	cmp	r4, #1
    846c:	d100      	bne.n	8470 <__aeabi_dadd+0x458>
    846e:	e0e5      	b.n	863c <__aeabi_dadd+0x624>
    8470:	4c85      	ldr	r4, [pc, #532]	; (8688 <__aeabi_dadd+0x670>)
    8472:	45a4      	cmp	ip, r4
    8474:	d058      	beq.n	8528 <__aeabi_dadd+0x510>
    8476:	4694      	mov	ip, r2
    8478:	e749      	b.n	830e <__aeabi_dadd+0x2f6>
    847a:	4664      	mov	r4, ip
    847c:	2220      	movs	r2, #32
    847e:	1b12      	subs	r2, r2, r4
    8480:	4644      	mov	r4, r8
    8482:	4094      	lsls	r4, r2
    8484:	000f      	movs	r7, r1
    8486:	46a1      	mov	r9, r4
    8488:	4664      	mov	r4, ip
    848a:	4091      	lsls	r1, r2
    848c:	40e7      	lsrs	r7, r4
    848e:	464c      	mov	r4, r9
    8490:	1e4a      	subs	r2, r1, #1
    8492:	4191      	sbcs	r1, r2
    8494:	433c      	orrs	r4, r7
    8496:	4642      	mov	r2, r8
    8498:	430c      	orrs	r4, r1
    849a:	4661      	mov	r1, ip
    849c:	40ca      	lsrs	r2, r1
    849e:	1880      	adds	r0, r0, r2
    84a0:	e6f4      	b.n	828c <__aeabi_dadd+0x274>
    84a2:	4c79      	ldr	r4, [pc, #484]	; (8688 <__aeabi_dadd+0x670>)
    84a4:	42a2      	cmp	r2, r4
    84a6:	d100      	bne.n	84aa <__aeabi_dadd+0x492>
    84a8:	e6fd      	b.n	82a6 <__aeabi_dadd+0x28e>
    84aa:	1859      	adds	r1, r3, r1
    84ac:	4299      	cmp	r1, r3
    84ae:	419b      	sbcs	r3, r3
    84b0:	4440      	add	r0, r8
    84b2:	425f      	negs	r7, r3
    84b4:	19c7      	adds	r7, r0, r7
    84b6:	07fc      	lsls	r4, r7, #31
    84b8:	0849      	lsrs	r1, r1, #1
    84ba:	0016      	movs	r6, r2
    84bc:	430c      	orrs	r4, r1
    84be:	087f      	lsrs	r7, r7, #1
    84c0:	e6cf      	b.n	8262 <__aeabi_dadd+0x24a>
    84c2:	1acc      	subs	r4, r1, r3
    84c4:	42a1      	cmp	r1, r4
    84c6:	41bf      	sbcs	r7, r7
    84c8:	4643      	mov	r3, r8
    84ca:	427f      	negs	r7, r7
    84cc:	1a18      	subs	r0, r3, r0
    84ce:	4655      	mov	r5, sl
    84d0:	1bc7      	subs	r7, r0, r7
    84d2:	e5f7      	b.n	80c4 <__aeabi_dadd+0xac>
    84d4:	08c9      	lsrs	r1, r1, #3
    84d6:	077b      	lsls	r3, r7, #29
    84d8:	4655      	mov	r5, sl
    84da:	430b      	orrs	r3, r1
    84dc:	08f8      	lsrs	r0, r7, #3
    84de:	e6c8      	b.n	8272 <__aeabi_dadd+0x25a>
    84e0:	2c00      	cmp	r4, #0
    84e2:	d000      	beq.n	84e6 <__aeabi_dadd+0x4ce>
    84e4:	e081      	b.n	85ea <__aeabi_dadd+0x5d2>
    84e6:	4643      	mov	r3, r8
    84e8:	430b      	orrs	r3, r1
    84ea:	d115      	bne.n	8518 <__aeabi_dadd+0x500>
    84ec:	2080      	movs	r0, #128	; 0x80
    84ee:	2500      	movs	r5, #0
    84f0:	0300      	lsls	r0, r0, #12
    84f2:	e6e3      	b.n	82bc <__aeabi_dadd+0x2a4>
    84f4:	1a5c      	subs	r4, r3, r1
    84f6:	42a3      	cmp	r3, r4
    84f8:	419b      	sbcs	r3, r3
    84fa:	1bc7      	subs	r7, r0, r7
    84fc:	425b      	negs	r3, r3
    84fe:	2601      	movs	r6, #1
    8500:	1aff      	subs	r7, r7, r3
    8502:	e5da      	b.n	80ba <__aeabi_dadd+0xa2>
    8504:	0742      	lsls	r2, r0, #29
    8506:	08db      	lsrs	r3, r3, #3
    8508:	4313      	orrs	r3, r2
    850a:	08c0      	lsrs	r0, r0, #3
    850c:	e6d2      	b.n	82b4 <__aeabi_dadd+0x29c>
    850e:	0742      	lsls	r2, r0, #29
    8510:	08db      	lsrs	r3, r3, #3
    8512:	4313      	orrs	r3, r2
    8514:	08c0      	lsrs	r0, r0, #3
    8516:	e6ac      	b.n	8272 <__aeabi_dadd+0x25a>
    8518:	4643      	mov	r3, r8
    851a:	4642      	mov	r2, r8
    851c:	08c9      	lsrs	r1, r1, #3
    851e:	075b      	lsls	r3, r3, #29
    8520:	4655      	mov	r5, sl
    8522:	430b      	orrs	r3, r1
    8524:	08d0      	lsrs	r0, r2, #3
    8526:	e6c5      	b.n	82b4 <__aeabi_dadd+0x29c>
    8528:	4643      	mov	r3, r8
    852a:	4642      	mov	r2, r8
    852c:	075b      	lsls	r3, r3, #29
    852e:	08c9      	lsrs	r1, r1, #3
    8530:	430b      	orrs	r3, r1
    8532:	08d0      	lsrs	r0, r2, #3
    8534:	e6be      	b.n	82b4 <__aeabi_dadd+0x29c>
    8536:	4303      	orrs	r3, r0
    8538:	001c      	movs	r4, r3
    853a:	1e63      	subs	r3, r4, #1
    853c:	419c      	sbcs	r4, r3
    853e:	e6fc      	b.n	833a <__aeabi_dadd+0x322>
    8540:	0002      	movs	r2, r0
    8542:	3c20      	subs	r4, #32
    8544:	40e2      	lsrs	r2, r4
    8546:	0014      	movs	r4, r2
    8548:	4662      	mov	r2, ip
    854a:	2a20      	cmp	r2, #32
    854c:	d003      	beq.n	8556 <__aeabi_dadd+0x53e>
    854e:	2540      	movs	r5, #64	; 0x40
    8550:	1aad      	subs	r5, r5, r2
    8552:	40a8      	lsls	r0, r5
    8554:	4303      	orrs	r3, r0
    8556:	1e58      	subs	r0, r3, #1
    8558:	4183      	sbcs	r3, r0
    855a:	4323      	orrs	r3, r4
    855c:	e775      	b.n	844a <__aeabi_dadd+0x432>
    855e:	2a00      	cmp	r2, #0
    8560:	d0e2      	beq.n	8528 <__aeabi_dadd+0x510>
    8562:	003a      	movs	r2, r7
    8564:	430a      	orrs	r2, r1
    8566:	d0cd      	beq.n	8504 <__aeabi_dadd+0x4ec>
    8568:	0742      	lsls	r2, r0, #29
    856a:	08db      	lsrs	r3, r3, #3
    856c:	4313      	orrs	r3, r2
    856e:	2280      	movs	r2, #128	; 0x80
    8570:	08c0      	lsrs	r0, r0, #3
    8572:	0312      	lsls	r2, r2, #12
    8574:	4210      	tst	r0, r2
    8576:	d006      	beq.n	8586 <__aeabi_dadd+0x56e>
    8578:	08fc      	lsrs	r4, r7, #3
    857a:	4214      	tst	r4, r2
    857c:	d103      	bne.n	8586 <__aeabi_dadd+0x56e>
    857e:	0020      	movs	r0, r4
    8580:	08cb      	lsrs	r3, r1, #3
    8582:	077a      	lsls	r2, r7, #29
    8584:	4313      	orrs	r3, r2
    8586:	0f5a      	lsrs	r2, r3, #29
    8588:	00db      	lsls	r3, r3, #3
    858a:	0752      	lsls	r2, r2, #29
    858c:	08db      	lsrs	r3, r3, #3
    858e:	4313      	orrs	r3, r2
    8590:	e690      	b.n	82b4 <__aeabi_dadd+0x29c>
    8592:	4643      	mov	r3, r8
    8594:	430b      	orrs	r3, r1
    8596:	d100      	bne.n	859a <__aeabi_dadd+0x582>
    8598:	e709      	b.n	83ae <__aeabi_dadd+0x396>
    859a:	4643      	mov	r3, r8
    859c:	4642      	mov	r2, r8
    859e:	08c9      	lsrs	r1, r1, #3
    85a0:	075b      	lsls	r3, r3, #29
    85a2:	4655      	mov	r5, sl
    85a4:	430b      	orrs	r3, r1
    85a6:	08d0      	lsrs	r0, r2, #3
    85a8:	e666      	b.n	8278 <__aeabi_dadd+0x260>
    85aa:	1acc      	subs	r4, r1, r3
    85ac:	42a1      	cmp	r1, r4
    85ae:	4189      	sbcs	r1, r1
    85b0:	1a3f      	subs	r7, r7, r0
    85b2:	4249      	negs	r1, r1
    85b4:	4655      	mov	r5, sl
    85b6:	2601      	movs	r6, #1
    85b8:	1a7f      	subs	r7, r7, r1
    85ba:	e57e      	b.n	80ba <__aeabi_dadd+0xa2>
    85bc:	4642      	mov	r2, r8
    85be:	1a5c      	subs	r4, r3, r1
    85c0:	1a87      	subs	r7, r0, r2
    85c2:	42a3      	cmp	r3, r4
    85c4:	4192      	sbcs	r2, r2
    85c6:	4252      	negs	r2, r2
    85c8:	1abf      	subs	r7, r7, r2
    85ca:	023a      	lsls	r2, r7, #8
    85cc:	d53d      	bpl.n	864a <__aeabi_dadd+0x632>
    85ce:	1acc      	subs	r4, r1, r3
    85d0:	42a1      	cmp	r1, r4
    85d2:	4189      	sbcs	r1, r1
    85d4:	4643      	mov	r3, r8
    85d6:	4249      	negs	r1, r1
    85d8:	1a1f      	subs	r7, r3, r0
    85da:	4655      	mov	r5, sl
    85dc:	1a7f      	subs	r7, r7, r1
    85de:	e595      	b.n	810c <__aeabi_dadd+0xf4>
    85e0:	077b      	lsls	r3, r7, #29
    85e2:	08c9      	lsrs	r1, r1, #3
    85e4:	430b      	orrs	r3, r1
    85e6:	08f8      	lsrs	r0, r7, #3
    85e8:	e643      	b.n	8272 <__aeabi_dadd+0x25a>
    85ea:	4644      	mov	r4, r8
    85ec:	08db      	lsrs	r3, r3, #3
    85ee:	430c      	orrs	r4, r1
    85f0:	d130      	bne.n	8654 <__aeabi_dadd+0x63c>
    85f2:	0742      	lsls	r2, r0, #29
    85f4:	4313      	orrs	r3, r2
    85f6:	08c0      	lsrs	r0, r0, #3
    85f8:	e65c      	b.n	82b4 <__aeabi_dadd+0x29c>
    85fa:	077b      	lsls	r3, r7, #29
    85fc:	08c9      	lsrs	r1, r1, #3
    85fe:	430b      	orrs	r3, r1
    8600:	08f8      	lsrs	r0, r7, #3
    8602:	e639      	b.n	8278 <__aeabi_dadd+0x260>
    8604:	185c      	adds	r4, r3, r1
    8606:	429c      	cmp	r4, r3
    8608:	419b      	sbcs	r3, r3
    860a:	4440      	add	r0, r8
    860c:	425b      	negs	r3, r3
    860e:	18c7      	adds	r7, r0, r3
    8610:	023b      	lsls	r3, r7, #8
    8612:	d400      	bmi.n	8616 <__aeabi_dadd+0x5fe>
    8614:	e625      	b.n	8262 <__aeabi_dadd+0x24a>
    8616:	4b1d      	ldr	r3, [pc, #116]	; (868c <__aeabi_dadd+0x674>)
    8618:	2601      	movs	r6, #1
    861a:	401f      	ands	r7, r3
    861c:	e621      	b.n	8262 <__aeabi_dadd+0x24a>
    861e:	0004      	movs	r4, r0
    8620:	3a20      	subs	r2, #32
    8622:	40d4      	lsrs	r4, r2
    8624:	4662      	mov	r2, ip
    8626:	2a20      	cmp	r2, #32
    8628:	d004      	beq.n	8634 <__aeabi_dadd+0x61c>
    862a:	2240      	movs	r2, #64	; 0x40
    862c:	4666      	mov	r6, ip
    862e:	1b92      	subs	r2, r2, r6
    8630:	4090      	lsls	r0, r2
    8632:	4303      	orrs	r3, r0
    8634:	1e5a      	subs	r2, r3, #1
    8636:	4193      	sbcs	r3, r2
    8638:	431c      	orrs	r4, r3
    863a:	e67e      	b.n	833a <__aeabi_dadd+0x322>
    863c:	185c      	adds	r4, r3, r1
    863e:	428c      	cmp	r4, r1
    8640:	4189      	sbcs	r1, r1
    8642:	4440      	add	r0, r8
    8644:	4249      	negs	r1, r1
    8646:	1847      	adds	r7, r0, r1
    8648:	e6dd      	b.n	8406 <__aeabi_dadd+0x3ee>
    864a:	0023      	movs	r3, r4
    864c:	433b      	orrs	r3, r7
    864e:	d100      	bne.n	8652 <__aeabi_dadd+0x63a>
    8650:	e6ad      	b.n	83ae <__aeabi_dadd+0x396>
    8652:	e606      	b.n	8262 <__aeabi_dadd+0x24a>
    8654:	0744      	lsls	r4, r0, #29
    8656:	4323      	orrs	r3, r4
    8658:	2480      	movs	r4, #128	; 0x80
    865a:	08c0      	lsrs	r0, r0, #3
    865c:	0324      	lsls	r4, r4, #12
    865e:	4220      	tst	r0, r4
    8660:	d008      	beq.n	8674 <__aeabi_dadd+0x65c>
    8662:	4642      	mov	r2, r8
    8664:	08d6      	lsrs	r6, r2, #3
    8666:	4226      	tst	r6, r4
    8668:	d104      	bne.n	8674 <__aeabi_dadd+0x65c>
    866a:	4655      	mov	r5, sl
    866c:	0030      	movs	r0, r6
    866e:	08cb      	lsrs	r3, r1, #3
    8670:	0751      	lsls	r1, r2, #29
    8672:	430b      	orrs	r3, r1
    8674:	0f5a      	lsrs	r2, r3, #29
    8676:	00db      	lsls	r3, r3, #3
    8678:	08db      	lsrs	r3, r3, #3
    867a:	0752      	lsls	r2, r2, #29
    867c:	4313      	orrs	r3, r2
    867e:	e619      	b.n	82b4 <__aeabi_dadd+0x29c>
    8680:	2300      	movs	r3, #0
    8682:	4a01      	ldr	r2, [pc, #4]	; (8688 <__aeabi_dadd+0x670>)
    8684:	001f      	movs	r7, r3
    8686:	e55e      	b.n	8146 <__aeabi_dadd+0x12e>
    8688:	000007ff 	.word	0x000007ff
    868c:	ff7fffff 	.word	0xff7fffff

00008690 <__aeabi_ddiv>:
    8690:	b5f0      	push	{r4, r5, r6, r7, lr}
    8692:	4657      	mov	r7, sl
    8694:	464e      	mov	r6, r9
    8696:	4645      	mov	r5, r8
    8698:	46de      	mov	lr, fp
    869a:	b5e0      	push	{r5, r6, r7, lr}
    869c:	4681      	mov	r9, r0
    869e:	0005      	movs	r5, r0
    86a0:	030c      	lsls	r4, r1, #12
    86a2:	0048      	lsls	r0, r1, #1
    86a4:	4692      	mov	sl, r2
    86a6:	001f      	movs	r7, r3
    86a8:	b085      	sub	sp, #20
    86aa:	0b24      	lsrs	r4, r4, #12
    86ac:	0d40      	lsrs	r0, r0, #21
    86ae:	0fce      	lsrs	r6, r1, #31
    86b0:	2800      	cmp	r0, #0
    86b2:	d100      	bne.n	86b6 <__aeabi_ddiv+0x26>
    86b4:	e156      	b.n	8964 <__aeabi_ddiv+0x2d4>
    86b6:	4bd4      	ldr	r3, [pc, #848]	; (8a08 <__aeabi_ddiv+0x378>)
    86b8:	4298      	cmp	r0, r3
    86ba:	d100      	bne.n	86be <__aeabi_ddiv+0x2e>
    86bc:	e172      	b.n	89a4 <__aeabi_ddiv+0x314>
    86be:	0f6b      	lsrs	r3, r5, #29
    86c0:	00e4      	lsls	r4, r4, #3
    86c2:	431c      	orrs	r4, r3
    86c4:	2380      	movs	r3, #128	; 0x80
    86c6:	041b      	lsls	r3, r3, #16
    86c8:	4323      	orrs	r3, r4
    86ca:	4698      	mov	r8, r3
    86cc:	4bcf      	ldr	r3, [pc, #828]	; (8a0c <__aeabi_ddiv+0x37c>)
    86ce:	00ed      	lsls	r5, r5, #3
    86d0:	469b      	mov	fp, r3
    86d2:	2300      	movs	r3, #0
    86d4:	4699      	mov	r9, r3
    86d6:	4483      	add	fp, r0
    86d8:	9300      	str	r3, [sp, #0]
    86da:	033c      	lsls	r4, r7, #12
    86dc:	007b      	lsls	r3, r7, #1
    86de:	4650      	mov	r0, sl
    86e0:	0b24      	lsrs	r4, r4, #12
    86e2:	0d5b      	lsrs	r3, r3, #21
    86e4:	0fff      	lsrs	r7, r7, #31
    86e6:	2b00      	cmp	r3, #0
    86e8:	d100      	bne.n	86ec <__aeabi_ddiv+0x5c>
    86ea:	e11f      	b.n	892c <__aeabi_ddiv+0x29c>
    86ec:	4ac6      	ldr	r2, [pc, #792]	; (8a08 <__aeabi_ddiv+0x378>)
    86ee:	4293      	cmp	r3, r2
    86f0:	d100      	bne.n	86f4 <__aeabi_ddiv+0x64>
    86f2:	e162      	b.n	89ba <__aeabi_ddiv+0x32a>
    86f4:	49c5      	ldr	r1, [pc, #788]	; (8a0c <__aeabi_ddiv+0x37c>)
    86f6:	0f42      	lsrs	r2, r0, #29
    86f8:	468c      	mov	ip, r1
    86fa:	00e4      	lsls	r4, r4, #3
    86fc:	4659      	mov	r1, fp
    86fe:	4314      	orrs	r4, r2
    8700:	2280      	movs	r2, #128	; 0x80
    8702:	4463      	add	r3, ip
    8704:	0412      	lsls	r2, r2, #16
    8706:	1acb      	subs	r3, r1, r3
    8708:	4314      	orrs	r4, r2
    870a:	469b      	mov	fp, r3
    870c:	00c2      	lsls	r2, r0, #3
    870e:	2000      	movs	r0, #0
    8710:	0033      	movs	r3, r6
    8712:	407b      	eors	r3, r7
    8714:	469a      	mov	sl, r3
    8716:	464b      	mov	r3, r9
    8718:	2b0f      	cmp	r3, #15
    871a:	d827      	bhi.n	876c <__aeabi_ddiv+0xdc>
    871c:	49bc      	ldr	r1, [pc, #752]	; (8a10 <__aeabi_ddiv+0x380>)
    871e:	009b      	lsls	r3, r3, #2
    8720:	58cb      	ldr	r3, [r1, r3]
    8722:	469f      	mov	pc, r3
    8724:	46b2      	mov	sl, r6
    8726:	9b00      	ldr	r3, [sp, #0]
    8728:	2b02      	cmp	r3, #2
    872a:	d016      	beq.n	875a <__aeabi_ddiv+0xca>
    872c:	2b03      	cmp	r3, #3
    872e:	d100      	bne.n	8732 <__aeabi_ddiv+0xa2>
    8730:	e28e      	b.n	8c50 <__aeabi_ddiv+0x5c0>
    8732:	2b01      	cmp	r3, #1
    8734:	d000      	beq.n	8738 <__aeabi_ddiv+0xa8>
    8736:	e0d9      	b.n	88ec <__aeabi_ddiv+0x25c>
    8738:	2300      	movs	r3, #0
    873a:	2400      	movs	r4, #0
    873c:	2500      	movs	r5, #0
    873e:	4652      	mov	r2, sl
    8740:	051b      	lsls	r3, r3, #20
    8742:	4323      	orrs	r3, r4
    8744:	07d2      	lsls	r2, r2, #31
    8746:	4313      	orrs	r3, r2
    8748:	0028      	movs	r0, r5
    874a:	0019      	movs	r1, r3
    874c:	b005      	add	sp, #20
    874e:	bcf0      	pop	{r4, r5, r6, r7}
    8750:	46bb      	mov	fp, r7
    8752:	46b2      	mov	sl, r6
    8754:	46a9      	mov	r9, r5
    8756:	46a0      	mov	r8, r4
    8758:	bdf0      	pop	{r4, r5, r6, r7, pc}
    875a:	2400      	movs	r4, #0
    875c:	2500      	movs	r5, #0
    875e:	4baa      	ldr	r3, [pc, #680]	; (8a08 <__aeabi_ddiv+0x378>)
    8760:	e7ed      	b.n	873e <__aeabi_ddiv+0xae>
    8762:	46ba      	mov	sl, r7
    8764:	46a0      	mov	r8, r4
    8766:	0015      	movs	r5, r2
    8768:	9000      	str	r0, [sp, #0]
    876a:	e7dc      	b.n	8726 <__aeabi_ddiv+0x96>
    876c:	4544      	cmp	r4, r8
    876e:	d200      	bcs.n	8772 <__aeabi_ddiv+0xe2>
    8770:	e1c7      	b.n	8b02 <__aeabi_ddiv+0x472>
    8772:	d100      	bne.n	8776 <__aeabi_ddiv+0xe6>
    8774:	e1c2      	b.n	8afc <__aeabi_ddiv+0x46c>
    8776:	2301      	movs	r3, #1
    8778:	425b      	negs	r3, r3
    877a:	469c      	mov	ip, r3
    877c:	002e      	movs	r6, r5
    877e:	4640      	mov	r0, r8
    8780:	2500      	movs	r5, #0
    8782:	44e3      	add	fp, ip
    8784:	0223      	lsls	r3, r4, #8
    8786:	0e14      	lsrs	r4, r2, #24
    8788:	431c      	orrs	r4, r3
    878a:	0c1b      	lsrs	r3, r3, #16
    878c:	4699      	mov	r9, r3
    878e:	0423      	lsls	r3, r4, #16
    8790:	0c1f      	lsrs	r7, r3, #16
    8792:	0212      	lsls	r2, r2, #8
    8794:	4649      	mov	r1, r9
    8796:	9200      	str	r2, [sp, #0]
    8798:	9701      	str	r7, [sp, #4]
    879a:	f7fe fdd9 	bl	7350 <__aeabi_uidivmod>
    879e:	0002      	movs	r2, r0
    87a0:	437a      	muls	r2, r7
    87a2:	040b      	lsls	r3, r1, #16
    87a4:	0c31      	lsrs	r1, r6, #16
    87a6:	4680      	mov	r8, r0
    87a8:	4319      	orrs	r1, r3
    87aa:	428a      	cmp	r2, r1
    87ac:	d907      	bls.n	87be <__aeabi_ddiv+0x12e>
    87ae:	2301      	movs	r3, #1
    87b0:	425b      	negs	r3, r3
    87b2:	469c      	mov	ip, r3
    87b4:	1909      	adds	r1, r1, r4
    87b6:	44e0      	add	r8, ip
    87b8:	428c      	cmp	r4, r1
    87ba:	d800      	bhi.n	87be <__aeabi_ddiv+0x12e>
    87bc:	e207      	b.n	8bce <__aeabi_ddiv+0x53e>
    87be:	1a88      	subs	r0, r1, r2
    87c0:	4649      	mov	r1, r9
    87c2:	f7fe fdc5 	bl	7350 <__aeabi_uidivmod>
    87c6:	0409      	lsls	r1, r1, #16
    87c8:	468c      	mov	ip, r1
    87ca:	0431      	lsls	r1, r6, #16
    87cc:	4666      	mov	r6, ip
    87ce:	9a01      	ldr	r2, [sp, #4]
    87d0:	0c09      	lsrs	r1, r1, #16
    87d2:	4342      	muls	r2, r0
    87d4:	0003      	movs	r3, r0
    87d6:	4331      	orrs	r1, r6
    87d8:	428a      	cmp	r2, r1
    87da:	d904      	bls.n	87e6 <__aeabi_ddiv+0x156>
    87dc:	1909      	adds	r1, r1, r4
    87de:	3b01      	subs	r3, #1
    87e0:	428c      	cmp	r4, r1
    87e2:	d800      	bhi.n	87e6 <__aeabi_ddiv+0x156>
    87e4:	e1ed      	b.n	8bc2 <__aeabi_ddiv+0x532>
    87e6:	1a88      	subs	r0, r1, r2
    87e8:	4642      	mov	r2, r8
    87ea:	0412      	lsls	r2, r2, #16
    87ec:	431a      	orrs	r2, r3
    87ee:	4690      	mov	r8, r2
    87f0:	4641      	mov	r1, r8
    87f2:	9b00      	ldr	r3, [sp, #0]
    87f4:	040e      	lsls	r6, r1, #16
    87f6:	0c1b      	lsrs	r3, r3, #16
    87f8:	001f      	movs	r7, r3
    87fa:	9302      	str	r3, [sp, #8]
    87fc:	9b00      	ldr	r3, [sp, #0]
    87fe:	0c36      	lsrs	r6, r6, #16
    8800:	041b      	lsls	r3, r3, #16
    8802:	0c19      	lsrs	r1, r3, #16
    8804:	000b      	movs	r3, r1
    8806:	4373      	muls	r3, r6
    8808:	0c12      	lsrs	r2, r2, #16
    880a:	437e      	muls	r6, r7
    880c:	9103      	str	r1, [sp, #12]
    880e:	4351      	muls	r1, r2
    8810:	437a      	muls	r2, r7
    8812:	0c1f      	lsrs	r7, r3, #16
    8814:	46bc      	mov	ip, r7
    8816:	1876      	adds	r6, r6, r1
    8818:	4466      	add	r6, ip
    881a:	42b1      	cmp	r1, r6
    881c:	d903      	bls.n	8826 <__aeabi_ddiv+0x196>
    881e:	2180      	movs	r1, #128	; 0x80
    8820:	0249      	lsls	r1, r1, #9
    8822:	468c      	mov	ip, r1
    8824:	4462      	add	r2, ip
    8826:	0c31      	lsrs	r1, r6, #16
    8828:	188a      	adds	r2, r1, r2
    882a:	0431      	lsls	r1, r6, #16
    882c:	041e      	lsls	r6, r3, #16
    882e:	0c36      	lsrs	r6, r6, #16
    8830:	198e      	adds	r6, r1, r6
    8832:	4290      	cmp	r0, r2
    8834:	d302      	bcc.n	883c <__aeabi_ddiv+0x1ac>
    8836:	d112      	bne.n	885e <__aeabi_ddiv+0x1ce>
    8838:	42b5      	cmp	r5, r6
    883a:	d210      	bcs.n	885e <__aeabi_ddiv+0x1ce>
    883c:	4643      	mov	r3, r8
    883e:	1e59      	subs	r1, r3, #1
    8840:	9b00      	ldr	r3, [sp, #0]
    8842:	469c      	mov	ip, r3
    8844:	4465      	add	r5, ip
    8846:	001f      	movs	r7, r3
    8848:	429d      	cmp	r5, r3
    884a:	419b      	sbcs	r3, r3
    884c:	425b      	negs	r3, r3
    884e:	191b      	adds	r3, r3, r4
    8850:	18c0      	adds	r0, r0, r3
    8852:	4284      	cmp	r4, r0
    8854:	d200      	bcs.n	8858 <__aeabi_ddiv+0x1c8>
    8856:	e1a0      	b.n	8b9a <__aeabi_ddiv+0x50a>
    8858:	d100      	bne.n	885c <__aeabi_ddiv+0x1cc>
    885a:	e19b      	b.n	8b94 <__aeabi_ddiv+0x504>
    885c:	4688      	mov	r8, r1
    885e:	1bae      	subs	r6, r5, r6
    8860:	42b5      	cmp	r5, r6
    8862:	41ad      	sbcs	r5, r5
    8864:	1a80      	subs	r0, r0, r2
    8866:	426d      	negs	r5, r5
    8868:	1b40      	subs	r0, r0, r5
    886a:	4284      	cmp	r4, r0
    886c:	d100      	bne.n	8870 <__aeabi_ddiv+0x1e0>
    886e:	e1d5      	b.n	8c1c <__aeabi_ddiv+0x58c>
    8870:	4649      	mov	r1, r9
    8872:	f7fe fd6d 	bl	7350 <__aeabi_uidivmod>
    8876:	9a01      	ldr	r2, [sp, #4]
    8878:	040b      	lsls	r3, r1, #16
    887a:	4342      	muls	r2, r0
    887c:	0c31      	lsrs	r1, r6, #16
    887e:	0005      	movs	r5, r0
    8880:	4319      	orrs	r1, r3
    8882:	428a      	cmp	r2, r1
    8884:	d900      	bls.n	8888 <__aeabi_ddiv+0x1f8>
    8886:	e16c      	b.n	8b62 <__aeabi_ddiv+0x4d2>
    8888:	1a88      	subs	r0, r1, r2
    888a:	4649      	mov	r1, r9
    888c:	f7fe fd60 	bl	7350 <__aeabi_uidivmod>
    8890:	9a01      	ldr	r2, [sp, #4]
    8892:	0436      	lsls	r6, r6, #16
    8894:	4342      	muls	r2, r0
    8896:	0409      	lsls	r1, r1, #16
    8898:	0c36      	lsrs	r6, r6, #16
    889a:	0003      	movs	r3, r0
    889c:	430e      	orrs	r6, r1
    889e:	42b2      	cmp	r2, r6
    88a0:	d900      	bls.n	88a4 <__aeabi_ddiv+0x214>
    88a2:	e153      	b.n	8b4c <__aeabi_ddiv+0x4bc>
    88a4:	9803      	ldr	r0, [sp, #12]
    88a6:	1ab6      	subs	r6, r6, r2
    88a8:	0002      	movs	r2, r0
    88aa:	042d      	lsls	r5, r5, #16
    88ac:	431d      	orrs	r5, r3
    88ae:	9f02      	ldr	r7, [sp, #8]
    88b0:	042b      	lsls	r3, r5, #16
    88b2:	0c1b      	lsrs	r3, r3, #16
    88b4:	435a      	muls	r2, r3
    88b6:	437b      	muls	r3, r7
    88b8:	469c      	mov	ip, r3
    88ba:	0c29      	lsrs	r1, r5, #16
    88bc:	4348      	muls	r0, r1
    88be:	0c13      	lsrs	r3, r2, #16
    88c0:	4484      	add	ip, r0
    88c2:	4463      	add	r3, ip
    88c4:	4379      	muls	r1, r7
    88c6:	4298      	cmp	r0, r3
    88c8:	d903      	bls.n	88d2 <__aeabi_ddiv+0x242>
    88ca:	2080      	movs	r0, #128	; 0x80
    88cc:	0240      	lsls	r0, r0, #9
    88ce:	4684      	mov	ip, r0
    88d0:	4461      	add	r1, ip
    88d2:	0c18      	lsrs	r0, r3, #16
    88d4:	0412      	lsls	r2, r2, #16
    88d6:	041b      	lsls	r3, r3, #16
    88d8:	0c12      	lsrs	r2, r2, #16
    88da:	1841      	adds	r1, r0, r1
    88dc:	189b      	adds	r3, r3, r2
    88de:	428e      	cmp	r6, r1
    88e0:	d200      	bcs.n	88e4 <__aeabi_ddiv+0x254>
    88e2:	e0ff      	b.n	8ae4 <__aeabi_ddiv+0x454>
    88e4:	d100      	bne.n	88e8 <__aeabi_ddiv+0x258>
    88e6:	e0fa      	b.n	8ade <__aeabi_ddiv+0x44e>
    88e8:	2301      	movs	r3, #1
    88ea:	431d      	orrs	r5, r3
    88ec:	4a49      	ldr	r2, [pc, #292]	; (8a14 <__aeabi_ddiv+0x384>)
    88ee:	445a      	add	r2, fp
    88f0:	2a00      	cmp	r2, #0
    88f2:	dc00      	bgt.n	88f6 <__aeabi_ddiv+0x266>
    88f4:	e0aa      	b.n	8a4c <__aeabi_ddiv+0x3bc>
    88f6:	076b      	lsls	r3, r5, #29
    88f8:	d000      	beq.n	88fc <__aeabi_ddiv+0x26c>
    88fa:	e13d      	b.n	8b78 <__aeabi_ddiv+0x4e8>
    88fc:	08ed      	lsrs	r5, r5, #3
    88fe:	4643      	mov	r3, r8
    8900:	01db      	lsls	r3, r3, #7
    8902:	d506      	bpl.n	8912 <__aeabi_ddiv+0x282>
    8904:	4642      	mov	r2, r8
    8906:	4b44      	ldr	r3, [pc, #272]	; (8a18 <__aeabi_ddiv+0x388>)
    8908:	401a      	ands	r2, r3
    890a:	4690      	mov	r8, r2
    890c:	2280      	movs	r2, #128	; 0x80
    890e:	00d2      	lsls	r2, r2, #3
    8910:	445a      	add	r2, fp
    8912:	4b42      	ldr	r3, [pc, #264]	; (8a1c <__aeabi_ddiv+0x38c>)
    8914:	429a      	cmp	r2, r3
    8916:	dd00      	ble.n	891a <__aeabi_ddiv+0x28a>
    8918:	e71f      	b.n	875a <__aeabi_ddiv+0xca>
    891a:	4643      	mov	r3, r8
    891c:	075b      	lsls	r3, r3, #29
    891e:	431d      	orrs	r5, r3
    8920:	4643      	mov	r3, r8
    8922:	0552      	lsls	r2, r2, #21
    8924:	025c      	lsls	r4, r3, #9
    8926:	0b24      	lsrs	r4, r4, #12
    8928:	0d53      	lsrs	r3, r2, #21
    892a:	e708      	b.n	873e <__aeabi_ddiv+0xae>
    892c:	4652      	mov	r2, sl
    892e:	4322      	orrs	r2, r4
    8930:	d100      	bne.n	8934 <__aeabi_ddiv+0x2a4>
    8932:	e07b      	b.n	8a2c <__aeabi_ddiv+0x39c>
    8934:	2c00      	cmp	r4, #0
    8936:	d100      	bne.n	893a <__aeabi_ddiv+0x2aa>
    8938:	e0fa      	b.n	8b30 <__aeabi_ddiv+0x4a0>
    893a:	0020      	movs	r0, r4
    893c:	f001 f952 	bl	9be4 <__clzsi2>
    8940:	0002      	movs	r2, r0
    8942:	3a0b      	subs	r2, #11
    8944:	231d      	movs	r3, #29
    8946:	0001      	movs	r1, r0
    8948:	1a9b      	subs	r3, r3, r2
    894a:	4652      	mov	r2, sl
    894c:	3908      	subs	r1, #8
    894e:	40da      	lsrs	r2, r3
    8950:	408c      	lsls	r4, r1
    8952:	4314      	orrs	r4, r2
    8954:	4652      	mov	r2, sl
    8956:	408a      	lsls	r2, r1
    8958:	4b31      	ldr	r3, [pc, #196]	; (8a20 <__aeabi_ddiv+0x390>)
    895a:	4458      	add	r0, fp
    895c:	469b      	mov	fp, r3
    895e:	4483      	add	fp, r0
    8960:	2000      	movs	r0, #0
    8962:	e6d5      	b.n	8710 <__aeabi_ddiv+0x80>
    8964:	464b      	mov	r3, r9
    8966:	4323      	orrs	r3, r4
    8968:	4698      	mov	r8, r3
    896a:	d044      	beq.n	89f6 <__aeabi_ddiv+0x366>
    896c:	2c00      	cmp	r4, #0
    896e:	d100      	bne.n	8972 <__aeabi_ddiv+0x2e2>
    8970:	e0ce      	b.n	8b10 <__aeabi_ddiv+0x480>
    8972:	0020      	movs	r0, r4
    8974:	f001 f936 	bl	9be4 <__clzsi2>
    8978:	0001      	movs	r1, r0
    897a:	0002      	movs	r2, r0
    897c:	390b      	subs	r1, #11
    897e:	231d      	movs	r3, #29
    8980:	1a5b      	subs	r3, r3, r1
    8982:	4649      	mov	r1, r9
    8984:	0010      	movs	r0, r2
    8986:	40d9      	lsrs	r1, r3
    8988:	3808      	subs	r0, #8
    898a:	4084      	lsls	r4, r0
    898c:	000b      	movs	r3, r1
    898e:	464d      	mov	r5, r9
    8990:	4323      	orrs	r3, r4
    8992:	4698      	mov	r8, r3
    8994:	4085      	lsls	r5, r0
    8996:	4823      	ldr	r0, [pc, #140]	; (8a24 <__aeabi_ddiv+0x394>)
    8998:	1a83      	subs	r3, r0, r2
    899a:	469b      	mov	fp, r3
    899c:	2300      	movs	r3, #0
    899e:	4699      	mov	r9, r3
    89a0:	9300      	str	r3, [sp, #0]
    89a2:	e69a      	b.n	86da <__aeabi_ddiv+0x4a>
    89a4:	464b      	mov	r3, r9
    89a6:	4323      	orrs	r3, r4
    89a8:	4698      	mov	r8, r3
    89aa:	d11d      	bne.n	89e8 <__aeabi_ddiv+0x358>
    89ac:	2308      	movs	r3, #8
    89ae:	4699      	mov	r9, r3
    89b0:	3b06      	subs	r3, #6
    89b2:	2500      	movs	r5, #0
    89b4:	4683      	mov	fp, r0
    89b6:	9300      	str	r3, [sp, #0]
    89b8:	e68f      	b.n	86da <__aeabi_ddiv+0x4a>
    89ba:	4652      	mov	r2, sl
    89bc:	4322      	orrs	r2, r4
    89be:	d109      	bne.n	89d4 <__aeabi_ddiv+0x344>
    89c0:	2302      	movs	r3, #2
    89c2:	4649      	mov	r1, r9
    89c4:	4319      	orrs	r1, r3
    89c6:	4b18      	ldr	r3, [pc, #96]	; (8a28 <__aeabi_ddiv+0x398>)
    89c8:	4689      	mov	r9, r1
    89ca:	469c      	mov	ip, r3
    89cc:	2400      	movs	r4, #0
    89ce:	2002      	movs	r0, #2
    89d0:	44e3      	add	fp, ip
    89d2:	e69d      	b.n	8710 <__aeabi_ddiv+0x80>
    89d4:	2303      	movs	r3, #3
    89d6:	464a      	mov	r2, r9
    89d8:	431a      	orrs	r2, r3
    89da:	4b13      	ldr	r3, [pc, #76]	; (8a28 <__aeabi_ddiv+0x398>)
    89dc:	4691      	mov	r9, r2
    89de:	469c      	mov	ip, r3
    89e0:	4652      	mov	r2, sl
    89e2:	2003      	movs	r0, #3
    89e4:	44e3      	add	fp, ip
    89e6:	e693      	b.n	8710 <__aeabi_ddiv+0x80>
    89e8:	230c      	movs	r3, #12
    89ea:	4699      	mov	r9, r3
    89ec:	3b09      	subs	r3, #9
    89ee:	46a0      	mov	r8, r4
    89f0:	4683      	mov	fp, r0
    89f2:	9300      	str	r3, [sp, #0]
    89f4:	e671      	b.n	86da <__aeabi_ddiv+0x4a>
    89f6:	2304      	movs	r3, #4
    89f8:	4699      	mov	r9, r3
    89fa:	2300      	movs	r3, #0
    89fc:	469b      	mov	fp, r3
    89fe:	3301      	adds	r3, #1
    8a00:	2500      	movs	r5, #0
    8a02:	9300      	str	r3, [sp, #0]
    8a04:	e669      	b.n	86da <__aeabi_ddiv+0x4a>
    8a06:	46c0      	nop			; (mov r8, r8)
    8a08:	000007ff 	.word	0x000007ff
    8a0c:	fffffc01 	.word	0xfffffc01
    8a10:	00009f18 	.word	0x00009f18
    8a14:	000003ff 	.word	0x000003ff
    8a18:	feffffff 	.word	0xfeffffff
    8a1c:	000007fe 	.word	0x000007fe
    8a20:	000003f3 	.word	0x000003f3
    8a24:	fffffc0d 	.word	0xfffffc0d
    8a28:	fffff801 	.word	0xfffff801
    8a2c:	4649      	mov	r1, r9
    8a2e:	2301      	movs	r3, #1
    8a30:	4319      	orrs	r1, r3
    8a32:	4689      	mov	r9, r1
    8a34:	2400      	movs	r4, #0
    8a36:	2001      	movs	r0, #1
    8a38:	e66a      	b.n	8710 <__aeabi_ddiv+0x80>
    8a3a:	2300      	movs	r3, #0
    8a3c:	2480      	movs	r4, #128	; 0x80
    8a3e:	469a      	mov	sl, r3
    8a40:	2500      	movs	r5, #0
    8a42:	4b8a      	ldr	r3, [pc, #552]	; (8c6c <__aeabi_ddiv+0x5dc>)
    8a44:	0324      	lsls	r4, r4, #12
    8a46:	e67a      	b.n	873e <__aeabi_ddiv+0xae>
    8a48:	2501      	movs	r5, #1
    8a4a:	426d      	negs	r5, r5
    8a4c:	2301      	movs	r3, #1
    8a4e:	1a9b      	subs	r3, r3, r2
    8a50:	2b38      	cmp	r3, #56	; 0x38
    8a52:	dd00      	ble.n	8a56 <__aeabi_ddiv+0x3c6>
    8a54:	e670      	b.n	8738 <__aeabi_ddiv+0xa8>
    8a56:	2b1f      	cmp	r3, #31
    8a58:	dc00      	bgt.n	8a5c <__aeabi_ddiv+0x3cc>
    8a5a:	e0bf      	b.n	8bdc <__aeabi_ddiv+0x54c>
    8a5c:	211f      	movs	r1, #31
    8a5e:	4249      	negs	r1, r1
    8a60:	1a8a      	subs	r2, r1, r2
    8a62:	4641      	mov	r1, r8
    8a64:	40d1      	lsrs	r1, r2
    8a66:	000a      	movs	r2, r1
    8a68:	2b20      	cmp	r3, #32
    8a6a:	d004      	beq.n	8a76 <__aeabi_ddiv+0x3e6>
    8a6c:	4641      	mov	r1, r8
    8a6e:	4b80      	ldr	r3, [pc, #512]	; (8c70 <__aeabi_ddiv+0x5e0>)
    8a70:	445b      	add	r3, fp
    8a72:	4099      	lsls	r1, r3
    8a74:	430d      	orrs	r5, r1
    8a76:	1e6b      	subs	r3, r5, #1
    8a78:	419d      	sbcs	r5, r3
    8a7a:	2307      	movs	r3, #7
    8a7c:	432a      	orrs	r2, r5
    8a7e:	001d      	movs	r5, r3
    8a80:	2400      	movs	r4, #0
    8a82:	4015      	ands	r5, r2
    8a84:	4213      	tst	r3, r2
    8a86:	d100      	bne.n	8a8a <__aeabi_ddiv+0x3fa>
    8a88:	e0d4      	b.n	8c34 <__aeabi_ddiv+0x5a4>
    8a8a:	210f      	movs	r1, #15
    8a8c:	2300      	movs	r3, #0
    8a8e:	4011      	ands	r1, r2
    8a90:	2904      	cmp	r1, #4
    8a92:	d100      	bne.n	8a96 <__aeabi_ddiv+0x406>
    8a94:	e0cb      	b.n	8c2e <__aeabi_ddiv+0x59e>
    8a96:	1d11      	adds	r1, r2, #4
    8a98:	4291      	cmp	r1, r2
    8a9a:	4192      	sbcs	r2, r2
    8a9c:	4252      	negs	r2, r2
    8a9e:	189b      	adds	r3, r3, r2
    8aa0:	000a      	movs	r2, r1
    8aa2:	0219      	lsls	r1, r3, #8
    8aa4:	d400      	bmi.n	8aa8 <__aeabi_ddiv+0x418>
    8aa6:	e0c2      	b.n	8c2e <__aeabi_ddiv+0x59e>
    8aa8:	2301      	movs	r3, #1
    8aaa:	2400      	movs	r4, #0
    8aac:	2500      	movs	r5, #0
    8aae:	e646      	b.n	873e <__aeabi_ddiv+0xae>
    8ab0:	2380      	movs	r3, #128	; 0x80
    8ab2:	4641      	mov	r1, r8
    8ab4:	031b      	lsls	r3, r3, #12
    8ab6:	4219      	tst	r1, r3
    8ab8:	d008      	beq.n	8acc <__aeabi_ddiv+0x43c>
    8aba:	421c      	tst	r4, r3
    8abc:	d106      	bne.n	8acc <__aeabi_ddiv+0x43c>
    8abe:	431c      	orrs	r4, r3
    8ac0:	0324      	lsls	r4, r4, #12
    8ac2:	46ba      	mov	sl, r7
    8ac4:	0015      	movs	r5, r2
    8ac6:	4b69      	ldr	r3, [pc, #420]	; (8c6c <__aeabi_ddiv+0x5dc>)
    8ac8:	0b24      	lsrs	r4, r4, #12
    8aca:	e638      	b.n	873e <__aeabi_ddiv+0xae>
    8acc:	2480      	movs	r4, #128	; 0x80
    8ace:	4643      	mov	r3, r8
    8ad0:	0324      	lsls	r4, r4, #12
    8ad2:	431c      	orrs	r4, r3
    8ad4:	0324      	lsls	r4, r4, #12
    8ad6:	46b2      	mov	sl, r6
    8ad8:	4b64      	ldr	r3, [pc, #400]	; (8c6c <__aeabi_ddiv+0x5dc>)
    8ada:	0b24      	lsrs	r4, r4, #12
    8adc:	e62f      	b.n	873e <__aeabi_ddiv+0xae>
    8ade:	2b00      	cmp	r3, #0
    8ae0:	d100      	bne.n	8ae4 <__aeabi_ddiv+0x454>
    8ae2:	e703      	b.n	88ec <__aeabi_ddiv+0x25c>
    8ae4:	19a6      	adds	r6, r4, r6
    8ae6:	1e68      	subs	r0, r5, #1
    8ae8:	42a6      	cmp	r6, r4
    8aea:	d200      	bcs.n	8aee <__aeabi_ddiv+0x45e>
    8aec:	e08d      	b.n	8c0a <__aeabi_ddiv+0x57a>
    8aee:	428e      	cmp	r6, r1
    8af0:	d200      	bcs.n	8af4 <__aeabi_ddiv+0x464>
    8af2:	e0a3      	b.n	8c3c <__aeabi_ddiv+0x5ac>
    8af4:	d100      	bne.n	8af8 <__aeabi_ddiv+0x468>
    8af6:	e0b3      	b.n	8c60 <__aeabi_ddiv+0x5d0>
    8af8:	0005      	movs	r5, r0
    8afa:	e6f5      	b.n	88e8 <__aeabi_ddiv+0x258>
    8afc:	42aa      	cmp	r2, r5
    8afe:	d900      	bls.n	8b02 <__aeabi_ddiv+0x472>
    8b00:	e639      	b.n	8776 <__aeabi_ddiv+0xe6>
    8b02:	4643      	mov	r3, r8
    8b04:	07de      	lsls	r6, r3, #31
    8b06:	0858      	lsrs	r0, r3, #1
    8b08:	086b      	lsrs	r3, r5, #1
    8b0a:	431e      	orrs	r6, r3
    8b0c:	07ed      	lsls	r5, r5, #31
    8b0e:	e639      	b.n	8784 <__aeabi_ddiv+0xf4>
    8b10:	4648      	mov	r0, r9
    8b12:	f001 f867 	bl	9be4 <__clzsi2>
    8b16:	0001      	movs	r1, r0
    8b18:	0002      	movs	r2, r0
    8b1a:	3115      	adds	r1, #21
    8b1c:	3220      	adds	r2, #32
    8b1e:	291c      	cmp	r1, #28
    8b20:	dc00      	bgt.n	8b24 <__aeabi_ddiv+0x494>
    8b22:	e72c      	b.n	897e <__aeabi_ddiv+0x2ee>
    8b24:	464b      	mov	r3, r9
    8b26:	3808      	subs	r0, #8
    8b28:	4083      	lsls	r3, r0
    8b2a:	2500      	movs	r5, #0
    8b2c:	4698      	mov	r8, r3
    8b2e:	e732      	b.n	8996 <__aeabi_ddiv+0x306>
    8b30:	f001 f858 	bl	9be4 <__clzsi2>
    8b34:	0003      	movs	r3, r0
    8b36:	001a      	movs	r2, r3
    8b38:	3215      	adds	r2, #21
    8b3a:	3020      	adds	r0, #32
    8b3c:	2a1c      	cmp	r2, #28
    8b3e:	dc00      	bgt.n	8b42 <__aeabi_ddiv+0x4b2>
    8b40:	e700      	b.n	8944 <__aeabi_ddiv+0x2b4>
    8b42:	4654      	mov	r4, sl
    8b44:	3b08      	subs	r3, #8
    8b46:	2200      	movs	r2, #0
    8b48:	409c      	lsls	r4, r3
    8b4a:	e705      	b.n	8958 <__aeabi_ddiv+0x2c8>
    8b4c:	1936      	adds	r6, r6, r4
    8b4e:	3b01      	subs	r3, #1
    8b50:	42b4      	cmp	r4, r6
    8b52:	d900      	bls.n	8b56 <__aeabi_ddiv+0x4c6>
    8b54:	e6a6      	b.n	88a4 <__aeabi_ddiv+0x214>
    8b56:	42b2      	cmp	r2, r6
    8b58:	d800      	bhi.n	8b5c <__aeabi_ddiv+0x4cc>
    8b5a:	e6a3      	b.n	88a4 <__aeabi_ddiv+0x214>
    8b5c:	1e83      	subs	r3, r0, #2
    8b5e:	1936      	adds	r6, r6, r4
    8b60:	e6a0      	b.n	88a4 <__aeabi_ddiv+0x214>
    8b62:	1909      	adds	r1, r1, r4
    8b64:	3d01      	subs	r5, #1
    8b66:	428c      	cmp	r4, r1
    8b68:	d900      	bls.n	8b6c <__aeabi_ddiv+0x4dc>
    8b6a:	e68d      	b.n	8888 <__aeabi_ddiv+0x1f8>
    8b6c:	428a      	cmp	r2, r1
    8b6e:	d800      	bhi.n	8b72 <__aeabi_ddiv+0x4e2>
    8b70:	e68a      	b.n	8888 <__aeabi_ddiv+0x1f8>
    8b72:	1e85      	subs	r5, r0, #2
    8b74:	1909      	adds	r1, r1, r4
    8b76:	e687      	b.n	8888 <__aeabi_ddiv+0x1f8>
    8b78:	230f      	movs	r3, #15
    8b7a:	402b      	ands	r3, r5
    8b7c:	2b04      	cmp	r3, #4
    8b7e:	d100      	bne.n	8b82 <__aeabi_ddiv+0x4f2>
    8b80:	e6bc      	b.n	88fc <__aeabi_ddiv+0x26c>
    8b82:	2305      	movs	r3, #5
    8b84:	425b      	negs	r3, r3
    8b86:	42ab      	cmp	r3, r5
    8b88:	419b      	sbcs	r3, r3
    8b8a:	3504      	adds	r5, #4
    8b8c:	425b      	negs	r3, r3
    8b8e:	08ed      	lsrs	r5, r5, #3
    8b90:	4498      	add	r8, r3
    8b92:	e6b4      	b.n	88fe <__aeabi_ddiv+0x26e>
    8b94:	42af      	cmp	r7, r5
    8b96:	d900      	bls.n	8b9a <__aeabi_ddiv+0x50a>
    8b98:	e660      	b.n	885c <__aeabi_ddiv+0x1cc>
    8b9a:	4282      	cmp	r2, r0
    8b9c:	d804      	bhi.n	8ba8 <__aeabi_ddiv+0x518>
    8b9e:	d000      	beq.n	8ba2 <__aeabi_ddiv+0x512>
    8ba0:	e65c      	b.n	885c <__aeabi_ddiv+0x1cc>
    8ba2:	42ae      	cmp	r6, r5
    8ba4:	d800      	bhi.n	8ba8 <__aeabi_ddiv+0x518>
    8ba6:	e659      	b.n	885c <__aeabi_ddiv+0x1cc>
    8ba8:	2302      	movs	r3, #2
    8baa:	425b      	negs	r3, r3
    8bac:	469c      	mov	ip, r3
    8bae:	9b00      	ldr	r3, [sp, #0]
    8bb0:	44e0      	add	r8, ip
    8bb2:	469c      	mov	ip, r3
    8bb4:	4465      	add	r5, ip
    8bb6:	429d      	cmp	r5, r3
    8bb8:	419b      	sbcs	r3, r3
    8bba:	425b      	negs	r3, r3
    8bbc:	191b      	adds	r3, r3, r4
    8bbe:	18c0      	adds	r0, r0, r3
    8bc0:	e64d      	b.n	885e <__aeabi_ddiv+0x1ce>
    8bc2:	428a      	cmp	r2, r1
    8bc4:	d800      	bhi.n	8bc8 <__aeabi_ddiv+0x538>
    8bc6:	e60e      	b.n	87e6 <__aeabi_ddiv+0x156>
    8bc8:	1e83      	subs	r3, r0, #2
    8bca:	1909      	adds	r1, r1, r4
    8bcc:	e60b      	b.n	87e6 <__aeabi_ddiv+0x156>
    8bce:	428a      	cmp	r2, r1
    8bd0:	d800      	bhi.n	8bd4 <__aeabi_ddiv+0x544>
    8bd2:	e5f4      	b.n	87be <__aeabi_ddiv+0x12e>
    8bd4:	1e83      	subs	r3, r0, #2
    8bd6:	4698      	mov	r8, r3
    8bd8:	1909      	adds	r1, r1, r4
    8bda:	e5f0      	b.n	87be <__aeabi_ddiv+0x12e>
    8bdc:	4925      	ldr	r1, [pc, #148]	; (8c74 <__aeabi_ddiv+0x5e4>)
    8bde:	0028      	movs	r0, r5
    8be0:	4459      	add	r1, fp
    8be2:	408d      	lsls	r5, r1
    8be4:	4642      	mov	r2, r8
    8be6:	408a      	lsls	r2, r1
    8be8:	1e69      	subs	r1, r5, #1
    8bea:	418d      	sbcs	r5, r1
    8bec:	4641      	mov	r1, r8
    8bee:	40d8      	lsrs	r0, r3
    8bf0:	40d9      	lsrs	r1, r3
    8bf2:	4302      	orrs	r2, r0
    8bf4:	432a      	orrs	r2, r5
    8bf6:	000b      	movs	r3, r1
    8bf8:	0751      	lsls	r1, r2, #29
    8bfa:	d100      	bne.n	8bfe <__aeabi_ddiv+0x56e>
    8bfc:	e751      	b.n	8aa2 <__aeabi_ddiv+0x412>
    8bfe:	210f      	movs	r1, #15
    8c00:	4011      	ands	r1, r2
    8c02:	2904      	cmp	r1, #4
    8c04:	d000      	beq.n	8c08 <__aeabi_ddiv+0x578>
    8c06:	e746      	b.n	8a96 <__aeabi_ddiv+0x406>
    8c08:	e74b      	b.n	8aa2 <__aeabi_ddiv+0x412>
    8c0a:	0005      	movs	r5, r0
    8c0c:	428e      	cmp	r6, r1
    8c0e:	d000      	beq.n	8c12 <__aeabi_ddiv+0x582>
    8c10:	e66a      	b.n	88e8 <__aeabi_ddiv+0x258>
    8c12:	9a00      	ldr	r2, [sp, #0]
    8c14:	4293      	cmp	r3, r2
    8c16:	d000      	beq.n	8c1a <__aeabi_ddiv+0x58a>
    8c18:	e666      	b.n	88e8 <__aeabi_ddiv+0x258>
    8c1a:	e667      	b.n	88ec <__aeabi_ddiv+0x25c>
    8c1c:	4a16      	ldr	r2, [pc, #88]	; (8c78 <__aeabi_ddiv+0x5e8>)
    8c1e:	445a      	add	r2, fp
    8c20:	2a00      	cmp	r2, #0
    8c22:	dc00      	bgt.n	8c26 <__aeabi_ddiv+0x596>
    8c24:	e710      	b.n	8a48 <__aeabi_ddiv+0x3b8>
    8c26:	2301      	movs	r3, #1
    8c28:	2500      	movs	r5, #0
    8c2a:	4498      	add	r8, r3
    8c2c:	e667      	b.n	88fe <__aeabi_ddiv+0x26e>
    8c2e:	075d      	lsls	r5, r3, #29
    8c30:	025b      	lsls	r3, r3, #9
    8c32:	0b1c      	lsrs	r4, r3, #12
    8c34:	08d2      	lsrs	r2, r2, #3
    8c36:	2300      	movs	r3, #0
    8c38:	4315      	orrs	r5, r2
    8c3a:	e580      	b.n	873e <__aeabi_ddiv+0xae>
    8c3c:	9800      	ldr	r0, [sp, #0]
    8c3e:	3d02      	subs	r5, #2
    8c40:	0042      	lsls	r2, r0, #1
    8c42:	4282      	cmp	r2, r0
    8c44:	41bf      	sbcs	r7, r7
    8c46:	427f      	negs	r7, r7
    8c48:	193c      	adds	r4, r7, r4
    8c4a:	1936      	adds	r6, r6, r4
    8c4c:	9200      	str	r2, [sp, #0]
    8c4e:	e7dd      	b.n	8c0c <__aeabi_ddiv+0x57c>
    8c50:	2480      	movs	r4, #128	; 0x80
    8c52:	4643      	mov	r3, r8
    8c54:	0324      	lsls	r4, r4, #12
    8c56:	431c      	orrs	r4, r3
    8c58:	0324      	lsls	r4, r4, #12
    8c5a:	4b04      	ldr	r3, [pc, #16]	; (8c6c <__aeabi_ddiv+0x5dc>)
    8c5c:	0b24      	lsrs	r4, r4, #12
    8c5e:	e56e      	b.n	873e <__aeabi_ddiv+0xae>
    8c60:	9a00      	ldr	r2, [sp, #0]
    8c62:	429a      	cmp	r2, r3
    8c64:	d3ea      	bcc.n	8c3c <__aeabi_ddiv+0x5ac>
    8c66:	0005      	movs	r5, r0
    8c68:	e7d3      	b.n	8c12 <__aeabi_ddiv+0x582>
    8c6a:	46c0      	nop			; (mov r8, r8)
    8c6c:	000007ff 	.word	0x000007ff
    8c70:	0000043e 	.word	0x0000043e
    8c74:	0000041e 	.word	0x0000041e
    8c78:	000003ff 	.word	0x000003ff

00008c7c <__eqdf2>:
    8c7c:	b5f0      	push	{r4, r5, r6, r7, lr}
    8c7e:	464e      	mov	r6, r9
    8c80:	4645      	mov	r5, r8
    8c82:	46de      	mov	lr, fp
    8c84:	4657      	mov	r7, sl
    8c86:	4690      	mov	r8, r2
    8c88:	b5e0      	push	{r5, r6, r7, lr}
    8c8a:	0017      	movs	r7, r2
    8c8c:	031a      	lsls	r2, r3, #12
    8c8e:	0b12      	lsrs	r2, r2, #12
    8c90:	0005      	movs	r5, r0
    8c92:	4684      	mov	ip, r0
    8c94:	4819      	ldr	r0, [pc, #100]	; (8cfc <__eqdf2+0x80>)
    8c96:	030e      	lsls	r6, r1, #12
    8c98:	004c      	lsls	r4, r1, #1
    8c9a:	4691      	mov	r9, r2
    8c9c:	005a      	lsls	r2, r3, #1
    8c9e:	0fdb      	lsrs	r3, r3, #31
    8ca0:	469b      	mov	fp, r3
    8ca2:	0b36      	lsrs	r6, r6, #12
    8ca4:	0d64      	lsrs	r4, r4, #21
    8ca6:	0fc9      	lsrs	r1, r1, #31
    8ca8:	0d52      	lsrs	r2, r2, #21
    8caa:	4284      	cmp	r4, r0
    8cac:	d019      	beq.n	8ce2 <__eqdf2+0x66>
    8cae:	4282      	cmp	r2, r0
    8cb0:	d010      	beq.n	8cd4 <__eqdf2+0x58>
    8cb2:	2001      	movs	r0, #1
    8cb4:	4294      	cmp	r4, r2
    8cb6:	d10e      	bne.n	8cd6 <__eqdf2+0x5a>
    8cb8:	454e      	cmp	r6, r9
    8cba:	d10c      	bne.n	8cd6 <__eqdf2+0x5a>
    8cbc:	2001      	movs	r0, #1
    8cbe:	45c4      	cmp	ip, r8
    8cc0:	d109      	bne.n	8cd6 <__eqdf2+0x5a>
    8cc2:	4559      	cmp	r1, fp
    8cc4:	d017      	beq.n	8cf6 <__eqdf2+0x7a>
    8cc6:	2c00      	cmp	r4, #0
    8cc8:	d105      	bne.n	8cd6 <__eqdf2+0x5a>
    8cca:	0030      	movs	r0, r6
    8ccc:	4328      	orrs	r0, r5
    8cce:	1e43      	subs	r3, r0, #1
    8cd0:	4198      	sbcs	r0, r3
    8cd2:	e000      	b.n	8cd6 <__eqdf2+0x5a>
    8cd4:	2001      	movs	r0, #1
    8cd6:	bcf0      	pop	{r4, r5, r6, r7}
    8cd8:	46bb      	mov	fp, r7
    8cda:	46b2      	mov	sl, r6
    8cdc:	46a9      	mov	r9, r5
    8cde:	46a0      	mov	r8, r4
    8ce0:	bdf0      	pop	{r4, r5, r6, r7, pc}
    8ce2:	0033      	movs	r3, r6
    8ce4:	2001      	movs	r0, #1
    8ce6:	432b      	orrs	r3, r5
    8ce8:	d1f5      	bne.n	8cd6 <__eqdf2+0x5a>
    8cea:	42a2      	cmp	r2, r4
    8cec:	d1f3      	bne.n	8cd6 <__eqdf2+0x5a>
    8cee:	464b      	mov	r3, r9
    8cf0:	433b      	orrs	r3, r7
    8cf2:	d1f0      	bne.n	8cd6 <__eqdf2+0x5a>
    8cf4:	e7e2      	b.n	8cbc <__eqdf2+0x40>
    8cf6:	2000      	movs	r0, #0
    8cf8:	e7ed      	b.n	8cd6 <__eqdf2+0x5a>
    8cfa:	46c0      	nop			; (mov r8, r8)
    8cfc:	000007ff 	.word	0x000007ff

00008d00 <__gedf2>:
    8d00:	b5f0      	push	{r4, r5, r6, r7, lr}
    8d02:	4647      	mov	r7, r8
    8d04:	46ce      	mov	lr, r9
    8d06:	0004      	movs	r4, r0
    8d08:	0018      	movs	r0, r3
    8d0a:	0016      	movs	r6, r2
    8d0c:	031b      	lsls	r3, r3, #12
    8d0e:	0b1b      	lsrs	r3, r3, #12
    8d10:	4d2d      	ldr	r5, [pc, #180]	; (8dc8 <__gedf2+0xc8>)
    8d12:	004a      	lsls	r2, r1, #1
    8d14:	4699      	mov	r9, r3
    8d16:	b580      	push	{r7, lr}
    8d18:	0043      	lsls	r3, r0, #1
    8d1a:	030f      	lsls	r7, r1, #12
    8d1c:	46a4      	mov	ip, r4
    8d1e:	46b0      	mov	r8, r6
    8d20:	0b3f      	lsrs	r7, r7, #12
    8d22:	0d52      	lsrs	r2, r2, #21
    8d24:	0fc9      	lsrs	r1, r1, #31
    8d26:	0d5b      	lsrs	r3, r3, #21
    8d28:	0fc0      	lsrs	r0, r0, #31
    8d2a:	42aa      	cmp	r2, r5
    8d2c:	d021      	beq.n	8d72 <__gedf2+0x72>
    8d2e:	42ab      	cmp	r3, r5
    8d30:	d013      	beq.n	8d5a <__gedf2+0x5a>
    8d32:	2a00      	cmp	r2, #0
    8d34:	d122      	bne.n	8d7c <__gedf2+0x7c>
    8d36:	433c      	orrs	r4, r7
    8d38:	2b00      	cmp	r3, #0
    8d3a:	d102      	bne.n	8d42 <__gedf2+0x42>
    8d3c:	464d      	mov	r5, r9
    8d3e:	432e      	orrs	r6, r5
    8d40:	d022      	beq.n	8d88 <__gedf2+0x88>
    8d42:	2c00      	cmp	r4, #0
    8d44:	d010      	beq.n	8d68 <__gedf2+0x68>
    8d46:	4281      	cmp	r1, r0
    8d48:	d022      	beq.n	8d90 <__gedf2+0x90>
    8d4a:	2002      	movs	r0, #2
    8d4c:	3901      	subs	r1, #1
    8d4e:	4008      	ands	r0, r1
    8d50:	3801      	subs	r0, #1
    8d52:	bcc0      	pop	{r6, r7}
    8d54:	46b9      	mov	r9, r7
    8d56:	46b0      	mov	r8, r6
    8d58:	bdf0      	pop	{r4, r5, r6, r7, pc}
    8d5a:	464d      	mov	r5, r9
    8d5c:	432e      	orrs	r6, r5
    8d5e:	d129      	bne.n	8db4 <__gedf2+0xb4>
    8d60:	2a00      	cmp	r2, #0
    8d62:	d1f0      	bne.n	8d46 <__gedf2+0x46>
    8d64:	433c      	orrs	r4, r7
    8d66:	d1ee      	bne.n	8d46 <__gedf2+0x46>
    8d68:	2800      	cmp	r0, #0
    8d6a:	d1f2      	bne.n	8d52 <__gedf2+0x52>
    8d6c:	2001      	movs	r0, #1
    8d6e:	4240      	negs	r0, r0
    8d70:	e7ef      	b.n	8d52 <__gedf2+0x52>
    8d72:	003d      	movs	r5, r7
    8d74:	4325      	orrs	r5, r4
    8d76:	d11d      	bne.n	8db4 <__gedf2+0xb4>
    8d78:	4293      	cmp	r3, r2
    8d7a:	d0ee      	beq.n	8d5a <__gedf2+0x5a>
    8d7c:	2b00      	cmp	r3, #0
    8d7e:	d1e2      	bne.n	8d46 <__gedf2+0x46>
    8d80:	464c      	mov	r4, r9
    8d82:	4326      	orrs	r6, r4
    8d84:	d1df      	bne.n	8d46 <__gedf2+0x46>
    8d86:	e7e0      	b.n	8d4a <__gedf2+0x4a>
    8d88:	2000      	movs	r0, #0
    8d8a:	2c00      	cmp	r4, #0
    8d8c:	d0e1      	beq.n	8d52 <__gedf2+0x52>
    8d8e:	e7dc      	b.n	8d4a <__gedf2+0x4a>
    8d90:	429a      	cmp	r2, r3
    8d92:	dc0a      	bgt.n	8daa <__gedf2+0xaa>
    8d94:	dbe8      	blt.n	8d68 <__gedf2+0x68>
    8d96:	454f      	cmp	r7, r9
    8d98:	d8d7      	bhi.n	8d4a <__gedf2+0x4a>
    8d9a:	d00e      	beq.n	8dba <__gedf2+0xba>
    8d9c:	2000      	movs	r0, #0
    8d9e:	454f      	cmp	r7, r9
    8da0:	d2d7      	bcs.n	8d52 <__gedf2+0x52>
    8da2:	2900      	cmp	r1, #0
    8da4:	d0e2      	beq.n	8d6c <__gedf2+0x6c>
    8da6:	0008      	movs	r0, r1
    8da8:	e7d3      	b.n	8d52 <__gedf2+0x52>
    8daa:	4243      	negs	r3, r0
    8dac:	4158      	adcs	r0, r3
    8dae:	0040      	lsls	r0, r0, #1
    8db0:	3801      	subs	r0, #1
    8db2:	e7ce      	b.n	8d52 <__gedf2+0x52>
    8db4:	2002      	movs	r0, #2
    8db6:	4240      	negs	r0, r0
    8db8:	e7cb      	b.n	8d52 <__gedf2+0x52>
    8dba:	45c4      	cmp	ip, r8
    8dbc:	d8c5      	bhi.n	8d4a <__gedf2+0x4a>
    8dbe:	2000      	movs	r0, #0
    8dc0:	45c4      	cmp	ip, r8
    8dc2:	d2c6      	bcs.n	8d52 <__gedf2+0x52>
    8dc4:	e7ed      	b.n	8da2 <__gedf2+0xa2>
    8dc6:	46c0      	nop			; (mov r8, r8)
    8dc8:	000007ff 	.word	0x000007ff

00008dcc <__ledf2>:
    8dcc:	b5f0      	push	{r4, r5, r6, r7, lr}
    8dce:	4647      	mov	r7, r8
    8dd0:	46ce      	mov	lr, r9
    8dd2:	0004      	movs	r4, r0
    8dd4:	0018      	movs	r0, r3
    8dd6:	0016      	movs	r6, r2
    8dd8:	031b      	lsls	r3, r3, #12
    8dda:	0b1b      	lsrs	r3, r3, #12
    8ddc:	4d2c      	ldr	r5, [pc, #176]	; (8e90 <__ledf2+0xc4>)
    8dde:	004a      	lsls	r2, r1, #1
    8de0:	4699      	mov	r9, r3
    8de2:	b580      	push	{r7, lr}
    8de4:	0043      	lsls	r3, r0, #1
    8de6:	030f      	lsls	r7, r1, #12
    8de8:	46a4      	mov	ip, r4
    8dea:	46b0      	mov	r8, r6
    8dec:	0b3f      	lsrs	r7, r7, #12
    8dee:	0d52      	lsrs	r2, r2, #21
    8df0:	0fc9      	lsrs	r1, r1, #31
    8df2:	0d5b      	lsrs	r3, r3, #21
    8df4:	0fc0      	lsrs	r0, r0, #31
    8df6:	42aa      	cmp	r2, r5
    8df8:	d00d      	beq.n	8e16 <__ledf2+0x4a>
    8dfa:	42ab      	cmp	r3, r5
    8dfc:	d010      	beq.n	8e20 <__ledf2+0x54>
    8dfe:	2a00      	cmp	r2, #0
    8e00:	d127      	bne.n	8e52 <__ledf2+0x86>
    8e02:	433c      	orrs	r4, r7
    8e04:	2b00      	cmp	r3, #0
    8e06:	d111      	bne.n	8e2c <__ledf2+0x60>
    8e08:	464d      	mov	r5, r9
    8e0a:	432e      	orrs	r6, r5
    8e0c:	d10e      	bne.n	8e2c <__ledf2+0x60>
    8e0e:	2000      	movs	r0, #0
    8e10:	2c00      	cmp	r4, #0
    8e12:	d015      	beq.n	8e40 <__ledf2+0x74>
    8e14:	e00e      	b.n	8e34 <__ledf2+0x68>
    8e16:	003d      	movs	r5, r7
    8e18:	4325      	orrs	r5, r4
    8e1a:	d110      	bne.n	8e3e <__ledf2+0x72>
    8e1c:	4293      	cmp	r3, r2
    8e1e:	d118      	bne.n	8e52 <__ledf2+0x86>
    8e20:	464d      	mov	r5, r9
    8e22:	432e      	orrs	r6, r5
    8e24:	d10b      	bne.n	8e3e <__ledf2+0x72>
    8e26:	2a00      	cmp	r2, #0
    8e28:	d102      	bne.n	8e30 <__ledf2+0x64>
    8e2a:	433c      	orrs	r4, r7
    8e2c:	2c00      	cmp	r4, #0
    8e2e:	d00b      	beq.n	8e48 <__ledf2+0x7c>
    8e30:	4281      	cmp	r1, r0
    8e32:	d014      	beq.n	8e5e <__ledf2+0x92>
    8e34:	2002      	movs	r0, #2
    8e36:	3901      	subs	r1, #1
    8e38:	4008      	ands	r0, r1
    8e3a:	3801      	subs	r0, #1
    8e3c:	e000      	b.n	8e40 <__ledf2+0x74>
    8e3e:	2002      	movs	r0, #2
    8e40:	bcc0      	pop	{r6, r7}
    8e42:	46b9      	mov	r9, r7
    8e44:	46b0      	mov	r8, r6
    8e46:	bdf0      	pop	{r4, r5, r6, r7, pc}
    8e48:	2800      	cmp	r0, #0
    8e4a:	d1f9      	bne.n	8e40 <__ledf2+0x74>
    8e4c:	2001      	movs	r0, #1
    8e4e:	4240      	negs	r0, r0
    8e50:	e7f6      	b.n	8e40 <__ledf2+0x74>
    8e52:	2b00      	cmp	r3, #0
    8e54:	d1ec      	bne.n	8e30 <__ledf2+0x64>
    8e56:	464c      	mov	r4, r9
    8e58:	4326      	orrs	r6, r4
    8e5a:	d1e9      	bne.n	8e30 <__ledf2+0x64>
    8e5c:	e7ea      	b.n	8e34 <__ledf2+0x68>
    8e5e:	429a      	cmp	r2, r3
    8e60:	dd04      	ble.n	8e6c <__ledf2+0xa0>
    8e62:	4243      	negs	r3, r0
    8e64:	4158      	adcs	r0, r3
    8e66:	0040      	lsls	r0, r0, #1
    8e68:	3801      	subs	r0, #1
    8e6a:	e7e9      	b.n	8e40 <__ledf2+0x74>
    8e6c:	429a      	cmp	r2, r3
    8e6e:	dbeb      	blt.n	8e48 <__ledf2+0x7c>
    8e70:	454f      	cmp	r7, r9
    8e72:	d8df      	bhi.n	8e34 <__ledf2+0x68>
    8e74:	d006      	beq.n	8e84 <__ledf2+0xb8>
    8e76:	2000      	movs	r0, #0
    8e78:	454f      	cmp	r7, r9
    8e7a:	d2e1      	bcs.n	8e40 <__ledf2+0x74>
    8e7c:	2900      	cmp	r1, #0
    8e7e:	d0e5      	beq.n	8e4c <__ledf2+0x80>
    8e80:	0008      	movs	r0, r1
    8e82:	e7dd      	b.n	8e40 <__ledf2+0x74>
    8e84:	45c4      	cmp	ip, r8
    8e86:	d8d5      	bhi.n	8e34 <__ledf2+0x68>
    8e88:	2000      	movs	r0, #0
    8e8a:	45c4      	cmp	ip, r8
    8e8c:	d2d8      	bcs.n	8e40 <__ledf2+0x74>
    8e8e:	e7f5      	b.n	8e7c <__ledf2+0xb0>
    8e90:	000007ff 	.word	0x000007ff

00008e94 <__aeabi_dmul>:
    8e94:	b5f0      	push	{r4, r5, r6, r7, lr}
    8e96:	4657      	mov	r7, sl
    8e98:	464e      	mov	r6, r9
    8e9a:	4645      	mov	r5, r8
    8e9c:	46de      	mov	lr, fp
    8e9e:	b5e0      	push	{r5, r6, r7, lr}
    8ea0:	4698      	mov	r8, r3
    8ea2:	030c      	lsls	r4, r1, #12
    8ea4:	004b      	lsls	r3, r1, #1
    8ea6:	0006      	movs	r6, r0
    8ea8:	4692      	mov	sl, r2
    8eaa:	b087      	sub	sp, #28
    8eac:	0b24      	lsrs	r4, r4, #12
    8eae:	0d5b      	lsrs	r3, r3, #21
    8eb0:	0fcf      	lsrs	r7, r1, #31
    8eb2:	2b00      	cmp	r3, #0
    8eb4:	d100      	bne.n	8eb8 <__aeabi_dmul+0x24>
    8eb6:	e15c      	b.n	9172 <__aeabi_dmul+0x2de>
    8eb8:	4ad9      	ldr	r2, [pc, #868]	; (9220 <__aeabi_dmul+0x38c>)
    8eba:	4293      	cmp	r3, r2
    8ebc:	d100      	bne.n	8ec0 <__aeabi_dmul+0x2c>
    8ebe:	e175      	b.n	91ac <__aeabi_dmul+0x318>
    8ec0:	0f42      	lsrs	r2, r0, #29
    8ec2:	00e4      	lsls	r4, r4, #3
    8ec4:	4314      	orrs	r4, r2
    8ec6:	2280      	movs	r2, #128	; 0x80
    8ec8:	0412      	lsls	r2, r2, #16
    8eca:	4314      	orrs	r4, r2
    8ecc:	4ad5      	ldr	r2, [pc, #852]	; (9224 <__aeabi_dmul+0x390>)
    8ece:	00c5      	lsls	r5, r0, #3
    8ed0:	4694      	mov	ip, r2
    8ed2:	4463      	add	r3, ip
    8ed4:	9300      	str	r3, [sp, #0]
    8ed6:	2300      	movs	r3, #0
    8ed8:	4699      	mov	r9, r3
    8eda:	469b      	mov	fp, r3
    8edc:	4643      	mov	r3, r8
    8ede:	4642      	mov	r2, r8
    8ee0:	031e      	lsls	r6, r3, #12
    8ee2:	0fd2      	lsrs	r2, r2, #31
    8ee4:	005b      	lsls	r3, r3, #1
    8ee6:	4650      	mov	r0, sl
    8ee8:	4690      	mov	r8, r2
    8eea:	0b36      	lsrs	r6, r6, #12
    8eec:	0d5b      	lsrs	r3, r3, #21
    8eee:	d100      	bne.n	8ef2 <__aeabi_dmul+0x5e>
    8ef0:	e120      	b.n	9134 <__aeabi_dmul+0x2a0>
    8ef2:	4acb      	ldr	r2, [pc, #812]	; (9220 <__aeabi_dmul+0x38c>)
    8ef4:	4293      	cmp	r3, r2
    8ef6:	d100      	bne.n	8efa <__aeabi_dmul+0x66>
    8ef8:	e162      	b.n	91c0 <__aeabi_dmul+0x32c>
    8efa:	49ca      	ldr	r1, [pc, #808]	; (9224 <__aeabi_dmul+0x390>)
    8efc:	0f42      	lsrs	r2, r0, #29
    8efe:	468c      	mov	ip, r1
    8f00:	9900      	ldr	r1, [sp, #0]
    8f02:	4463      	add	r3, ip
    8f04:	00f6      	lsls	r6, r6, #3
    8f06:	468c      	mov	ip, r1
    8f08:	4316      	orrs	r6, r2
    8f0a:	2280      	movs	r2, #128	; 0x80
    8f0c:	449c      	add	ip, r3
    8f0e:	0412      	lsls	r2, r2, #16
    8f10:	4663      	mov	r3, ip
    8f12:	4316      	orrs	r6, r2
    8f14:	00c2      	lsls	r2, r0, #3
    8f16:	2000      	movs	r0, #0
    8f18:	9300      	str	r3, [sp, #0]
    8f1a:	9900      	ldr	r1, [sp, #0]
    8f1c:	4643      	mov	r3, r8
    8f1e:	3101      	adds	r1, #1
    8f20:	468c      	mov	ip, r1
    8f22:	4649      	mov	r1, r9
    8f24:	407b      	eors	r3, r7
    8f26:	9301      	str	r3, [sp, #4]
    8f28:	290f      	cmp	r1, #15
    8f2a:	d826      	bhi.n	8f7a <__aeabi_dmul+0xe6>
    8f2c:	4bbe      	ldr	r3, [pc, #760]	; (9228 <__aeabi_dmul+0x394>)
    8f2e:	0089      	lsls	r1, r1, #2
    8f30:	5859      	ldr	r1, [r3, r1]
    8f32:	468f      	mov	pc, r1
    8f34:	4643      	mov	r3, r8
    8f36:	9301      	str	r3, [sp, #4]
    8f38:	0034      	movs	r4, r6
    8f3a:	0015      	movs	r5, r2
    8f3c:	4683      	mov	fp, r0
    8f3e:	465b      	mov	r3, fp
    8f40:	2b02      	cmp	r3, #2
    8f42:	d016      	beq.n	8f72 <__aeabi_dmul+0xde>
    8f44:	2b03      	cmp	r3, #3
    8f46:	d100      	bne.n	8f4a <__aeabi_dmul+0xb6>
    8f48:	e203      	b.n	9352 <__aeabi_dmul+0x4be>
    8f4a:	2b01      	cmp	r3, #1
    8f4c:	d000      	beq.n	8f50 <__aeabi_dmul+0xbc>
    8f4e:	e0cd      	b.n	90ec <__aeabi_dmul+0x258>
    8f50:	2200      	movs	r2, #0
    8f52:	2400      	movs	r4, #0
    8f54:	2500      	movs	r5, #0
    8f56:	9b01      	ldr	r3, [sp, #4]
    8f58:	0512      	lsls	r2, r2, #20
    8f5a:	4322      	orrs	r2, r4
    8f5c:	07db      	lsls	r3, r3, #31
    8f5e:	431a      	orrs	r2, r3
    8f60:	0028      	movs	r0, r5
    8f62:	0011      	movs	r1, r2
    8f64:	b007      	add	sp, #28
    8f66:	bcf0      	pop	{r4, r5, r6, r7}
    8f68:	46bb      	mov	fp, r7
    8f6a:	46b2      	mov	sl, r6
    8f6c:	46a9      	mov	r9, r5
    8f6e:	46a0      	mov	r8, r4
    8f70:	bdf0      	pop	{r4, r5, r6, r7, pc}
    8f72:	2400      	movs	r4, #0
    8f74:	2500      	movs	r5, #0
    8f76:	4aaa      	ldr	r2, [pc, #680]	; (9220 <__aeabi_dmul+0x38c>)
    8f78:	e7ed      	b.n	8f56 <__aeabi_dmul+0xc2>
    8f7a:	0c28      	lsrs	r0, r5, #16
    8f7c:	042d      	lsls	r5, r5, #16
    8f7e:	0c2d      	lsrs	r5, r5, #16
    8f80:	002b      	movs	r3, r5
    8f82:	0c11      	lsrs	r1, r2, #16
    8f84:	0412      	lsls	r2, r2, #16
    8f86:	0c12      	lsrs	r2, r2, #16
    8f88:	4353      	muls	r3, r2
    8f8a:	4698      	mov	r8, r3
    8f8c:	0013      	movs	r3, r2
    8f8e:	002f      	movs	r7, r5
    8f90:	4343      	muls	r3, r0
    8f92:	4699      	mov	r9, r3
    8f94:	434f      	muls	r7, r1
    8f96:	444f      	add	r7, r9
    8f98:	46bb      	mov	fp, r7
    8f9a:	4647      	mov	r7, r8
    8f9c:	000b      	movs	r3, r1
    8f9e:	0c3f      	lsrs	r7, r7, #16
    8fa0:	46ba      	mov	sl, r7
    8fa2:	4343      	muls	r3, r0
    8fa4:	44da      	add	sl, fp
    8fa6:	9302      	str	r3, [sp, #8]
    8fa8:	45d1      	cmp	r9, sl
    8faa:	d904      	bls.n	8fb6 <__aeabi_dmul+0x122>
    8fac:	2780      	movs	r7, #128	; 0x80
    8fae:	027f      	lsls	r7, r7, #9
    8fb0:	46b9      	mov	r9, r7
    8fb2:	444b      	add	r3, r9
    8fb4:	9302      	str	r3, [sp, #8]
    8fb6:	4653      	mov	r3, sl
    8fb8:	0c1b      	lsrs	r3, r3, #16
    8fba:	469b      	mov	fp, r3
    8fbc:	4653      	mov	r3, sl
    8fbe:	041f      	lsls	r7, r3, #16
    8fc0:	4643      	mov	r3, r8
    8fc2:	041b      	lsls	r3, r3, #16
    8fc4:	0c1b      	lsrs	r3, r3, #16
    8fc6:	4698      	mov	r8, r3
    8fc8:	003b      	movs	r3, r7
    8fca:	4443      	add	r3, r8
    8fcc:	9304      	str	r3, [sp, #16]
    8fce:	0c33      	lsrs	r3, r6, #16
    8fd0:	0436      	lsls	r6, r6, #16
    8fd2:	0c36      	lsrs	r6, r6, #16
    8fd4:	4698      	mov	r8, r3
    8fd6:	0033      	movs	r3, r6
    8fd8:	4343      	muls	r3, r0
    8fda:	4699      	mov	r9, r3
    8fdc:	4643      	mov	r3, r8
    8fde:	4343      	muls	r3, r0
    8fe0:	002f      	movs	r7, r5
    8fe2:	469a      	mov	sl, r3
    8fe4:	4643      	mov	r3, r8
    8fe6:	4377      	muls	r7, r6
    8fe8:	435d      	muls	r5, r3
    8fea:	0c38      	lsrs	r0, r7, #16
    8fec:	444d      	add	r5, r9
    8fee:	1945      	adds	r5, r0, r5
    8ff0:	45a9      	cmp	r9, r5
    8ff2:	d903      	bls.n	8ffc <__aeabi_dmul+0x168>
    8ff4:	2380      	movs	r3, #128	; 0x80
    8ff6:	025b      	lsls	r3, r3, #9
    8ff8:	4699      	mov	r9, r3
    8ffa:	44ca      	add	sl, r9
    8ffc:	043f      	lsls	r7, r7, #16
    8ffe:	0c28      	lsrs	r0, r5, #16
    9000:	0c3f      	lsrs	r7, r7, #16
    9002:	042d      	lsls	r5, r5, #16
    9004:	19ed      	adds	r5, r5, r7
    9006:	0c27      	lsrs	r7, r4, #16
    9008:	0424      	lsls	r4, r4, #16
    900a:	0c24      	lsrs	r4, r4, #16
    900c:	0003      	movs	r3, r0
    900e:	0020      	movs	r0, r4
    9010:	4350      	muls	r0, r2
    9012:	437a      	muls	r2, r7
    9014:	4691      	mov	r9, r2
    9016:	003a      	movs	r2, r7
    9018:	4453      	add	r3, sl
    901a:	9305      	str	r3, [sp, #20]
    901c:	0c03      	lsrs	r3, r0, #16
    901e:	469a      	mov	sl, r3
    9020:	434a      	muls	r2, r1
    9022:	4361      	muls	r1, r4
    9024:	4449      	add	r1, r9
    9026:	4451      	add	r1, sl
    9028:	44ab      	add	fp, r5
    902a:	4589      	cmp	r9, r1
    902c:	d903      	bls.n	9036 <__aeabi_dmul+0x1a2>
    902e:	2380      	movs	r3, #128	; 0x80
    9030:	025b      	lsls	r3, r3, #9
    9032:	4699      	mov	r9, r3
    9034:	444a      	add	r2, r9
    9036:	0400      	lsls	r0, r0, #16
    9038:	0c0b      	lsrs	r3, r1, #16
    903a:	0c00      	lsrs	r0, r0, #16
    903c:	0409      	lsls	r1, r1, #16
    903e:	1809      	adds	r1, r1, r0
    9040:	0020      	movs	r0, r4
    9042:	4699      	mov	r9, r3
    9044:	4643      	mov	r3, r8
    9046:	4370      	muls	r0, r6
    9048:	435c      	muls	r4, r3
    904a:	437e      	muls	r6, r7
    904c:	435f      	muls	r7, r3
    904e:	0c03      	lsrs	r3, r0, #16
    9050:	4698      	mov	r8, r3
    9052:	19a4      	adds	r4, r4, r6
    9054:	4444      	add	r4, r8
    9056:	444a      	add	r2, r9
    9058:	9703      	str	r7, [sp, #12]
    905a:	42a6      	cmp	r6, r4
    905c:	d904      	bls.n	9068 <__aeabi_dmul+0x1d4>
    905e:	2380      	movs	r3, #128	; 0x80
    9060:	025b      	lsls	r3, r3, #9
    9062:	4698      	mov	r8, r3
    9064:	4447      	add	r7, r8
    9066:	9703      	str	r7, [sp, #12]
    9068:	0423      	lsls	r3, r4, #16
    906a:	9e02      	ldr	r6, [sp, #8]
    906c:	469a      	mov	sl, r3
    906e:	9b05      	ldr	r3, [sp, #20]
    9070:	445e      	add	r6, fp
    9072:	4698      	mov	r8, r3
    9074:	42ae      	cmp	r6, r5
    9076:	41ad      	sbcs	r5, r5
    9078:	1876      	adds	r6, r6, r1
    907a:	428e      	cmp	r6, r1
    907c:	4189      	sbcs	r1, r1
    907e:	0400      	lsls	r0, r0, #16
    9080:	0c00      	lsrs	r0, r0, #16
    9082:	4450      	add	r0, sl
    9084:	4440      	add	r0, r8
    9086:	426d      	negs	r5, r5
    9088:	1947      	adds	r7, r0, r5
    908a:	46b8      	mov	r8, r7
    908c:	4693      	mov	fp, r2
    908e:	4249      	negs	r1, r1
    9090:	4689      	mov	r9, r1
    9092:	44c3      	add	fp, r8
    9094:	44d9      	add	r9, fp
    9096:	4298      	cmp	r0, r3
    9098:	4180      	sbcs	r0, r0
    909a:	45a8      	cmp	r8, r5
    909c:	41ad      	sbcs	r5, r5
    909e:	4593      	cmp	fp, r2
    90a0:	4192      	sbcs	r2, r2
    90a2:	4589      	cmp	r9, r1
    90a4:	4189      	sbcs	r1, r1
    90a6:	426d      	negs	r5, r5
    90a8:	4240      	negs	r0, r0
    90aa:	4328      	orrs	r0, r5
    90ac:	0c24      	lsrs	r4, r4, #16
    90ae:	4252      	negs	r2, r2
    90b0:	4249      	negs	r1, r1
    90b2:	430a      	orrs	r2, r1
    90b4:	9b03      	ldr	r3, [sp, #12]
    90b6:	1900      	adds	r0, r0, r4
    90b8:	1880      	adds	r0, r0, r2
    90ba:	18c7      	adds	r7, r0, r3
    90bc:	464b      	mov	r3, r9
    90be:	0ddc      	lsrs	r4, r3, #23
    90c0:	9b04      	ldr	r3, [sp, #16]
    90c2:	0275      	lsls	r5, r6, #9
    90c4:	431d      	orrs	r5, r3
    90c6:	1e6a      	subs	r2, r5, #1
    90c8:	4195      	sbcs	r5, r2
    90ca:	464b      	mov	r3, r9
    90cc:	0df6      	lsrs	r6, r6, #23
    90ce:	027f      	lsls	r7, r7, #9
    90d0:	4335      	orrs	r5, r6
    90d2:	025a      	lsls	r2, r3, #9
    90d4:	433c      	orrs	r4, r7
    90d6:	4315      	orrs	r5, r2
    90d8:	01fb      	lsls	r3, r7, #7
    90da:	d400      	bmi.n	90de <__aeabi_dmul+0x24a>
    90dc:	e11c      	b.n	9318 <__aeabi_dmul+0x484>
    90de:	2101      	movs	r1, #1
    90e0:	086a      	lsrs	r2, r5, #1
    90e2:	400d      	ands	r5, r1
    90e4:	4315      	orrs	r5, r2
    90e6:	07e2      	lsls	r2, r4, #31
    90e8:	4315      	orrs	r5, r2
    90ea:	0864      	lsrs	r4, r4, #1
    90ec:	494f      	ldr	r1, [pc, #316]	; (922c <__aeabi_dmul+0x398>)
    90ee:	4461      	add	r1, ip
    90f0:	2900      	cmp	r1, #0
    90f2:	dc00      	bgt.n	90f6 <__aeabi_dmul+0x262>
    90f4:	e0b0      	b.n	9258 <__aeabi_dmul+0x3c4>
    90f6:	076b      	lsls	r3, r5, #29
    90f8:	d009      	beq.n	910e <__aeabi_dmul+0x27a>
    90fa:	220f      	movs	r2, #15
    90fc:	402a      	ands	r2, r5
    90fe:	2a04      	cmp	r2, #4
    9100:	d005      	beq.n	910e <__aeabi_dmul+0x27a>
    9102:	1d2a      	adds	r2, r5, #4
    9104:	42aa      	cmp	r2, r5
    9106:	41ad      	sbcs	r5, r5
    9108:	426d      	negs	r5, r5
    910a:	1964      	adds	r4, r4, r5
    910c:	0015      	movs	r5, r2
    910e:	01e3      	lsls	r3, r4, #7
    9110:	d504      	bpl.n	911c <__aeabi_dmul+0x288>
    9112:	2180      	movs	r1, #128	; 0x80
    9114:	4a46      	ldr	r2, [pc, #280]	; (9230 <__aeabi_dmul+0x39c>)
    9116:	00c9      	lsls	r1, r1, #3
    9118:	4014      	ands	r4, r2
    911a:	4461      	add	r1, ip
    911c:	4a45      	ldr	r2, [pc, #276]	; (9234 <__aeabi_dmul+0x3a0>)
    911e:	4291      	cmp	r1, r2
    9120:	dd00      	ble.n	9124 <__aeabi_dmul+0x290>
    9122:	e726      	b.n	8f72 <__aeabi_dmul+0xde>
    9124:	0762      	lsls	r2, r4, #29
    9126:	08ed      	lsrs	r5, r5, #3
    9128:	0264      	lsls	r4, r4, #9
    912a:	0549      	lsls	r1, r1, #21
    912c:	4315      	orrs	r5, r2
    912e:	0b24      	lsrs	r4, r4, #12
    9130:	0d4a      	lsrs	r2, r1, #21
    9132:	e710      	b.n	8f56 <__aeabi_dmul+0xc2>
    9134:	4652      	mov	r2, sl
    9136:	4332      	orrs	r2, r6
    9138:	d100      	bne.n	913c <__aeabi_dmul+0x2a8>
    913a:	e07f      	b.n	923c <__aeabi_dmul+0x3a8>
    913c:	2e00      	cmp	r6, #0
    913e:	d100      	bne.n	9142 <__aeabi_dmul+0x2ae>
    9140:	e0dc      	b.n	92fc <__aeabi_dmul+0x468>
    9142:	0030      	movs	r0, r6
    9144:	f000 fd4e 	bl	9be4 <__clzsi2>
    9148:	0002      	movs	r2, r0
    914a:	3a0b      	subs	r2, #11
    914c:	231d      	movs	r3, #29
    914e:	0001      	movs	r1, r0
    9150:	1a9b      	subs	r3, r3, r2
    9152:	4652      	mov	r2, sl
    9154:	3908      	subs	r1, #8
    9156:	40da      	lsrs	r2, r3
    9158:	408e      	lsls	r6, r1
    915a:	4316      	orrs	r6, r2
    915c:	4652      	mov	r2, sl
    915e:	408a      	lsls	r2, r1
    9160:	9b00      	ldr	r3, [sp, #0]
    9162:	4935      	ldr	r1, [pc, #212]	; (9238 <__aeabi_dmul+0x3a4>)
    9164:	1a18      	subs	r0, r3, r0
    9166:	0003      	movs	r3, r0
    9168:	468c      	mov	ip, r1
    916a:	4463      	add	r3, ip
    916c:	2000      	movs	r0, #0
    916e:	9300      	str	r3, [sp, #0]
    9170:	e6d3      	b.n	8f1a <__aeabi_dmul+0x86>
    9172:	0025      	movs	r5, r4
    9174:	4305      	orrs	r5, r0
    9176:	d04a      	beq.n	920e <__aeabi_dmul+0x37a>
    9178:	2c00      	cmp	r4, #0
    917a:	d100      	bne.n	917e <__aeabi_dmul+0x2ea>
    917c:	e0b0      	b.n	92e0 <__aeabi_dmul+0x44c>
    917e:	0020      	movs	r0, r4
    9180:	f000 fd30 	bl	9be4 <__clzsi2>
    9184:	0001      	movs	r1, r0
    9186:	0002      	movs	r2, r0
    9188:	390b      	subs	r1, #11
    918a:	231d      	movs	r3, #29
    918c:	0010      	movs	r0, r2
    918e:	1a5b      	subs	r3, r3, r1
    9190:	0031      	movs	r1, r6
    9192:	0035      	movs	r5, r6
    9194:	3808      	subs	r0, #8
    9196:	4084      	lsls	r4, r0
    9198:	40d9      	lsrs	r1, r3
    919a:	4085      	lsls	r5, r0
    919c:	430c      	orrs	r4, r1
    919e:	4826      	ldr	r0, [pc, #152]	; (9238 <__aeabi_dmul+0x3a4>)
    91a0:	1a83      	subs	r3, r0, r2
    91a2:	9300      	str	r3, [sp, #0]
    91a4:	2300      	movs	r3, #0
    91a6:	4699      	mov	r9, r3
    91a8:	469b      	mov	fp, r3
    91aa:	e697      	b.n	8edc <__aeabi_dmul+0x48>
    91ac:	0005      	movs	r5, r0
    91ae:	4325      	orrs	r5, r4
    91b0:	d126      	bne.n	9200 <__aeabi_dmul+0x36c>
    91b2:	2208      	movs	r2, #8
    91b4:	9300      	str	r3, [sp, #0]
    91b6:	2302      	movs	r3, #2
    91b8:	2400      	movs	r4, #0
    91ba:	4691      	mov	r9, r2
    91bc:	469b      	mov	fp, r3
    91be:	e68d      	b.n	8edc <__aeabi_dmul+0x48>
    91c0:	4652      	mov	r2, sl
    91c2:	9b00      	ldr	r3, [sp, #0]
    91c4:	4332      	orrs	r2, r6
    91c6:	d110      	bne.n	91ea <__aeabi_dmul+0x356>
    91c8:	4915      	ldr	r1, [pc, #84]	; (9220 <__aeabi_dmul+0x38c>)
    91ca:	2600      	movs	r6, #0
    91cc:	468c      	mov	ip, r1
    91ce:	4463      	add	r3, ip
    91d0:	4649      	mov	r1, r9
    91d2:	9300      	str	r3, [sp, #0]
    91d4:	2302      	movs	r3, #2
    91d6:	4319      	orrs	r1, r3
    91d8:	4689      	mov	r9, r1
    91da:	2002      	movs	r0, #2
    91dc:	e69d      	b.n	8f1a <__aeabi_dmul+0x86>
    91de:	465b      	mov	r3, fp
    91e0:	9701      	str	r7, [sp, #4]
    91e2:	2b02      	cmp	r3, #2
    91e4:	d000      	beq.n	91e8 <__aeabi_dmul+0x354>
    91e6:	e6ad      	b.n	8f44 <__aeabi_dmul+0xb0>
    91e8:	e6c3      	b.n	8f72 <__aeabi_dmul+0xde>
    91ea:	4a0d      	ldr	r2, [pc, #52]	; (9220 <__aeabi_dmul+0x38c>)
    91ec:	2003      	movs	r0, #3
    91ee:	4694      	mov	ip, r2
    91f0:	4463      	add	r3, ip
    91f2:	464a      	mov	r2, r9
    91f4:	9300      	str	r3, [sp, #0]
    91f6:	2303      	movs	r3, #3
    91f8:	431a      	orrs	r2, r3
    91fa:	4691      	mov	r9, r2
    91fc:	4652      	mov	r2, sl
    91fe:	e68c      	b.n	8f1a <__aeabi_dmul+0x86>
    9200:	220c      	movs	r2, #12
    9202:	9300      	str	r3, [sp, #0]
    9204:	2303      	movs	r3, #3
    9206:	0005      	movs	r5, r0
    9208:	4691      	mov	r9, r2
    920a:	469b      	mov	fp, r3
    920c:	e666      	b.n	8edc <__aeabi_dmul+0x48>
    920e:	2304      	movs	r3, #4
    9210:	4699      	mov	r9, r3
    9212:	2300      	movs	r3, #0
    9214:	9300      	str	r3, [sp, #0]
    9216:	3301      	adds	r3, #1
    9218:	2400      	movs	r4, #0
    921a:	469b      	mov	fp, r3
    921c:	e65e      	b.n	8edc <__aeabi_dmul+0x48>
    921e:	46c0      	nop			; (mov r8, r8)
    9220:	000007ff 	.word	0x000007ff
    9224:	fffffc01 	.word	0xfffffc01
    9228:	00009f58 	.word	0x00009f58
    922c:	000003ff 	.word	0x000003ff
    9230:	feffffff 	.word	0xfeffffff
    9234:	000007fe 	.word	0x000007fe
    9238:	fffffc0d 	.word	0xfffffc0d
    923c:	4649      	mov	r1, r9
    923e:	2301      	movs	r3, #1
    9240:	4319      	orrs	r1, r3
    9242:	4689      	mov	r9, r1
    9244:	2600      	movs	r6, #0
    9246:	2001      	movs	r0, #1
    9248:	e667      	b.n	8f1a <__aeabi_dmul+0x86>
    924a:	2300      	movs	r3, #0
    924c:	2480      	movs	r4, #128	; 0x80
    924e:	2500      	movs	r5, #0
    9250:	4a43      	ldr	r2, [pc, #268]	; (9360 <__aeabi_dmul+0x4cc>)
    9252:	9301      	str	r3, [sp, #4]
    9254:	0324      	lsls	r4, r4, #12
    9256:	e67e      	b.n	8f56 <__aeabi_dmul+0xc2>
    9258:	2001      	movs	r0, #1
    925a:	1a40      	subs	r0, r0, r1
    925c:	2838      	cmp	r0, #56	; 0x38
    925e:	dd00      	ble.n	9262 <__aeabi_dmul+0x3ce>
    9260:	e676      	b.n	8f50 <__aeabi_dmul+0xbc>
    9262:	281f      	cmp	r0, #31
    9264:	dd5b      	ble.n	931e <__aeabi_dmul+0x48a>
    9266:	221f      	movs	r2, #31
    9268:	0023      	movs	r3, r4
    926a:	4252      	negs	r2, r2
    926c:	1a51      	subs	r1, r2, r1
    926e:	40cb      	lsrs	r3, r1
    9270:	0019      	movs	r1, r3
    9272:	2820      	cmp	r0, #32
    9274:	d003      	beq.n	927e <__aeabi_dmul+0x3ea>
    9276:	4a3b      	ldr	r2, [pc, #236]	; (9364 <__aeabi_dmul+0x4d0>)
    9278:	4462      	add	r2, ip
    927a:	4094      	lsls	r4, r2
    927c:	4325      	orrs	r5, r4
    927e:	1e6a      	subs	r2, r5, #1
    9280:	4195      	sbcs	r5, r2
    9282:	002a      	movs	r2, r5
    9284:	430a      	orrs	r2, r1
    9286:	2107      	movs	r1, #7
    9288:	000d      	movs	r5, r1
    928a:	2400      	movs	r4, #0
    928c:	4015      	ands	r5, r2
    928e:	4211      	tst	r1, r2
    9290:	d05b      	beq.n	934a <__aeabi_dmul+0x4b6>
    9292:	210f      	movs	r1, #15
    9294:	2400      	movs	r4, #0
    9296:	4011      	ands	r1, r2
    9298:	2904      	cmp	r1, #4
    929a:	d053      	beq.n	9344 <__aeabi_dmul+0x4b0>
    929c:	1d11      	adds	r1, r2, #4
    929e:	4291      	cmp	r1, r2
    92a0:	4192      	sbcs	r2, r2
    92a2:	4252      	negs	r2, r2
    92a4:	18a4      	adds	r4, r4, r2
    92a6:	000a      	movs	r2, r1
    92a8:	0223      	lsls	r3, r4, #8
    92aa:	d54b      	bpl.n	9344 <__aeabi_dmul+0x4b0>
    92ac:	2201      	movs	r2, #1
    92ae:	2400      	movs	r4, #0
    92b0:	2500      	movs	r5, #0
    92b2:	e650      	b.n	8f56 <__aeabi_dmul+0xc2>
    92b4:	2380      	movs	r3, #128	; 0x80
    92b6:	031b      	lsls	r3, r3, #12
    92b8:	421c      	tst	r4, r3
    92ba:	d009      	beq.n	92d0 <__aeabi_dmul+0x43c>
    92bc:	421e      	tst	r6, r3
    92be:	d107      	bne.n	92d0 <__aeabi_dmul+0x43c>
    92c0:	4333      	orrs	r3, r6
    92c2:	031c      	lsls	r4, r3, #12
    92c4:	4643      	mov	r3, r8
    92c6:	0015      	movs	r5, r2
    92c8:	0b24      	lsrs	r4, r4, #12
    92ca:	4a25      	ldr	r2, [pc, #148]	; (9360 <__aeabi_dmul+0x4cc>)
    92cc:	9301      	str	r3, [sp, #4]
    92ce:	e642      	b.n	8f56 <__aeabi_dmul+0xc2>
    92d0:	2280      	movs	r2, #128	; 0x80
    92d2:	0312      	lsls	r2, r2, #12
    92d4:	4314      	orrs	r4, r2
    92d6:	0324      	lsls	r4, r4, #12
    92d8:	4a21      	ldr	r2, [pc, #132]	; (9360 <__aeabi_dmul+0x4cc>)
    92da:	0b24      	lsrs	r4, r4, #12
    92dc:	9701      	str	r7, [sp, #4]
    92de:	e63a      	b.n	8f56 <__aeabi_dmul+0xc2>
    92e0:	f000 fc80 	bl	9be4 <__clzsi2>
    92e4:	0001      	movs	r1, r0
    92e6:	0002      	movs	r2, r0
    92e8:	3115      	adds	r1, #21
    92ea:	3220      	adds	r2, #32
    92ec:	291c      	cmp	r1, #28
    92ee:	dc00      	bgt.n	92f2 <__aeabi_dmul+0x45e>
    92f0:	e74b      	b.n	918a <__aeabi_dmul+0x2f6>
    92f2:	0034      	movs	r4, r6
    92f4:	3808      	subs	r0, #8
    92f6:	2500      	movs	r5, #0
    92f8:	4084      	lsls	r4, r0
    92fa:	e750      	b.n	919e <__aeabi_dmul+0x30a>
    92fc:	f000 fc72 	bl	9be4 <__clzsi2>
    9300:	0003      	movs	r3, r0
    9302:	001a      	movs	r2, r3
    9304:	3215      	adds	r2, #21
    9306:	3020      	adds	r0, #32
    9308:	2a1c      	cmp	r2, #28
    930a:	dc00      	bgt.n	930e <__aeabi_dmul+0x47a>
    930c:	e71e      	b.n	914c <__aeabi_dmul+0x2b8>
    930e:	4656      	mov	r6, sl
    9310:	3b08      	subs	r3, #8
    9312:	2200      	movs	r2, #0
    9314:	409e      	lsls	r6, r3
    9316:	e723      	b.n	9160 <__aeabi_dmul+0x2cc>
    9318:	9b00      	ldr	r3, [sp, #0]
    931a:	469c      	mov	ip, r3
    931c:	e6e6      	b.n	90ec <__aeabi_dmul+0x258>
    931e:	4912      	ldr	r1, [pc, #72]	; (9368 <__aeabi_dmul+0x4d4>)
    9320:	0022      	movs	r2, r4
    9322:	4461      	add	r1, ip
    9324:	002e      	movs	r6, r5
    9326:	408d      	lsls	r5, r1
    9328:	408a      	lsls	r2, r1
    932a:	40c6      	lsrs	r6, r0
    932c:	1e69      	subs	r1, r5, #1
    932e:	418d      	sbcs	r5, r1
    9330:	4332      	orrs	r2, r6
    9332:	432a      	orrs	r2, r5
    9334:	40c4      	lsrs	r4, r0
    9336:	0753      	lsls	r3, r2, #29
    9338:	d0b6      	beq.n	92a8 <__aeabi_dmul+0x414>
    933a:	210f      	movs	r1, #15
    933c:	4011      	ands	r1, r2
    933e:	2904      	cmp	r1, #4
    9340:	d1ac      	bne.n	929c <__aeabi_dmul+0x408>
    9342:	e7b1      	b.n	92a8 <__aeabi_dmul+0x414>
    9344:	0765      	lsls	r5, r4, #29
    9346:	0264      	lsls	r4, r4, #9
    9348:	0b24      	lsrs	r4, r4, #12
    934a:	08d2      	lsrs	r2, r2, #3
    934c:	4315      	orrs	r5, r2
    934e:	2200      	movs	r2, #0
    9350:	e601      	b.n	8f56 <__aeabi_dmul+0xc2>
    9352:	2280      	movs	r2, #128	; 0x80
    9354:	0312      	lsls	r2, r2, #12
    9356:	4314      	orrs	r4, r2
    9358:	0324      	lsls	r4, r4, #12
    935a:	4a01      	ldr	r2, [pc, #4]	; (9360 <__aeabi_dmul+0x4cc>)
    935c:	0b24      	lsrs	r4, r4, #12
    935e:	e5fa      	b.n	8f56 <__aeabi_dmul+0xc2>
    9360:	000007ff 	.word	0x000007ff
    9364:	0000043e 	.word	0x0000043e
    9368:	0000041e 	.word	0x0000041e

0000936c <__aeabi_dsub>:
    936c:	b5f8      	push	{r3, r4, r5, r6, r7, lr}
    936e:	4657      	mov	r7, sl
    9370:	464e      	mov	r6, r9
    9372:	4645      	mov	r5, r8
    9374:	46de      	mov	lr, fp
    9376:	b5e0      	push	{r5, r6, r7, lr}
    9378:	001e      	movs	r6, r3
    937a:	0017      	movs	r7, r2
    937c:	004a      	lsls	r2, r1, #1
    937e:	030b      	lsls	r3, r1, #12
    9380:	0d52      	lsrs	r2, r2, #21
    9382:	0a5b      	lsrs	r3, r3, #9
    9384:	4690      	mov	r8, r2
    9386:	0f42      	lsrs	r2, r0, #29
    9388:	431a      	orrs	r2, r3
    938a:	0fcd      	lsrs	r5, r1, #31
    938c:	4ccd      	ldr	r4, [pc, #820]	; (96c4 <__aeabi_dsub+0x358>)
    938e:	0331      	lsls	r1, r6, #12
    9390:	00c3      	lsls	r3, r0, #3
    9392:	4694      	mov	ip, r2
    9394:	0070      	lsls	r0, r6, #1
    9396:	0f7a      	lsrs	r2, r7, #29
    9398:	0a49      	lsrs	r1, r1, #9
    939a:	00ff      	lsls	r7, r7, #3
    939c:	469a      	mov	sl, r3
    939e:	46b9      	mov	r9, r7
    93a0:	0d40      	lsrs	r0, r0, #21
    93a2:	0ff6      	lsrs	r6, r6, #31
    93a4:	4311      	orrs	r1, r2
    93a6:	42a0      	cmp	r0, r4
    93a8:	d100      	bne.n	93ac <__aeabi_dsub+0x40>
    93aa:	e0b1      	b.n	9510 <__aeabi_dsub+0x1a4>
    93ac:	2201      	movs	r2, #1
    93ae:	4056      	eors	r6, r2
    93b0:	46b3      	mov	fp, r6
    93b2:	42b5      	cmp	r5, r6
    93b4:	d100      	bne.n	93b8 <__aeabi_dsub+0x4c>
    93b6:	e088      	b.n	94ca <__aeabi_dsub+0x15e>
    93b8:	4642      	mov	r2, r8
    93ba:	1a12      	subs	r2, r2, r0
    93bc:	2a00      	cmp	r2, #0
    93be:	dc00      	bgt.n	93c2 <__aeabi_dsub+0x56>
    93c0:	e0ae      	b.n	9520 <__aeabi_dsub+0x1b4>
    93c2:	2800      	cmp	r0, #0
    93c4:	d100      	bne.n	93c8 <__aeabi_dsub+0x5c>
    93c6:	e0c1      	b.n	954c <__aeabi_dsub+0x1e0>
    93c8:	48be      	ldr	r0, [pc, #760]	; (96c4 <__aeabi_dsub+0x358>)
    93ca:	4580      	cmp	r8, r0
    93cc:	d100      	bne.n	93d0 <__aeabi_dsub+0x64>
    93ce:	e151      	b.n	9674 <__aeabi_dsub+0x308>
    93d0:	2080      	movs	r0, #128	; 0x80
    93d2:	0400      	lsls	r0, r0, #16
    93d4:	4301      	orrs	r1, r0
    93d6:	2a38      	cmp	r2, #56	; 0x38
    93d8:	dd00      	ble.n	93dc <__aeabi_dsub+0x70>
    93da:	e17b      	b.n	96d4 <__aeabi_dsub+0x368>
    93dc:	2a1f      	cmp	r2, #31
    93de:	dd00      	ble.n	93e2 <__aeabi_dsub+0x76>
    93e0:	e1ee      	b.n	97c0 <__aeabi_dsub+0x454>
    93e2:	2020      	movs	r0, #32
    93e4:	003e      	movs	r6, r7
    93e6:	1a80      	subs	r0, r0, r2
    93e8:	000c      	movs	r4, r1
    93ea:	40d6      	lsrs	r6, r2
    93ec:	40d1      	lsrs	r1, r2
    93ee:	4087      	lsls	r7, r0
    93f0:	4662      	mov	r2, ip
    93f2:	4084      	lsls	r4, r0
    93f4:	1a52      	subs	r2, r2, r1
    93f6:	1e78      	subs	r0, r7, #1
    93f8:	4187      	sbcs	r7, r0
    93fa:	4694      	mov	ip, r2
    93fc:	4334      	orrs	r4, r6
    93fe:	4327      	orrs	r7, r4
    9400:	1bdc      	subs	r4, r3, r7
    9402:	42a3      	cmp	r3, r4
    9404:	419b      	sbcs	r3, r3
    9406:	4662      	mov	r2, ip
    9408:	425b      	negs	r3, r3
    940a:	1ad3      	subs	r3, r2, r3
    940c:	4699      	mov	r9, r3
    940e:	464b      	mov	r3, r9
    9410:	021b      	lsls	r3, r3, #8
    9412:	d400      	bmi.n	9416 <__aeabi_dsub+0xaa>
    9414:	e118      	b.n	9648 <__aeabi_dsub+0x2dc>
    9416:	464b      	mov	r3, r9
    9418:	0258      	lsls	r0, r3, #9
    941a:	0a43      	lsrs	r3, r0, #9
    941c:	4699      	mov	r9, r3
    941e:	464b      	mov	r3, r9
    9420:	2b00      	cmp	r3, #0
    9422:	d100      	bne.n	9426 <__aeabi_dsub+0xba>
    9424:	e137      	b.n	9696 <__aeabi_dsub+0x32a>
    9426:	4648      	mov	r0, r9
    9428:	f000 fbdc 	bl	9be4 <__clzsi2>
    942c:	0001      	movs	r1, r0
    942e:	3908      	subs	r1, #8
    9430:	2320      	movs	r3, #32
    9432:	0022      	movs	r2, r4
    9434:	4648      	mov	r0, r9
    9436:	1a5b      	subs	r3, r3, r1
    9438:	40da      	lsrs	r2, r3
    943a:	4088      	lsls	r0, r1
    943c:	408c      	lsls	r4, r1
    943e:	4643      	mov	r3, r8
    9440:	4310      	orrs	r0, r2
    9442:	4588      	cmp	r8, r1
    9444:	dd00      	ble.n	9448 <__aeabi_dsub+0xdc>
    9446:	e136      	b.n	96b6 <__aeabi_dsub+0x34a>
    9448:	1ac9      	subs	r1, r1, r3
    944a:	1c4b      	adds	r3, r1, #1
    944c:	2b1f      	cmp	r3, #31
    944e:	dd00      	ble.n	9452 <__aeabi_dsub+0xe6>
    9450:	e0ea      	b.n	9628 <__aeabi_dsub+0x2bc>
    9452:	2220      	movs	r2, #32
    9454:	0026      	movs	r6, r4
    9456:	1ad2      	subs	r2, r2, r3
    9458:	0001      	movs	r1, r0
    945a:	4094      	lsls	r4, r2
    945c:	40de      	lsrs	r6, r3
    945e:	40d8      	lsrs	r0, r3
    9460:	2300      	movs	r3, #0
    9462:	4091      	lsls	r1, r2
    9464:	1e62      	subs	r2, r4, #1
    9466:	4194      	sbcs	r4, r2
    9468:	4681      	mov	r9, r0
    946a:	4698      	mov	r8, r3
    946c:	4331      	orrs	r1, r6
    946e:	430c      	orrs	r4, r1
    9470:	0763      	lsls	r3, r4, #29
    9472:	d009      	beq.n	9488 <__aeabi_dsub+0x11c>
    9474:	230f      	movs	r3, #15
    9476:	4023      	ands	r3, r4
    9478:	2b04      	cmp	r3, #4
    947a:	d005      	beq.n	9488 <__aeabi_dsub+0x11c>
    947c:	1d23      	adds	r3, r4, #4
    947e:	42a3      	cmp	r3, r4
    9480:	41a4      	sbcs	r4, r4
    9482:	4264      	negs	r4, r4
    9484:	44a1      	add	r9, r4
    9486:	001c      	movs	r4, r3
    9488:	464b      	mov	r3, r9
    948a:	021b      	lsls	r3, r3, #8
    948c:	d400      	bmi.n	9490 <__aeabi_dsub+0x124>
    948e:	e0de      	b.n	964e <__aeabi_dsub+0x2e2>
    9490:	4641      	mov	r1, r8
    9492:	4b8c      	ldr	r3, [pc, #560]	; (96c4 <__aeabi_dsub+0x358>)
    9494:	3101      	adds	r1, #1
    9496:	4299      	cmp	r1, r3
    9498:	d100      	bne.n	949c <__aeabi_dsub+0x130>
    949a:	e0e7      	b.n	966c <__aeabi_dsub+0x300>
    949c:	464b      	mov	r3, r9
    949e:	488a      	ldr	r0, [pc, #552]	; (96c8 <__aeabi_dsub+0x35c>)
    94a0:	08e4      	lsrs	r4, r4, #3
    94a2:	4003      	ands	r3, r0
    94a4:	0018      	movs	r0, r3
    94a6:	0549      	lsls	r1, r1, #21
    94a8:	075b      	lsls	r3, r3, #29
    94aa:	0240      	lsls	r0, r0, #9
    94ac:	4323      	orrs	r3, r4
    94ae:	0d4a      	lsrs	r2, r1, #21
    94b0:	0b04      	lsrs	r4, r0, #12
    94b2:	0512      	lsls	r2, r2, #20
    94b4:	07ed      	lsls	r5, r5, #31
    94b6:	4322      	orrs	r2, r4
    94b8:	432a      	orrs	r2, r5
    94ba:	0018      	movs	r0, r3
    94bc:	0011      	movs	r1, r2
    94be:	bcf0      	pop	{r4, r5, r6, r7}
    94c0:	46bb      	mov	fp, r7
    94c2:	46b2      	mov	sl, r6
    94c4:	46a9      	mov	r9, r5
    94c6:	46a0      	mov	r8, r4
    94c8:	bdf8      	pop	{r3, r4, r5, r6, r7, pc}
    94ca:	4642      	mov	r2, r8
    94cc:	1a12      	subs	r2, r2, r0
    94ce:	2a00      	cmp	r2, #0
    94d0:	dd52      	ble.n	9578 <__aeabi_dsub+0x20c>
    94d2:	2800      	cmp	r0, #0
    94d4:	d100      	bne.n	94d8 <__aeabi_dsub+0x16c>
    94d6:	e09c      	b.n	9612 <__aeabi_dsub+0x2a6>
    94d8:	45a0      	cmp	r8, r4
    94da:	d100      	bne.n	94de <__aeabi_dsub+0x172>
    94dc:	e0ca      	b.n	9674 <__aeabi_dsub+0x308>
    94de:	2080      	movs	r0, #128	; 0x80
    94e0:	0400      	lsls	r0, r0, #16
    94e2:	4301      	orrs	r1, r0
    94e4:	2a38      	cmp	r2, #56	; 0x38
    94e6:	dd00      	ble.n	94ea <__aeabi_dsub+0x17e>
    94e8:	e149      	b.n	977e <__aeabi_dsub+0x412>
    94ea:	2a1f      	cmp	r2, #31
    94ec:	dc00      	bgt.n	94f0 <__aeabi_dsub+0x184>
    94ee:	e197      	b.n	9820 <__aeabi_dsub+0x4b4>
    94f0:	0010      	movs	r0, r2
    94f2:	000e      	movs	r6, r1
    94f4:	3820      	subs	r0, #32
    94f6:	40c6      	lsrs	r6, r0
    94f8:	2a20      	cmp	r2, #32
    94fa:	d004      	beq.n	9506 <__aeabi_dsub+0x19a>
    94fc:	2040      	movs	r0, #64	; 0x40
    94fe:	1a82      	subs	r2, r0, r2
    9500:	4091      	lsls	r1, r2
    9502:	430f      	orrs	r7, r1
    9504:	46b9      	mov	r9, r7
    9506:	464c      	mov	r4, r9
    9508:	1e62      	subs	r2, r4, #1
    950a:	4194      	sbcs	r4, r2
    950c:	4334      	orrs	r4, r6
    950e:	e13a      	b.n	9786 <__aeabi_dsub+0x41a>
    9510:	000a      	movs	r2, r1
    9512:	433a      	orrs	r2, r7
    9514:	d028      	beq.n	9568 <__aeabi_dsub+0x1fc>
    9516:	46b3      	mov	fp, r6
    9518:	42b5      	cmp	r5, r6
    951a:	d02b      	beq.n	9574 <__aeabi_dsub+0x208>
    951c:	4a6b      	ldr	r2, [pc, #428]	; (96cc <__aeabi_dsub+0x360>)
    951e:	4442      	add	r2, r8
    9520:	2a00      	cmp	r2, #0
    9522:	d05d      	beq.n	95e0 <__aeabi_dsub+0x274>
    9524:	4642      	mov	r2, r8
    9526:	4644      	mov	r4, r8
    9528:	1a82      	subs	r2, r0, r2
    952a:	2c00      	cmp	r4, #0
    952c:	d000      	beq.n	9530 <__aeabi_dsub+0x1c4>
    952e:	e0f5      	b.n	971c <__aeabi_dsub+0x3b0>
    9530:	4665      	mov	r5, ip
    9532:	431d      	orrs	r5, r3
    9534:	d100      	bne.n	9538 <__aeabi_dsub+0x1cc>
    9536:	e19c      	b.n	9872 <__aeabi_dsub+0x506>
    9538:	1e55      	subs	r5, r2, #1
    953a:	2a01      	cmp	r2, #1
    953c:	d100      	bne.n	9540 <__aeabi_dsub+0x1d4>
    953e:	e1fb      	b.n	9938 <__aeabi_dsub+0x5cc>
    9540:	4c60      	ldr	r4, [pc, #384]	; (96c4 <__aeabi_dsub+0x358>)
    9542:	42a2      	cmp	r2, r4
    9544:	d100      	bne.n	9548 <__aeabi_dsub+0x1dc>
    9546:	e1bd      	b.n	98c4 <__aeabi_dsub+0x558>
    9548:	002a      	movs	r2, r5
    954a:	e0f0      	b.n	972e <__aeabi_dsub+0x3c2>
    954c:	0008      	movs	r0, r1
    954e:	4338      	orrs	r0, r7
    9550:	d100      	bne.n	9554 <__aeabi_dsub+0x1e8>
    9552:	e0c3      	b.n	96dc <__aeabi_dsub+0x370>
    9554:	1e50      	subs	r0, r2, #1
    9556:	2a01      	cmp	r2, #1
    9558:	d100      	bne.n	955c <__aeabi_dsub+0x1f0>
    955a:	e1a8      	b.n	98ae <__aeabi_dsub+0x542>
    955c:	4c59      	ldr	r4, [pc, #356]	; (96c4 <__aeabi_dsub+0x358>)
    955e:	42a2      	cmp	r2, r4
    9560:	d100      	bne.n	9564 <__aeabi_dsub+0x1f8>
    9562:	e087      	b.n	9674 <__aeabi_dsub+0x308>
    9564:	0002      	movs	r2, r0
    9566:	e736      	b.n	93d6 <__aeabi_dsub+0x6a>
    9568:	2201      	movs	r2, #1
    956a:	4056      	eors	r6, r2
    956c:	46b3      	mov	fp, r6
    956e:	42b5      	cmp	r5, r6
    9570:	d000      	beq.n	9574 <__aeabi_dsub+0x208>
    9572:	e721      	b.n	93b8 <__aeabi_dsub+0x4c>
    9574:	4a55      	ldr	r2, [pc, #340]	; (96cc <__aeabi_dsub+0x360>)
    9576:	4442      	add	r2, r8
    9578:	2a00      	cmp	r2, #0
    957a:	d100      	bne.n	957e <__aeabi_dsub+0x212>
    957c:	e0b5      	b.n	96ea <__aeabi_dsub+0x37e>
    957e:	4642      	mov	r2, r8
    9580:	4644      	mov	r4, r8
    9582:	1a82      	subs	r2, r0, r2
    9584:	2c00      	cmp	r4, #0
    9586:	d100      	bne.n	958a <__aeabi_dsub+0x21e>
    9588:	e138      	b.n	97fc <__aeabi_dsub+0x490>
    958a:	4e4e      	ldr	r6, [pc, #312]	; (96c4 <__aeabi_dsub+0x358>)
    958c:	42b0      	cmp	r0, r6
    958e:	d100      	bne.n	9592 <__aeabi_dsub+0x226>
    9590:	e1de      	b.n	9950 <__aeabi_dsub+0x5e4>
    9592:	2680      	movs	r6, #128	; 0x80
    9594:	4664      	mov	r4, ip
    9596:	0436      	lsls	r6, r6, #16
    9598:	4334      	orrs	r4, r6
    959a:	46a4      	mov	ip, r4
    959c:	2a38      	cmp	r2, #56	; 0x38
    959e:	dd00      	ble.n	95a2 <__aeabi_dsub+0x236>
    95a0:	e196      	b.n	98d0 <__aeabi_dsub+0x564>
    95a2:	2a1f      	cmp	r2, #31
    95a4:	dd00      	ble.n	95a8 <__aeabi_dsub+0x23c>
    95a6:	e224      	b.n	99f2 <__aeabi_dsub+0x686>
    95a8:	2620      	movs	r6, #32
    95aa:	1ab4      	subs	r4, r6, r2
    95ac:	46a2      	mov	sl, r4
    95ae:	4664      	mov	r4, ip
    95b0:	4656      	mov	r6, sl
    95b2:	40b4      	lsls	r4, r6
    95b4:	46a1      	mov	r9, r4
    95b6:	001c      	movs	r4, r3
    95b8:	464e      	mov	r6, r9
    95ba:	40d4      	lsrs	r4, r2
    95bc:	4326      	orrs	r6, r4
    95be:	0034      	movs	r4, r6
    95c0:	4656      	mov	r6, sl
    95c2:	40b3      	lsls	r3, r6
    95c4:	1e5e      	subs	r6, r3, #1
    95c6:	41b3      	sbcs	r3, r6
    95c8:	431c      	orrs	r4, r3
    95ca:	4663      	mov	r3, ip
    95cc:	40d3      	lsrs	r3, r2
    95ce:	18c9      	adds	r1, r1, r3
    95d0:	19e4      	adds	r4, r4, r7
    95d2:	42bc      	cmp	r4, r7
    95d4:	41bf      	sbcs	r7, r7
    95d6:	427f      	negs	r7, r7
    95d8:	46b9      	mov	r9, r7
    95da:	4680      	mov	r8, r0
    95dc:	4489      	add	r9, r1
    95de:	e0d8      	b.n	9792 <__aeabi_dsub+0x426>
    95e0:	4640      	mov	r0, r8
    95e2:	4c3b      	ldr	r4, [pc, #236]	; (96d0 <__aeabi_dsub+0x364>)
    95e4:	3001      	adds	r0, #1
    95e6:	4220      	tst	r0, r4
    95e8:	d000      	beq.n	95ec <__aeabi_dsub+0x280>
    95ea:	e0b4      	b.n	9756 <__aeabi_dsub+0x3ea>
    95ec:	4640      	mov	r0, r8
    95ee:	2800      	cmp	r0, #0
    95f0:	d000      	beq.n	95f4 <__aeabi_dsub+0x288>
    95f2:	e144      	b.n	987e <__aeabi_dsub+0x512>
    95f4:	4660      	mov	r0, ip
    95f6:	4318      	orrs	r0, r3
    95f8:	d100      	bne.n	95fc <__aeabi_dsub+0x290>
    95fa:	e190      	b.n	991e <__aeabi_dsub+0x5b2>
    95fc:	0008      	movs	r0, r1
    95fe:	4338      	orrs	r0, r7
    9600:	d000      	beq.n	9604 <__aeabi_dsub+0x298>
    9602:	e1aa      	b.n	995a <__aeabi_dsub+0x5ee>
    9604:	4661      	mov	r1, ip
    9606:	08db      	lsrs	r3, r3, #3
    9608:	0749      	lsls	r1, r1, #29
    960a:	430b      	orrs	r3, r1
    960c:	4661      	mov	r1, ip
    960e:	08cc      	lsrs	r4, r1, #3
    9610:	e027      	b.n	9662 <__aeabi_dsub+0x2f6>
    9612:	0008      	movs	r0, r1
    9614:	4338      	orrs	r0, r7
    9616:	d061      	beq.n	96dc <__aeabi_dsub+0x370>
    9618:	1e50      	subs	r0, r2, #1
    961a:	2a01      	cmp	r2, #1
    961c:	d100      	bne.n	9620 <__aeabi_dsub+0x2b4>
    961e:	e139      	b.n	9894 <__aeabi_dsub+0x528>
    9620:	42a2      	cmp	r2, r4
    9622:	d027      	beq.n	9674 <__aeabi_dsub+0x308>
    9624:	0002      	movs	r2, r0
    9626:	e75d      	b.n	94e4 <__aeabi_dsub+0x178>
    9628:	0002      	movs	r2, r0
    962a:	391f      	subs	r1, #31
    962c:	40ca      	lsrs	r2, r1
    962e:	0011      	movs	r1, r2
    9630:	2b20      	cmp	r3, #32
    9632:	d003      	beq.n	963c <__aeabi_dsub+0x2d0>
    9634:	2240      	movs	r2, #64	; 0x40
    9636:	1ad3      	subs	r3, r2, r3
    9638:	4098      	lsls	r0, r3
    963a:	4304      	orrs	r4, r0
    963c:	1e63      	subs	r3, r4, #1
    963e:	419c      	sbcs	r4, r3
    9640:	2300      	movs	r3, #0
    9642:	4699      	mov	r9, r3
    9644:	4698      	mov	r8, r3
    9646:	430c      	orrs	r4, r1
    9648:	0763      	lsls	r3, r4, #29
    964a:	d000      	beq.n	964e <__aeabi_dsub+0x2e2>
    964c:	e712      	b.n	9474 <__aeabi_dsub+0x108>
    964e:	464b      	mov	r3, r9
    9650:	464a      	mov	r2, r9
    9652:	08e4      	lsrs	r4, r4, #3
    9654:	075b      	lsls	r3, r3, #29
    9656:	4323      	orrs	r3, r4
    9658:	08d4      	lsrs	r4, r2, #3
    965a:	4642      	mov	r2, r8
    965c:	4919      	ldr	r1, [pc, #100]	; (96c4 <__aeabi_dsub+0x358>)
    965e:	428a      	cmp	r2, r1
    9660:	d00e      	beq.n	9680 <__aeabi_dsub+0x314>
    9662:	0324      	lsls	r4, r4, #12
    9664:	0552      	lsls	r2, r2, #21
    9666:	0b24      	lsrs	r4, r4, #12
    9668:	0d52      	lsrs	r2, r2, #21
    966a:	e722      	b.n	94b2 <__aeabi_dsub+0x146>
    966c:	000a      	movs	r2, r1
    966e:	2400      	movs	r4, #0
    9670:	2300      	movs	r3, #0
    9672:	e71e      	b.n	94b2 <__aeabi_dsub+0x146>
    9674:	08db      	lsrs	r3, r3, #3
    9676:	4662      	mov	r2, ip
    9678:	0752      	lsls	r2, r2, #29
    967a:	4313      	orrs	r3, r2
    967c:	4662      	mov	r2, ip
    967e:	08d4      	lsrs	r4, r2, #3
    9680:	001a      	movs	r2, r3
    9682:	4322      	orrs	r2, r4
    9684:	d100      	bne.n	9688 <__aeabi_dsub+0x31c>
    9686:	e1fc      	b.n	9a82 <__aeabi_dsub+0x716>
    9688:	2280      	movs	r2, #128	; 0x80
    968a:	0312      	lsls	r2, r2, #12
    968c:	4314      	orrs	r4, r2
    968e:	0324      	lsls	r4, r4, #12
    9690:	4a0c      	ldr	r2, [pc, #48]	; (96c4 <__aeabi_dsub+0x358>)
    9692:	0b24      	lsrs	r4, r4, #12
    9694:	e70d      	b.n	94b2 <__aeabi_dsub+0x146>
    9696:	0020      	movs	r0, r4
    9698:	f000 faa4 	bl	9be4 <__clzsi2>
    969c:	0001      	movs	r1, r0
    969e:	3118      	adds	r1, #24
    96a0:	291f      	cmp	r1, #31
    96a2:	dc00      	bgt.n	96a6 <__aeabi_dsub+0x33a>
    96a4:	e6c4      	b.n	9430 <__aeabi_dsub+0xc4>
    96a6:	3808      	subs	r0, #8
    96a8:	4084      	lsls	r4, r0
    96aa:	4643      	mov	r3, r8
    96ac:	0020      	movs	r0, r4
    96ae:	2400      	movs	r4, #0
    96b0:	4588      	cmp	r8, r1
    96b2:	dc00      	bgt.n	96b6 <__aeabi_dsub+0x34a>
    96b4:	e6c8      	b.n	9448 <__aeabi_dsub+0xdc>
    96b6:	4a04      	ldr	r2, [pc, #16]	; (96c8 <__aeabi_dsub+0x35c>)
    96b8:	1a5b      	subs	r3, r3, r1
    96ba:	4010      	ands	r0, r2
    96bc:	4698      	mov	r8, r3
    96be:	4681      	mov	r9, r0
    96c0:	e6d6      	b.n	9470 <__aeabi_dsub+0x104>
    96c2:	46c0      	nop			; (mov r8, r8)
    96c4:	000007ff 	.word	0x000007ff
    96c8:	ff7fffff 	.word	0xff7fffff
    96cc:	fffff801 	.word	0xfffff801
    96d0:	000007fe 	.word	0x000007fe
    96d4:	430f      	orrs	r7, r1
    96d6:	1e7a      	subs	r2, r7, #1
    96d8:	4197      	sbcs	r7, r2
    96da:	e691      	b.n	9400 <__aeabi_dsub+0x94>
    96dc:	4661      	mov	r1, ip
    96de:	08db      	lsrs	r3, r3, #3
    96e0:	0749      	lsls	r1, r1, #29
    96e2:	430b      	orrs	r3, r1
    96e4:	4661      	mov	r1, ip
    96e6:	08cc      	lsrs	r4, r1, #3
    96e8:	e7b8      	b.n	965c <__aeabi_dsub+0x2f0>
    96ea:	4640      	mov	r0, r8
    96ec:	4cd3      	ldr	r4, [pc, #844]	; (9a3c <__aeabi_dsub+0x6d0>)
    96ee:	3001      	adds	r0, #1
    96f0:	4220      	tst	r0, r4
    96f2:	d000      	beq.n	96f6 <__aeabi_dsub+0x38a>
    96f4:	e0a2      	b.n	983c <__aeabi_dsub+0x4d0>
    96f6:	4640      	mov	r0, r8
    96f8:	2800      	cmp	r0, #0
    96fa:	d000      	beq.n	96fe <__aeabi_dsub+0x392>
    96fc:	e101      	b.n	9902 <__aeabi_dsub+0x596>
    96fe:	4660      	mov	r0, ip
    9700:	4318      	orrs	r0, r3
    9702:	d100      	bne.n	9706 <__aeabi_dsub+0x39a>
    9704:	e15e      	b.n	99c4 <__aeabi_dsub+0x658>
    9706:	0008      	movs	r0, r1
    9708:	4338      	orrs	r0, r7
    970a:	d000      	beq.n	970e <__aeabi_dsub+0x3a2>
    970c:	e15f      	b.n	99ce <__aeabi_dsub+0x662>
    970e:	4661      	mov	r1, ip
    9710:	08db      	lsrs	r3, r3, #3
    9712:	0749      	lsls	r1, r1, #29
    9714:	430b      	orrs	r3, r1
    9716:	4661      	mov	r1, ip
    9718:	08cc      	lsrs	r4, r1, #3
    971a:	e7a2      	b.n	9662 <__aeabi_dsub+0x2f6>
    971c:	4dc8      	ldr	r5, [pc, #800]	; (9a40 <__aeabi_dsub+0x6d4>)
    971e:	42a8      	cmp	r0, r5
    9720:	d100      	bne.n	9724 <__aeabi_dsub+0x3b8>
    9722:	e0cf      	b.n	98c4 <__aeabi_dsub+0x558>
    9724:	2580      	movs	r5, #128	; 0x80
    9726:	4664      	mov	r4, ip
    9728:	042d      	lsls	r5, r5, #16
    972a:	432c      	orrs	r4, r5
    972c:	46a4      	mov	ip, r4
    972e:	2a38      	cmp	r2, #56	; 0x38
    9730:	dc56      	bgt.n	97e0 <__aeabi_dsub+0x474>
    9732:	2a1f      	cmp	r2, #31
    9734:	dd00      	ble.n	9738 <__aeabi_dsub+0x3cc>
    9736:	e0d1      	b.n	98dc <__aeabi_dsub+0x570>
    9738:	2520      	movs	r5, #32
    973a:	001e      	movs	r6, r3
    973c:	1aad      	subs	r5, r5, r2
    973e:	4664      	mov	r4, ip
    9740:	40ab      	lsls	r3, r5
    9742:	40ac      	lsls	r4, r5
    9744:	40d6      	lsrs	r6, r2
    9746:	1e5d      	subs	r5, r3, #1
    9748:	41ab      	sbcs	r3, r5
    974a:	4334      	orrs	r4, r6
    974c:	4323      	orrs	r3, r4
    974e:	4664      	mov	r4, ip
    9750:	40d4      	lsrs	r4, r2
    9752:	1b09      	subs	r1, r1, r4
    9754:	e049      	b.n	97ea <__aeabi_dsub+0x47e>
    9756:	4660      	mov	r0, ip
    9758:	1bdc      	subs	r4, r3, r7
    975a:	1a46      	subs	r6, r0, r1
    975c:	42a3      	cmp	r3, r4
    975e:	4180      	sbcs	r0, r0
    9760:	4240      	negs	r0, r0
    9762:	4681      	mov	r9, r0
    9764:	0030      	movs	r0, r6
    9766:	464e      	mov	r6, r9
    9768:	1b80      	subs	r0, r0, r6
    976a:	4681      	mov	r9, r0
    976c:	0200      	lsls	r0, r0, #8
    976e:	d476      	bmi.n	985e <__aeabi_dsub+0x4f2>
    9770:	464b      	mov	r3, r9
    9772:	4323      	orrs	r3, r4
    9774:	d000      	beq.n	9778 <__aeabi_dsub+0x40c>
    9776:	e652      	b.n	941e <__aeabi_dsub+0xb2>
    9778:	2400      	movs	r4, #0
    977a:	2500      	movs	r5, #0
    977c:	e771      	b.n	9662 <__aeabi_dsub+0x2f6>
    977e:	4339      	orrs	r1, r7
    9780:	000c      	movs	r4, r1
    9782:	1e62      	subs	r2, r4, #1
    9784:	4194      	sbcs	r4, r2
    9786:	18e4      	adds	r4, r4, r3
    9788:	429c      	cmp	r4, r3
    978a:	419b      	sbcs	r3, r3
    978c:	425b      	negs	r3, r3
    978e:	4463      	add	r3, ip
    9790:	4699      	mov	r9, r3
    9792:	464b      	mov	r3, r9
    9794:	021b      	lsls	r3, r3, #8
    9796:	d400      	bmi.n	979a <__aeabi_dsub+0x42e>
    9798:	e756      	b.n	9648 <__aeabi_dsub+0x2dc>
    979a:	2301      	movs	r3, #1
    979c:	469c      	mov	ip, r3
    979e:	4ba8      	ldr	r3, [pc, #672]	; (9a40 <__aeabi_dsub+0x6d4>)
    97a0:	44e0      	add	r8, ip
    97a2:	4598      	cmp	r8, r3
    97a4:	d038      	beq.n	9818 <__aeabi_dsub+0x4ac>
    97a6:	464b      	mov	r3, r9
    97a8:	48a6      	ldr	r0, [pc, #664]	; (9a44 <__aeabi_dsub+0x6d8>)
    97aa:	2201      	movs	r2, #1
    97ac:	4003      	ands	r3, r0
    97ae:	0018      	movs	r0, r3
    97b0:	0863      	lsrs	r3, r4, #1
    97b2:	4014      	ands	r4, r2
    97b4:	431c      	orrs	r4, r3
    97b6:	07c3      	lsls	r3, r0, #31
    97b8:	431c      	orrs	r4, r3
    97ba:	0843      	lsrs	r3, r0, #1
    97bc:	4699      	mov	r9, r3
    97be:	e657      	b.n	9470 <__aeabi_dsub+0x104>
    97c0:	0010      	movs	r0, r2
    97c2:	000e      	movs	r6, r1
    97c4:	3820      	subs	r0, #32
    97c6:	40c6      	lsrs	r6, r0
    97c8:	2a20      	cmp	r2, #32
    97ca:	d004      	beq.n	97d6 <__aeabi_dsub+0x46a>
    97cc:	2040      	movs	r0, #64	; 0x40
    97ce:	1a82      	subs	r2, r0, r2
    97d0:	4091      	lsls	r1, r2
    97d2:	430f      	orrs	r7, r1
    97d4:	46b9      	mov	r9, r7
    97d6:	464f      	mov	r7, r9
    97d8:	1e7a      	subs	r2, r7, #1
    97da:	4197      	sbcs	r7, r2
    97dc:	4337      	orrs	r7, r6
    97de:	e60f      	b.n	9400 <__aeabi_dsub+0x94>
    97e0:	4662      	mov	r2, ip
    97e2:	431a      	orrs	r2, r3
    97e4:	0013      	movs	r3, r2
    97e6:	1e5a      	subs	r2, r3, #1
    97e8:	4193      	sbcs	r3, r2
    97ea:	1afc      	subs	r4, r7, r3
    97ec:	42a7      	cmp	r7, r4
    97ee:	41bf      	sbcs	r7, r7
    97f0:	427f      	negs	r7, r7
    97f2:	1bcb      	subs	r3, r1, r7
    97f4:	4699      	mov	r9, r3
    97f6:	465d      	mov	r5, fp
    97f8:	4680      	mov	r8, r0
    97fa:	e608      	b.n	940e <__aeabi_dsub+0xa2>
    97fc:	4666      	mov	r6, ip
    97fe:	431e      	orrs	r6, r3
    9800:	d100      	bne.n	9804 <__aeabi_dsub+0x498>
    9802:	e0be      	b.n	9982 <__aeabi_dsub+0x616>
    9804:	1e56      	subs	r6, r2, #1
    9806:	2a01      	cmp	r2, #1
    9808:	d100      	bne.n	980c <__aeabi_dsub+0x4a0>
    980a:	e109      	b.n	9a20 <__aeabi_dsub+0x6b4>
    980c:	4c8c      	ldr	r4, [pc, #560]	; (9a40 <__aeabi_dsub+0x6d4>)
    980e:	42a2      	cmp	r2, r4
    9810:	d100      	bne.n	9814 <__aeabi_dsub+0x4a8>
    9812:	e119      	b.n	9a48 <__aeabi_dsub+0x6dc>
    9814:	0032      	movs	r2, r6
    9816:	e6c1      	b.n	959c <__aeabi_dsub+0x230>
    9818:	4642      	mov	r2, r8
    981a:	2400      	movs	r4, #0
    981c:	2300      	movs	r3, #0
    981e:	e648      	b.n	94b2 <__aeabi_dsub+0x146>
    9820:	2020      	movs	r0, #32
    9822:	000c      	movs	r4, r1
    9824:	1a80      	subs	r0, r0, r2
    9826:	003e      	movs	r6, r7
    9828:	4087      	lsls	r7, r0
    982a:	4084      	lsls	r4, r0
    982c:	40d6      	lsrs	r6, r2
    982e:	1e78      	subs	r0, r7, #1
    9830:	4187      	sbcs	r7, r0
    9832:	40d1      	lsrs	r1, r2
    9834:	4334      	orrs	r4, r6
    9836:	433c      	orrs	r4, r7
    9838:	448c      	add	ip, r1
    983a:	e7a4      	b.n	9786 <__aeabi_dsub+0x41a>
    983c:	4a80      	ldr	r2, [pc, #512]	; (9a40 <__aeabi_dsub+0x6d4>)
    983e:	4290      	cmp	r0, r2
    9840:	d100      	bne.n	9844 <__aeabi_dsub+0x4d8>
    9842:	e0e9      	b.n	9a18 <__aeabi_dsub+0x6ac>
    9844:	19df      	adds	r7, r3, r7
    9846:	429f      	cmp	r7, r3
    9848:	419b      	sbcs	r3, r3
    984a:	4461      	add	r1, ip
    984c:	425b      	negs	r3, r3
    984e:	18c9      	adds	r1, r1, r3
    9850:	07cc      	lsls	r4, r1, #31
    9852:	087f      	lsrs	r7, r7, #1
    9854:	084b      	lsrs	r3, r1, #1
    9856:	4699      	mov	r9, r3
    9858:	4680      	mov	r8, r0
    985a:	433c      	orrs	r4, r7
    985c:	e6f4      	b.n	9648 <__aeabi_dsub+0x2dc>
    985e:	1afc      	subs	r4, r7, r3
    9860:	42a7      	cmp	r7, r4
    9862:	41bf      	sbcs	r7, r7
    9864:	4663      	mov	r3, ip
    9866:	427f      	negs	r7, r7
    9868:	1ac9      	subs	r1, r1, r3
    986a:	1bcb      	subs	r3, r1, r7
    986c:	4699      	mov	r9, r3
    986e:	465d      	mov	r5, fp
    9870:	e5d5      	b.n	941e <__aeabi_dsub+0xb2>
    9872:	08ff      	lsrs	r7, r7, #3
    9874:	074b      	lsls	r3, r1, #29
    9876:	465d      	mov	r5, fp
    9878:	433b      	orrs	r3, r7
    987a:	08cc      	lsrs	r4, r1, #3
    987c:	e6ee      	b.n	965c <__aeabi_dsub+0x2f0>
    987e:	4662      	mov	r2, ip
    9880:	431a      	orrs	r2, r3
    9882:	d000      	beq.n	9886 <__aeabi_dsub+0x51a>
    9884:	e082      	b.n	998c <__aeabi_dsub+0x620>
    9886:	000b      	movs	r3, r1
    9888:	433b      	orrs	r3, r7
    988a:	d11b      	bne.n	98c4 <__aeabi_dsub+0x558>
    988c:	2480      	movs	r4, #128	; 0x80
    988e:	2500      	movs	r5, #0
    9890:	0324      	lsls	r4, r4, #12
    9892:	e6f9      	b.n	9688 <__aeabi_dsub+0x31c>
    9894:	19dc      	adds	r4, r3, r7
    9896:	429c      	cmp	r4, r3
    9898:	419b      	sbcs	r3, r3
    989a:	4461      	add	r1, ip
    989c:	4689      	mov	r9, r1
    989e:	425b      	negs	r3, r3
    98a0:	4499      	add	r9, r3
    98a2:	464b      	mov	r3, r9
    98a4:	021b      	lsls	r3, r3, #8
    98a6:	d444      	bmi.n	9932 <__aeabi_dsub+0x5c6>
    98a8:	2301      	movs	r3, #1
    98aa:	4698      	mov	r8, r3
    98ac:	e6cc      	b.n	9648 <__aeabi_dsub+0x2dc>
    98ae:	1bdc      	subs	r4, r3, r7
    98b0:	4662      	mov	r2, ip
    98b2:	42a3      	cmp	r3, r4
    98b4:	419b      	sbcs	r3, r3
    98b6:	1a51      	subs	r1, r2, r1
    98b8:	425b      	negs	r3, r3
    98ba:	1acb      	subs	r3, r1, r3
    98bc:	4699      	mov	r9, r3
    98be:	2301      	movs	r3, #1
    98c0:	4698      	mov	r8, r3
    98c2:	e5a4      	b.n	940e <__aeabi_dsub+0xa2>
    98c4:	08ff      	lsrs	r7, r7, #3
    98c6:	074b      	lsls	r3, r1, #29
    98c8:	465d      	mov	r5, fp
    98ca:	433b      	orrs	r3, r7
    98cc:	08cc      	lsrs	r4, r1, #3
    98ce:	e6d7      	b.n	9680 <__aeabi_dsub+0x314>
    98d0:	4662      	mov	r2, ip
    98d2:	431a      	orrs	r2, r3
    98d4:	0014      	movs	r4, r2
    98d6:	1e63      	subs	r3, r4, #1
    98d8:	419c      	sbcs	r4, r3
    98da:	e679      	b.n	95d0 <__aeabi_dsub+0x264>
    98dc:	0015      	movs	r5, r2
    98de:	4664      	mov	r4, ip
    98e0:	3d20      	subs	r5, #32
    98e2:	40ec      	lsrs	r4, r5
    98e4:	46a0      	mov	r8, r4
    98e6:	2a20      	cmp	r2, #32
    98e8:	d005      	beq.n	98f6 <__aeabi_dsub+0x58a>
    98ea:	2540      	movs	r5, #64	; 0x40
    98ec:	4664      	mov	r4, ip
    98ee:	1aaa      	subs	r2, r5, r2
    98f0:	4094      	lsls	r4, r2
    98f2:	4323      	orrs	r3, r4
    98f4:	469a      	mov	sl, r3
    98f6:	4654      	mov	r4, sl
    98f8:	1e63      	subs	r3, r4, #1
    98fa:	419c      	sbcs	r4, r3
    98fc:	4643      	mov	r3, r8
    98fe:	4323      	orrs	r3, r4
    9900:	e773      	b.n	97ea <__aeabi_dsub+0x47e>
    9902:	4662      	mov	r2, ip
    9904:	431a      	orrs	r2, r3
    9906:	d023      	beq.n	9950 <__aeabi_dsub+0x5e4>
    9908:	000a      	movs	r2, r1
    990a:	433a      	orrs	r2, r7
    990c:	d000      	beq.n	9910 <__aeabi_dsub+0x5a4>
    990e:	e0a0      	b.n	9a52 <__aeabi_dsub+0x6e6>
    9910:	4662      	mov	r2, ip
    9912:	08db      	lsrs	r3, r3, #3
    9914:	0752      	lsls	r2, r2, #29
    9916:	4313      	orrs	r3, r2
    9918:	4662      	mov	r2, ip
    991a:	08d4      	lsrs	r4, r2, #3
    991c:	e6b0      	b.n	9680 <__aeabi_dsub+0x314>
    991e:	000b      	movs	r3, r1
    9920:	433b      	orrs	r3, r7
    9922:	d100      	bne.n	9926 <__aeabi_dsub+0x5ba>
    9924:	e728      	b.n	9778 <__aeabi_dsub+0x40c>
    9926:	08ff      	lsrs	r7, r7, #3
    9928:	074b      	lsls	r3, r1, #29
    992a:	465d      	mov	r5, fp
    992c:	433b      	orrs	r3, r7
    992e:	08cc      	lsrs	r4, r1, #3
    9930:	e697      	b.n	9662 <__aeabi_dsub+0x2f6>
    9932:	2302      	movs	r3, #2
    9934:	4698      	mov	r8, r3
    9936:	e736      	b.n	97a6 <__aeabi_dsub+0x43a>
    9938:	1afc      	subs	r4, r7, r3
    993a:	42a7      	cmp	r7, r4
    993c:	41bf      	sbcs	r7, r7
    993e:	4663      	mov	r3, ip
    9940:	427f      	negs	r7, r7
    9942:	1ac9      	subs	r1, r1, r3
    9944:	1bcb      	subs	r3, r1, r7
    9946:	4699      	mov	r9, r3
    9948:	2301      	movs	r3, #1
    994a:	465d      	mov	r5, fp
    994c:	4698      	mov	r8, r3
    994e:	e55e      	b.n	940e <__aeabi_dsub+0xa2>
    9950:	074b      	lsls	r3, r1, #29
    9952:	08ff      	lsrs	r7, r7, #3
    9954:	433b      	orrs	r3, r7
    9956:	08cc      	lsrs	r4, r1, #3
    9958:	e692      	b.n	9680 <__aeabi_dsub+0x314>
    995a:	1bdc      	subs	r4, r3, r7
    995c:	4660      	mov	r0, ip
    995e:	42a3      	cmp	r3, r4
    9960:	41b6      	sbcs	r6, r6
    9962:	1a40      	subs	r0, r0, r1
    9964:	4276      	negs	r6, r6
    9966:	1b80      	subs	r0, r0, r6
    9968:	4681      	mov	r9, r0
    996a:	0200      	lsls	r0, r0, #8
    996c:	d560      	bpl.n	9a30 <__aeabi_dsub+0x6c4>
    996e:	1afc      	subs	r4, r7, r3
    9970:	42a7      	cmp	r7, r4
    9972:	41bf      	sbcs	r7, r7
    9974:	4663      	mov	r3, ip
    9976:	427f      	negs	r7, r7
    9978:	1ac9      	subs	r1, r1, r3
    997a:	1bcb      	subs	r3, r1, r7
    997c:	4699      	mov	r9, r3
    997e:	465d      	mov	r5, fp
    9980:	e576      	b.n	9470 <__aeabi_dsub+0x104>
    9982:	08ff      	lsrs	r7, r7, #3
    9984:	074b      	lsls	r3, r1, #29
    9986:	433b      	orrs	r3, r7
    9988:	08cc      	lsrs	r4, r1, #3
    998a:	e667      	b.n	965c <__aeabi_dsub+0x2f0>
    998c:	000a      	movs	r2, r1
    998e:	08db      	lsrs	r3, r3, #3
    9990:	433a      	orrs	r2, r7
    9992:	d100      	bne.n	9996 <__aeabi_dsub+0x62a>
    9994:	e66f      	b.n	9676 <__aeabi_dsub+0x30a>
    9996:	4662      	mov	r2, ip
    9998:	0752      	lsls	r2, r2, #29
    999a:	4313      	orrs	r3, r2
    999c:	4662      	mov	r2, ip
    999e:	08d4      	lsrs	r4, r2, #3
    99a0:	2280      	movs	r2, #128	; 0x80
    99a2:	0312      	lsls	r2, r2, #12
    99a4:	4214      	tst	r4, r2
    99a6:	d007      	beq.n	99b8 <__aeabi_dsub+0x64c>
    99a8:	08c8      	lsrs	r0, r1, #3
    99aa:	4210      	tst	r0, r2
    99ac:	d104      	bne.n	99b8 <__aeabi_dsub+0x64c>
    99ae:	465d      	mov	r5, fp
    99b0:	0004      	movs	r4, r0
    99b2:	08fb      	lsrs	r3, r7, #3
    99b4:	0749      	lsls	r1, r1, #29
    99b6:	430b      	orrs	r3, r1
    99b8:	0f5a      	lsrs	r2, r3, #29
    99ba:	00db      	lsls	r3, r3, #3
    99bc:	08db      	lsrs	r3, r3, #3
    99be:	0752      	lsls	r2, r2, #29
    99c0:	4313      	orrs	r3, r2
    99c2:	e65d      	b.n	9680 <__aeabi_dsub+0x314>
    99c4:	074b      	lsls	r3, r1, #29
    99c6:	08ff      	lsrs	r7, r7, #3
    99c8:	433b      	orrs	r3, r7
    99ca:	08cc      	lsrs	r4, r1, #3
    99cc:	e649      	b.n	9662 <__aeabi_dsub+0x2f6>
    99ce:	19dc      	adds	r4, r3, r7
    99d0:	429c      	cmp	r4, r3
    99d2:	419b      	sbcs	r3, r3
    99d4:	4461      	add	r1, ip
    99d6:	4689      	mov	r9, r1
    99d8:	425b      	negs	r3, r3
    99da:	4499      	add	r9, r3
    99dc:	464b      	mov	r3, r9
    99de:	021b      	lsls	r3, r3, #8
    99e0:	d400      	bmi.n	99e4 <__aeabi_dsub+0x678>
    99e2:	e631      	b.n	9648 <__aeabi_dsub+0x2dc>
    99e4:	464a      	mov	r2, r9
    99e6:	4b17      	ldr	r3, [pc, #92]	; (9a44 <__aeabi_dsub+0x6d8>)
    99e8:	401a      	ands	r2, r3
    99ea:	2301      	movs	r3, #1
    99ec:	4691      	mov	r9, r2
    99ee:	4698      	mov	r8, r3
    99f0:	e62a      	b.n	9648 <__aeabi_dsub+0x2dc>
    99f2:	0016      	movs	r6, r2
    99f4:	4664      	mov	r4, ip
    99f6:	3e20      	subs	r6, #32
    99f8:	40f4      	lsrs	r4, r6
    99fa:	46a0      	mov	r8, r4
    99fc:	2a20      	cmp	r2, #32
    99fe:	d005      	beq.n	9a0c <__aeabi_dsub+0x6a0>
    9a00:	2640      	movs	r6, #64	; 0x40
    9a02:	4664      	mov	r4, ip
    9a04:	1ab2      	subs	r2, r6, r2
    9a06:	4094      	lsls	r4, r2
    9a08:	4323      	orrs	r3, r4
    9a0a:	469a      	mov	sl, r3
    9a0c:	4654      	mov	r4, sl
    9a0e:	1e63      	subs	r3, r4, #1
    9a10:	419c      	sbcs	r4, r3
    9a12:	4643      	mov	r3, r8
    9a14:	431c      	orrs	r4, r3
    9a16:	e5db      	b.n	95d0 <__aeabi_dsub+0x264>
    9a18:	0002      	movs	r2, r0
    9a1a:	2400      	movs	r4, #0
    9a1c:	2300      	movs	r3, #0
    9a1e:	e548      	b.n	94b2 <__aeabi_dsub+0x146>
    9a20:	19dc      	adds	r4, r3, r7
    9a22:	42bc      	cmp	r4, r7
    9a24:	41bf      	sbcs	r7, r7
    9a26:	4461      	add	r1, ip
    9a28:	4689      	mov	r9, r1
    9a2a:	427f      	negs	r7, r7
    9a2c:	44b9      	add	r9, r7
    9a2e:	e738      	b.n	98a2 <__aeabi_dsub+0x536>
    9a30:	464b      	mov	r3, r9
    9a32:	4323      	orrs	r3, r4
    9a34:	d100      	bne.n	9a38 <__aeabi_dsub+0x6cc>
    9a36:	e69f      	b.n	9778 <__aeabi_dsub+0x40c>
    9a38:	e606      	b.n	9648 <__aeabi_dsub+0x2dc>
    9a3a:	46c0      	nop			; (mov r8, r8)
    9a3c:	000007fe 	.word	0x000007fe
    9a40:	000007ff 	.word	0x000007ff
    9a44:	ff7fffff 	.word	0xff7fffff
    9a48:	08ff      	lsrs	r7, r7, #3
    9a4a:	074b      	lsls	r3, r1, #29
    9a4c:	433b      	orrs	r3, r7
    9a4e:	08cc      	lsrs	r4, r1, #3
    9a50:	e616      	b.n	9680 <__aeabi_dsub+0x314>
    9a52:	4662      	mov	r2, ip
    9a54:	08db      	lsrs	r3, r3, #3
    9a56:	0752      	lsls	r2, r2, #29
    9a58:	4313      	orrs	r3, r2
    9a5a:	4662      	mov	r2, ip
    9a5c:	08d4      	lsrs	r4, r2, #3
    9a5e:	2280      	movs	r2, #128	; 0x80
    9a60:	0312      	lsls	r2, r2, #12
    9a62:	4214      	tst	r4, r2
    9a64:	d007      	beq.n	9a76 <__aeabi_dsub+0x70a>
    9a66:	08c8      	lsrs	r0, r1, #3
    9a68:	4210      	tst	r0, r2
    9a6a:	d104      	bne.n	9a76 <__aeabi_dsub+0x70a>
    9a6c:	465d      	mov	r5, fp
    9a6e:	0004      	movs	r4, r0
    9a70:	08fb      	lsrs	r3, r7, #3
    9a72:	0749      	lsls	r1, r1, #29
    9a74:	430b      	orrs	r3, r1
    9a76:	0f5a      	lsrs	r2, r3, #29
    9a78:	00db      	lsls	r3, r3, #3
    9a7a:	0752      	lsls	r2, r2, #29
    9a7c:	08db      	lsrs	r3, r3, #3
    9a7e:	4313      	orrs	r3, r2
    9a80:	e5fe      	b.n	9680 <__aeabi_dsub+0x314>
    9a82:	2300      	movs	r3, #0
    9a84:	4a01      	ldr	r2, [pc, #4]	; (9a8c <__aeabi_dsub+0x720>)
    9a86:	001c      	movs	r4, r3
    9a88:	e513      	b.n	94b2 <__aeabi_dsub+0x146>
    9a8a:	46c0      	nop			; (mov r8, r8)
    9a8c:	000007ff 	.word	0x000007ff

00009a90 <__aeabi_dcmpun>:
    9a90:	b570      	push	{r4, r5, r6, lr}
    9a92:	0005      	movs	r5, r0
    9a94:	480c      	ldr	r0, [pc, #48]	; (9ac8 <__aeabi_dcmpun+0x38>)
    9a96:	031c      	lsls	r4, r3, #12
    9a98:	0016      	movs	r6, r2
    9a9a:	005b      	lsls	r3, r3, #1
    9a9c:	030a      	lsls	r2, r1, #12
    9a9e:	0049      	lsls	r1, r1, #1
    9aa0:	0b12      	lsrs	r2, r2, #12
    9aa2:	0d49      	lsrs	r1, r1, #21
    9aa4:	0b24      	lsrs	r4, r4, #12
    9aa6:	0d5b      	lsrs	r3, r3, #21
    9aa8:	4281      	cmp	r1, r0
    9aaa:	d008      	beq.n	9abe <__aeabi_dcmpun+0x2e>
    9aac:	4a06      	ldr	r2, [pc, #24]	; (9ac8 <__aeabi_dcmpun+0x38>)
    9aae:	2000      	movs	r0, #0
    9ab0:	4293      	cmp	r3, r2
    9ab2:	d103      	bne.n	9abc <__aeabi_dcmpun+0x2c>
    9ab4:	0020      	movs	r0, r4
    9ab6:	4330      	orrs	r0, r6
    9ab8:	1e43      	subs	r3, r0, #1
    9aba:	4198      	sbcs	r0, r3
    9abc:	bd70      	pop	{r4, r5, r6, pc}
    9abe:	2001      	movs	r0, #1
    9ac0:	432a      	orrs	r2, r5
    9ac2:	d1fb      	bne.n	9abc <__aeabi_dcmpun+0x2c>
    9ac4:	e7f2      	b.n	9aac <__aeabi_dcmpun+0x1c>
    9ac6:	46c0      	nop			; (mov r8, r8)
    9ac8:	000007ff 	.word	0x000007ff

00009acc <__aeabi_d2iz>:
    9acc:	000a      	movs	r2, r1
    9ace:	b530      	push	{r4, r5, lr}
    9ad0:	4c13      	ldr	r4, [pc, #76]	; (9b20 <__aeabi_d2iz+0x54>)
    9ad2:	0053      	lsls	r3, r2, #1
    9ad4:	0309      	lsls	r1, r1, #12
    9ad6:	0005      	movs	r5, r0
    9ad8:	0b09      	lsrs	r1, r1, #12
    9ada:	2000      	movs	r0, #0
    9adc:	0d5b      	lsrs	r3, r3, #21
    9ade:	0fd2      	lsrs	r2, r2, #31
    9ae0:	42a3      	cmp	r3, r4
    9ae2:	dd04      	ble.n	9aee <__aeabi_d2iz+0x22>
    9ae4:	480f      	ldr	r0, [pc, #60]	; (9b24 <__aeabi_d2iz+0x58>)
    9ae6:	4283      	cmp	r3, r0
    9ae8:	dd02      	ble.n	9af0 <__aeabi_d2iz+0x24>
    9aea:	4b0f      	ldr	r3, [pc, #60]	; (9b28 <__aeabi_d2iz+0x5c>)
    9aec:	18d0      	adds	r0, r2, r3
    9aee:	bd30      	pop	{r4, r5, pc}
    9af0:	2080      	movs	r0, #128	; 0x80
    9af2:	0340      	lsls	r0, r0, #13
    9af4:	4301      	orrs	r1, r0
    9af6:	480d      	ldr	r0, [pc, #52]	; (9b2c <__aeabi_d2iz+0x60>)
    9af8:	1ac0      	subs	r0, r0, r3
    9afa:	281f      	cmp	r0, #31
    9afc:	dd08      	ble.n	9b10 <__aeabi_d2iz+0x44>
    9afe:	480c      	ldr	r0, [pc, #48]	; (9b30 <__aeabi_d2iz+0x64>)
    9b00:	1ac3      	subs	r3, r0, r3
    9b02:	40d9      	lsrs	r1, r3
    9b04:	000b      	movs	r3, r1
    9b06:	4258      	negs	r0, r3
    9b08:	2a00      	cmp	r2, #0
    9b0a:	d1f0      	bne.n	9aee <__aeabi_d2iz+0x22>
    9b0c:	0018      	movs	r0, r3
    9b0e:	e7ee      	b.n	9aee <__aeabi_d2iz+0x22>
    9b10:	4c08      	ldr	r4, [pc, #32]	; (9b34 <__aeabi_d2iz+0x68>)
    9b12:	40c5      	lsrs	r5, r0
    9b14:	46a4      	mov	ip, r4
    9b16:	4463      	add	r3, ip
    9b18:	4099      	lsls	r1, r3
    9b1a:	000b      	movs	r3, r1
    9b1c:	432b      	orrs	r3, r5
    9b1e:	e7f2      	b.n	9b06 <__aeabi_d2iz+0x3a>
    9b20:	000003fe 	.word	0x000003fe
    9b24:	0000041d 	.word	0x0000041d
    9b28:	7fffffff 	.word	0x7fffffff
    9b2c:	00000433 	.word	0x00000433
    9b30:	00000413 	.word	0x00000413
    9b34:	fffffbed 	.word	0xfffffbed

00009b38 <__aeabi_i2d>:
    9b38:	b570      	push	{r4, r5, r6, lr}
    9b3a:	2800      	cmp	r0, #0
    9b3c:	d016      	beq.n	9b6c <__aeabi_i2d+0x34>
    9b3e:	17c3      	asrs	r3, r0, #31
    9b40:	18c5      	adds	r5, r0, r3
    9b42:	405d      	eors	r5, r3
    9b44:	0fc4      	lsrs	r4, r0, #31
    9b46:	0028      	movs	r0, r5
    9b48:	f000 f84c 	bl	9be4 <__clzsi2>
    9b4c:	4a11      	ldr	r2, [pc, #68]	; (9b94 <__aeabi_i2d+0x5c>)
    9b4e:	1a12      	subs	r2, r2, r0
    9b50:	280a      	cmp	r0, #10
    9b52:	dc16      	bgt.n	9b82 <__aeabi_i2d+0x4a>
    9b54:	0003      	movs	r3, r0
    9b56:	002e      	movs	r6, r5
    9b58:	3315      	adds	r3, #21
    9b5a:	409e      	lsls	r6, r3
    9b5c:	230b      	movs	r3, #11
    9b5e:	1a18      	subs	r0, r3, r0
    9b60:	40c5      	lsrs	r5, r0
    9b62:	0552      	lsls	r2, r2, #21
    9b64:	032d      	lsls	r5, r5, #12
    9b66:	0b2d      	lsrs	r5, r5, #12
    9b68:	0d53      	lsrs	r3, r2, #21
    9b6a:	e003      	b.n	9b74 <__aeabi_i2d+0x3c>
    9b6c:	2400      	movs	r4, #0
    9b6e:	2300      	movs	r3, #0
    9b70:	2500      	movs	r5, #0
    9b72:	2600      	movs	r6, #0
    9b74:	051b      	lsls	r3, r3, #20
    9b76:	432b      	orrs	r3, r5
    9b78:	07e4      	lsls	r4, r4, #31
    9b7a:	4323      	orrs	r3, r4
    9b7c:	0030      	movs	r0, r6
    9b7e:	0019      	movs	r1, r3
    9b80:	bd70      	pop	{r4, r5, r6, pc}
    9b82:	380b      	subs	r0, #11
    9b84:	4085      	lsls	r5, r0
    9b86:	0552      	lsls	r2, r2, #21
    9b88:	032d      	lsls	r5, r5, #12
    9b8a:	2600      	movs	r6, #0
    9b8c:	0b2d      	lsrs	r5, r5, #12
    9b8e:	0d53      	lsrs	r3, r2, #21
    9b90:	e7f0      	b.n	9b74 <__aeabi_i2d+0x3c>
    9b92:	46c0      	nop			; (mov r8, r8)
    9b94:	0000041e 	.word	0x0000041e

00009b98 <__aeabi_ui2d>:
    9b98:	b510      	push	{r4, lr}
    9b9a:	1e04      	subs	r4, r0, #0
    9b9c:	d010      	beq.n	9bc0 <__aeabi_ui2d+0x28>
    9b9e:	f000 f821 	bl	9be4 <__clzsi2>
    9ba2:	4b0f      	ldr	r3, [pc, #60]	; (9be0 <__aeabi_ui2d+0x48>)
    9ba4:	1a1b      	subs	r3, r3, r0
    9ba6:	280a      	cmp	r0, #10
    9ba8:	dc11      	bgt.n	9bce <__aeabi_ui2d+0x36>
    9baa:	220b      	movs	r2, #11
    9bac:	0021      	movs	r1, r4
    9bae:	1a12      	subs	r2, r2, r0
    9bb0:	40d1      	lsrs	r1, r2
    9bb2:	3015      	adds	r0, #21
    9bb4:	030a      	lsls	r2, r1, #12
    9bb6:	055b      	lsls	r3, r3, #21
    9bb8:	4084      	lsls	r4, r0
    9bba:	0b12      	lsrs	r2, r2, #12
    9bbc:	0d5b      	lsrs	r3, r3, #21
    9bbe:	e001      	b.n	9bc4 <__aeabi_ui2d+0x2c>
    9bc0:	2300      	movs	r3, #0
    9bc2:	2200      	movs	r2, #0
    9bc4:	051b      	lsls	r3, r3, #20
    9bc6:	4313      	orrs	r3, r2
    9bc8:	0020      	movs	r0, r4
    9bca:	0019      	movs	r1, r3
    9bcc:	bd10      	pop	{r4, pc}
    9bce:	0022      	movs	r2, r4
    9bd0:	380b      	subs	r0, #11
    9bd2:	4082      	lsls	r2, r0
    9bd4:	055b      	lsls	r3, r3, #21
    9bd6:	0312      	lsls	r2, r2, #12
    9bd8:	2400      	movs	r4, #0
    9bda:	0b12      	lsrs	r2, r2, #12
    9bdc:	0d5b      	lsrs	r3, r3, #21
    9bde:	e7f1      	b.n	9bc4 <__aeabi_ui2d+0x2c>
    9be0:	0000041e 	.word	0x0000041e

00009be4 <__clzsi2>:
    9be4:	211c      	movs	r1, #28
    9be6:	2301      	movs	r3, #1
    9be8:	041b      	lsls	r3, r3, #16
    9bea:	4298      	cmp	r0, r3
    9bec:	d301      	bcc.n	9bf2 <__clzsi2+0xe>
    9bee:	0c00      	lsrs	r0, r0, #16
    9bf0:	3910      	subs	r1, #16
    9bf2:	0a1b      	lsrs	r3, r3, #8
    9bf4:	4298      	cmp	r0, r3
    9bf6:	d301      	bcc.n	9bfc <__clzsi2+0x18>
    9bf8:	0a00      	lsrs	r0, r0, #8
    9bfa:	3908      	subs	r1, #8
    9bfc:	091b      	lsrs	r3, r3, #4
    9bfe:	4298      	cmp	r0, r3
    9c00:	d301      	bcc.n	9c06 <__clzsi2+0x22>
    9c02:	0900      	lsrs	r0, r0, #4
    9c04:	3904      	subs	r1, #4
    9c06:	a202      	add	r2, pc, #8	; (adr r2, 9c10 <__clzsi2+0x2c>)
    9c08:	5c10      	ldrb	r0, [r2, r0]
    9c0a:	1840      	adds	r0, r0, r1
    9c0c:	4770      	bx	lr
    9c0e:	46c0      	nop			; (mov r8, r8)
    9c10:	02020304 	.word	0x02020304
    9c14:	01010101 	.word	0x01010101
	...

00009c20 <__clzdi2>:
    9c20:	b510      	push	{r4, lr}
    9c22:	2900      	cmp	r1, #0
    9c24:	d103      	bne.n	9c2e <__clzdi2+0xe>
    9c26:	f7ff ffdd 	bl	9be4 <__clzsi2>
    9c2a:	3020      	adds	r0, #32
    9c2c:	e002      	b.n	9c34 <__clzdi2+0x14>
    9c2e:	0008      	movs	r0, r1
    9c30:	f7ff ffd8 	bl	9be4 <__clzsi2>
    9c34:	bd10      	pop	{r4, pc}
    9c36:	46c0      	nop			; (mov r8, r8)

00009c38 <_close>:
    9c38:	2258      	movs	r2, #88	; 0x58
    9c3a:	2001      	movs	r0, #1
    9c3c:	4b01      	ldr	r3, [pc, #4]	; (9c44 <_close+0xc>)
    9c3e:	4240      	negs	r0, r0
    9c40:	601a      	str	r2, [r3, #0]
    9c42:	4770      	bx	lr
    9c44:	40000058 	.word	0x40000058

00009c48 <_fstat>:
    9c48:	2258      	movs	r2, #88	; 0x58
    9c4a:	2001      	movs	r0, #1
    9c4c:	4b01      	ldr	r3, [pc, #4]	; (9c54 <_fstat+0xc>)
    9c4e:	4240      	negs	r0, r0
    9c50:	601a      	str	r2, [r3, #0]
    9c52:	4770      	bx	lr
    9c54:	40000058 	.word	0x40000058

00009c58 <_getpid>:
    9c58:	2258      	movs	r2, #88	; 0x58
    9c5a:	2001      	movs	r0, #1
    9c5c:	4b01      	ldr	r3, [pc, #4]	; (9c64 <_getpid+0xc>)
    9c5e:	4240      	negs	r0, r0
    9c60:	601a      	str	r2, [r3, #0]
    9c62:	4770      	bx	lr
    9c64:	40000058 	.word	0x40000058

00009c68 <_isatty>:
    9c68:	2258      	movs	r2, #88	; 0x58
    9c6a:	4b02      	ldr	r3, [pc, #8]	; (9c74 <_isatty+0xc>)
    9c6c:	2000      	movs	r0, #0
    9c6e:	601a      	str	r2, [r3, #0]
    9c70:	4770      	bx	lr
    9c72:	46c0      	nop			; (mov r8, r8)
    9c74:	40000058 	.word	0x40000058

00009c78 <_kill>:
    9c78:	2258      	movs	r2, #88	; 0x58
    9c7a:	2001      	movs	r0, #1
    9c7c:	4b01      	ldr	r3, [pc, #4]	; (9c84 <_kill+0xc>)
    9c7e:	4240      	negs	r0, r0
    9c80:	601a      	str	r2, [r3, #0]
    9c82:	4770      	bx	lr
    9c84:	40000058 	.word	0x40000058

00009c88 <_lseek>:
    9c88:	2258      	movs	r2, #88	; 0x58
    9c8a:	2001      	movs	r0, #1
    9c8c:	4b01      	ldr	r3, [pc, #4]	; (9c94 <_lseek+0xc>)
    9c8e:	4240      	negs	r0, r0
    9c90:	601a      	str	r2, [r3, #0]
    9c92:	4770      	bx	lr
    9c94:	40000058 	.word	0x40000058

00009c98 <_read>:
    9c98:	2258      	movs	r2, #88	; 0x58
    9c9a:	2001      	movs	r0, #1
    9c9c:	4b01      	ldr	r3, [pc, #4]	; (9ca4 <_read+0xc>)
    9c9e:	4240      	negs	r0, r0
    9ca0:	601a      	str	r2, [r3, #0]
    9ca2:	4770      	bx	lr
    9ca4:	40000058 	.word	0x40000058

00009ca8 <_sbrk>:
    9ca8:	4a04      	ldr	r2, [pc, #16]	; (9cbc <_sbrk+0x14>)
    9caa:	0003      	movs	r3, r0
    9cac:	6810      	ldr	r0, [r2, #0]
    9cae:	2800      	cmp	r0, #0
    9cb0:	d002      	beq.n	9cb8 <_sbrk+0x10>
    9cb2:	18c3      	adds	r3, r0, r3
    9cb4:	6013      	str	r3, [r2, #0]
    9cb6:	4770      	bx	lr
    9cb8:	4801      	ldr	r0, [pc, #4]	; (9cc0 <_sbrk+0x18>)
    9cba:	e7fa      	b.n	9cb2 <_sbrk+0xa>
    9cbc:	40000060 	.word	0x40000060
    9cc0:	40400000 	.word	0x40400000

00009cc4 <_write>:
    9cc4:	2258      	movs	r2, #88	; 0x58
    9cc6:	2001      	movs	r0, #1
    9cc8:	4b01      	ldr	r3, [pc, #4]	; (9cd0 <_write+0xc>)
    9cca:	4240      	negs	r0, r0
    9ccc:	601a      	str	r2, [r3, #0]
    9cce:	4770      	bx	lr
    9cd0:	40000058 	.word	0x40000058

00009cd4 <_exit>:
    9cd4:	e7fe      	b.n	9cd4 <_exit>
    9cd6:	46c0      	nop			; (mov r8, r8)
