
main.elf:     file format elf32-littlearm


Disassembly of section .text:

00000000 <hang-0x50>:
       0:	40800000 	.word	0x40800000
       4:	00000075 	.word	0x00000075
       8:	00000051 	.word	0x00000051
       c:	00000053 	.word	0x00000053
      10:	00000055 	.word	0x00000055
      14:	00000057 	.word	0x00000057
      18:	00000059 	.word	0x00000059
      1c:	0000005b 	.word	0x0000005b
      20:	0000005d 	.word	0x0000005d
      24:	0000005f 	.word	0x0000005f
      28:	00000061 	.word	0x00000061
      2c:	00000063 	.word	0x00000063
      30:	00000065 	.word	0x00000065
      34:	00000067 	.word	0x00000067
      38:	00000069 	.word	0x00000069
      3c:	0000006b 	.word	0x0000006b
      40:	0000006d 	.word	0x0000006d
      44:	0000006f 	.word	0x0000006f
      48:	00000071 	.word	0x00000071
      4c:	00000073 	.word	0x00000073

00000050 <hang>:
      50:	e7fe      	b.n	50 <hang>

00000052 <hang1>:
      52:	e7fe      	b.n	52 <hang1>

00000054 <hang2>:
      54:	e7fe      	b.n	54 <hang2>

00000056 <hang3>:
      56:	e7fe      	b.n	56 <hang3>

00000058 <hang4>:
      58:	e7fe      	b.n	58 <hang4>

0000005a <hang5>:
      5a:	e7fe      	b.n	5a <hang5>

0000005c <hang6>:
      5c:	e7fe      	b.n	5c <hang6>

0000005e <hang7>:
      5e:	e7fe      	b.n	5e <hang7>

00000060 <hang8>:
      60:	e7fe      	b.n	60 <hang8>

00000062 <hang9>:
      62:	e7fe      	b.n	62 <hang9>

00000064 <hang10>:
      64:	e7fe      	b.n	64 <hang10>

00000066 <hang11>:
      66:	e7fe      	b.n	66 <hang11>

00000068 <hang12>:
      68:	e7fe      	b.n	68 <hang12>

0000006a <hang13>:
      6a:	e7fe      	b.n	6a <hang13>

0000006c <hang14>:
      6c:	e7fe      	b.n	6c <hang14>

0000006e <hang15>:
      6e:	e7fe      	b.n	6e <hang15>

00000070 <hang16>:
      70:	e7fe      	b.n	70 <hang16>

00000072 <hang17>:
      72:	e7fe      	b.n	72 <hang17>

00000074 <_start>:
      74:	f000 f9e2 	bl	43c <main>

00000078 <exit>:
      78:	df01      	svc	1
      7a:	e7fe      	b.n	7a <exit+0x2>

0000007c <putchar>:
      7c:	b580      	push	{r7, lr}
      7e:	af00      	add	r7, sp, #0
      80:	22e0      	movs	r2, #224	; 0xe0
      82:	0612      	lsls	r2, r2, #24
      84:	6010      	str	r0, [r2, #0]
      86:	46bd      	mov	sp, r7
      88:	bd80      	pop	{r7, pc}

0000008a <PUT32>:
      8a:	6001      	str	r1, [r0, #0]
      8c:	4770      	bx	lr

0000008e <GET32>:
      8e:	6800      	ldr	r0, [r0, #0]
      90:	4770      	bx	lr

00000092 <PUTGETCLR>:
      92:	6802      	ldr	r2, [r0, #0]
      94:	438a      	bics	r2, r1
      96:	6002      	str	r2, [r0, #0]
      98:	4770      	bx	lr

0000009a <atest>:
      9a:	1842      	adds	r2, r0, r1
      9c:	2000      	movs	r0, #0
      9e:	d701      	bvc.n	a4 <atest1>
      a0:	2301      	movs	r3, #1
      a2:	4318      	orrs	r0, r3

000000a4 <atest1>:
      a4:	d301      	bcc.n	aa <atest2>
      a6:	2302      	movs	r3, #2
      a8:	4318      	orrs	r0, r3

000000aa <atest2>:
      aa:	4770      	bx	lr

000000ac <stest>:
      ac:	1a42      	subs	r2, r0, r1
      ae:	2000      	movs	r0, #0
      b0:	d701      	bvc.n	b6 <stest1>
      b2:	2301      	movs	r3, #1
      b4:	4318      	orrs	r0, r3

000000b6 <stest1>:
      b6:	d301      	bcc.n	bc <stest2>
      b8:	2302      	movs	r3, #2
      ba:	4318      	orrs	r0, r3

000000bc <stest2>:
      bc:	4770      	bx	lr

000000be <returnvcflags>:
      be:	d703      	bvc.n	c8 <returnvcflags+0xa>
      c0:	d306      	bcc.n	d0 <returnvcflags+0x12>
      c2:	2003      	movs	r0, #3
      c4:	0700      	lsls	r0, r0, #28
      c6:	4770      	bx	lr
      c8:	d305      	bcc.n	d6 <returnvcflags+0x18>
      ca:	2002      	movs	r0, #2
      cc:	0700      	lsls	r0, r0, #28
      ce:	4770      	bx	lr
      d0:	2001      	movs	r0, #1
      d2:	0700      	lsls	r0, r0, #28
      d4:	4770      	bx	lr
      d6:	2000      	movs	r0, #0
      d8:	0700      	lsls	r0, r0, #28
      da:	4770      	bx	lr

000000dc <testfun1>:
      dc:	2200      	movs	r2, #0
      de:	41d2      	rors	r2, r2
      e0:	4148      	adcs	r0, r1
      e2:	e7ec      	b.n	be <returnvcflags>

000000e4 <testfun2>:
      e4:	2201      	movs	r2, #1
      e6:	41d2      	rors	r2, r2
      e8:	4148      	adcs	r0, r1
      ea:	e7e8      	b.n	be <returnvcflags>

000000ec <testfun3>:
      ec:	2200      	movs	r2, #0
      ee:	41d2      	rors	r2, r2
      f0:	4188      	sbcs	r0, r1
      f2:	e7e4      	b.n	be <returnvcflags>

000000f4 <testfun4>:
      f4:	2201      	movs	r2, #1
      f6:	41d2      	rors	r2, r2
      f8:	4188      	sbcs	r0, r1
      fa:	e7e0      	b.n	be <returnvcflags>

000000fc <PUTGETSET>:
      fc:	6802      	ldr	r2, [r0, #0]
      fe:	430a      	orrs	r2, r1
     100:	6002      	str	r2, [r0, #0]
     102:	4770      	bx	lr

00000104 <_fini>:
     104:	4770      	bx	lr
     106:	46c0      	nop			; (mov r8, r8)

00000108 <__exidx_start>:
     108:	4770      	bx	lr
     10a:	46c0      	nop			; (mov r8, r8)

0000010c <__exidx_end>:
     10c:	4770      	bx	lr
     10e:	46c0      	nop			; (mov r8, r8)

00000110 <__errno>:
     110:	4770      	bx	lr
     112:	46c0      	nop			; (mov r8, r8)

00000114 <rand>:
     114:	2007      	movs	r0, #7
     116:	4770      	bx	lr

00000118 <srand>:
     118:	200b      	movs	r0, #11
     11a:	4770      	bx	lr

0000011c <initLED>:
     11c:	b580      	push	{r7, lr}
     11e:	af00      	add	r7, sp, #0
     120:	2243      	movs	r2, #67	; 0x43
     122:	0212      	lsls	r2, r2, #8
     124:	3290      	adds	r2, #144	; 0x90
     126:	0212      	lsls	r2, r2, #8
     128:	3208      	adds	r2, #8
     12a:	0212      	lsls	r2, r2, #8
     12c:	32b4      	adds	r2, #180	; 0xb4
     12e:	2301      	movs	r3, #1
     130:	6013      	str	r3, [r2, #0]
     132:	230c      	movs	r3, #12
     134:	2240      	movs	r2, #64	; 0x40
     136:	0412      	lsls	r2, r2, #16
     138:	3260      	adds	r2, #96	; 0x60
     13a:	0212      	lsls	r2, r2, #8
     13c:	3290      	adds	r2, #144	; 0x90
     13e:	6153      	str	r3, [r2, #20]
     140:	2344      	movs	r3, #68	; 0x44
     142:	021b      	lsls	r3, r3, #8
     144:	6053      	str	r3, [r2, #4]
     146:	46bd      	mov	sp, r7
     148:	bd80      	pop	{r7, pc}

0000014a <LED>:
     14a:	b580      	push	{r7, lr}
     14c:	af00      	add	r7, sp, #0
     14e:	2240      	movs	r2, #64	; 0x40
     150:	0412      	lsls	r2, r2, #16
     152:	3260      	adds	r2, #96	; 0x60
     154:	0212      	lsls	r2, r2, #8
     156:	3290      	adds	r2, #144	; 0x90
     158:	2308      	movs	r3, #8
     15a:	6153      	str	r3, [r2, #20]
     15c:	2301      	movs	r3, #1
     15e:	4003      	ands	r3, r0
     160:	00db      	lsls	r3, r3, #3
     162:	6113      	str	r3, [r2, #16]
     164:	2304      	movs	r3, #4
     166:	6193      	str	r3, [r2, #24]
     168:	2200      	movs	r2, #0
     16a:	2300      	movs	r3, #0
     16c:	46bd      	mov	sp, r7
     16e:	bd80      	pop	{r7, pc}

00000170 <init_timer>:
     170:	4770      	bx	lr
     172:	46c0      	nop			; (mov r8, r8)

00000174 <timer>:
     174:	2000      	movs	r0, #0
     176:	2100      	movs	r1, #0
     178:	4770      	bx	lr
     17a:	46c0      	nop			; (mov r8, r8)

0000017c <timer_getres>:
     17c:	2000      	movs	r0, #0
     17e:	2100      	movs	r1, #0
     180:	4770      	bx	lr
     182:	46c0      	nop			; (mov r8, r8)

00000184 <tic>:
     184:	2000      	movs	r0, #0
     186:	2100      	movs	r1, #0
     188:	4b01      	ldr	r3, [pc, #4]	; (190 <tic+0xc>)
     18a:	6018      	str	r0, [r3, #0]
     18c:	6059      	str	r1, [r3, #4]
     18e:	4770      	bx	lr
     190:	00005be8 	.word	0x00005be8

00000194 <toc>:
     194:	b510      	push	{r4, lr}
     196:	4c06      	ldr	r4, [pc, #24]	; (1b0 <toc+0x1c>)
     198:	2000      	movs	r0, #0
     19a:	6822      	ldr	r2, [r4, #0]
     19c:	6863      	ldr	r3, [r4, #4]
     19e:	2100      	movs	r1, #0
     1a0:	f002 f89c 	bl	22dc <__aeabi_dsub>
     1a4:	2200      	movs	r2, #0
     1a6:	2300      	movs	r3, #0
     1a8:	6022      	str	r2, [r4, #0]
     1aa:	6063      	str	r3, [r4, #4]
     1ac:	bd10      	pop	{r4, pc}
     1ae:	46c0      	nop			; (mov r8, r8)
     1b0:	00005be8 	.word	0x00005be8

000001b4 <hist>:
     1b4:	b5f8      	push	{r3, r4, r5, r6, r7, lr}
     1b6:	2501      	movs	r5, #1
     1b8:	4353      	muls	r3, r2
     1ba:	000e      	movs	r6, r1
     1bc:	9906      	ldr	r1, [sp, #24]
     1be:	0004      	movs	r4, r0
     1c0:	408d      	lsls	r5, r1
     1c2:	001f      	movs	r7, r3
     1c4:	2e00      	cmp	r6, #0
     1c6:	d022      	beq.n	20e <hist+0x5a>
     1c8:	2204      	movs	r2, #4
     1ca:	0030      	movs	r0, r6
     1cc:	408a      	lsls	r2, r1
     1ce:	2100      	movs	r1, #0
     1d0:	f000 fc7c 	bl	acc <memset>
     1d4:	2f00      	cmp	r7, #0
     1d6:	dd0f      	ble.n	1f8 <hist+0x44>
     1d8:	0020      	movs	r0, r4
     1da:	4b0e      	ldr	r3, [pc, #56]	; (214 <hist+0x60>)
     1dc:	18ea      	adds	r2, r5, r3
     1de:	0092      	lsls	r2, r2, #2
     1e0:	00bb      	lsls	r3, r7, #2
     1e2:	18b2      	adds	r2, r6, r2
     1e4:	18e3      	adds	r3, r4, r3
     1e6:	6801      	ldr	r1, [r0, #0]
     1e8:	428d      	cmp	r5, r1
     1ea:	dc07      	bgt.n	1fc <hist+0x48>
     1ec:	6811      	ldr	r1, [r2, #0]
     1ee:	3004      	adds	r0, #4
     1f0:	3101      	adds	r1, #1
     1f2:	6011      	str	r1, [r2, #0]
     1f4:	4298      	cmp	r0, r3
     1f6:	d1f6      	bne.n	1e6 <hist+0x32>
     1f8:	2000      	movs	r0, #0
     1fa:	bdf8      	pop	{r3, r4, r5, r6, r7, pc}
     1fc:	0089      	lsls	r1, r1, #2
     1fe:	1871      	adds	r1, r6, r1
     200:	680c      	ldr	r4, [r1, #0]
     202:	3004      	adds	r0, #4
     204:	3401      	adds	r4, #1
     206:	600c      	str	r4, [r1, #0]
     208:	4283      	cmp	r3, r0
     20a:	d1ec      	bne.n	1e6 <hist+0x32>
     20c:	e7f4      	b.n	1f8 <hist+0x44>
     20e:	2001      	movs	r0, #1
     210:	4240      	negs	r0, r0
     212:	e7f2      	b.n	1fa <hist+0x46>
     214:	3fffffff 	.word	0x3fffffff

00000218 <histEq>:
     218:	b5f0      	push	{r4, r5, r6, r7, lr}
     21a:	46de      	mov	lr, fp
     21c:	4657      	mov	r7, sl
     21e:	464e      	mov	r6, r9
     220:	4645      	mov	r5, r8
     222:	2401      	movs	r4, #1
     224:	b5e0      	push	{r5, r6, r7, lr}
     226:	001d      	movs	r5, r3
     228:	0023      	movs	r3, r4
     22a:	b089      	sub	sp, #36	; 0x24
     22c:	0016      	movs	r6, r2
     22e:	9a14      	ldr	r2, [sp, #80]	; 0x50
     230:	9107      	str	r1, [sp, #28]
     232:	4093      	lsls	r3, r2
     234:	9302      	str	r3, [sp, #8]
     236:	9b13      	ldr	r3, [sp, #76]	; 0x4c
     238:	2108      	movs	r1, #8
     23a:	409c      	lsls	r4, r3
     23c:	4683      	mov	fp, r0
     23e:	0020      	movs	r0, r4
     240:	f000 f902 	bl	448 <calloc>
     244:	2108      	movs	r1, #8
     246:	9004      	str	r0, [sp, #16]
     248:	0007      	movs	r7, r0
     24a:	0020      	movs	r0, r4
     24c:	f000 f8fc 	bl	448 <calloc>
     250:	9b12      	ldr	r3, [sp, #72]	; 0x48
     252:	9005      	str	r0, [sp, #20]
     254:	436b      	muls	r3, r5
     256:	9306      	str	r3, [sp, #24]
     258:	2f00      	cmp	r7, #0
     25a:	d100      	bne.n	25e <histEq+0x46>
     25c:	e083      	b.n	366 <histEq+0x14e>
     25e:	2800      	cmp	r0, #0
     260:	d100      	bne.n	264 <histEq+0x4c>
     262:	e080      	b.n	366 <histEq+0x14e>
     264:	2c00      	cmp	r4, #0
     266:	dd5b      	ble.n	320 <histEq+0x108>
     268:	2708      	movs	r7, #8
     26a:	9a04      	ldr	r2, [sp, #16]
     26c:	9b13      	ldr	r3, [sp, #76]	; 0x4c
     26e:	4692      	mov	sl, r2
     270:	409f      	lsls	r7, r3
     272:	4457      	add	r7, sl
     274:	46b8      	mov	r8, r7
     276:	2400      	movs	r4, #0
     278:	0037      	movs	r7, r6
     27a:	2500      	movs	r5, #0
     27c:	4656      	mov	r6, sl
     27e:	cf01      	ldmia	r7!, {r0}
     280:	f002 fb76 	bl	2970 <__aeabi_i2d>
     284:	0002      	movs	r2, r0
     286:	000b      	movs	r3, r1
     288:	0020      	movs	r0, r4
     28a:	0029      	movs	r1, r5
     28c:	f000 fe62 	bl	f54 <__aeabi_dadd>
     290:	0004      	movs	r4, r0
     292:	000d      	movs	r5, r1
     294:	c630      	stmia	r6!, {r4, r5}
     296:	45b0      	cmp	r8, r6
     298:	d1f1      	bne.n	27e <histEq+0x66>
     29a:	9b04      	ldr	r3, [sp, #16]
     29c:	46b1      	mov	r9, r6
     29e:	2601      	movs	r6, #1
     2a0:	4698      	mov	r8, r3
     2a2:	4f34      	ldr	r7, [pc, #208]	; (374 <histEq+0x15c>)
     2a4:	4276      	negs	r6, r6
     2a6:	4643      	mov	r3, r8
     2a8:	0032      	movs	r2, r6
     2aa:	681c      	ldr	r4, [r3, #0]
     2ac:	685d      	ldr	r5, [r3, #4]
     2ae:	003b      	movs	r3, r7
     2b0:	0020      	movs	r0, r4
     2b2:	0029      	movs	r1, r5
     2b4:	f000 fe3a 	bl	f2c <__aeabi_dcmpgt>
     2b8:	0032      	movs	r2, r6
     2ba:	003b      	movs	r3, r7
     2bc:	2800      	cmp	r0, #0
     2be:	d101      	bne.n	2c4 <histEq+0xac>
     2c0:	0022      	movs	r2, r4
     2c2:	002b      	movs	r3, r5
     2c4:	2108      	movs	r1, #8
     2c6:	468c      	mov	ip, r1
     2c8:	44e0      	add	r8, ip
     2ca:	0016      	movs	r6, r2
     2cc:	001f      	movs	r7, r3
     2ce:	45c1      	cmp	r9, r8
     2d0:	d1e9      	bne.n	2a6 <histEq+0x8e>
     2d2:	9802      	ldr	r0, [sp, #8]
     2d4:	9200      	str	r2, [sp, #0]
     2d6:	9301      	str	r3, [sp, #4]
     2d8:	3801      	subs	r0, #1
     2da:	f002 fb49 	bl	2970 <__aeabi_i2d>
     2de:	9002      	str	r0, [sp, #8]
     2e0:	9103      	str	r1, [sp, #12]
     2e2:	9806      	ldr	r0, [sp, #24]
     2e4:	f002 fb44 	bl	2970 <__aeabi_i2d>
     2e8:	9a00      	ldr	r2, [sp, #0]
     2ea:	9b01      	ldr	r3, [sp, #4]
     2ec:	f001 fff6 	bl	22dc <__aeabi_dsub>
     2f0:	9c05      	ldr	r4, [sp, #20]
     2f2:	0006      	movs	r6, r0
     2f4:	000f      	movs	r7, r1
     2f6:	46a1      	mov	r9, r4
     2f8:	9a00      	ldr	r2, [sp, #0]
     2fa:	9b01      	ldr	r3, [sp, #4]
     2fc:	4654      	mov	r4, sl
     2fe:	cc03      	ldmia	r4!, {r0, r1}
     300:	f001 ffec 	bl	22dc <__aeabi_dsub>
     304:	9a02      	ldr	r2, [sp, #8]
     306:	9b03      	ldr	r3, [sp, #12]
     308:	f001 fd68 	bl	1ddc <__aeabi_dmul>
     30c:	003b      	movs	r3, r7
     30e:	0032      	movs	r2, r6
     310:	f001 f930 	bl	1574 <__aeabi_ddiv>
     314:	464b      	mov	r3, r9
     316:	c303      	stmia	r3!, {r0, r1}
     318:	46a2      	mov	sl, r4
     31a:	4699      	mov	r9, r3
     31c:	45a0      	cmp	r8, r4
     31e:	d1eb      	bne.n	2f8 <histEq+0xe0>
     320:	9b06      	ldr	r3, [sp, #24]
     322:	2400      	movs	r4, #0
     324:	009d      	lsls	r5, r3, #2
     326:	2b00      	cmp	r3, #0
     328:	dd0f      	ble.n	34a <histEq+0x132>
     32a:	9b07      	ldr	r3, [sp, #28]
     32c:	465f      	mov	r7, fp
     32e:	4698      	mov	r8, r3
     330:	9e05      	ldr	r6, [sp, #20]
     332:	593b      	ldr	r3, [r7, r4]
     334:	00db      	lsls	r3, r3, #3
     336:	18f3      	adds	r3, r6, r3
     338:	6818      	ldr	r0, [r3, #0]
     33a:	6859      	ldr	r1, [r3, #4]
     33c:	f002 fae4 	bl	2908 <__aeabi_d2iz>
     340:	4643      	mov	r3, r8
     342:	5118      	str	r0, [r3, r4]
     344:	3404      	adds	r4, #4
     346:	42ac      	cmp	r4, r5
     348:	d1f3      	bne.n	332 <histEq+0x11a>
     34a:	9804      	ldr	r0, [sp, #16]
     34c:	f000 f8be 	bl	4cc <free>
     350:	9805      	ldr	r0, [sp, #20]
     352:	f000 f8bb 	bl	4cc <free>
     356:	2000      	movs	r0, #0
     358:	b009      	add	sp, #36	; 0x24
     35a:	bc3c      	pop	{r2, r3, r4, r5}
     35c:	4690      	mov	r8, r2
     35e:	4699      	mov	r9, r3
     360:	46a2      	mov	sl, r4
     362:	46ab      	mov	fp, r5
     364:	bdf0      	pop	{r4, r5, r6, r7, pc}
     366:	46c0      	nop			; (mov r8, r8)
     368:	46c0      	nop			; (mov r8, r8)
     36a:	46c0      	nop			; (mov r8, r8)
     36c:	2001      	movs	r0, #1
     36e:	4240      	negs	r0, r0
     370:	e7f2      	b.n	358 <histEq+0x140>
     372:	46c0      	nop			; (mov r8, r8)
     374:	7fefffff 	.word	0x7fefffff

00000378 <benchmark>:
     378:	b570      	push	{r4, r5, r6, lr}
     37a:	b084      	sub	sp, #16
     37c:	46c0      	nop			; (mov r8, r8)
     37e:	46c0      	nop			; (mov r8, r8)
     380:	20c0      	movs	r0, #192	; 0xc0
     382:	2104      	movs	r1, #4
     384:	0100      	lsls	r0, r0, #4
     386:	f000 f85f 	bl	448 <calloc>
     38a:	0004      	movs	r4, r0
     38c:	20c0      	movs	r0, #192	; 0xc0
     38e:	2104      	movs	r1, #4
     390:	0100      	lsls	r0, r0, #4
     392:	f000 f859 	bl	448 <calloc>
     396:	0006      	movs	r6, r0
     398:	2080      	movs	r0, #128	; 0x80
     39a:	2104      	movs	r1, #4
     39c:	0200      	lsls	r0, r0, #8
     39e:	f000 f853 	bl	448 <calloc>
     3a2:	0005      	movs	r5, r0
     3a4:	2c00      	cmp	r4, #0
     3a6:	d040      	beq.n	42a <benchmark+0xb2>
     3a8:	2e00      	cmp	r6, #0
     3aa:	d03e      	beq.n	42a <benchmark+0xb2>
     3ac:	2800      	cmp	r0, #0
     3ae:	d03c      	beq.n	42a <benchmark+0xb2>
     3b0:	46c0      	nop			; (mov r8, r8)
     3b2:	46c0      	nop			; (mov r8, r8)
     3b4:	22c0      	movs	r2, #192	; 0xc0
     3b6:	4920      	ldr	r1, [pc, #128]	; (438 <benchmark+0xc0>)
     3b8:	0192      	lsls	r2, r2, #6
     3ba:	0020      	movs	r0, r4
     3bc:	f000 fb44 	bl	a48 <memcpy>
     3c0:	46c0      	nop			; (mov r8, r8)
     3c2:	46c0      	nop			; (mov r8, r8)
     3c4:	46c9      	mov	r9, r9
     3c6:	230f      	movs	r3, #15
     3c8:	2230      	movs	r2, #48	; 0x30
     3ca:	9300      	str	r3, [sp, #0]
     3cc:	0029      	movs	r1, r5
     3ce:	3331      	adds	r3, #49	; 0x31
     3d0:	0020      	movs	r0, r4
     3d2:	f7ff feef 	bl	1b4 <hist>
     3d6:	2800      	cmp	r0, #0
     3d8:	d002      	beq.n	3e0 <benchmark+0x68>
     3da:	46c0      	nop			; (mov r8, r8)
     3dc:	46c0      	nop			; (mov r8, r8)
     3de:	46c0      	nop			; (mov r8, r8)
     3e0:	230f      	movs	r3, #15
     3e2:	9302      	str	r3, [sp, #8]
     3e4:	9301      	str	r3, [sp, #4]
     3e6:	3331      	adds	r3, #49	; 0x31
     3e8:	9300      	str	r3, [sp, #0]
     3ea:	002a      	movs	r2, r5
     3ec:	3b10      	subs	r3, #16
     3ee:	0031      	movs	r1, r6
     3f0:	0020      	movs	r0, r4
     3f2:	f7ff ff11 	bl	218 <histEq>
     3f6:	2800      	cmp	r0, #0
     3f8:	d002      	beq.n	400 <benchmark+0x88>
     3fa:	46c0      	nop			; (mov r8, r8)
     3fc:	46c0      	nop			; (mov r8, r8)
     3fe:	46c0      	nop			; (mov r8, r8)
     400:	46c9      	mov	r9, r9
     402:	0028      	movs	r0, r5
     404:	f000 f862 	bl	4cc <free>
     408:	0030      	movs	r0, r6
     40a:	f000 f85f 	bl	4cc <free>
     40e:	0020      	movs	r0, r4
     410:	f000 f85c 	bl	4cc <free>
     414:	46c0      	nop			; (mov r8, r8)
     416:	46c0      	nop			; (mov r8, r8)
     418:	46c0      	nop			; (mov r8, r8)
     41a:	46c0      	nop			; (mov r8, r8)
     41c:	46c0      	nop			; (mov r8, r8)
     41e:	46c0      	nop			; (mov r8, r8)
     420:	46c0      	nop			; (mov r8, r8)
     422:	46c0      	nop			; (mov r8, r8)
     424:	2000      	movs	r0, #0
     426:	b004      	add	sp, #16
     428:	bd70      	pop	{r4, r5, r6, pc}
     42a:	46c0      	nop			; (mov r8, r8)
     42c:	46c0      	nop			; (mov r8, r8)
     42e:	46c0      	nop			; (mov r8, r8)
     430:	2001      	movs	r0, #1
     432:	4240      	negs	r0, r0
     434:	f7ff fe20 	bl	78 <exit>
     438:	00002b64 	.word	0x00002b64

0000043c <main>:
     43c:	b510      	push	{r4, lr}
     43e:	f7ff ff9b 	bl	378 <benchmark>
     442:	2000      	movs	r0, #0
     444:	bd10      	pop	{r4, pc}
     446:	46c0      	nop			; (mov r8, r8)

00000448 <calloc>:
     448:	b510      	push	{r4, lr}
     44a:	4b04      	ldr	r3, [pc, #16]	; (45c <calloc+0x14>)
     44c:	000a      	movs	r2, r1
     44e:	681b      	ldr	r3, [r3, #0]
     450:	0001      	movs	r1, r0
     452:	0018      	movs	r0, r3
     454:	f000 f804 	bl	460 <_calloc_r>
     458:	bd10      	pop	{r4, pc}
     45a:	46c0      	nop			; (mov r8, r8)
     45c:	00005bf0 	.word	0x00005bf0

00000460 <_calloc_r>:
     460:	b510      	push	{r4, lr}
     462:	4351      	muls	r1, r2
     464:	f000 f83c 	bl	4e0 <_malloc_r>
     468:	1e04      	subs	r4, r0, #0
     46a:	d01c      	beq.n	4a6 <_calloc_r+0x46>
     46c:	0003      	movs	r3, r0
     46e:	3b08      	subs	r3, #8
     470:	685a      	ldr	r2, [r3, #4]
     472:	2303      	movs	r3, #3
     474:	439a      	bics	r2, r3
     476:	3a04      	subs	r2, #4
     478:	2a24      	cmp	r2, #36	; 0x24
     47a:	d816      	bhi.n	4aa <_calloc_r+0x4a>
     47c:	0003      	movs	r3, r0
     47e:	2a13      	cmp	r2, #19
     480:	d90d      	bls.n	49e <_calloc_r+0x3e>
     482:	2100      	movs	r1, #0
     484:	3308      	adds	r3, #8
     486:	6001      	str	r1, [r0, #0]
     488:	6041      	str	r1, [r0, #4]
     48a:	2a1b      	cmp	r2, #27
     48c:	d907      	bls.n	49e <_calloc_r+0x3e>
     48e:	6081      	str	r1, [r0, #8]
     490:	60c1      	str	r1, [r0, #12]
     492:	2a24      	cmp	r2, #36	; 0x24
     494:	d10d      	bne.n	4b2 <_calloc_r+0x52>
     496:	0003      	movs	r3, r0
     498:	6101      	str	r1, [r0, #16]
     49a:	3318      	adds	r3, #24
     49c:	6141      	str	r1, [r0, #20]
     49e:	2200      	movs	r2, #0
     4a0:	601a      	str	r2, [r3, #0]
     4a2:	605a      	str	r2, [r3, #4]
     4a4:	609a      	str	r2, [r3, #8]
     4a6:	0020      	movs	r0, r4
     4a8:	bd10      	pop	{r4, pc}
     4aa:	2100      	movs	r1, #0
     4ac:	f000 fb0e 	bl	acc <memset>
     4b0:	e7f9      	b.n	4a6 <_calloc_r+0x46>
     4b2:	0003      	movs	r3, r0
     4b4:	3310      	adds	r3, #16
     4b6:	e7f2      	b.n	49e <_calloc_r+0x3e>

000004b8 <malloc>:
     4b8:	b510      	push	{r4, lr}
     4ba:	4b03      	ldr	r3, [pc, #12]	; (4c8 <malloc+0x10>)
     4bc:	0001      	movs	r1, r0
     4be:	6818      	ldr	r0, [r3, #0]
     4c0:	f000 f80e 	bl	4e0 <_malloc_r>
     4c4:	bd10      	pop	{r4, pc}
     4c6:	46c0      	nop			; (mov r8, r8)
     4c8:	00005bf0 	.word	0x00005bf0

000004cc <free>:
     4cc:	b510      	push	{r4, lr}
     4ce:	4b03      	ldr	r3, [pc, #12]	; (4dc <free+0x10>)
     4d0:	0001      	movs	r1, r0
     4d2:	6818      	ldr	r0, [r3, #0]
     4d4:	f000 fbb6 	bl	c44 <_free_r>
     4d8:	bd10      	pop	{r4, pc}
     4da:	46c0      	nop			; (mov r8, r8)
     4dc:	00005bf0 	.word	0x00005bf0

000004e0 <_malloc_r>:
     4e0:	b5f0      	push	{r4, r5, r6, r7, lr}
     4e2:	4657      	mov	r7, sl
     4e4:	4645      	mov	r5, r8
     4e6:	46de      	mov	lr, fp
     4e8:	464e      	mov	r6, r9
     4ea:	b5e0      	push	{r5, r6, r7, lr}
     4ec:	000d      	movs	r5, r1
     4ee:	350b      	adds	r5, #11
     4f0:	b083      	sub	sp, #12
     4f2:	0007      	movs	r7, r0
     4f4:	2d16      	cmp	r5, #22
     4f6:	d800      	bhi.n	4fa <_malloc_r+0x1a>
     4f8:	e09f      	b.n	63a <_malloc_r+0x15a>
     4fa:	2307      	movs	r3, #7
     4fc:	439d      	bics	r5, r3
     4fe:	d500      	bpl.n	502 <_malloc_r+0x22>
     500:	e0c4      	b.n	68c <_malloc_r+0x1ac>
     502:	42a9      	cmp	r1, r5
     504:	d900      	bls.n	508 <_malloc_r+0x28>
     506:	e0c1      	b.n	68c <_malloc_r+0x1ac>
     508:	f000 fb2a 	bl	b60 <__malloc_lock>
     50c:	23f8      	movs	r3, #248	; 0xf8
     50e:	33ff      	adds	r3, #255	; 0xff
     510:	429d      	cmp	r5, r3
     512:	d800      	bhi.n	516 <_malloc_r+0x36>
     514:	e28f      	b.n	a36 <_malloc_r+0x556>
     516:	0a68      	lsrs	r0, r5, #9
     518:	d100      	bne.n	51c <_malloc_r+0x3c>
     51a:	e0bb      	b.n	694 <_malloc_r+0x1b4>
     51c:	2804      	cmp	r0, #4
     51e:	d900      	bls.n	522 <_malloc_r+0x42>
     520:	e162      	b.n	7e8 <_malloc_r+0x308>
     522:	2338      	movs	r3, #56	; 0x38
     524:	4698      	mov	r8, r3
     526:	09a8      	lsrs	r0, r5, #6
     528:	4480      	add	r8, r0
     52a:	3039      	adds	r0, #57	; 0x39
     52c:	00c1      	lsls	r1, r0, #3
     52e:	4ed2      	ldr	r6, [pc, #840]	; (878 <_malloc_r+0x398>)
     530:	1871      	adds	r1, r6, r1
     532:	3908      	subs	r1, #8
     534:	68cc      	ldr	r4, [r1, #12]
     536:	42a1      	cmp	r1, r4
     538:	d019      	beq.n	56e <_malloc_r+0x8e>
     53a:	2303      	movs	r3, #3
     53c:	6862      	ldr	r2, [r4, #4]
     53e:	439a      	bics	r2, r3
     540:	0013      	movs	r3, r2
     542:	1b52      	subs	r2, r2, r5
     544:	2a0f      	cmp	r2, #15
     546:	dd00      	ble.n	54a <_malloc_r+0x6a>
     548:	e0aa      	b.n	6a0 <_malloc_r+0x1c0>
     54a:	2a00      	cmp	r2, #0
     54c:	db00      	blt.n	550 <_malloc_r+0x70>
     54e:	e088      	b.n	662 <_malloc_r+0x182>
     550:	2303      	movs	r3, #3
     552:	469c      	mov	ip, r3
     554:	e008      	b.n	568 <_malloc_r+0x88>
     556:	4662      	mov	r2, ip
     558:	6863      	ldr	r3, [r4, #4]
     55a:	4393      	bics	r3, r2
     55c:	1b5a      	subs	r2, r3, r5
     55e:	2a0f      	cmp	r2, #15
     560:	dd00      	ble.n	564 <_malloc_r+0x84>
     562:	e09d      	b.n	6a0 <_malloc_r+0x1c0>
     564:	2a00      	cmp	r2, #0
     566:	da7c      	bge.n	662 <_malloc_r+0x182>
     568:	68e4      	ldr	r4, [r4, #12]
     56a:	42a1      	cmp	r1, r4
     56c:	d1f3      	bne.n	556 <_malloc_r+0x76>
     56e:	0032      	movs	r2, r6
     570:	6934      	ldr	r4, [r6, #16]
     572:	3208      	adds	r2, #8
     574:	4294      	cmp	r4, r2
     576:	d100      	bne.n	57a <_malloc_r+0x9a>
     578:	e190      	b.n	89c <_malloc_r+0x3bc>
     57a:	2303      	movs	r3, #3
     57c:	6861      	ldr	r1, [r4, #4]
     57e:	4399      	bics	r1, r3
     580:	4689      	mov	r9, r1
     582:	1b49      	subs	r1, r1, r5
     584:	290f      	cmp	r1, #15
     586:	dd00      	ble.n	58a <_malloc_r+0xaa>
     588:	e162      	b.n	850 <_malloc_r+0x370>
     58a:	6172      	str	r2, [r6, #20]
     58c:	6132      	str	r2, [r6, #16]
     58e:	2900      	cmp	r1, #0
     590:	db00      	blt.n	594 <_malloc_r+0xb4>
     592:	e087      	b.n	6a4 <_malloc_r+0x1c4>
     594:	4ab9      	ldr	r2, [pc, #740]	; (87c <_malloc_r+0x39c>)
     596:	464b      	mov	r3, r9
     598:	4591      	cmp	r9, r2
     59a:	d900      	bls.n	59e <_malloc_r+0xbe>
     59c:	e130      	b.n	800 <_malloc_r+0x320>
     59e:	08db      	lsrs	r3, r3, #3
     5a0:	3aff      	subs	r2, #255	; 0xff
     5a2:	1099      	asrs	r1, r3, #2
     5a4:	3aff      	subs	r2, #255	; 0xff
     5a6:	408a      	lsls	r2, r1
     5a8:	00db      	lsls	r3, r3, #3
     5aa:	6871      	ldr	r1, [r6, #4]
     5ac:	199b      	adds	r3, r3, r6
     5ae:	430a      	orrs	r2, r1
     5b0:	6899      	ldr	r1, [r3, #8]
     5b2:	6072      	str	r2, [r6, #4]
     5b4:	60e3      	str	r3, [r4, #12]
     5b6:	60a1      	str	r1, [r4, #8]
     5b8:	609c      	str	r4, [r3, #8]
     5ba:	0013      	movs	r3, r2
     5bc:	60cc      	str	r4, [r1, #12]
     5be:	2101      	movs	r1, #1
     5c0:	1082      	asrs	r2, r0, #2
     5c2:	4091      	lsls	r1, r2
     5c4:	4299      	cmp	r1, r3
     5c6:	d86f      	bhi.n	6a8 <_malloc_r+0x1c8>
     5c8:	420b      	tst	r3, r1
     5ca:	d105      	bne.n	5d8 <_malloc_r+0xf8>
     5cc:	2203      	movs	r2, #3
     5ce:	4390      	bics	r0, r2
     5d0:	0049      	lsls	r1, r1, #1
     5d2:	3004      	adds	r0, #4
     5d4:	420b      	tst	r3, r1
     5d6:	d0fb      	beq.n	5d0 <_malloc_r+0xf0>
     5d8:	2303      	movs	r3, #3
     5da:	4698      	mov	r8, r3
     5dc:	00c3      	lsls	r3, r0, #3
     5de:	4699      	mov	r9, r3
     5e0:	44b1      	add	r9, r6
     5e2:	46cc      	mov	ip, r9
     5e4:	4682      	mov	sl, r0
     5e6:	4663      	mov	r3, ip
     5e8:	68dc      	ldr	r4, [r3, #12]
     5ea:	45a4      	cmp	ip, r4
     5ec:	d107      	bne.n	5fe <_malloc_r+0x11e>
     5ee:	e157      	b.n	8a0 <_malloc_r+0x3c0>
     5f0:	2a00      	cmp	r2, #0
     5f2:	db00      	blt.n	5f6 <_malloc_r+0x116>
     5f4:	e166      	b.n	8c4 <_malloc_r+0x3e4>
     5f6:	68e4      	ldr	r4, [r4, #12]
     5f8:	45a4      	cmp	ip, r4
     5fa:	d100      	bne.n	5fe <_malloc_r+0x11e>
     5fc:	e150      	b.n	8a0 <_malloc_r+0x3c0>
     5fe:	4642      	mov	r2, r8
     600:	6863      	ldr	r3, [r4, #4]
     602:	4393      	bics	r3, r2
     604:	1b5a      	subs	r2, r3, r5
     606:	2a0f      	cmp	r2, #15
     608:	ddf2      	ble.n	5f0 <_malloc_r+0x110>
     60a:	2001      	movs	r0, #1
     60c:	4680      	mov	r8, r0
     60e:	1961      	adds	r1, r4, r5
     610:	4305      	orrs	r5, r0
     612:	6065      	str	r5, [r4, #4]
     614:	68a0      	ldr	r0, [r4, #8]
     616:	68e5      	ldr	r5, [r4, #12]
     618:	3608      	adds	r6, #8
     61a:	60c5      	str	r5, [r0, #12]
     61c:	60a8      	str	r0, [r5, #8]
     61e:	4640      	mov	r0, r8
     620:	60f1      	str	r1, [r6, #12]
     622:	60b1      	str	r1, [r6, #8]
     624:	4310      	orrs	r0, r2
     626:	6048      	str	r0, [r1, #4]
     628:	60ce      	str	r6, [r1, #12]
     62a:	608e      	str	r6, [r1, #8]
     62c:	0038      	movs	r0, r7
     62e:	50e2      	str	r2, [r4, r3]
     630:	f000 fa9e 	bl	b70 <__malloc_unlock>
     634:	0020      	movs	r0, r4
     636:	3008      	adds	r0, #8
     638:	e021      	b.n	67e <_malloc_r+0x19e>
     63a:	2910      	cmp	r1, #16
     63c:	d826      	bhi.n	68c <_malloc_r+0x1ac>
     63e:	0038      	movs	r0, r7
     640:	f000 fa8e 	bl	b60 <__malloc_lock>
     644:	2510      	movs	r5, #16
     646:	2318      	movs	r3, #24
     648:	2002      	movs	r0, #2
     64a:	4e8b      	ldr	r6, [pc, #556]	; (878 <_malloc_r+0x398>)
     64c:	18f3      	adds	r3, r6, r3
     64e:	001a      	movs	r2, r3
     650:	685c      	ldr	r4, [r3, #4]
     652:	3a08      	subs	r2, #8
     654:	4294      	cmp	r4, r2
     656:	d100      	bne.n	65a <_malloc_r+0x17a>
     658:	e12e      	b.n	8b8 <_malloc_r+0x3d8>
     65a:	2303      	movs	r3, #3
     65c:	6862      	ldr	r2, [r4, #4]
     65e:	439a      	bics	r2, r3
     660:	0013      	movs	r3, r2
     662:	68e2      	ldr	r2, [r4, #12]
     664:	68a1      	ldr	r1, [r4, #8]
     666:	60ca      	str	r2, [r1, #12]
     668:	6091      	str	r1, [r2, #8]
     66a:	2201      	movs	r2, #1
     66c:	18e3      	adds	r3, r4, r3
     66e:	6859      	ldr	r1, [r3, #4]
     670:	0038      	movs	r0, r7
     672:	430a      	orrs	r2, r1
     674:	605a      	str	r2, [r3, #4]
     676:	f000 fa7b 	bl	b70 <__malloc_unlock>
     67a:	0020      	movs	r0, r4
     67c:	3008      	adds	r0, #8
     67e:	b003      	add	sp, #12
     680:	bc3c      	pop	{r2, r3, r4, r5}
     682:	4690      	mov	r8, r2
     684:	4699      	mov	r9, r3
     686:	46a2      	mov	sl, r4
     688:	46ab      	mov	fp, r5
     68a:	bdf0      	pop	{r4, r5, r6, r7, pc}
     68c:	230c      	movs	r3, #12
     68e:	2000      	movs	r0, #0
     690:	603b      	str	r3, [r7, #0]
     692:	e7f4      	b.n	67e <_malloc_r+0x19e>
     694:	2180      	movs	r1, #128	; 0x80
     696:	233f      	movs	r3, #63	; 0x3f
     698:	2040      	movs	r0, #64	; 0x40
     69a:	0089      	lsls	r1, r1, #2
     69c:	4698      	mov	r8, r3
     69e:	e746      	b.n	52e <_malloc_r+0x4e>
     6a0:	4640      	mov	r0, r8
     6a2:	e764      	b.n	56e <_malloc_r+0x8e>
     6a4:	464b      	mov	r3, r9
     6a6:	e7e0      	b.n	66a <_malloc_r+0x18a>
     6a8:	2303      	movs	r3, #3
     6aa:	68b4      	ldr	r4, [r6, #8]
     6ac:	6862      	ldr	r2, [r4, #4]
     6ae:	439a      	bics	r2, r3
     6b0:	4690      	mov	r8, r2
     6b2:	42aa      	cmp	r2, r5
     6b4:	d303      	bcc.n	6be <_malloc_r+0x1de>
     6b6:	1b53      	subs	r3, r2, r5
     6b8:	2b0f      	cmp	r3, #15
     6ba:	dd00      	ble.n	6be <_malloc_r+0x1de>
     6bc:	e086      	b.n	7cc <_malloc_r+0x2ec>
     6be:	0023      	movs	r3, r4
     6c0:	4443      	add	r3, r8
     6c2:	4a6f      	ldr	r2, [pc, #444]	; (880 <_malloc_r+0x3a0>)
     6c4:	9301      	str	r3, [sp, #4]
     6c6:	4b6f      	ldr	r3, [pc, #444]	; (884 <_malloc_r+0x3a4>)
     6c8:	4693      	mov	fp, r2
     6ca:	681b      	ldr	r3, [r3, #0]
     6cc:	6812      	ldr	r2, [r2, #0]
     6ce:	18eb      	adds	r3, r5, r3
     6d0:	3201      	adds	r2, #1
     6d2:	d100      	bne.n	6d6 <_malloc_r+0x1f6>
     6d4:	e168      	b.n	9a8 <_malloc_r+0x4c8>
     6d6:	4a6c      	ldr	r2, [pc, #432]	; (888 <_malloc_r+0x3a8>)
     6d8:	4694      	mov	ip, r2
     6da:	4463      	add	r3, ip
     6dc:	0b1b      	lsrs	r3, r3, #12
     6de:	031b      	lsls	r3, r3, #12
     6e0:	9300      	str	r3, [sp, #0]
     6e2:	9900      	ldr	r1, [sp, #0]
     6e4:	0038      	movs	r0, r7
     6e6:	f000 fa4b 	bl	b80 <_sbrk_r>
     6ea:	0003      	movs	r3, r0
     6ec:	4681      	mov	r9, r0
     6ee:	3301      	adds	r3, #1
     6f0:	d061      	beq.n	7b6 <_malloc_r+0x2d6>
     6f2:	9b01      	ldr	r3, [sp, #4]
     6f4:	4283      	cmp	r3, r0
     6f6:	d900      	bls.n	6fa <_malloc_r+0x21a>
     6f8:	e0ff      	b.n	8fa <_malloc_r+0x41a>
     6fa:	4b64      	ldr	r3, [pc, #400]	; (88c <_malloc_r+0x3ac>)
     6fc:	9a00      	ldr	r2, [sp, #0]
     6fe:	469a      	mov	sl, r3
     700:	681b      	ldr	r3, [r3, #0]
     702:	469c      	mov	ip, r3
     704:	4653      	mov	r3, sl
     706:	4462      	add	r2, ip
     708:	601a      	str	r2, [r3, #0]
     70a:	9b01      	ldr	r3, [sp, #4]
     70c:	0011      	movs	r1, r2
     70e:	4283      	cmp	r3, r0
     710:	d100      	bne.n	714 <_malloc_r+0x234>
     712:	e155      	b.n	9c0 <_malloc_r+0x4e0>
     714:	465b      	mov	r3, fp
     716:	681b      	ldr	r3, [r3, #0]
     718:	3301      	adds	r3, #1
     71a:	d100      	bne.n	71e <_malloc_r+0x23e>
     71c:	e16c      	b.n	9f8 <_malloc_r+0x518>
     71e:	464b      	mov	r3, r9
     720:	9a01      	ldr	r2, [sp, #4]
     722:	1a9b      	subs	r3, r3, r2
     724:	1859      	adds	r1, r3, r1
     726:	4653      	mov	r3, sl
     728:	6019      	str	r1, [r3, #0]
     72a:	2307      	movs	r3, #7
     72c:	464a      	mov	r2, r9
     72e:	4013      	ands	r3, r2
     730:	d100      	bne.n	734 <_malloc_r+0x254>
     732:	e124      	b.n	97e <_malloc_r+0x49e>
     734:	2108      	movs	r1, #8
     736:	4689      	mov	r9, r1
     738:	4955      	ldr	r1, [pc, #340]	; (890 <_malloc_r+0x3b0>)
     73a:	1ad2      	subs	r2, r2, r3
     73c:	4491      	add	r9, r2
     73e:	1acb      	subs	r3, r1, r3
     740:	9a00      	ldr	r2, [sp, #0]
     742:	0038      	movs	r0, r7
     744:	444a      	add	r2, r9
     746:	0511      	lsls	r1, r2, #20
     748:	0d09      	lsrs	r1, r1, #20
     74a:	1a5b      	subs	r3, r3, r1
     74c:	0019      	movs	r1, r3
     74e:	469b      	mov	fp, r3
     750:	f000 fa16 	bl	b80 <_sbrk_r>
     754:	1c43      	adds	r3, r0, #1
     756:	d100      	bne.n	75a <_malloc_r+0x27a>
     758:	e142      	b.n	9e0 <_malloc_r+0x500>
     75a:	464b      	mov	r3, r9
     75c:	1ac0      	subs	r0, r0, r3
     75e:	2301      	movs	r3, #1
     760:	4458      	add	r0, fp
     762:	4318      	orrs	r0, r3
     764:	4653      	mov	r3, sl
     766:	681b      	ldr	r3, [r3, #0]
     768:	445b      	add	r3, fp
     76a:	0019      	movs	r1, r3
     76c:	4653      	mov	r3, sl
     76e:	6019      	str	r1, [r3, #0]
     770:	464b      	mov	r3, r9
     772:	60b3      	str	r3, [r6, #8]
     774:	6058      	str	r0, [r3, #4]
     776:	42b4      	cmp	r4, r6
     778:	d013      	beq.n	7a2 <_malloc_r+0x2c2>
     77a:	4643      	mov	r3, r8
     77c:	2b0f      	cmp	r3, #15
     77e:	d800      	bhi.n	782 <_malloc_r+0x2a2>
     780:	e0e8      	b.n	954 <_malloc_r+0x474>
     782:	4643      	mov	r3, r8
     784:	2207      	movs	r2, #7
     786:	6860      	ldr	r0, [r4, #4]
     788:	3b0c      	subs	r3, #12
     78a:	4393      	bics	r3, r2
     78c:	3a06      	subs	r2, #6
     78e:	4002      	ands	r2, r0
     790:	2005      	movs	r0, #5
     792:	431a      	orrs	r2, r3
     794:	6062      	str	r2, [r4, #4]
     796:	18e2      	adds	r2, r4, r3
     798:	6050      	str	r0, [r2, #4]
     79a:	6090      	str	r0, [r2, #8]
     79c:	2b0f      	cmp	r3, #15
     79e:	d900      	bls.n	7a2 <_malloc_r+0x2c2>
     7a0:	e122      	b.n	9e8 <_malloc_r+0x508>
     7a2:	4b3c      	ldr	r3, [pc, #240]	; (894 <_malloc_r+0x3b4>)
     7a4:	681a      	ldr	r2, [r3, #0]
     7a6:	4291      	cmp	r1, r2
     7a8:	d900      	bls.n	7ac <_malloc_r+0x2cc>
     7aa:	6019      	str	r1, [r3, #0]
     7ac:	4b3a      	ldr	r3, [pc, #232]	; (898 <_malloc_r+0x3b8>)
     7ae:	681a      	ldr	r2, [r3, #0]
     7b0:	4291      	cmp	r1, r2
     7b2:	d900      	bls.n	7b6 <_malloc_r+0x2d6>
     7b4:	6019      	str	r1, [r3, #0]
     7b6:	2303      	movs	r3, #3
     7b8:	68b4      	ldr	r4, [r6, #8]
     7ba:	6862      	ldr	r2, [r4, #4]
     7bc:	439a      	bics	r2, r3
     7be:	1b53      	subs	r3, r2, r5
     7c0:	4295      	cmp	r5, r2
     7c2:	d900      	bls.n	7c6 <_malloc_r+0x2e6>
     7c4:	e0c9      	b.n	95a <_malloc_r+0x47a>
     7c6:	2b0f      	cmp	r3, #15
     7c8:	dc00      	bgt.n	7cc <_malloc_r+0x2ec>
     7ca:	e0c6      	b.n	95a <_malloc_r+0x47a>
     7cc:	2201      	movs	r2, #1
     7ce:	0029      	movs	r1, r5
     7d0:	4313      	orrs	r3, r2
     7d2:	4311      	orrs	r1, r2
     7d4:	1965      	adds	r5, r4, r5
     7d6:	6061      	str	r1, [r4, #4]
     7d8:	0038      	movs	r0, r7
     7da:	60b5      	str	r5, [r6, #8]
     7dc:	606b      	str	r3, [r5, #4]
     7de:	f000 f9c7 	bl	b70 <__malloc_unlock>
     7e2:	0020      	movs	r0, r4
     7e4:	3008      	adds	r0, #8
     7e6:	e74a      	b.n	67e <_malloc_r+0x19e>
     7e8:	2814      	cmp	r0, #20
     7ea:	d97a      	bls.n	8e2 <_malloc_r+0x402>
     7ec:	2854      	cmp	r0, #84	; 0x54
     7ee:	d900      	bls.n	7f2 <_malloc_r+0x312>
     7f0:	e0ba      	b.n	968 <_malloc_r+0x488>
     7f2:	236e      	movs	r3, #110	; 0x6e
     7f4:	4698      	mov	r8, r3
     7f6:	0b28      	lsrs	r0, r5, #12
     7f8:	4480      	add	r8, r0
     7fa:	306f      	adds	r0, #111	; 0x6f
     7fc:	00c1      	lsls	r1, r0, #3
     7fe:	e696      	b.n	52e <_malloc_r+0x4e>
     800:	0a5a      	lsrs	r2, r3, #9
     802:	2a04      	cmp	r2, #4
     804:	d973      	bls.n	8ee <_malloc_r+0x40e>
     806:	2a14      	cmp	r2, #20
     808:	d900      	bls.n	80c <_malloc_r+0x32c>
     80a:	e0d0      	b.n	9ae <_malloc_r+0x4ce>
     80c:	0011      	movs	r1, r2
     80e:	325c      	adds	r2, #92	; 0x5c
     810:	315b      	adds	r1, #91	; 0x5b
     812:	00d2      	lsls	r2, r2, #3
     814:	2308      	movs	r3, #8
     816:	425b      	negs	r3, r3
     818:	469c      	mov	ip, r3
     81a:	18b2      	adds	r2, r6, r2
     81c:	4494      	add	ip, r2
     81e:	4663      	mov	r3, ip
     820:	689a      	ldr	r2, [r3, #8]
     822:	2303      	movs	r3, #3
     824:	4698      	mov	r8, r3
     826:	4594      	cmp	ip, r2
     828:	d100      	bne.n	82c <_malloc_r+0x34c>
     82a:	e0ab      	b.n	984 <_malloc_r+0x4a4>
     82c:	4643      	mov	r3, r8
     82e:	6851      	ldr	r1, [r2, #4]
     830:	4399      	bics	r1, r3
     832:	4589      	cmp	r9, r1
     834:	d300      	bcc.n	838 <_malloc_r+0x358>
     836:	e095      	b.n	964 <_malloc_r+0x484>
     838:	6892      	ldr	r2, [r2, #8]
     83a:	4594      	cmp	ip, r2
     83c:	d1f6      	bne.n	82c <_malloc_r+0x34c>
     83e:	4663      	mov	r3, ip
     840:	68da      	ldr	r2, [r3, #12]
     842:	6873      	ldr	r3, [r6, #4]
     844:	4661      	mov	r1, ip
     846:	60e2      	str	r2, [r4, #12]
     848:	60a1      	str	r1, [r4, #8]
     84a:	6094      	str	r4, [r2, #8]
     84c:	60cc      	str	r4, [r1, #12]
     84e:	e6b6      	b.n	5be <_malloc_r+0xde>
     850:	2301      	movs	r3, #1
     852:	1960      	adds	r0, r4, r5
     854:	431d      	orrs	r5, r3
     856:	6065      	str	r5, [r4, #4]
     858:	6170      	str	r0, [r6, #20]
     85a:	6130      	str	r0, [r6, #16]
     85c:	60c2      	str	r2, [r0, #12]
     85e:	6082      	str	r2, [r0, #8]
     860:	001a      	movs	r2, r3
     862:	464b      	mov	r3, r9
     864:	430a      	orrs	r2, r1
     866:	6042      	str	r2, [r0, #4]
     868:	0038      	movs	r0, r7
     86a:	50e1      	str	r1, [r4, r3]
     86c:	f000 f980 	bl	b70 <__malloc_unlock>
     870:	0020      	movs	r0, r4
     872:	3008      	adds	r0, #8
     874:	e703      	b.n	67e <_malloc_r+0x19e>
     876:	46c0      	nop			; (mov r8, r8)
     878:	00006020 	.word	0x00006020
     87c:	000001ff 	.word	0x000001ff
     880:	00006428 	.word	0x00006428
     884:	40000030 	.word	0x40000030
     888:	0000100f 	.word	0x0000100f
     88c:	40000000 	.word	0x40000000
     890:	00001008 	.word	0x00001008
     894:	40000028 	.word	0x40000028
     898:	4000002c 	.word	0x4000002c
     89c:	6873      	ldr	r3, [r6, #4]
     89e:	e68e      	b.n	5be <_malloc_r+0xde>
     8a0:	2308      	movs	r3, #8
     8a2:	469b      	mov	fp, r3
     8a4:	3b07      	subs	r3, #7
     8a6:	44dc      	add	ip, fp
     8a8:	469b      	mov	fp, r3
     8aa:	44da      	add	sl, fp
     8ac:	4643      	mov	r3, r8
     8ae:	4652      	mov	r2, sl
     8b0:	4213      	tst	r3, r2
     8b2:	d000      	beq.n	8b6 <_malloc_r+0x3d6>
     8b4:	e697      	b.n	5e6 <_malloc_r+0x106>
     8b6:	e037      	b.n	928 <_malloc_r+0x448>
     8b8:	68dc      	ldr	r4, [r3, #12]
     8ba:	3002      	adds	r0, #2
     8bc:	42a3      	cmp	r3, r4
     8be:	d100      	bne.n	8c2 <_malloc_r+0x3e2>
     8c0:	e655      	b.n	56e <_malloc_r+0x8e>
     8c2:	e6ca      	b.n	65a <_malloc_r+0x17a>
     8c4:	2201      	movs	r2, #1
     8c6:	18e3      	adds	r3, r4, r3
     8c8:	6859      	ldr	r1, [r3, #4]
     8ca:	0038      	movs	r0, r7
     8cc:	430a      	orrs	r2, r1
     8ce:	605a      	str	r2, [r3, #4]
     8d0:	68e3      	ldr	r3, [r4, #12]
     8d2:	68a2      	ldr	r2, [r4, #8]
     8d4:	60d3      	str	r3, [r2, #12]
     8d6:	609a      	str	r2, [r3, #8]
     8d8:	f000 f94a 	bl	b70 <__malloc_unlock>
     8dc:	0020      	movs	r0, r4
     8de:	3008      	adds	r0, #8
     8e0:	e6cd      	b.n	67e <_malloc_r+0x19e>
     8e2:	235b      	movs	r3, #91	; 0x5b
     8e4:	4698      	mov	r8, r3
     8e6:	4480      	add	r8, r0
     8e8:	305c      	adds	r0, #92	; 0x5c
     8ea:	00c1      	lsls	r1, r0, #3
     8ec:	e61f      	b.n	52e <_malloc_r+0x4e>
     8ee:	099a      	lsrs	r2, r3, #6
     8f0:	0011      	movs	r1, r2
     8f2:	3239      	adds	r2, #57	; 0x39
     8f4:	3138      	adds	r1, #56	; 0x38
     8f6:	00d2      	lsls	r2, r2, #3
     8f8:	e78c      	b.n	814 <_malloc_r+0x334>
     8fa:	42b4      	cmp	r4, r6
     8fc:	d000      	beq.n	900 <_malloc_r+0x420>
     8fe:	e75a      	b.n	7b6 <_malloc_r+0x2d6>
     900:	4b4f      	ldr	r3, [pc, #316]	; (a40 <_malloc_r+0x560>)
     902:	9a00      	ldr	r2, [sp, #0]
     904:	469a      	mov	sl, r3
     906:	681b      	ldr	r3, [r3, #0]
     908:	469c      	mov	ip, r3
     90a:	4653      	mov	r3, sl
     90c:	4462      	add	r2, ip
     90e:	0011      	movs	r1, r2
     910:	601a      	str	r2, [r3, #0]
     912:	e6ff      	b.n	714 <_malloc_r+0x234>
     914:	2308      	movs	r3, #8
     916:	425b      	negs	r3, r3
     918:	469c      	mov	ip, r3
     91a:	44e1      	add	r9, ip
     91c:	464b      	mov	r3, r9
     91e:	689b      	ldr	r3, [r3, #8]
     920:	3801      	subs	r0, #1
     922:	4599      	cmp	r9, r3
     924:	d000      	beq.n	928 <_malloc_r+0x448>
     926:	e084      	b.n	a32 <_malloc_r+0x552>
     928:	4643      	mov	r3, r8
     92a:	4203      	tst	r3, r0
     92c:	d1f2      	bne.n	914 <_malloc_r+0x434>
     92e:	6873      	ldr	r3, [r6, #4]
     930:	438b      	bics	r3, r1
     932:	6073      	str	r3, [r6, #4]
     934:	0049      	lsls	r1, r1, #1
     936:	4299      	cmp	r1, r3
     938:	d900      	bls.n	93c <_malloc_r+0x45c>
     93a:	e6b5      	b.n	6a8 <_malloc_r+0x1c8>
     93c:	2900      	cmp	r1, #0
     93e:	d100      	bne.n	942 <_malloc_r+0x462>
     940:	e6b2      	b.n	6a8 <_malloc_r+0x1c8>
     942:	4650      	mov	r0, sl
     944:	420b      	tst	r3, r1
     946:	d000      	beq.n	94a <_malloc_r+0x46a>
     948:	e648      	b.n	5dc <_malloc_r+0xfc>
     94a:	0049      	lsls	r1, r1, #1
     94c:	3004      	adds	r0, #4
     94e:	420b      	tst	r3, r1
     950:	d0fb      	beq.n	94a <_malloc_r+0x46a>
     952:	e643      	b.n	5dc <_malloc_r+0xfc>
     954:	2301      	movs	r3, #1
     956:	464a      	mov	r2, r9
     958:	6053      	str	r3, [r2, #4]
     95a:	0038      	movs	r0, r7
     95c:	f000 f908 	bl	b70 <__malloc_unlock>
     960:	2000      	movs	r0, #0
     962:	e68c      	b.n	67e <_malloc_r+0x19e>
     964:	4694      	mov	ip, r2
     966:	e76a      	b.n	83e <_malloc_r+0x35e>
     968:	23aa      	movs	r3, #170	; 0xaa
     96a:	005b      	lsls	r3, r3, #1
     96c:	4298      	cmp	r0, r3
     96e:	d811      	bhi.n	994 <_malloc_r+0x4b4>
     970:	3bdd      	subs	r3, #221	; 0xdd
     972:	4698      	mov	r8, r3
     974:	0be8      	lsrs	r0, r5, #15
     976:	4480      	add	r8, r0
     978:	3078      	adds	r0, #120	; 0x78
     97a:	00c1      	lsls	r1, r0, #3
     97c:	e5d7      	b.n	52e <_malloc_r+0x4e>
     97e:	2380      	movs	r3, #128	; 0x80
     980:	015b      	lsls	r3, r3, #5
     982:	e6dd      	b.n	740 <_malloc_r+0x260>
     984:	1089      	asrs	r1, r1, #2
     986:	3b02      	subs	r3, #2
     988:	408b      	lsls	r3, r1
     98a:	6872      	ldr	r2, [r6, #4]
     98c:	4313      	orrs	r3, r2
     98e:	6073      	str	r3, [r6, #4]
     990:	4662      	mov	r2, ip
     992:	e757      	b.n	844 <_malloc_r+0x364>
     994:	4b2b      	ldr	r3, [pc, #172]	; (a44 <_malloc_r+0x564>)
     996:	4298      	cmp	r0, r3
     998:	d81c      	bhi.n	9d4 <_malloc_r+0x4f4>
     99a:	237c      	movs	r3, #124	; 0x7c
     99c:	4698      	mov	r8, r3
     99e:	0ca8      	lsrs	r0, r5, #18
     9a0:	4480      	add	r8, r0
     9a2:	307d      	adds	r0, #125	; 0x7d
     9a4:	00c1      	lsls	r1, r0, #3
     9a6:	e5c2      	b.n	52e <_malloc_r+0x4e>
     9a8:	3310      	adds	r3, #16
     9aa:	9300      	str	r3, [sp, #0]
     9ac:	e699      	b.n	6e2 <_malloc_r+0x202>
     9ae:	2a54      	cmp	r2, #84	; 0x54
     9b0:	d826      	bhi.n	a00 <_malloc_r+0x520>
     9b2:	464b      	mov	r3, r9
     9b4:	0b1a      	lsrs	r2, r3, #12
     9b6:	0011      	movs	r1, r2
     9b8:	326f      	adds	r2, #111	; 0x6f
     9ba:	316e      	adds	r1, #110	; 0x6e
     9bc:	00d2      	lsls	r2, r2, #3
     9be:	e729      	b.n	814 <_malloc_r+0x334>
     9c0:	051b      	lsls	r3, r3, #20
     9c2:	d000      	beq.n	9c6 <_malloc_r+0x4e6>
     9c4:	e6a6      	b.n	714 <_malloc_r+0x234>
     9c6:	2001      	movs	r0, #1
     9c8:	9b00      	ldr	r3, [sp, #0]
     9ca:	68b2      	ldr	r2, [r6, #8]
     9cc:	4443      	add	r3, r8
     9ce:	4303      	orrs	r3, r0
     9d0:	6053      	str	r3, [r2, #4]
     9d2:	e6e6      	b.n	7a2 <_malloc_r+0x2c2>
     9d4:	21fe      	movs	r1, #254	; 0xfe
     9d6:	237e      	movs	r3, #126	; 0x7e
     9d8:	207f      	movs	r0, #127	; 0x7f
     9da:	0089      	lsls	r1, r1, #2
     9dc:	4698      	mov	r8, r3
     9de:	e5a6      	b.n	52e <_malloc_r+0x4e>
     9e0:	2300      	movs	r3, #0
     9e2:	2001      	movs	r0, #1
     9e4:	469b      	mov	fp, r3
     9e6:	e6bd      	b.n	764 <_malloc_r+0x284>
     9e8:	0021      	movs	r1, r4
     9ea:	0038      	movs	r0, r7
     9ec:	3108      	adds	r1, #8
     9ee:	f000 f929 	bl	c44 <_free_r>
     9f2:	4653      	mov	r3, sl
     9f4:	6819      	ldr	r1, [r3, #0]
     9f6:	e6d4      	b.n	7a2 <_malloc_r+0x2c2>
     9f8:	465b      	mov	r3, fp
     9fa:	464a      	mov	r2, r9
     9fc:	601a      	str	r2, [r3, #0]
     9fe:	e694      	b.n	72a <_malloc_r+0x24a>
     a00:	21aa      	movs	r1, #170	; 0xaa
     a02:	0049      	lsls	r1, r1, #1
     a04:	428a      	cmp	r2, r1
     a06:	d806      	bhi.n	a16 <_malloc_r+0x536>
     a08:	464b      	mov	r3, r9
     a0a:	0bda      	lsrs	r2, r3, #15
     a0c:	0011      	movs	r1, r2
     a0e:	3278      	adds	r2, #120	; 0x78
     a10:	3177      	adds	r1, #119	; 0x77
     a12:	00d2      	lsls	r2, r2, #3
     a14:	e6fe      	b.n	814 <_malloc_r+0x334>
     a16:	490b      	ldr	r1, [pc, #44]	; (a44 <_malloc_r+0x564>)
     a18:	428a      	cmp	r2, r1
     a1a:	d806      	bhi.n	a2a <_malloc_r+0x54a>
     a1c:	464b      	mov	r3, r9
     a1e:	0c9a      	lsrs	r2, r3, #18
     a20:	0011      	movs	r1, r2
     a22:	327d      	adds	r2, #125	; 0x7d
     a24:	317c      	adds	r1, #124	; 0x7c
     a26:	00d2      	lsls	r2, r2, #3
     a28:	e6f4      	b.n	814 <_malloc_r+0x334>
     a2a:	22fe      	movs	r2, #254	; 0xfe
     a2c:	217e      	movs	r1, #126	; 0x7e
     a2e:	0092      	lsls	r2, r2, #2
     a30:	e6f0      	b.n	814 <_malloc_r+0x334>
     a32:	6873      	ldr	r3, [r6, #4]
     a34:	e77e      	b.n	934 <_malloc_r+0x454>
     a36:	002b      	movs	r3, r5
     a38:	08e8      	lsrs	r0, r5, #3
     a3a:	3308      	adds	r3, #8
     a3c:	e605      	b.n	64a <_malloc_r+0x16a>
     a3e:	46c0      	nop			; (mov r8, r8)
     a40:	40000000 	.word	0x40000000
     a44:	00000554 	.word	0x00000554

00000a48 <memcpy>:
     a48:	b5f0      	push	{r4, r5, r6, r7, lr}
     a4a:	0005      	movs	r5, r0
     a4c:	2a0f      	cmp	r2, #15
     a4e:	d92f      	bls.n	ab0 <memcpy+0x68>
     a50:	000b      	movs	r3, r1
     a52:	4303      	orrs	r3, r0
     a54:	079b      	lsls	r3, r3, #30
     a56:	d134      	bne.n	ac2 <memcpy+0x7a>
     a58:	0016      	movs	r6, r2
     a5a:	000c      	movs	r4, r1
     a5c:	0003      	movs	r3, r0
     a5e:	3e10      	subs	r6, #16
     a60:	0935      	lsrs	r5, r6, #4
     a62:	3501      	adds	r5, #1
     a64:	012d      	lsls	r5, r5, #4
     a66:	1945      	adds	r5, r0, r5
     a68:	6827      	ldr	r7, [r4, #0]
     a6a:	601f      	str	r7, [r3, #0]
     a6c:	6867      	ldr	r7, [r4, #4]
     a6e:	605f      	str	r7, [r3, #4]
     a70:	68a7      	ldr	r7, [r4, #8]
     a72:	609f      	str	r7, [r3, #8]
     a74:	68e7      	ldr	r7, [r4, #12]
     a76:	3410      	adds	r4, #16
     a78:	60df      	str	r7, [r3, #12]
     a7a:	3310      	adds	r3, #16
     a7c:	429d      	cmp	r5, r3
     a7e:	d1f3      	bne.n	a68 <memcpy+0x20>
     a80:	230f      	movs	r3, #15
     a82:	439e      	bics	r6, r3
     a84:	3610      	adds	r6, #16
     a86:	1985      	adds	r5, r0, r6
     a88:	1989      	adds	r1, r1, r6
     a8a:	4013      	ands	r3, r2
     a8c:	2b03      	cmp	r3, #3
     a8e:	d91a      	bls.n	ac6 <memcpy+0x7e>
     a90:	1f1e      	subs	r6, r3, #4
     a92:	2300      	movs	r3, #0
     a94:	08b4      	lsrs	r4, r6, #2
     a96:	3401      	adds	r4, #1
     a98:	00a4      	lsls	r4, r4, #2
     a9a:	58cf      	ldr	r7, [r1, r3]
     a9c:	50ef      	str	r7, [r5, r3]
     a9e:	3304      	adds	r3, #4
     aa0:	42a3      	cmp	r3, r4
     aa2:	d1fa      	bne.n	a9a <memcpy+0x52>
     aa4:	2403      	movs	r4, #3
     aa6:	43a6      	bics	r6, r4
     aa8:	1d33      	adds	r3, r6, #4
     aaa:	4022      	ands	r2, r4
     aac:	18c9      	adds	r1, r1, r3
     aae:	18ed      	adds	r5, r5, r3
     ab0:	2a00      	cmp	r2, #0
     ab2:	d005      	beq.n	ac0 <memcpy+0x78>
     ab4:	2300      	movs	r3, #0
     ab6:	5ccc      	ldrb	r4, [r1, r3]
     ab8:	54ec      	strb	r4, [r5, r3]
     aba:	3301      	adds	r3, #1
     abc:	4293      	cmp	r3, r2
     abe:	d1fa      	bne.n	ab6 <memcpy+0x6e>
     ac0:	bdf0      	pop	{r4, r5, r6, r7, pc}
     ac2:	0005      	movs	r5, r0
     ac4:	e7f6      	b.n	ab4 <memcpy+0x6c>
     ac6:	001a      	movs	r2, r3
     ac8:	e7f2      	b.n	ab0 <memcpy+0x68>
     aca:	46c0      	nop			; (mov r8, r8)

00000acc <memset>:
     acc:	b5f0      	push	{r4, r5, r6, r7, lr}
     ace:	0783      	lsls	r3, r0, #30
     ad0:	d043      	beq.n	b5a <memset+0x8e>
     ad2:	1e54      	subs	r4, r2, #1
     ad4:	2a00      	cmp	r2, #0
     ad6:	d03f      	beq.n	b58 <memset+0x8c>
     ad8:	b2ce      	uxtb	r6, r1
     ada:	0002      	movs	r2, r0
     adc:	2503      	movs	r5, #3
     ade:	e002      	b.n	ae6 <memset+0x1a>
     ae0:	001a      	movs	r2, r3
     ae2:	3c01      	subs	r4, #1
     ae4:	d338      	bcc.n	b58 <memset+0x8c>
     ae6:	1c53      	adds	r3, r2, #1
     ae8:	7016      	strb	r6, [r2, #0]
     aea:	422b      	tst	r3, r5
     aec:	d1f8      	bne.n	ae0 <memset+0x14>
     aee:	2c03      	cmp	r4, #3
     af0:	d92a      	bls.n	b48 <memset+0x7c>
     af2:	22ff      	movs	r2, #255	; 0xff
     af4:	400a      	ands	r2, r1
     af6:	0215      	lsls	r5, r2, #8
     af8:	4315      	orrs	r5, r2
     afa:	042a      	lsls	r2, r5, #16
     afc:	4315      	orrs	r5, r2
     afe:	2c0f      	cmp	r4, #15
     b00:	d914      	bls.n	b2c <memset+0x60>
     b02:	0027      	movs	r7, r4
     b04:	001a      	movs	r2, r3
     b06:	3f10      	subs	r7, #16
     b08:	093e      	lsrs	r6, r7, #4
     b0a:	3601      	adds	r6, #1
     b0c:	0136      	lsls	r6, r6, #4
     b0e:	199e      	adds	r6, r3, r6
     b10:	6015      	str	r5, [r2, #0]
     b12:	6055      	str	r5, [r2, #4]
     b14:	6095      	str	r5, [r2, #8]
     b16:	60d5      	str	r5, [r2, #12]
     b18:	3210      	adds	r2, #16
     b1a:	4296      	cmp	r6, r2
     b1c:	d1f8      	bne.n	b10 <memset+0x44>
     b1e:	220f      	movs	r2, #15
     b20:	4397      	bics	r7, r2
     b22:	3710      	adds	r7, #16
     b24:	19db      	adds	r3, r3, r7
     b26:	4014      	ands	r4, r2
     b28:	2c03      	cmp	r4, #3
     b2a:	d90d      	bls.n	b48 <memset+0x7c>
     b2c:	001a      	movs	r2, r3
     b2e:	1f27      	subs	r7, r4, #4
     b30:	08be      	lsrs	r6, r7, #2
     b32:	3601      	adds	r6, #1
     b34:	00b6      	lsls	r6, r6, #2
     b36:	199e      	adds	r6, r3, r6
     b38:	c220      	stmia	r2!, {r5}
     b3a:	42b2      	cmp	r2, r6
     b3c:	d1fc      	bne.n	b38 <memset+0x6c>
     b3e:	2203      	movs	r2, #3
     b40:	4397      	bics	r7, r2
     b42:	3704      	adds	r7, #4
     b44:	19db      	adds	r3, r3, r7
     b46:	4014      	ands	r4, r2
     b48:	2c00      	cmp	r4, #0
     b4a:	d005      	beq.n	b58 <memset+0x8c>
     b4c:	b2c9      	uxtb	r1, r1
     b4e:	191c      	adds	r4, r3, r4
     b50:	7019      	strb	r1, [r3, #0]
     b52:	3301      	adds	r3, #1
     b54:	429c      	cmp	r4, r3
     b56:	d1fb      	bne.n	b50 <memset+0x84>
     b58:	bdf0      	pop	{r4, r5, r6, r7, pc}
     b5a:	0014      	movs	r4, r2
     b5c:	0003      	movs	r3, r0
     b5e:	e7c6      	b.n	aee <memset+0x22>

00000b60 <__malloc_lock>:
     b60:	b510      	push	{r4, lr}
     b62:	4802      	ldr	r0, [pc, #8]	; (b6c <__malloc_lock+0xc>)
     b64:	f000 f956 	bl	e14 <__retarget_lock_acquire_recursive>
     b68:	bd10      	pop	{r4, pc}
     b6a:	46c0      	nop			; (mov r8, r8)
     b6c:	40000048 	.word	0x40000048

00000b70 <__malloc_unlock>:
     b70:	b510      	push	{r4, lr}
     b72:	4802      	ldr	r0, [pc, #8]	; (b7c <__malloc_unlock+0xc>)
     b74:	f000 f956 	bl	e24 <__retarget_lock_release_recursive>
     b78:	bd10      	pop	{r4, pc}
     b7a:	46c0      	nop			; (mov r8, r8)
     b7c:	40000048 	.word	0x40000048

00000b80 <_sbrk_r>:
     b80:	2300      	movs	r3, #0
     b82:	b570      	push	{r4, r5, r6, lr}
     b84:	4c06      	ldr	r4, [pc, #24]	; (ba0 <_sbrk_r+0x20>)
     b86:	0005      	movs	r5, r0
     b88:	0008      	movs	r0, r1
     b8a:	6023      	str	r3, [r4, #0]
     b8c:	f001 ffdc 	bl	2b48 <_sbrk>
     b90:	1c43      	adds	r3, r0, #1
     b92:	d000      	beq.n	b96 <_sbrk_r+0x16>
     b94:	bd70      	pop	{r4, r5, r6, pc}
     b96:	6823      	ldr	r3, [r4, #0]
     b98:	2b00      	cmp	r3, #0
     b9a:	d0fb      	beq.n	b94 <_sbrk_r+0x14>
     b9c:	602b      	str	r3, [r5, #0]
     b9e:	e7f9      	b.n	b94 <_sbrk_r+0x14>
     ba0:	4000005c 	.word	0x4000005c

00000ba4 <_malloc_trim_r>:
     ba4:	b5f8      	push	{r3, r4, r5, r6, r7, lr}
     ba6:	000c      	movs	r4, r1
     ba8:	0006      	movs	r6, r0
     baa:	f7ff ffd9 	bl	b60 <__malloc_lock>
     bae:	4f20      	ldr	r7, [pc, #128]	; (c30 <_malloc_trim_r+0x8c>)
     bb0:	68bb      	ldr	r3, [r7, #8]
     bb2:	685d      	ldr	r5, [r3, #4]
     bb4:	2303      	movs	r3, #3
     bb6:	439d      	bics	r5, r3
     bb8:	4b1e      	ldr	r3, [pc, #120]	; (c34 <_malloc_trim_r+0x90>)
     bba:	1b2c      	subs	r4, r5, r4
     bbc:	469c      	mov	ip, r3
     bbe:	4464      	add	r4, ip
     bc0:	0b24      	lsrs	r4, r4, #12
     bc2:	4b1d      	ldr	r3, [pc, #116]	; (c38 <_malloc_trim_r+0x94>)
     bc4:	3c01      	subs	r4, #1
     bc6:	0324      	lsls	r4, r4, #12
     bc8:	429c      	cmp	r4, r3
     bca:	dd07      	ble.n	bdc <_malloc_trim_r+0x38>
     bcc:	2100      	movs	r1, #0
     bce:	0030      	movs	r0, r6
     bd0:	f7ff ffd6 	bl	b80 <_sbrk_r>
     bd4:	68bb      	ldr	r3, [r7, #8]
     bd6:	195b      	adds	r3, r3, r5
     bd8:	4298      	cmp	r0, r3
     bda:	d004      	beq.n	be6 <_malloc_trim_r+0x42>
     bdc:	0030      	movs	r0, r6
     bde:	f7ff ffc7 	bl	b70 <__malloc_unlock>
     be2:	2000      	movs	r0, #0
     be4:	bdf8      	pop	{r3, r4, r5, r6, r7, pc}
     be6:	4261      	negs	r1, r4
     be8:	0030      	movs	r0, r6
     bea:	f7ff ffc9 	bl	b80 <_sbrk_r>
     bee:	1c43      	adds	r3, r0, #1
     bf0:	d00d      	beq.n	c0e <_malloc_trim_r+0x6a>
     bf2:	2201      	movs	r2, #1
     bf4:	68bb      	ldr	r3, [r7, #8]
     bf6:	1b2d      	subs	r5, r5, r4
     bf8:	4315      	orrs	r5, r2
     bfa:	605d      	str	r5, [r3, #4]
     bfc:	4b0f      	ldr	r3, [pc, #60]	; (c3c <_malloc_trim_r+0x98>)
     bfe:	0030      	movs	r0, r6
     c00:	681a      	ldr	r2, [r3, #0]
     c02:	1b14      	subs	r4, r2, r4
     c04:	601c      	str	r4, [r3, #0]
     c06:	f7ff ffb3 	bl	b70 <__malloc_unlock>
     c0a:	2001      	movs	r0, #1
     c0c:	e7ea      	b.n	be4 <_malloc_trim_r+0x40>
     c0e:	2100      	movs	r1, #0
     c10:	0030      	movs	r0, r6
     c12:	f7ff ffb5 	bl	b80 <_sbrk_r>
     c16:	68ba      	ldr	r2, [r7, #8]
     c18:	1a83      	subs	r3, r0, r2
     c1a:	2b0f      	cmp	r3, #15
     c1c:	ddde      	ble.n	bdc <_malloc_trim_r+0x38>
     c1e:	4908      	ldr	r1, [pc, #32]	; (c40 <_malloc_trim_r+0x9c>)
     c20:	6809      	ldr	r1, [r1, #0]
     c22:	1a40      	subs	r0, r0, r1
     c24:	4905      	ldr	r1, [pc, #20]	; (c3c <_malloc_trim_r+0x98>)
     c26:	6008      	str	r0, [r1, #0]
     c28:	2101      	movs	r1, #1
     c2a:	430b      	orrs	r3, r1
     c2c:	6053      	str	r3, [r2, #4]
     c2e:	e7d5      	b.n	bdc <_malloc_trim_r+0x38>
     c30:	00006020 	.word	0x00006020
     c34:	00000fef 	.word	0x00000fef
     c38:	00000fff 	.word	0x00000fff
     c3c:	40000000 	.word	0x40000000
     c40:	00006428 	.word	0x00006428

00000c44 <_free_r>:
     c44:	b5f8      	push	{r3, r4, r5, r6, r7, lr}
     c46:	0004      	movs	r4, r0
     c48:	1e0d      	subs	r5, r1, #0
     c4a:	d03c      	beq.n	cc6 <_free_r+0x82>
     c4c:	f7ff ff88 	bl	b60 <__malloc_lock>
     c50:	0029      	movs	r1, r5
     c52:	3908      	subs	r1, #8
     c54:	6848      	ldr	r0, [r1, #4]
     c56:	2301      	movs	r3, #1
     c58:	0005      	movs	r5, r0
     c5a:	2603      	movs	r6, #3
     c5c:	439d      	bics	r5, r3
     c5e:	194a      	adds	r2, r1, r5
     c60:	469c      	mov	ip, r3
     c62:	4f61      	ldr	r7, [pc, #388]	; (de8 <_free_r+0x1a4>)
     c64:	6853      	ldr	r3, [r2, #4]
     c66:	43b3      	bics	r3, r6
     c68:	68be      	ldr	r6, [r7, #8]
     c6a:	42b2      	cmp	r2, r6
     c6c:	d056      	beq.n	d1c <_free_r+0xd8>
     c6e:	4666      	mov	r6, ip
     c70:	6053      	str	r3, [r2, #4]
     c72:	4206      	tst	r6, r0
     c74:	d10a      	bne.n	c8c <_free_r+0x48>
     c76:	003e      	movs	r6, r7
     c78:	6808      	ldr	r0, [r1, #0]
     c7a:	3608      	adds	r6, #8
     c7c:	1a09      	subs	r1, r1, r0
     c7e:	182d      	adds	r5, r5, r0
     c80:	6888      	ldr	r0, [r1, #8]
     c82:	42b0      	cmp	r0, r6
     c84:	d065      	beq.n	d52 <_free_r+0x10e>
     c86:	68ce      	ldr	r6, [r1, #12]
     c88:	60c6      	str	r6, [r0, #12]
     c8a:	60b0      	str	r0, [r6, #8]
     c8c:	2001      	movs	r0, #1
     c8e:	18d6      	adds	r6, r2, r3
     c90:	6876      	ldr	r6, [r6, #4]
     c92:	4206      	tst	r6, r0
     c94:	d033      	beq.n	cfe <_free_r+0xba>
     c96:	4b55      	ldr	r3, [pc, #340]	; (dec <_free_r+0x1a8>)
     c98:	4328      	orrs	r0, r5
     c9a:	6048      	str	r0, [r1, #4]
     c9c:	514d      	str	r5, [r1, r5]
     c9e:	429d      	cmp	r5, r3
     ca0:	d812      	bhi.n	cc8 <_free_r+0x84>
     ca2:	08ed      	lsrs	r5, r5, #3
     ca4:	3bff      	subs	r3, #255	; 0xff
     ca6:	10aa      	asrs	r2, r5, #2
     ca8:	3bff      	subs	r3, #255	; 0xff
     caa:	4093      	lsls	r3, r2
     cac:	687a      	ldr	r2, [r7, #4]
     cae:	00ed      	lsls	r5, r5, #3
     cb0:	4313      	orrs	r3, r2
     cb2:	607b      	str	r3, [r7, #4]
     cb4:	19ef      	adds	r7, r5, r7
     cb6:	68bb      	ldr	r3, [r7, #8]
     cb8:	60cf      	str	r7, [r1, #12]
     cba:	608b      	str	r3, [r1, #8]
     cbc:	60b9      	str	r1, [r7, #8]
     cbe:	60d9      	str	r1, [r3, #12]
     cc0:	0020      	movs	r0, r4
     cc2:	f7ff ff55 	bl	b70 <__malloc_unlock>
     cc6:	bdf8      	pop	{r3, r4, r5, r6, r7, pc}
     cc8:	0a68      	lsrs	r0, r5, #9
     cca:	2804      	cmp	r0, #4
     ccc:	d850      	bhi.n	d70 <_free_r+0x12c>
     cce:	09a8      	lsrs	r0, r5, #6
     cd0:	0002      	movs	r2, r0
     cd2:	3039      	adds	r0, #57	; 0x39
     cd4:	3238      	adds	r2, #56	; 0x38
     cd6:	00c0      	lsls	r0, r0, #3
     cd8:	1838      	adds	r0, r7, r0
     cda:	3808      	subs	r0, #8
     cdc:	6883      	ldr	r3, [r0, #8]
     cde:	2603      	movs	r6, #3
     ce0:	4298      	cmp	r0, r3
     ce2:	d04c      	beq.n	d7e <_free_r+0x13a>
     ce4:	685a      	ldr	r2, [r3, #4]
     ce6:	43b2      	bics	r2, r6
     ce8:	4295      	cmp	r5, r2
     cea:	d230      	bcs.n	d4e <_free_r+0x10a>
     cec:	689b      	ldr	r3, [r3, #8]
     cee:	4298      	cmp	r0, r3
     cf0:	d1f8      	bne.n	ce4 <_free_r+0xa0>
     cf2:	68c3      	ldr	r3, [r0, #12]
     cf4:	60cb      	str	r3, [r1, #12]
     cf6:	6088      	str	r0, [r1, #8]
     cf8:	6099      	str	r1, [r3, #8]
     cfa:	60c1      	str	r1, [r0, #12]
     cfc:	e7e0      	b.n	cc0 <_free_r+0x7c>
     cfe:	18ed      	adds	r5, r5, r3
     d00:	4e3b      	ldr	r6, [pc, #236]	; (df0 <_free_r+0x1ac>)
     d02:	6893      	ldr	r3, [r2, #8]
     d04:	42b3      	cmp	r3, r6
     d06:	d042      	beq.n	d8e <_free_r+0x14a>
     d08:	68d2      	ldr	r2, [r2, #12]
     d0a:	4328      	orrs	r0, r5
     d0c:	60da      	str	r2, [r3, #12]
     d0e:	6093      	str	r3, [r2, #8]
     d10:	4b36      	ldr	r3, [pc, #216]	; (dec <_free_r+0x1a8>)
     d12:	6048      	str	r0, [r1, #4]
     d14:	514d      	str	r5, [r1, r5]
     d16:	429d      	cmp	r5, r3
     d18:	d8d6      	bhi.n	cc8 <_free_r+0x84>
     d1a:	e7c2      	b.n	ca2 <_free_r+0x5e>
     d1c:	4662      	mov	r2, ip
     d1e:	18eb      	adds	r3, r5, r3
     d20:	4202      	tst	r2, r0
     d22:	d106      	bne.n	d32 <_free_r+0xee>
     d24:	680a      	ldr	r2, [r1, #0]
     d26:	1a89      	subs	r1, r1, r2
     d28:	6888      	ldr	r0, [r1, #8]
     d2a:	189b      	adds	r3, r3, r2
     d2c:	68ca      	ldr	r2, [r1, #12]
     d2e:	60c2      	str	r2, [r0, #12]
     d30:	6090      	str	r0, [r2, #8]
     d32:	2201      	movs	r2, #1
     d34:	431a      	orrs	r2, r3
     d36:	604a      	str	r2, [r1, #4]
     d38:	4a2e      	ldr	r2, [pc, #184]	; (df4 <_free_r+0x1b0>)
     d3a:	60b9      	str	r1, [r7, #8]
     d3c:	6812      	ldr	r2, [r2, #0]
     d3e:	4293      	cmp	r3, r2
     d40:	d3be      	bcc.n	cc0 <_free_r+0x7c>
     d42:	4b2d      	ldr	r3, [pc, #180]	; (df8 <_free_r+0x1b4>)
     d44:	0020      	movs	r0, r4
     d46:	6819      	ldr	r1, [r3, #0]
     d48:	f7ff ff2c 	bl	ba4 <_malloc_trim_r>
     d4c:	e7b8      	b.n	cc0 <_free_r+0x7c>
     d4e:	0018      	movs	r0, r3
     d50:	e7cf      	b.n	cf2 <_free_r+0xae>
     d52:	4666      	mov	r6, ip
     d54:	18d0      	adds	r0, r2, r3
     d56:	6840      	ldr	r0, [r0, #4]
     d58:	4230      	tst	r0, r6
     d5a:	d13f      	bne.n	ddc <_free_r+0x198>
     d5c:	6890      	ldr	r0, [r2, #8]
     d5e:	195d      	adds	r5, r3, r5
     d60:	68d3      	ldr	r3, [r2, #12]
     d62:	60c3      	str	r3, [r0, #12]
     d64:	6098      	str	r0, [r3, #8]
     d66:	4663      	mov	r3, ip
     d68:	432b      	orrs	r3, r5
     d6a:	604b      	str	r3, [r1, #4]
     d6c:	514d      	str	r5, [r1, r5]
     d6e:	e7a7      	b.n	cc0 <_free_r+0x7c>
     d70:	2814      	cmp	r0, #20
     d72:	d814      	bhi.n	d9e <_free_r+0x15a>
     d74:	0002      	movs	r2, r0
     d76:	305c      	adds	r0, #92	; 0x5c
     d78:	325b      	adds	r2, #91	; 0x5b
     d7a:	00c0      	lsls	r0, r0, #3
     d7c:	e7ac      	b.n	cd8 <_free_r+0x94>
     d7e:	2301      	movs	r3, #1
     d80:	1092      	asrs	r2, r2, #2
     d82:	4093      	lsls	r3, r2
     d84:	687a      	ldr	r2, [r7, #4]
     d86:	4313      	orrs	r3, r2
     d88:	607b      	str	r3, [r7, #4]
     d8a:	0003      	movs	r3, r0
     d8c:	e7b2      	b.n	cf4 <_free_r+0xb0>
     d8e:	4328      	orrs	r0, r5
     d90:	60d9      	str	r1, [r3, #12]
     d92:	6099      	str	r1, [r3, #8]
     d94:	60cb      	str	r3, [r1, #12]
     d96:	608b      	str	r3, [r1, #8]
     d98:	6048      	str	r0, [r1, #4]
     d9a:	514d      	str	r5, [r1, r5]
     d9c:	e790      	b.n	cc0 <_free_r+0x7c>
     d9e:	2854      	cmp	r0, #84	; 0x54
     da0:	d805      	bhi.n	dae <_free_r+0x16a>
     da2:	0b28      	lsrs	r0, r5, #12
     da4:	0002      	movs	r2, r0
     da6:	306f      	adds	r0, #111	; 0x6f
     da8:	326e      	adds	r2, #110	; 0x6e
     daa:	00c0      	lsls	r0, r0, #3
     dac:	e794      	b.n	cd8 <_free_r+0x94>
     dae:	22aa      	movs	r2, #170	; 0xaa
     db0:	0052      	lsls	r2, r2, #1
     db2:	4290      	cmp	r0, r2
     db4:	d805      	bhi.n	dc2 <_free_r+0x17e>
     db6:	0be8      	lsrs	r0, r5, #15
     db8:	0002      	movs	r2, r0
     dba:	3078      	adds	r0, #120	; 0x78
     dbc:	3277      	adds	r2, #119	; 0x77
     dbe:	00c0      	lsls	r0, r0, #3
     dc0:	e78a      	b.n	cd8 <_free_r+0x94>
     dc2:	4a0e      	ldr	r2, [pc, #56]	; (dfc <_free_r+0x1b8>)
     dc4:	4290      	cmp	r0, r2
     dc6:	d805      	bhi.n	dd4 <_free_r+0x190>
     dc8:	0ca8      	lsrs	r0, r5, #18
     dca:	0002      	movs	r2, r0
     dcc:	307d      	adds	r0, #125	; 0x7d
     dce:	327c      	adds	r2, #124	; 0x7c
     dd0:	00c0      	lsls	r0, r0, #3
     dd2:	e781      	b.n	cd8 <_free_r+0x94>
     dd4:	20fe      	movs	r0, #254	; 0xfe
     dd6:	227e      	movs	r2, #126	; 0x7e
     dd8:	0080      	lsls	r0, r0, #2
     dda:	e77d      	b.n	cd8 <_free_r+0x94>
     ddc:	4663      	mov	r3, ip
     dde:	432b      	orrs	r3, r5
     de0:	604b      	str	r3, [r1, #4]
     de2:	6015      	str	r5, [r2, #0]
     de4:	e76c      	b.n	cc0 <_free_r+0x7c>
     de6:	46c0      	nop			; (mov r8, r8)
     de8:	00006020 	.word	0x00006020
     dec:	000001ff 	.word	0x000001ff
     df0:	00006028 	.word	0x00006028
     df4:	0000642c 	.word	0x0000642c
     df8:	40000030 	.word	0x40000030
     dfc:	00000554 	.word	0x00000554

00000e00 <__retarget_lock_init>:
     e00:	4770      	bx	lr
     e02:	46c0      	nop			; (mov r8, r8)

00000e04 <__retarget_lock_init_recursive>:
     e04:	4770      	bx	lr
     e06:	46c0      	nop			; (mov r8, r8)

00000e08 <__retarget_lock_close>:
     e08:	4770      	bx	lr
     e0a:	46c0      	nop			; (mov r8, r8)

00000e0c <__retarget_lock_close_recursive>:
     e0c:	4770      	bx	lr
     e0e:	46c0      	nop			; (mov r8, r8)

00000e10 <__retarget_lock_acquire>:
     e10:	4770      	bx	lr
     e12:	46c0      	nop			; (mov r8, r8)

00000e14 <__retarget_lock_acquire_recursive>:
     e14:	4770      	bx	lr
     e16:	46c0      	nop			; (mov r8, r8)

00000e18 <__retarget_lock_try_acquire>:
     e18:	2001      	movs	r0, #1
     e1a:	4770      	bx	lr

00000e1c <__retarget_lock_try_acquire_recursive>:
     e1c:	2001      	movs	r0, #1
     e1e:	4770      	bx	lr

00000e20 <__retarget_lock_release>:
     e20:	4770      	bx	lr
     e22:	46c0      	nop			; (mov r8, r8)

00000e24 <__retarget_lock_release_recursive>:
     e24:	4770      	bx	lr
     e26:	46c0      	nop			; (mov r8, r8)

00000e28 <cleanup_glue>:
     e28:	b570      	push	{r4, r5, r6, lr}
     e2a:	000c      	movs	r4, r1
     e2c:	6809      	ldr	r1, [r1, #0]
     e2e:	0005      	movs	r5, r0
     e30:	2900      	cmp	r1, #0
     e32:	d001      	beq.n	e38 <cleanup_glue+0x10>
     e34:	f7ff fff8 	bl	e28 <cleanup_glue>
     e38:	0028      	movs	r0, r5
     e3a:	0021      	movs	r1, r4
     e3c:	f7ff ff02 	bl	c44 <_free_r>
     e40:	bd70      	pop	{r4, r5, r6, pc}
     e42:	46c0      	nop			; (mov r8, r8)

00000e44 <_reclaim_reent>:
     e44:	4b23      	ldr	r3, [pc, #140]	; (ed4 <_reclaim_reent+0x90>)
     e46:	b570      	push	{r4, r5, r6, lr}
     e48:	681b      	ldr	r3, [r3, #0]
     e4a:	0005      	movs	r5, r0
     e4c:	4283      	cmp	r3, r0
     e4e:	d034      	beq.n	eba <_reclaim_reent+0x76>
     e50:	6cc3      	ldr	r3, [r0, #76]	; 0x4c
     e52:	2b00      	cmp	r3, #0
     e54:	d011      	beq.n	e7a <_reclaim_reent+0x36>
     e56:	2600      	movs	r6, #0
     e58:	5999      	ldr	r1, [r3, r6]
     e5a:	2900      	cmp	r1, #0
     e5c:	d006      	beq.n	e6c <_reclaim_reent+0x28>
     e5e:	680c      	ldr	r4, [r1, #0]
     e60:	0028      	movs	r0, r5
     e62:	f7ff feef 	bl	c44 <_free_r>
     e66:	1e21      	subs	r1, r4, #0
     e68:	d1f9      	bne.n	e5e <_reclaim_reent+0x1a>
     e6a:	6ceb      	ldr	r3, [r5, #76]	; 0x4c
     e6c:	3604      	adds	r6, #4
     e6e:	2e80      	cmp	r6, #128	; 0x80
     e70:	d1f2      	bne.n	e58 <_reclaim_reent+0x14>
     e72:	0019      	movs	r1, r3
     e74:	0028      	movs	r0, r5
     e76:	f7ff fee5 	bl	c44 <_free_r>
     e7a:	6c29      	ldr	r1, [r5, #64]	; 0x40
     e7c:	2900      	cmp	r1, #0
     e7e:	d002      	beq.n	e86 <_reclaim_reent+0x42>
     e80:	0028      	movs	r0, r5
     e82:	f7ff fedf 	bl	c44 <_free_r>
     e86:	23a4      	movs	r3, #164	; 0xa4
     e88:	005b      	lsls	r3, r3, #1
     e8a:	58e9      	ldr	r1, [r5, r3]
     e8c:	2900      	cmp	r1, #0
     e8e:	d00b      	beq.n	ea8 <_reclaim_reent+0x64>
     e90:	002e      	movs	r6, r5
     e92:	364d      	adds	r6, #77	; 0x4d
     e94:	36ff      	adds	r6, #255	; 0xff
     e96:	42b1      	cmp	r1, r6
     e98:	d006      	beq.n	ea8 <_reclaim_reent+0x64>
     e9a:	680c      	ldr	r4, [r1, #0]
     e9c:	0028      	movs	r0, r5
     e9e:	f7ff fed1 	bl	c44 <_free_r>
     ea2:	0021      	movs	r1, r4
     ea4:	42a6      	cmp	r6, r4
     ea6:	d1f8      	bne.n	e9a <_reclaim_reent+0x56>
     ea8:	6d69      	ldr	r1, [r5, #84]	; 0x54
     eaa:	2900      	cmp	r1, #0
     eac:	d002      	beq.n	eb4 <_reclaim_reent+0x70>
     eae:	0028      	movs	r0, r5
     eb0:	f7ff fec8 	bl	c44 <_free_r>
     eb4:	6bab      	ldr	r3, [r5, #56]	; 0x38
     eb6:	2b00      	cmp	r3, #0
     eb8:	d100      	bne.n	ebc <_reclaim_reent+0x78>
     eba:	bd70      	pop	{r4, r5, r6, pc}
     ebc:	6beb      	ldr	r3, [r5, #60]	; 0x3c
     ebe:	0028      	movs	r0, r5
     ec0:	4798      	blx	r3
     ec2:	23b8      	movs	r3, #184	; 0xb8
     ec4:	009b      	lsls	r3, r3, #2
     ec6:	58e9      	ldr	r1, [r5, r3]
     ec8:	2900      	cmp	r1, #0
     eca:	d0f6      	beq.n	eba <_reclaim_reent+0x76>
     ecc:	0028      	movs	r0, r5
     ece:	f7ff ffab 	bl	e28 <cleanup_glue>
     ed2:	e7f2      	b.n	eba <_reclaim_reent+0x76>
     ed4:	00005bf0 	.word	0x00005bf0

00000ed8 <__aeabi_cdrcmple>:
     ed8:	4684      	mov	ip, r0
     eda:	1c10      	adds	r0, r2, #0
     edc:	4662      	mov	r2, ip
     ede:	468c      	mov	ip, r1
     ee0:	1c19      	adds	r1, r3, #0
     ee2:	4663      	mov	r3, ip
     ee4:	e000      	b.n	ee8 <__aeabi_cdcmpeq>
     ee6:	46c0      	nop			; (mov r8, r8)

00000ee8 <__aeabi_cdcmpeq>:
     ee8:	b51f      	push	{r0, r1, r2, r3, r4, lr}
     eea:	f000 ff15 	bl	1d18 <__ledf2>
     eee:	2800      	cmp	r0, #0
     ef0:	d401      	bmi.n	ef6 <__aeabi_cdcmpeq+0xe>
     ef2:	2100      	movs	r1, #0
     ef4:	42c8      	cmn	r0, r1
     ef6:	bd1f      	pop	{r0, r1, r2, r3, r4, pc}

00000ef8 <__aeabi_dcmpeq>:
     ef8:	b510      	push	{r4, lr}
     efa:	f000 fe6f 	bl	1bdc <__eqdf2>
     efe:	4240      	negs	r0, r0
     f00:	3001      	adds	r0, #1
     f02:	bd10      	pop	{r4, pc}

00000f04 <__aeabi_dcmplt>:
     f04:	b510      	push	{r4, lr}
     f06:	f000 ff07 	bl	1d18 <__ledf2>
     f0a:	2800      	cmp	r0, #0
     f0c:	db01      	blt.n	f12 <__aeabi_dcmplt+0xe>
     f0e:	2000      	movs	r0, #0
     f10:	bd10      	pop	{r4, pc}
     f12:	2001      	movs	r0, #1
     f14:	bd10      	pop	{r4, pc}
     f16:	46c0      	nop			; (mov r8, r8)

00000f18 <__aeabi_dcmple>:
     f18:	b510      	push	{r4, lr}
     f1a:	f000 fefd 	bl	1d18 <__ledf2>
     f1e:	2800      	cmp	r0, #0
     f20:	dd01      	ble.n	f26 <__aeabi_dcmple+0xe>
     f22:	2000      	movs	r0, #0
     f24:	bd10      	pop	{r4, pc}
     f26:	2001      	movs	r0, #1
     f28:	bd10      	pop	{r4, pc}
     f2a:	46c0      	nop			; (mov r8, r8)

00000f2c <__aeabi_dcmpgt>:
     f2c:	b510      	push	{r4, lr}
     f2e:	f000 fe8f 	bl	1c50 <__gedf2>
     f32:	2800      	cmp	r0, #0
     f34:	dc01      	bgt.n	f3a <__aeabi_dcmpgt+0xe>
     f36:	2000      	movs	r0, #0
     f38:	bd10      	pop	{r4, pc}
     f3a:	2001      	movs	r0, #1
     f3c:	bd10      	pop	{r4, pc}
     f3e:	46c0      	nop			; (mov r8, r8)

00000f40 <__aeabi_dcmpge>:
     f40:	b510      	push	{r4, lr}
     f42:	f000 fe85 	bl	1c50 <__gedf2>
     f46:	2800      	cmp	r0, #0
     f48:	da01      	bge.n	f4e <__aeabi_dcmpge+0xe>
     f4a:	2000      	movs	r0, #0
     f4c:	bd10      	pop	{r4, pc}
     f4e:	2001      	movs	r0, #1
     f50:	bd10      	pop	{r4, pc}
     f52:	46c0      	nop			; (mov r8, r8)

00000f54 <__aeabi_dadd>:
     f54:	b5f8      	push	{r3, r4, r5, r6, r7, lr}
     f56:	4645      	mov	r5, r8
     f58:	46de      	mov	lr, fp
     f5a:	4657      	mov	r7, sl
     f5c:	464e      	mov	r6, r9
     f5e:	030c      	lsls	r4, r1, #12
     f60:	b5e0      	push	{r5, r6, r7, lr}
     f62:	004e      	lsls	r6, r1, #1
     f64:	0fc9      	lsrs	r1, r1, #31
     f66:	4688      	mov	r8, r1
     f68:	000d      	movs	r5, r1
     f6a:	0a61      	lsrs	r1, r4, #9
     f6c:	0f44      	lsrs	r4, r0, #29
     f6e:	430c      	orrs	r4, r1
     f70:	00c7      	lsls	r7, r0, #3
     f72:	0319      	lsls	r1, r3, #12
     f74:	0058      	lsls	r0, r3, #1
     f76:	0fdb      	lsrs	r3, r3, #31
     f78:	469b      	mov	fp, r3
     f7a:	0a4b      	lsrs	r3, r1, #9
     f7c:	0f51      	lsrs	r1, r2, #29
     f7e:	430b      	orrs	r3, r1
     f80:	0d76      	lsrs	r6, r6, #21
     f82:	0d40      	lsrs	r0, r0, #21
     f84:	0019      	movs	r1, r3
     f86:	00d2      	lsls	r2, r2, #3
     f88:	45d8      	cmp	r8, fp
     f8a:	d100      	bne.n	f8e <__aeabi_dadd+0x3a>
     f8c:	e0ae      	b.n	10ec <__aeabi_dadd+0x198>
     f8e:	1a35      	subs	r5, r6, r0
     f90:	2d00      	cmp	r5, #0
     f92:	dc00      	bgt.n	f96 <__aeabi_dadd+0x42>
     f94:	e0f6      	b.n	1184 <__aeabi_dadd+0x230>
     f96:	2800      	cmp	r0, #0
     f98:	d10f      	bne.n	fba <__aeabi_dadd+0x66>
     f9a:	4313      	orrs	r3, r2
     f9c:	d100      	bne.n	fa0 <__aeabi_dadd+0x4c>
     f9e:	e0db      	b.n	1158 <__aeabi_dadd+0x204>
     fa0:	1e6b      	subs	r3, r5, #1
     fa2:	2b00      	cmp	r3, #0
     fa4:	d000      	beq.n	fa8 <__aeabi_dadd+0x54>
     fa6:	e137      	b.n	1218 <__aeabi_dadd+0x2c4>
     fa8:	1aba      	subs	r2, r7, r2
     faa:	4297      	cmp	r7, r2
     fac:	41bf      	sbcs	r7, r7
     fae:	1a64      	subs	r4, r4, r1
     fb0:	427f      	negs	r7, r7
     fb2:	1be4      	subs	r4, r4, r7
     fb4:	2601      	movs	r6, #1
     fb6:	0017      	movs	r7, r2
     fb8:	e024      	b.n	1004 <__aeabi_dadd+0xb0>
     fba:	4bc6      	ldr	r3, [pc, #792]	; (12d4 <__aeabi_dadd+0x380>)
     fbc:	429e      	cmp	r6, r3
     fbe:	d04d      	beq.n	105c <__aeabi_dadd+0x108>
     fc0:	2380      	movs	r3, #128	; 0x80
     fc2:	041b      	lsls	r3, r3, #16
     fc4:	4319      	orrs	r1, r3
     fc6:	2d38      	cmp	r5, #56	; 0x38
     fc8:	dd00      	ble.n	fcc <__aeabi_dadd+0x78>
     fca:	e107      	b.n	11dc <__aeabi_dadd+0x288>
     fcc:	2d1f      	cmp	r5, #31
     fce:	dd00      	ble.n	fd2 <__aeabi_dadd+0x7e>
     fd0:	e138      	b.n	1244 <__aeabi_dadd+0x2f0>
     fd2:	2020      	movs	r0, #32
     fd4:	1b43      	subs	r3, r0, r5
     fd6:	469a      	mov	sl, r3
     fd8:	000b      	movs	r3, r1
     fda:	4650      	mov	r0, sl
     fdc:	4083      	lsls	r3, r0
     fde:	4699      	mov	r9, r3
     fe0:	0013      	movs	r3, r2
     fe2:	4648      	mov	r0, r9
     fe4:	40eb      	lsrs	r3, r5
     fe6:	4318      	orrs	r0, r3
     fe8:	0003      	movs	r3, r0
     fea:	4650      	mov	r0, sl
     fec:	4082      	lsls	r2, r0
     fee:	1e50      	subs	r0, r2, #1
     ff0:	4182      	sbcs	r2, r0
     ff2:	40e9      	lsrs	r1, r5
     ff4:	431a      	orrs	r2, r3
     ff6:	1aba      	subs	r2, r7, r2
     ff8:	1a61      	subs	r1, r4, r1
     ffa:	4297      	cmp	r7, r2
     ffc:	41a4      	sbcs	r4, r4
     ffe:	0017      	movs	r7, r2
    1000:	4264      	negs	r4, r4
    1002:	1b0c      	subs	r4, r1, r4
    1004:	0223      	lsls	r3, r4, #8
    1006:	d562      	bpl.n	10ce <__aeabi_dadd+0x17a>
    1008:	0264      	lsls	r4, r4, #9
    100a:	0a65      	lsrs	r5, r4, #9
    100c:	2d00      	cmp	r5, #0
    100e:	d100      	bne.n	1012 <__aeabi_dadd+0xbe>
    1010:	e0df      	b.n	11d2 <__aeabi_dadd+0x27e>
    1012:	0028      	movs	r0, r5
    1014:	f001 fd7a 	bl	2b0c <__clzsi2>
    1018:	0003      	movs	r3, r0
    101a:	3b08      	subs	r3, #8
    101c:	2b1f      	cmp	r3, #31
    101e:	dd00      	ble.n	1022 <__aeabi_dadd+0xce>
    1020:	e0d2      	b.n	11c8 <__aeabi_dadd+0x274>
    1022:	2220      	movs	r2, #32
    1024:	003c      	movs	r4, r7
    1026:	1ad2      	subs	r2, r2, r3
    1028:	409d      	lsls	r5, r3
    102a:	40d4      	lsrs	r4, r2
    102c:	409f      	lsls	r7, r3
    102e:	4325      	orrs	r5, r4
    1030:	429e      	cmp	r6, r3
    1032:	dd00      	ble.n	1036 <__aeabi_dadd+0xe2>
    1034:	e0c4      	b.n	11c0 <__aeabi_dadd+0x26c>
    1036:	1b9e      	subs	r6, r3, r6
    1038:	1c73      	adds	r3, r6, #1
    103a:	2b1f      	cmp	r3, #31
    103c:	dd00      	ble.n	1040 <__aeabi_dadd+0xec>
    103e:	e0f1      	b.n	1224 <__aeabi_dadd+0x2d0>
    1040:	2220      	movs	r2, #32
    1042:	0038      	movs	r0, r7
    1044:	0029      	movs	r1, r5
    1046:	1ad2      	subs	r2, r2, r3
    1048:	40d8      	lsrs	r0, r3
    104a:	4091      	lsls	r1, r2
    104c:	4097      	lsls	r7, r2
    104e:	002c      	movs	r4, r5
    1050:	4301      	orrs	r1, r0
    1052:	1e78      	subs	r0, r7, #1
    1054:	4187      	sbcs	r7, r0
    1056:	40dc      	lsrs	r4, r3
    1058:	2600      	movs	r6, #0
    105a:	430f      	orrs	r7, r1
    105c:	077b      	lsls	r3, r7, #29
    105e:	d009      	beq.n	1074 <__aeabi_dadd+0x120>
    1060:	230f      	movs	r3, #15
    1062:	403b      	ands	r3, r7
    1064:	2b04      	cmp	r3, #4
    1066:	d005      	beq.n	1074 <__aeabi_dadd+0x120>
    1068:	1d3b      	adds	r3, r7, #4
    106a:	42bb      	cmp	r3, r7
    106c:	41bf      	sbcs	r7, r7
    106e:	427f      	negs	r7, r7
    1070:	19e4      	adds	r4, r4, r7
    1072:	001f      	movs	r7, r3
    1074:	0223      	lsls	r3, r4, #8
    1076:	d52c      	bpl.n	10d2 <__aeabi_dadd+0x17e>
    1078:	4b96      	ldr	r3, [pc, #600]	; (12d4 <__aeabi_dadd+0x380>)
    107a:	3601      	adds	r6, #1
    107c:	429e      	cmp	r6, r3
    107e:	d100      	bne.n	1082 <__aeabi_dadd+0x12e>
    1080:	e09a      	b.n	11b8 <__aeabi_dadd+0x264>
    1082:	4645      	mov	r5, r8
    1084:	4b94      	ldr	r3, [pc, #592]	; (12d8 <__aeabi_dadd+0x384>)
    1086:	08ff      	lsrs	r7, r7, #3
    1088:	401c      	ands	r4, r3
    108a:	0760      	lsls	r0, r4, #29
    108c:	0576      	lsls	r6, r6, #21
    108e:	0264      	lsls	r4, r4, #9
    1090:	4307      	orrs	r7, r0
    1092:	0b24      	lsrs	r4, r4, #12
    1094:	0d76      	lsrs	r6, r6, #21
    1096:	2100      	movs	r1, #0
    1098:	0324      	lsls	r4, r4, #12
    109a:	0b23      	lsrs	r3, r4, #12
    109c:	0d0c      	lsrs	r4, r1, #20
    109e:	4a8f      	ldr	r2, [pc, #572]	; (12dc <__aeabi_dadd+0x388>)
    10a0:	0524      	lsls	r4, r4, #20
    10a2:	431c      	orrs	r4, r3
    10a4:	4014      	ands	r4, r2
    10a6:	0533      	lsls	r3, r6, #20
    10a8:	4323      	orrs	r3, r4
    10aa:	005b      	lsls	r3, r3, #1
    10ac:	07ed      	lsls	r5, r5, #31
    10ae:	085b      	lsrs	r3, r3, #1
    10b0:	432b      	orrs	r3, r5
    10b2:	0038      	movs	r0, r7
    10b4:	0019      	movs	r1, r3
    10b6:	bc3c      	pop	{r2, r3, r4, r5}
    10b8:	4690      	mov	r8, r2
    10ba:	4699      	mov	r9, r3
    10bc:	46a2      	mov	sl, r4
    10be:	46ab      	mov	fp, r5
    10c0:	bdf8      	pop	{r3, r4, r5, r6, r7, pc}
    10c2:	4664      	mov	r4, ip
    10c4:	4304      	orrs	r4, r0
    10c6:	d100      	bne.n	10ca <__aeabi_dadd+0x176>
    10c8:	e211      	b.n	14ee <__aeabi_dadd+0x59a>
    10ca:	0004      	movs	r4, r0
    10cc:	4667      	mov	r7, ip
    10ce:	077b      	lsls	r3, r7, #29
    10d0:	d1c6      	bne.n	1060 <__aeabi_dadd+0x10c>
    10d2:	4645      	mov	r5, r8
    10d4:	0760      	lsls	r0, r4, #29
    10d6:	08ff      	lsrs	r7, r7, #3
    10d8:	4307      	orrs	r7, r0
    10da:	08e4      	lsrs	r4, r4, #3
    10dc:	4b7d      	ldr	r3, [pc, #500]	; (12d4 <__aeabi_dadd+0x380>)
    10de:	429e      	cmp	r6, r3
    10e0:	d030      	beq.n	1144 <__aeabi_dadd+0x1f0>
    10e2:	0324      	lsls	r4, r4, #12
    10e4:	0576      	lsls	r6, r6, #21
    10e6:	0b24      	lsrs	r4, r4, #12
    10e8:	0d76      	lsrs	r6, r6, #21
    10ea:	e7d4      	b.n	1096 <__aeabi_dadd+0x142>
    10ec:	1a33      	subs	r3, r6, r0
    10ee:	469a      	mov	sl, r3
    10f0:	2b00      	cmp	r3, #0
    10f2:	dd78      	ble.n	11e6 <__aeabi_dadd+0x292>
    10f4:	2800      	cmp	r0, #0
    10f6:	d031      	beq.n	115c <__aeabi_dadd+0x208>
    10f8:	4876      	ldr	r0, [pc, #472]	; (12d4 <__aeabi_dadd+0x380>)
    10fa:	4286      	cmp	r6, r0
    10fc:	d0ae      	beq.n	105c <__aeabi_dadd+0x108>
    10fe:	2080      	movs	r0, #128	; 0x80
    1100:	0400      	lsls	r0, r0, #16
    1102:	4301      	orrs	r1, r0
    1104:	4653      	mov	r3, sl
    1106:	2b38      	cmp	r3, #56	; 0x38
    1108:	dc00      	bgt.n	110c <__aeabi_dadd+0x1b8>
    110a:	e0e9      	b.n	12e0 <__aeabi_dadd+0x38c>
    110c:	430a      	orrs	r2, r1
    110e:	1e51      	subs	r1, r2, #1
    1110:	418a      	sbcs	r2, r1
    1112:	2100      	movs	r1, #0
    1114:	19d2      	adds	r2, r2, r7
    1116:	42ba      	cmp	r2, r7
    1118:	41bf      	sbcs	r7, r7
    111a:	1909      	adds	r1, r1, r4
    111c:	427c      	negs	r4, r7
    111e:	0017      	movs	r7, r2
    1120:	190c      	adds	r4, r1, r4
    1122:	0223      	lsls	r3, r4, #8
    1124:	d5d3      	bpl.n	10ce <__aeabi_dadd+0x17a>
    1126:	4b6b      	ldr	r3, [pc, #428]	; (12d4 <__aeabi_dadd+0x380>)
    1128:	3601      	adds	r6, #1
    112a:	429e      	cmp	r6, r3
    112c:	d100      	bne.n	1130 <__aeabi_dadd+0x1dc>
    112e:	e13a      	b.n	13a6 <__aeabi_dadd+0x452>
    1130:	2001      	movs	r0, #1
    1132:	4b69      	ldr	r3, [pc, #420]	; (12d8 <__aeabi_dadd+0x384>)
    1134:	401c      	ands	r4, r3
    1136:	087b      	lsrs	r3, r7, #1
    1138:	4007      	ands	r7, r0
    113a:	431f      	orrs	r7, r3
    113c:	07e0      	lsls	r0, r4, #31
    113e:	4307      	orrs	r7, r0
    1140:	0864      	lsrs	r4, r4, #1
    1142:	e78b      	b.n	105c <__aeabi_dadd+0x108>
    1144:	0023      	movs	r3, r4
    1146:	433b      	orrs	r3, r7
    1148:	d100      	bne.n	114c <__aeabi_dadd+0x1f8>
    114a:	e1cb      	b.n	14e4 <__aeabi_dadd+0x590>
    114c:	2280      	movs	r2, #128	; 0x80
    114e:	0312      	lsls	r2, r2, #12
    1150:	4314      	orrs	r4, r2
    1152:	0324      	lsls	r4, r4, #12
    1154:	0b24      	lsrs	r4, r4, #12
    1156:	e79e      	b.n	1096 <__aeabi_dadd+0x142>
    1158:	002e      	movs	r6, r5
    115a:	e77f      	b.n	105c <__aeabi_dadd+0x108>
    115c:	0008      	movs	r0, r1
    115e:	4310      	orrs	r0, r2
    1160:	d100      	bne.n	1164 <__aeabi_dadd+0x210>
    1162:	e0b4      	b.n	12ce <__aeabi_dadd+0x37a>
    1164:	1e58      	subs	r0, r3, #1
    1166:	2800      	cmp	r0, #0
    1168:	d000      	beq.n	116c <__aeabi_dadd+0x218>
    116a:	e0de      	b.n	132a <__aeabi_dadd+0x3d6>
    116c:	18ba      	adds	r2, r7, r2
    116e:	42ba      	cmp	r2, r7
    1170:	419b      	sbcs	r3, r3
    1172:	1864      	adds	r4, r4, r1
    1174:	425b      	negs	r3, r3
    1176:	18e4      	adds	r4, r4, r3
    1178:	0017      	movs	r7, r2
    117a:	2601      	movs	r6, #1
    117c:	0223      	lsls	r3, r4, #8
    117e:	d5a6      	bpl.n	10ce <__aeabi_dadd+0x17a>
    1180:	2602      	movs	r6, #2
    1182:	e7d5      	b.n	1130 <__aeabi_dadd+0x1dc>
    1184:	2d00      	cmp	r5, #0
    1186:	d16e      	bne.n	1266 <__aeabi_dadd+0x312>
    1188:	1c70      	adds	r0, r6, #1
    118a:	0540      	lsls	r0, r0, #21
    118c:	0d40      	lsrs	r0, r0, #21
    118e:	2801      	cmp	r0, #1
    1190:	dc00      	bgt.n	1194 <__aeabi_dadd+0x240>
    1192:	e0f9      	b.n	1388 <__aeabi_dadd+0x434>
    1194:	1ab8      	subs	r0, r7, r2
    1196:	4684      	mov	ip, r0
    1198:	4287      	cmp	r7, r0
    119a:	4180      	sbcs	r0, r0
    119c:	1ae5      	subs	r5, r4, r3
    119e:	4240      	negs	r0, r0
    11a0:	1a2d      	subs	r5, r5, r0
    11a2:	0228      	lsls	r0, r5, #8
    11a4:	d400      	bmi.n	11a8 <__aeabi_dadd+0x254>
    11a6:	e089      	b.n	12bc <__aeabi_dadd+0x368>
    11a8:	1bd7      	subs	r7, r2, r7
    11aa:	42ba      	cmp	r2, r7
    11ac:	4192      	sbcs	r2, r2
    11ae:	1b1c      	subs	r4, r3, r4
    11b0:	4252      	negs	r2, r2
    11b2:	1aa5      	subs	r5, r4, r2
    11b4:	46d8      	mov	r8, fp
    11b6:	e729      	b.n	100c <__aeabi_dadd+0xb8>
    11b8:	4645      	mov	r5, r8
    11ba:	2400      	movs	r4, #0
    11bc:	2700      	movs	r7, #0
    11be:	e76a      	b.n	1096 <__aeabi_dadd+0x142>
    11c0:	4c45      	ldr	r4, [pc, #276]	; (12d8 <__aeabi_dadd+0x384>)
    11c2:	1af6      	subs	r6, r6, r3
    11c4:	402c      	ands	r4, r5
    11c6:	e749      	b.n	105c <__aeabi_dadd+0x108>
    11c8:	003d      	movs	r5, r7
    11ca:	3828      	subs	r0, #40	; 0x28
    11cc:	4085      	lsls	r5, r0
    11ce:	2700      	movs	r7, #0
    11d0:	e72e      	b.n	1030 <__aeabi_dadd+0xdc>
    11d2:	0038      	movs	r0, r7
    11d4:	f001 fc9a 	bl	2b0c <__clzsi2>
    11d8:	3020      	adds	r0, #32
    11da:	e71d      	b.n	1018 <__aeabi_dadd+0xc4>
    11dc:	430a      	orrs	r2, r1
    11de:	1e51      	subs	r1, r2, #1
    11e0:	418a      	sbcs	r2, r1
    11e2:	2100      	movs	r1, #0
    11e4:	e707      	b.n	ff6 <__aeabi_dadd+0xa2>
    11e6:	2b00      	cmp	r3, #0
    11e8:	d000      	beq.n	11ec <__aeabi_dadd+0x298>
    11ea:	e0f3      	b.n	13d4 <__aeabi_dadd+0x480>
    11ec:	1c70      	adds	r0, r6, #1
    11ee:	0543      	lsls	r3, r0, #21
    11f0:	0d5b      	lsrs	r3, r3, #21
    11f2:	2b01      	cmp	r3, #1
    11f4:	dc00      	bgt.n	11f8 <__aeabi_dadd+0x2a4>
    11f6:	e0ad      	b.n	1354 <__aeabi_dadd+0x400>
    11f8:	4b36      	ldr	r3, [pc, #216]	; (12d4 <__aeabi_dadd+0x380>)
    11fa:	4298      	cmp	r0, r3
    11fc:	d100      	bne.n	1200 <__aeabi_dadd+0x2ac>
    11fe:	e0d1      	b.n	13a4 <__aeabi_dadd+0x450>
    1200:	18ba      	adds	r2, r7, r2
    1202:	42ba      	cmp	r2, r7
    1204:	41bf      	sbcs	r7, r7
    1206:	1864      	adds	r4, r4, r1
    1208:	427f      	negs	r7, r7
    120a:	19e4      	adds	r4, r4, r7
    120c:	07e7      	lsls	r7, r4, #31
    120e:	0852      	lsrs	r2, r2, #1
    1210:	4317      	orrs	r7, r2
    1212:	0864      	lsrs	r4, r4, #1
    1214:	0006      	movs	r6, r0
    1216:	e721      	b.n	105c <__aeabi_dadd+0x108>
    1218:	482e      	ldr	r0, [pc, #184]	; (12d4 <__aeabi_dadd+0x380>)
    121a:	4285      	cmp	r5, r0
    121c:	d100      	bne.n	1220 <__aeabi_dadd+0x2cc>
    121e:	e093      	b.n	1348 <__aeabi_dadd+0x3f4>
    1220:	001d      	movs	r5, r3
    1222:	e6d0      	b.n	fc6 <__aeabi_dadd+0x72>
    1224:	0029      	movs	r1, r5
    1226:	3e1f      	subs	r6, #31
    1228:	40f1      	lsrs	r1, r6
    122a:	2b20      	cmp	r3, #32
    122c:	d100      	bne.n	1230 <__aeabi_dadd+0x2dc>
    122e:	e08d      	b.n	134c <__aeabi_dadd+0x3f8>
    1230:	2240      	movs	r2, #64	; 0x40
    1232:	1ad3      	subs	r3, r2, r3
    1234:	409d      	lsls	r5, r3
    1236:	432f      	orrs	r7, r5
    1238:	1e7d      	subs	r5, r7, #1
    123a:	41af      	sbcs	r7, r5
    123c:	2400      	movs	r4, #0
    123e:	430f      	orrs	r7, r1
    1240:	2600      	movs	r6, #0
    1242:	e744      	b.n	10ce <__aeabi_dadd+0x17a>
    1244:	002b      	movs	r3, r5
    1246:	0008      	movs	r0, r1
    1248:	3b20      	subs	r3, #32
    124a:	40d8      	lsrs	r0, r3
    124c:	0003      	movs	r3, r0
    124e:	2d20      	cmp	r5, #32
    1250:	d100      	bne.n	1254 <__aeabi_dadd+0x300>
    1252:	e07d      	b.n	1350 <__aeabi_dadd+0x3fc>
    1254:	2040      	movs	r0, #64	; 0x40
    1256:	1b45      	subs	r5, r0, r5
    1258:	40a9      	lsls	r1, r5
    125a:	430a      	orrs	r2, r1
    125c:	1e51      	subs	r1, r2, #1
    125e:	418a      	sbcs	r2, r1
    1260:	2100      	movs	r1, #0
    1262:	431a      	orrs	r2, r3
    1264:	e6c7      	b.n	ff6 <__aeabi_dadd+0xa2>
    1266:	2e00      	cmp	r6, #0
    1268:	d050      	beq.n	130c <__aeabi_dadd+0x3b8>
    126a:	4e1a      	ldr	r6, [pc, #104]	; (12d4 <__aeabi_dadd+0x380>)
    126c:	42b0      	cmp	r0, r6
    126e:	d057      	beq.n	1320 <__aeabi_dadd+0x3cc>
    1270:	2680      	movs	r6, #128	; 0x80
    1272:	426b      	negs	r3, r5
    1274:	4699      	mov	r9, r3
    1276:	0436      	lsls	r6, r6, #16
    1278:	4334      	orrs	r4, r6
    127a:	464b      	mov	r3, r9
    127c:	2b38      	cmp	r3, #56	; 0x38
    127e:	dd00      	ble.n	1282 <__aeabi_dadd+0x32e>
    1280:	e0d6      	b.n	1430 <__aeabi_dadd+0x4dc>
    1282:	2b1f      	cmp	r3, #31
    1284:	dd00      	ble.n	1288 <__aeabi_dadd+0x334>
    1286:	e135      	b.n	14f4 <__aeabi_dadd+0x5a0>
    1288:	2620      	movs	r6, #32
    128a:	1af5      	subs	r5, r6, r3
    128c:	0026      	movs	r6, r4
    128e:	40ae      	lsls	r6, r5
    1290:	46b2      	mov	sl, r6
    1292:	003e      	movs	r6, r7
    1294:	40de      	lsrs	r6, r3
    1296:	46ac      	mov	ip, r5
    1298:	0035      	movs	r5, r6
    129a:	4656      	mov	r6, sl
    129c:	432e      	orrs	r6, r5
    129e:	4665      	mov	r5, ip
    12a0:	40af      	lsls	r7, r5
    12a2:	1e7d      	subs	r5, r7, #1
    12a4:	41af      	sbcs	r7, r5
    12a6:	40dc      	lsrs	r4, r3
    12a8:	4337      	orrs	r7, r6
    12aa:	1bd7      	subs	r7, r2, r7
    12ac:	42ba      	cmp	r2, r7
    12ae:	4192      	sbcs	r2, r2
    12b0:	1b0c      	subs	r4, r1, r4
    12b2:	4252      	negs	r2, r2
    12b4:	1aa4      	subs	r4, r4, r2
    12b6:	0006      	movs	r6, r0
    12b8:	46d8      	mov	r8, fp
    12ba:	e6a3      	b.n	1004 <__aeabi_dadd+0xb0>
    12bc:	4664      	mov	r4, ip
    12be:	4667      	mov	r7, ip
    12c0:	432c      	orrs	r4, r5
    12c2:	d000      	beq.n	12c6 <__aeabi_dadd+0x372>
    12c4:	e6a2      	b.n	100c <__aeabi_dadd+0xb8>
    12c6:	2500      	movs	r5, #0
    12c8:	2600      	movs	r6, #0
    12ca:	2700      	movs	r7, #0
    12cc:	e706      	b.n	10dc <__aeabi_dadd+0x188>
    12ce:	001e      	movs	r6, r3
    12d0:	e6c4      	b.n	105c <__aeabi_dadd+0x108>
    12d2:	46c0      	nop			; (mov r8, r8)
    12d4:	000007ff 	.word	0x000007ff
    12d8:	ff7fffff 	.word	0xff7fffff
    12dc:	800fffff 	.word	0x800fffff
    12e0:	2b1f      	cmp	r3, #31
    12e2:	dc63      	bgt.n	13ac <__aeabi_dadd+0x458>
    12e4:	2020      	movs	r0, #32
    12e6:	1ac3      	subs	r3, r0, r3
    12e8:	0008      	movs	r0, r1
    12ea:	4098      	lsls	r0, r3
    12ec:	469c      	mov	ip, r3
    12ee:	4683      	mov	fp, r0
    12f0:	4653      	mov	r3, sl
    12f2:	0010      	movs	r0, r2
    12f4:	40d8      	lsrs	r0, r3
    12f6:	0003      	movs	r3, r0
    12f8:	4658      	mov	r0, fp
    12fa:	4318      	orrs	r0, r3
    12fc:	4663      	mov	r3, ip
    12fe:	409a      	lsls	r2, r3
    1300:	1e53      	subs	r3, r2, #1
    1302:	419a      	sbcs	r2, r3
    1304:	4653      	mov	r3, sl
    1306:	4302      	orrs	r2, r0
    1308:	40d9      	lsrs	r1, r3
    130a:	e703      	b.n	1114 <__aeabi_dadd+0x1c0>
    130c:	0026      	movs	r6, r4
    130e:	433e      	orrs	r6, r7
    1310:	d006      	beq.n	1320 <__aeabi_dadd+0x3cc>
    1312:	43eb      	mvns	r3, r5
    1314:	4699      	mov	r9, r3
    1316:	2b00      	cmp	r3, #0
    1318:	d0c7      	beq.n	12aa <__aeabi_dadd+0x356>
    131a:	4e94      	ldr	r6, [pc, #592]	; (156c <__aeabi_dadd+0x618>)
    131c:	42b0      	cmp	r0, r6
    131e:	d1ac      	bne.n	127a <__aeabi_dadd+0x326>
    1320:	000c      	movs	r4, r1
    1322:	0017      	movs	r7, r2
    1324:	0006      	movs	r6, r0
    1326:	46d8      	mov	r8, fp
    1328:	e698      	b.n	105c <__aeabi_dadd+0x108>
    132a:	4b90      	ldr	r3, [pc, #576]	; (156c <__aeabi_dadd+0x618>)
    132c:	459a      	cmp	sl, r3
    132e:	d00b      	beq.n	1348 <__aeabi_dadd+0x3f4>
    1330:	4682      	mov	sl, r0
    1332:	e6e7      	b.n	1104 <__aeabi_dadd+0x1b0>
    1334:	2800      	cmp	r0, #0
    1336:	d000      	beq.n	133a <__aeabi_dadd+0x3e6>
    1338:	e09e      	b.n	1478 <__aeabi_dadd+0x524>
    133a:	0018      	movs	r0, r3
    133c:	4310      	orrs	r0, r2
    133e:	d100      	bne.n	1342 <__aeabi_dadd+0x3ee>
    1340:	e0e9      	b.n	1516 <__aeabi_dadd+0x5c2>
    1342:	001c      	movs	r4, r3
    1344:	0017      	movs	r7, r2
    1346:	46d8      	mov	r8, fp
    1348:	4e88      	ldr	r6, [pc, #544]	; (156c <__aeabi_dadd+0x618>)
    134a:	e687      	b.n	105c <__aeabi_dadd+0x108>
    134c:	2500      	movs	r5, #0
    134e:	e772      	b.n	1236 <__aeabi_dadd+0x2e2>
    1350:	2100      	movs	r1, #0
    1352:	e782      	b.n	125a <__aeabi_dadd+0x306>
    1354:	0023      	movs	r3, r4
    1356:	433b      	orrs	r3, r7
    1358:	2e00      	cmp	r6, #0
    135a:	d000      	beq.n	135e <__aeabi_dadd+0x40a>
    135c:	e0ab      	b.n	14b6 <__aeabi_dadd+0x562>
    135e:	2b00      	cmp	r3, #0
    1360:	d100      	bne.n	1364 <__aeabi_dadd+0x410>
    1362:	e0e7      	b.n	1534 <__aeabi_dadd+0x5e0>
    1364:	000b      	movs	r3, r1
    1366:	4313      	orrs	r3, r2
    1368:	d100      	bne.n	136c <__aeabi_dadd+0x418>
    136a:	e677      	b.n	105c <__aeabi_dadd+0x108>
    136c:	18ba      	adds	r2, r7, r2
    136e:	42ba      	cmp	r2, r7
    1370:	41bf      	sbcs	r7, r7
    1372:	1864      	adds	r4, r4, r1
    1374:	427f      	negs	r7, r7
    1376:	19e4      	adds	r4, r4, r7
    1378:	0223      	lsls	r3, r4, #8
    137a:	d400      	bmi.n	137e <__aeabi_dadd+0x42a>
    137c:	e0f2      	b.n	1564 <__aeabi_dadd+0x610>
    137e:	4b7c      	ldr	r3, [pc, #496]	; (1570 <__aeabi_dadd+0x61c>)
    1380:	0017      	movs	r7, r2
    1382:	401c      	ands	r4, r3
    1384:	0006      	movs	r6, r0
    1386:	e669      	b.n	105c <__aeabi_dadd+0x108>
    1388:	0020      	movs	r0, r4
    138a:	4338      	orrs	r0, r7
    138c:	2e00      	cmp	r6, #0
    138e:	d1d1      	bne.n	1334 <__aeabi_dadd+0x3e0>
    1390:	2800      	cmp	r0, #0
    1392:	d15b      	bne.n	144c <__aeabi_dadd+0x4f8>
    1394:	001c      	movs	r4, r3
    1396:	4314      	orrs	r4, r2
    1398:	d100      	bne.n	139c <__aeabi_dadd+0x448>
    139a:	e0a8      	b.n	14ee <__aeabi_dadd+0x59a>
    139c:	001c      	movs	r4, r3
    139e:	0017      	movs	r7, r2
    13a0:	46d8      	mov	r8, fp
    13a2:	e65b      	b.n	105c <__aeabi_dadd+0x108>
    13a4:	0006      	movs	r6, r0
    13a6:	2400      	movs	r4, #0
    13a8:	2700      	movs	r7, #0
    13aa:	e697      	b.n	10dc <__aeabi_dadd+0x188>
    13ac:	4650      	mov	r0, sl
    13ae:	000b      	movs	r3, r1
    13b0:	3820      	subs	r0, #32
    13b2:	40c3      	lsrs	r3, r0
    13b4:	4699      	mov	r9, r3
    13b6:	4653      	mov	r3, sl
    13b8:	2b20      	cmp	r3, #32
    13ba:	d100      	bne.n	13be <__aeabi_dadd+0x46a>
    13bc:	e095      	b.n	14ea <__aeabi_dadd+0x596>
    13be:	2340      	movs	r3, #64	; 0x40
    13c0:	4650      	mov	r0, sl
    13c2:	1a1b      	subs	r3, r3, r0
    13c4:	4099      	lsls	r1, r3
    13c6:	430a      	orrs	r2, r1
    13c8:	1e51      	subs	r1, r2, #1
    13ca:	418a      	sbcs	r2, r1
    13cc:	464b      	mov	r3, r9
    13ce:	2100      	movs	r1, #0
    13d0:	431a      	orrs	r2, r3
    13d2:	e69f      	b.n	1114 <__aeabi_dadd+0x1c0>
    13d4:	2e00      	cmp	r6, #0
    13d6:	d130      	bne.n	143a <__aeabi_dadd+0x4e6>
    13d8:	0026      	movs	r6, r4
    13da:	433e      	orrs	r6, r7
    13dc:	d067      	beq.n	14ae <__aeabi_dadd+0x55a>
    13de:	43db      	mvns	r3, r3
    13e0:	469a      	mov	sl, r3
    13e2:	2b00      	cmp	r3, #0
    13e4:	d01c      	beq.n	1420 <__aeabi_dadd+0x4cc>
    13e6:	4e61      	ldr	r6, [pc, #388]	; (156c <__aeabi_dadd+0x618>)
    13e8:	42b0      	cmp	r0, r6
    13ea:	d060      	beq.n	14ae <__aeabi_dadd+0x55a>
    13ec:	4653      	mov	r3, sl
    13ee:	2b38      	cmp	r3, #56	; 0x38
    13f0:	dd00      	ble.n	13f4 <__aeabi_dadd+0x4a0>
    13f2:	e096      	b.n	1522 <__aeabi_dadd+0x5ce>
    13f4:	2b1f      	cmp	r3, #31
    13f6:	dd00      	ble.n	13fa <__aeabi_dadd+0x4a6>
    13f8:	e09f      	b.n	153a <__aeabi_dadd+0x5e6>
    13fa:	2620      	movs	r6, #32
    13fc:	1af3      	subs	r3, r6, r3
    13fe:	0026      	movs	r6, r4
    1400:	409e      	lsls	r6, r3
    1402:	469c      	mov	ip, r3
    1404:	46b3      	mov	fp, r6
    1406:	4653      	mov	r3, sl
    1408:	003e      	movs	r6, r7
    140a:	40de      	lsrs	r6, r3
    140c:	0033      	movs	r3, r6
    140e:	465e      	mov	r6, fp
    1410:	431e      	orrs	r6, r3
    1412:	4663      	mov	r3, ip
    1414:	409f      	lsls	r7, r3
    1416:	1e7b      	subs	r3, r7, #1
    1418:	419f      	sbcs	r7, r3
    141a:	4653      	mov	r3, sl
    141c:	40dc      	lsrs	r4, r3
    141e:	4337      	orrs	r7, r6
    1420:	18bf      	adds	r7, r7, r2
    1422:	4297      	cmp	r7, r2
    1424:	4192      	sbcs	r2, r2
    1426:	1864      	adds	r4, r4, r1
    1428:	4252      	negs	r2, r2
    142a:	18a4      	adds	r4, r4, r2
    142c:	0006      	movs	r6, r0
    142e:	e678      	b.n	1122 <__aeabi_dadd+0x1ce>
    1430:	4327      	orrs	r7, r4
    1432:	1e7c      	subs	r4, r7, #1
    1434:	41a7      	sbcs	r7, r4
    1436:	2400      	movs	r4, #0
    1438:	e737      	b.n	12aa <__aeabi_dadd+0x356>
    143a:	4e4c      	ldr	r6, [pc, #304]	; (156c <__aeabi_dadd+0x618>)
    143c:	42b0      	cmp	r0, r6
    143e:	d036      	beq.n	14ae <__aeabi_dadd+0x55a>
    1440:	2680      	movs	r6, #128	; 0x80
    1442:	425b      	negs	r3, r3
    1444:	0436      	lsls	r6, r6, #16
    1446:	469a      	mov	sl, r3
    1448:	4334      	orrs	r4, r6
    144a:	e7cf      	b.n	13ec <__aeabi_dadd+0x498>
    144c:	0018      	movs	r0, r3
    144e:	4310      	orrs	r0, r2
    1450:	d100      	bne.n	1454 <__aeabi_dadd+0x500>
    1452:	e603      	b.n	105c <__aeabi_dadd+0x108>
    1454:	1ab8      	subs	r0, r7, r2
    1456:	4684      	mov	ip, r0
    1458:	4567      	cmp	r7, ip
    145a:	41ad      	sbcs	r5, r5
    145c:	1ae0      	subs	r0, r4, r3
    145e:	426d      	negs	r5, r5
    1460:	1b40      	subs	r0, r0, r5
    1462:	0205      	lsls	r5, r0, #8
    1464:	d400      	bmi.n	1468 <__aeabi_dadd+0x514>
    1466:	e62c      	b.n	10c2 <__aeabi_dadd+0x16e>
    1468:	1bd7      	subs	r7, r2, r7
    146a:	42ba      	cmp	r2, r7
    146c:	4192      	sbcs	r2, r2
    146e:	1b1c      	subs	r4, r3, r4
    1470:	4252      	negs	r2, r2
    1472:	1aa4      	subs	r4, r4, r2
    1474:	46d8      	mov	r8, fp
    1476:	e5f1      	b.n	105c <__aeabi_dadd+0x108>
    1478:	0018      	movs	r0, r3
    147a:	4310      	orrs	r0, r2
    147c:	d100      	bne.n	1480 <__aeabi_dadd+0x52c>
    147e:	e763      	b.n	1348 <__aeabi_dadd+0x3f4>
    1480:	08f8      	lsrs	r0, r7, #3
    1482:	0767      	lsls	r7, r4, #29
    1484:	4307      	orrs	r7, r0
    1486:	2080      	movs	r0, #128	; 0x80
    1488:	08e4      	lsrs	r4, r4, #3
    148a:	0300      	lsls	r0, r0, #12
    148c:	4204      	tst	r4, r0
    148e:	d008      	beq.n	14a2 <__aeabi_dadd+0x54e>
    1490:	08dd      	lsrs	r5, r3, #3
    1492:	4205      	tst	r5, r0
    1494:	d105      	bne.n	14a2 <__aeabi_dadd+0x54e>
    1496:	08d2      	lsrs	r2, r2, #3
    1498:	0759      	lsls	r1, r3, #29
    149a:	4311      	orrs	r1, r2
    149c:	000f      	movs	r7, r1
    149e:	002c      	movs	r4, r5
    14a0:	46d8      	mov	r8, fp
    14a2:	0f7b      	lsrs	r3, r7, #29
    14a4:	00e4      	lsls	r4, r4, #3
    14a6:	431c      	orrs	r4, r3
    14a8:	00ff      	lsls	r7, r7, #3
    14aa:	4e30      	ldr	r6, [pc, #192]	; (156c <__aeabi_dadd+0x618>)
    14ac:	e5d6      	b.n	105c <__aeabi_dadd+0x108>
    14ae:	000c      	movs	r4, r1
    14b0:	0017      	movs	r7, r2
    14b2:	0006      	movs	r6, r0
    14b4:	e5d2      	b.n	105c <__aeabi_dadd+0x108>
    14b6:	2b00      	cmp	r3, #0
    14b8:	d038      	beq.n	152c <__aeabi_dadd+0x5d8>
    14ba:	000b      	movs	r3, r1
    14bc:	4313      	orrs	r3, r2
    14be:	d100      	bne.n	14c2 <__aeabi_dadd+0x56e>
    14c0:	e742      	b.n	1348 <__aeabi_dadd+0x3f4>
    14c2:	08f8      	lsrs	r0, r7, #3
    14c4:	0767      	lsls	r7, r4, #29
    14c6:	4307      	orrs	r7, r0
    14c8:	2080      	movs	r0, #128	; 0x80
    14ca:	08e4      	lsrs	r4, r4, #3
    14cc:	0300      	lsls	r0, r0, #12
    14ce:	4204      	tst	r4, r0
    14d0:	d0e7      	beq.n	14a2 <__aeabi_dadd+0x54e>
    14d2:	08cb      	lsrs	r3, r1, #3
    14d4:	4203      	tst	r3, r0
    14d6:	d1e4      	bne.n	14a2 <__aeabi_dadd+0x54e>
    14d8:	08d2      	lsrs	r2, r2, #3
    14da:	0749      	lsls	r1, r1, #29
    14dc:	4311      	orrs	r1, r2
    14de:	000f      	movs	r7, r1
    14e0:	001c      	movs	r4, r3
    14e2:	e7de      	b.n	14a2 <__aeabi_dadd+0x54e>
    14e4:	2700      	movs	r7, #0
    14e6:	2400      	movs	r4, #0
    14e8:	e5d5      	b.n	1096 <__aeabi_dadd+0x142>
    14ea:	2100      	movs	r1, #0
    14ec:	e76b      	b.n	13c6 <__aeabi_dadd+0x472>
    14ee:	2500      	movs	r5, #0
    14f0:	2700      	movs	r7, #0
    14f2:	e5f3      	b.n	10dc <__aeabi_dadd+0x188>
    14f4:	464e      	mov	r6, r9
    14f6:	0025      	movs	r5, r4
    14f8:	3e20      	subs	r6, #32
    14fa:	40f5      	lsrs	r5, r6
    14fc:	464b      	mov	r3, r9
    14fe:	002e      	movs	r6, r5
    1500:	2b20      	cmp	r3, #32
    1502:	d02d      	beq.n	1560 <__aeabi_dadd+0x60c>
    1504:	2540      	movs	r5, #64	; 0x40
    1506:	1aed      	subs	r5, r5, r3
    1508:	40ac      	lsls	r4, r5
    150a:	4327      	orrs	r7, r4
    150c:	1e7c      	subs	r4, r7, #1
    150e:	41a7      	sbcs	r7, r4
    1510:	2400      	movs	r4, #0
    1512:	4337      	orrs	r7, r6
    1514:	e6c9      	b.n	12aa <__aeabi_dadd+0x356>
    1516:	2480      	movs	r4, #128	; 0x80
    1518:	2500      	movs	r5, #0
    151a:	0324      	lsls	r4, r4, #12
    151c:	4e13      	ldr	r6, [pc, #76]	; (156c <__aeabi_dadd+0x618>)
    151e:	2700      	movs	r7, #0
    1520:	e5dc      	b.n	10dc <__aeabi_dadd+0x188>
    1522:	4327      	orrs	r7, r4
    1524:	1e7c      	subs	r4, r7, #1
    1526:	41a7      	sbcs	r7, r4
    1528:	2400      	movs	r4, #0
    152a:	e779      	b.n	1420 <__aeabi_dadd+0x4cc>
    152c:	000c      	movs	r4, r1
    152e:	0017      	movs	r7, r2
    1530:	4e0e      	ldr	r6, [pc, #56]	; (156c <__aeabi_dadd+0x618>)
    1532:	e593      	b.n	105c <__aeabi_dadd+0x108>
    1534:	000c      	movs	r4, r1
    1536:	0017      	movs	r7, r2
    1538:	e590      	b.n	105c <__aeabi_dadd+0x108>
    153a:	4656      	mov	r6, sl
    153c:	0023      	movs	r3, r4
    153e:	3e20      	subs	r6, #32
    1540:	40f3      	lsrs	r3, r6
    1542:	4699      	mov	r9, r3
    1544:	4653      	mov	r3, sl
    1546:	2b20      	cmp	r3, #32
    1548:	d00e      	beq.n	1568 <__aeabi_dadd+0x614>
    154a:	2340      	movs	r3, #64	; 0x40
    154c:	4656      	mov	r6, sl
    154e:	1b9b      	subs	r3, r3, r6
    1550:	409c      	lsls	r4, r3
    1552:	4327      	orrs	r7, r4
    1554:	1e7c      	subs	r4, r7, #1
    1556:	41a7      	sbcs	r7, r4
    1558:	464b      	mov	r3, r9
    155a:	2400      	movs	r4, #0
    155c:	431f      	orrs	r7, r3
    155e:	e75f      	b.n	1420 <__aeabi_dadd+0x4cc>
    1560:	2400      	movs	r4, #0
    1562:	e7d2      	b.n	150a <__aeabi_dadd+0x5b6>
    1564:	0017      	movs	r7, r2
    1566:	e5b2      	b.n	10ce <__aeabi_dadd+0x17a>
    1568:	2400      	movs	r4, #0
    156a:	e7f2      	b.n	1552 <__aeabi_dadd+0x5fe>
    156c:	000007ff 	.word	0x000007ff
    1570:	ff7fffff 	.word	0xff7fffff

00001574 <__aeabi_ddiv>:
    1574:	b5f0      	push	{r4, r5, r6, r7, lr}
    1576:	4657      	mov	r7, sl
    1578:	4645      	mov	r5, r8
    157a:	46de      	mov	lr, fp
    157c:	464e      	mov	r6, r9
    157e:	b5e0      	push	{r5, r6, r7, lr}
    1580:	004c      	lsls	r4, r1, #1
    1582:	030e      	lsls	r6, r1, #12
    1584:	b087      	sub	sp, #28
    1586:	4683      	mov	fp, r0
    1588:	4692      	mov	sl, r2
    158a:	001d      	movs	r5, r3
    158c:	4680      	mov	r8, r0
    158e:	0b36      	lsrs	r6, r6, #12
    1590:	0d64      	lsrs	r4, r4, #21
    1592:	0fcf      	lsrs	r7, r1, #31
    1594:	2c00      	cmp	r4, #0
    1596:	d04f      	beq.n	1638 <__aeabi_ddiv+0xc4>
    1598:	4b6f      	ldr	r3, [pc, #444]	; (1758 <__aeabi_ddiv+0x1e4>)
    159a:	429c      	cmp	r4, r3
    159c:	d035      	beq.n	160a <__aeabi_ddiv+0x96>
    159e:	2380      	movs	r3, #128	; 0x80
    15a0:	0f42      	lsrs	r2, r0, #29
    15a2:	041b      	lsls	r3, r3, #16
    15a4:	00f6      	lsls	r6, r6, #3
    15a6:	4313      	orrs	r3, r2
    15a8:	4333      	orrs	r3, r6
    15aa:	4699      	mov	r9, r3
    15ac:	00c3      	lsls	r3, r0, #3
    15ae:	4698      	mov	r8, r3
    15b0:	4b6a      	ldr	r3, [pc, #424]	; (175c <__aeabi_ddiv+0x1e8>)
    15b2:	2600      	movs	r6, #0
    15b4:	469c      	mov	ip, r3
    15b6:	2300      	movs	r3, #0
    15b8:	4464      	add	r4, ip
    15ba:	9303      	str	r3, [sp, #12]
    15bc:	032b      	lsls	r3, r5, #12
    15be:	0b1b      	lsrs	r3, r3, #12
    15c0:	469b      	mov	fp, r3
    15c2:	006b      	lsls	r3, r5, #1
    15c4:	0fed      	lsrs	r5, r5, #31
    15c6:	4650      	mov	r0, sl
    15c8:	0d5b      	lsrs	r3, r3, #21
    15ca:	9501      	str	r5, [sp, #4]
    15cc:	d05e      	beq.n	168c <__aeabi_ddiv+0x118>
    15ce:	4a62      	ldr	r2, [pc, #392]	; (1758 <__aeabi_ddiv+0x1e4>)
    15d0:	4293      	cmp	r3, r2
    15d2:	d053      	beq.n	167c <__aeabi_ddiv+0x108>
    15d4:	465a      	mov	r2, fp
    15d6:	00d1      	lsls	r1, r2, #3
    15d8:	2280      	movs	r2, #128	; 0x80
    15da:	0f40      	lsrs	r0, r0, #29
    15dc:	0412      	lsls	r2, r2, #16
    15de:	4302      	orrs	r2, r0
    15e0:	430a      	orrs	r2, r1
    15e2:	4693      	mov	fp, r2
    15e4:	4652      	mov	r2, sl
    15e6:	00d1      	lsls	r1, r2, #3
    15e8:	4a5c      	ldr	r2, [pc, #368]	; (175c <__aeabi_ddiv+0x1e8>)
    15ea:	4694      	mov	ip, r2
    15ec:	2200      	movs	r2, #0
    15ee:	4463      	add	r3, ip
    15f0:	0038      	movs	r0, r7
    15f2:	4068      	eors	r0, r5
    15f4:	4684      	mov	ip, r0
    15f6:	9002      	str	r0, [sp, #8]
    15f8:	1ae4      	subs	r4, r4, r3
    15fa:	4316      	orrs	r6, r2
    15fc:	2e0f      	cmp	r6, #15
    15fe:	d900      	bls.n	1602 <__aeabi_ddiv+0x8e>
    1600:	e0b4      	b.n	176c <__aeabi_ddiv+0x1f8>
    1602:	4b57      	ldr	r3, [pc, #348]	; (1760 <__aeabi_ddiv+0x1ec>)
    1604:	00b6      	lsls	r6, r6, #2
    1606:	599b      	ldr	r3, [r3, r6]
    1608:	469f      	mov	pc, r3
    160a:	0003      	movs	r3, r0
    160c:	4333      	orrs	r3, r6
    160e:	4699      	mov	r9, r3
    1610:	d16c      	bne.n	16ec <__aeabi_ddiv+0x178>
    1612:	2300      	movs	r3, #0
    1614:	4698      	mov	r8, r3
    1616:	3302      	adds	r3, #2
    1618:	2608      	movs	r6, #8
    161a:	9303      	str	r3, [sp, #12]
    161c:	e7ce      	b.n	15bc <__aeabi_ddiv+0x48>
    161e:	46cb      	mov	fp, r9
    1620:	4641      	mov	r1, r8
    1622:	9a03      	ldr	r2, [sp, #12]
    1624:	9701      	str	r7, [sp, #4]
    1626:	2a02      	cmp	r2, #2
    1628:	d165      	bne.n	16f6 <__aeabi_ddiv+0x182>
    162a:	9b01      	ldr	r3, [sp, #4]
    162c:	4c4a      	ldr	r4, [pc, #296]	; (1758 <__aeabi_ddiv+0x1e4>)
    162e:	469c      	mov	ip, r3
    1630:	2300      	movs	r3, #0
    1632:	2200      	movs	r2, #0
    1634:	4698      	mov	r8, r3
    1636:	e06b      	b.n	1710 <__aeabi_ddiv+0x19c>
    1638:	0003      	movs	r3, r0
    163a:	4333      	orrs	r3, r6
    163c:	4699      	mov	r9, r3
    163e:	d04e      	beq.n	16de <__aeabi_ddiv+0x16a>
    1640:	2e00      	cmp	r6, #0
    1642:	d100      	bne.n	1646 <__aeabi_ddiv+0xd2>
    1644:	e1bc      	b.n	19c0 <__aeabi_ddiv+0x44c>
    1646:	0030      	movs	r0, r6
    1648:	f001 fa60 	bl	2b0c <__clzsi2>
    164c:	0003      	movs	r3, r0
    164e:	3b0b      	subs	r3, #11
    1650:	2b1c      	cmp	r3, #28
    1652:	dd00      	ble.n	1656 <__aeabi_ddiv+0xe2>
    1654:	e1ac      	b.n	19b0 <__aeabi_ddiv+0x43c>
    1656:	221d      	movs	r2, #29
    1658:	1ad3      	subs	r3, r2, r3
    165a:	465a      	mov	r2, fp
    165c:	0001      	movs	r1, r0
    165e:	40da      	lsrs	r2, r3
    1660:	3908      	subs	r1, #8
    1662:	408e      	lsls	r6, r1
    1664:	0013      	movs	r3, r2
    1666:	4333      	orrs	r3, r6
    1668:	4699      	mov	r9, r3
    166a:	465b      	mov	r3, fp
    166c:	408b      	lsls	r3, r1
    166e:	4698      	mov	r8, r3
    1670:	2300      	movs	r3, #0
    1672:	4c3c      	ldr	r4, [pc, #240]	; (1764 <__aeabi_ddiv+0x1f0>)
    1674:	2600      	movs	r6, #0
    1676:	1a24      	subs	r4, r4, r0
    1678:	9303      	str	r3, [sp, #12]
    167a:	e79f      	b.n	15bc <__aeabi_ddiv+0x48>
    167c:	4651      	mov	r1, sl
    167e:	465a      	mov	r2, fp
    1680:	4311      	orrs	r1, r2
    1682:	d129      	bne.n	16d8 <__aeabi_ddiv+0x164>
    1684:	2200      	movs	r2, #0
    1686:	4693      	mov	fp, r2
    1688:	3202      	adds	r2, #2
    168a:	e7b1      	b.n	15f0 <__aeabi_ddiv+0x7c>
    168c:	4659      	mov	r1, fp
    168e:	4301      	orrs	r1, r0
    1690:	d01e      	beq.n	16d0 <__aeabi_ddiv+0x15c>
    1692:	465b      	mov	r3, fp
    1694:	2b00      	cmp	r3, #0
    1696:	d100      	bne.n	169a <__aeabi_ddiv+0x126>
    1698:	e19e      	b.n	19d8 <__aeabi_ddiv+0x464>
    169a:	4658      	mov	r0, fp
    169c:	f001 fa36 	bl	2b0c <__clzsi2>
    16a0:	0003      	movs	r3, r0
    16a2:	3b0b      	subs	r3, #11
    16a4:	2b1c      	cmp	r3, #28
    16a6:	dd00      	ble.n	16aa <__aeabi_ddiv+0x136>
    16a8:	e18f      	b.n	19ca <__aeabi_ddiv+0x456>
    16aa:	0002      	movs	r2, r0
    16ac:	4659      	mov	r1, fp
    16ae:	3a08      	subs	r2, #8
    16b0:	4091      	lsls	r1, r2
    16b2:	468b      	mov	fp, r1
    16b4:	211d      	movs	r1, #29
    16b6:	1acb      	subs	r3, r1, r3
    16b8:	4651      	mov	r1, sl
    16ba:	40d9      	lsrs	r1, r3
    16bc:	000b      	movs	r3, r1
    16be:	4659      	mov	r1, fp
    16c0:	430b      	orrs	r3, r1
    16c2:	4651      	mov	r1, sl
    16c4:	469b      	mov	fp, r3
    16c6:	4091      	lsls	r1, r2
    16c8:	4b26      	ldr	r3, [pc, #152]	; (1764 <__aeabi_ddiv+0x1f0>)
    16ca:	2200      	movs	r2, #0
    16cc:	1a1b      	subs	r3, r3, r0
    16ce:	e78f      	b.n	15f0 <__aeabi_ddiv+0x7c>
    16d0:	2300      	movs	r3, #0
    16d2:	2201      	movs	r2, #1
    16d4:	469b      	mov	fp, r3
    16d6:	e78b      	b.n	15f0 <__aeabi_ddiv+0x7c>
    16d8:	4651      	mov	r1, sl
    16da:	2203      	movs	r2, #3
    16dc:	e788      	b.n	15f0 <__aeabi_ddiv+0x7c>
    16de:	2300      	movs	r3, #0
    16e0:	4698      	mov	r8, r3
    16e2:	3301      	adds	r3, #1
    16e4:	2604      	movs	r6, #4
    16e6:	2400      	movs	r4, #0
    16e8:	9303      	str	r3, [sp, #12]
    16ea:	e767      	b.n	15bc <__aeabi_ddiv+0x48>
    16ec:	2303      	movs	r3, #3
    16ee:	46b1      	mov	r9, r6
    16f0:	9303      	str	r3, [sp, #12]
    16f2:	260c      	movs	r6, #12
    16f4:	e762      	b.n	15bc <__aeabi_ddiv+0x48>
    16f6:	2a03      	cmp	r2, #3
    16f8:	d100      	bne.n	16fc <__aeabi_ddiv+0x188>
    16fa:	e25c      	b.n	1bb6 <__aeabi_ddiv+0x642>
    16fc:	9b01      	ldr	r3, [sp, #4]
    16fe:	2a01      	cmp	r2, #1
    1700:	d000      	beq.n	1704 <__aeabi_ddiv+0x190>
    1702:	e1e4      	b.n	1ace <__aeabi_ddiv+0x55a>
    1704:	4013      	ands	r3, r2
    1706:	469c      	mov	ip, r3
    1708:	2300      	movs	r3, #0
    170a:	2400      	movs	r4, #0
    170c:	2200      	movs	r2, #0
    170e:	4698      	mov	r8, r3
    1710:	2100      	movs	r1, #0
    1712:	0312      	lsls	r2, r2, #12
    1714:	0b13      	lsrs	r3, r2, #12
    1716:	0d0a      	lsrs	r2, r1, #20
    1718:	0512      	lsls	r2, r2, #20
    171a:	431a      	orrs	r2, r3
    171c:	0523      	lsls	r3, r4, #20
    171e:	4c12      	ldr	r4, [pc, #72]	; (1768 <__aeabi_ddiv+0x1f4>)
    1720:	4640      	mov	r0, r8
    1722:	4022      	ands	r2, r4
    1724:	4313      	orrs	r3, r2
    1726:	4662      	mov	r2, ip
    1728:	005b      	lsls	r3, r3, #1
    172a:	07d2      	lsls	r2, r2, #31
    172c:	085b      	lsrs	r3, r3, #1
    172e:	4313      	orrs	r3, r2
    1730:	0019      	movs	r1, r3
    1732:	b007      	add	sp, #28
    1734:	bc3c      	pop	{r2, r3, r4, r5}
    1736:	4690      	mov	r8, r2
    1738:	4699      	mov	r9, r3
    173a:	46a2      	mov	sl, r4
    173c:	46ab      	mov	fp, r5
    173e:	bdf0      	pop	{r4, r5, r6, r7, pc}
    1740:	2300      	movs	r3, #0
    1742:	2280      	movs	r2, #128	; 0x80
    1744:	469c      	mov	ip, r3
    1746:	0312      	lsls	r2, r2, #12
    1748:	4698      	mov	r8, r3
    174a:	4c03      	ldr	r4, [pc, #12]	; (1758 <__aeabi_ddiv+0x1e4>)
    174c:	e7e0      	b.n	1710 <__aeabi_ddiv+0x19c>
    174e:	2300      	movs	r3, #0
    1750:	4c01      	ldr	r4, [pc, #4]	; (1758 <__aeabi_ddiv+0x1e4>)
    1752:	2200      	movs	r2, #0
    1754:	4698      	mov	r8, r3
    1756:	e7db      	b.n	1710 <__aeabi_ddiv+0x19c>
    1758:	000007ff 	.word	0x000007ff
    175c:	fffffc01 	.word	0xfffffc01
    1760:	00005b64 	.word	0x00005b64
    1764:	fffffc0d 	.word	0xfffffc0d
    1768:	800fffff 	.word	0x800fffff
    176c:	45d9      	cmp	r9, fp
    176e:	d900      	bls.n	1772 <__aeabi_ddiv+0x1fe>
    1770:	e139      	b.n	19e6 <__aeabi_ddiv+0x472>
    1772:	d100      	bne.n	1776 <__aeabi_ddiv+0x202>
    1774:	e134      	b.n	19e0 <__aeabi_ddiv+0x46c>
    1776:	2300      	movs	r3, #0
    1778:	4646      	mov	r6, r8
    177a:	464d      	mov	r5, r9
    177c:	469a      	mov	sl, r3
    177e:	3c01      	subs	r4, #1
    1780:	465b      	mov	r3, fp
    1782:	0e0a      	lsrs	r2, r1, #24
    1784:	021b      	lsls	r3, r3, #8
    1786:	431a      	orrs	r2, r3
    1788:	020b      	lsls	r3, r1, #8
    178a:	0c17      	lsrs	r7, r2, #16
    178c:	9303      	str	r3, [sp, #12]
    178e:	0413      	lsls	r3, r2, #16
    1790:	0c1b      	lsrs	r3, r3, #16
    1792:	0039      	movs	r1, r7
    1794:	0028      	movs	r0, r5
    1796:	4690      	mov	r8, r2
    1798:	9301      	str	r3, [sp, #4]
    179a:	f001 f92b 	bl	29f4 <__udivsi3>
    179e:	0002      	movs	r2, r0
    17a0:	9b01      	ldr	r3, [sp, #4]
    17a2:	4683      	mov	fp, r0
    17a4:	435a      	muls	r2, r3
    17a6:	0028      	movs	r0, r5
    17a8:	0039      	movs	r1, r7
    17aa:	4691      	mov	r9, r2
    17ac:	f001 f9a8 	bl	2b00 <__aeabi_uidivmod>
    17b0:	0c35      	lsrs	r5, r6, #16
    17b2:	0409      	lsls	r1, r1, #16
    17b4:	430d      	orrs	r5, r1
    17b6:	45a9      	cmp	r9, r5
    17b8:	d90d      	bls.n	17d6 <__aeabi_ddiv+0x262>
    17ba:	465b      	mov	r3, fp
    17bc:	4445      	add	r5, r8
    17be:	3b01      	subs	r3, #1
    17c0:	45a8      	cmp	r8, r5
    17c2:	d900      	bls.n	17c6 <__aeabi_ddiv+0x252>
    17c4:	e13a      	b.n	1a3c <__aeabi_ddiv+0x4c8>
    17c6:	45a9      	cmp	r9, r5
    17c8:	d800      	bhi.n	17cc <__aeabi_ddiv+0x258>
    17ca:	e137      	b.n	1a3c <__aeabi_ddiv+0x4c8>
    17cc:	2302      	movs	r3, #2
    17ce:	425b      	negs	r3, r3
    17d0:	469c      	mov	ip, r3
    17d2:	4445      	add	r5, r8
    17d4:	44e3      	add	fp, ip
    17d6:	464b      	mov	r3, r9
    17d8:	1aeb      	subs	r3, r5, r3
    17da:	0039      	movs	r1, r7
    17dc:	0018      	movs	r0, r3
    17de:	9304      	str	r3, [sp, #16]
    17e0:	f001 f908 	bl	29f4 <__udivsi3>
    17e4:	9b01      	ldr	r3, [sp, #4]
    17e6:	0005      	movs	r5, r0
    17e8:	4343      	muls	r3, r0
    17ea:	0039      	movs	r1, r7
    17ec:	9804      	ldr	r0, [sp, #16]
    17ee:	4699      	mov	r9, r3
    17f0:	f001 f986 	bl	2b00 <__aeabi_uidivmod>
    17f4:	0433      	lsls	r3, r6, #16
    17f6:	0409      	lsls	r1, r1, #16
    17f8:	0c1b      	lsrs	r3, r3, #16
    17fa:	430b      	orrs	r3, r1
    17fc:	4599      	cmp	r9, r3
    17fe:	d909      	bls.n	1814 <__aeabi_ddiv+0x2a0>
    1800:	4443      	add	r3, r8
    1802:	1e6a      	subs	r2, r5, #1
    1804:	4598      	cmp	r8, r3
    1806:	d900      	bls.n	180a <__aeabi_ddiv+0x296>
    1808:	e11a      	b.n	1a40 <__aeabi_ddiv+0x4cc>
    180a:	4599      	cmp	r9, r3
    180c:	d800      	bhi.n	1810 <__aeabi_ddiv+0x29c>
    180e:	e117      	b.n	1a40 <__aeabi_ddiv+0x4cc>
    1810:	3d02      	subs	r5, #2
    1812:	4443      	add	r3, r8
    1814:	464a      	mov	r2, r9
    1816:	1a9b      	subs	r3, r3, r2
    1818:	465a      	mov	r2, fp
    181a:	0412      	lsls	r2, r2, #16
    181c:	432a      	orrs	r2, r5
    181e:	9903      	ldr	r1, [sp, #12]
    1820:	4693      	mov	fp, r2
    1822:	0c10      	lsrs	r0, r2, #16
    1824:	0c0a      	lsrs	r2, r1, #16
    1826:	4691      	mov	r9, r2
    1828:	0409      	lsls	r1, r1, #16
    182a:	465a      	mov	r2, fp
    182c:	0c09      	lsrs	r1, r1, #16
    182e:	464e      	mov	r6, r9
    1830:	000d      	movs	r5, r1
    1832:	0412      	lsls	r2, r2, #16
    1834:	0c12      	lsrs	r2, r2, #16
    1836:	4345      	muls	r5, r0
    1838:	9105      	str	r1, [sp, #20]
    183a:	4351      	muls	r1, r2
    183c:	4372      	muls	r2, r6
    183e:	4370      	muls	r0, r6
    1840:	1952      	adds	r2, r2, r5
    1842:	0c0e      	lsrs	r6, r1, #16
    1844:	18b2      	adds	r2, r6, r2
    1846:	4295      	cmp	r5, r2
    1848:	d903      	bls.n	1852 <__aeabi_ddiv+0x2de>
    184a:	2580      	movs	r5, #128	; 0x80
    184c:	026d      	lsls	r5, r5, #9
    184e:	46ac      	mov	ip, r5
    1850:	4460      	add	r0, ip
    1852:	0c15      	lsrs	r5, r2, #16
    1854:	0409      	lsls	r1, r1, #16
    1856:	0412      	lsls	r2, r2, #16
    1858:	0c09      	lsrs	r1, r1, #16
    185a:	1828      	adds	r0, r5, r0
    185c:	1852      	adds	r2, r2, r1
    185e:	4283      	cmp	r3, r0
    1860:	d200      	bcs.n	1864 <__aeabi_ddiv+0x2f0>
    1862:	e0ce      	b.n	1a02 <__aeabi_ddiv+0x48e>
    1864:	d100      	bne.n	1868 <__aeabi_ddiv+0x2f4>
    1866:	e0c8      	b.n	19fa <__aeabi_ddiv+0x486>
    1868:	1a1d      	subs	r5, r3, r0
    186a:	4653      	mov	r3, sl
    186c:	1a9e      	subs	r6, r3, r2
    186e:	45b2      	cmp	sl, r6
    1870:	4192      	sbcs	r2, r2
    1872:	4252      	negs	r2, r2
    1874:	1aab      	subs	r3, r5, r2
    1876:	469a      	mov	sl, r3
    1878:	4598      	cmp	r8, r3
    187a:	d100      	bne.n	187e <__aeabi_ddiv+0x30a>
    187c:	e117      	b.n	1aae <__aeabi_ddiv+0x53a>
    187e:	0039      	movs	r1, r7
    1880:	0018      	movs	r0, r3
    1882:	f001 f8b7 	bl	29f4 <__udivsi3>
    1886:	9b01      	ldr	r3, [sp, #4]
    1888:	0005      	movs	r5, r0
    188a:	4343      	muls	r3, r0
    188c:	0039      	movs	r1, r7
    188e:	4650      	mov	r0, sl
    1890:	9304      	str	r3, [sp, #16]
    1892:	f001 f935 	bl	2b00 <__aeabi_uidivmod>
    1896:	9804      	ldr	r0, [sp, #16]
    1898:	040b      	lsls	r3, r1, #16
    189a:	0c31      	lsrs	r1, r6, #16
    189c:	4319      	orrs	r1, r3
    189e:	4288      	cmp	r0, r1
    18a0:	d909      	bls.n	18b6 <__aeabi_ddiv+0x342>
    18a2:	4441      	add	r1, r8
    18a4:	1e6b      	subs	r3, r5, #1
    18a6:	4588      	cmp	r8, r1
    18a8:	d900      	bls.n	18ac <__aeabi_ddiv+0x338>
    18aa:	e107      	b.n	1abc <__aeabi_ddiv+0x548>
    18ac:	4288      	cmp	r0, r1
    18ae:	d800      	bhi.n	18b2 <__aeabi_ddiv+0x33e>
    18b0:	e104      	b.n	1abc <__aeabi_ddiv+0x548>
    18b2:	3d02      	subs	r5, #2
    18b4:	4441      	add	r1, r8
    18b6:	9b04      	ldr	r3, [sp, #16]
    18b8:	1acb      	subs	r3, r1, r3
    18ba:	0018      	movs	r0, r3
    18bc:	0039      	movs	r1, r7
    18be:	9304      	str	r3, [sp, #16]
    18c0:	f001 f898 	bl	29f4 <__udivsi3>
    18c4:	9b01      	ldr	r3, [sp, #4]
    18c6:	4682      	mov	sl, r0
    18c8:	4343      	muls	r3, r0
    18ca:	0039      	movs	r1, r7
    18cc:	9804      	ldr	r0, [sp, #16]
    18ce:	9301      	str	r3, [sp, #4]
    18d0:	f001 f916 	bl	2b00 <__aeabi_uidivmod>
    18d4:	9801      	ldr	r0, [sp, #4]
    18d6:	040b      	lsls	r3, r1, #16
    18d8:	0431      	lsls	r1, r6, #16
    18da:	0c09      	lsrs	r1, r1, #16
    18dc:	4319      	orrs	r1, r3
    18de:	4288      	cmp	r0, r1
    18e0:	d90d      	bls.n	18fe <__aeabi_ddiv+0x38a>
    18e2:	4653      	mov	r3, sl
    18e4:	4441      	add	r1, r8
    18e6:	3b01      	subs	r3, #1
    18e8:	4588      	cmp	r8, r1
    18ea:	d900      	bls.n	18ee <__aeabi_ddiv+0x37a>
    18ec:	e0e8      	b.n	1ac0 <__aeabi_ddiv+0x54c>
    18ee:	4288      	cmp	r0, r1
    18f0:	d800      	bhi.n	18f4 <__aeabi_ddiv+0x380>
    18f2:	e0e5      	b.n	1ac0 <__aeabi_ddiv+0x54c>
    18f4:	2302      	movs	r3, #2
    18f6:	425b      	negs	r3, r3
    18f8:	469c      	mov	ip, r3
    18fa:	4441      	add	r1, r8
    18fc:	44e2      	add	sl, ip
    18fe:	9b01      	ldr	r3, [sp, #4]
    1900:	042d      	lsls	r5, r5, #16
    1902:	1ace      	subs	r6, r1, r3
    1904:	4651      	mov	r1, sl
    1906:	4329      	orrs	r1, r5
    1908:	9d05      	ldr	r5, [sp, #20]
    190a:	464f      	mov	r7, r9
    190c:	002a      	movs	r2, r5
    190e:	040b      	lsls	r3, r1, #16
    1910:	0c08      	lsrs	r0, r1, #16
    1912:	0c1b      	lsrs	r3, r3, #16
    1914:	435a      	muls	r2, r3
    1916:	4345      	muls	r5, r0
    1918:	437b      	muls	r3, r7
    191a:	4378      	muls	r0, r7
    191c:	195b      	adds	r3, r3, r5
    191e:	0c17      	lsrs	r7, r2, #16
    1920:	18fb      	adds	r3, r7, r3
    1922:	429d      	cmp	r5, r3
    1924:	d903      	bls.n	192e <__aeabi_ddiv+0x3ba>
    1926:	2580      	movs	r5, #128	; 0x80
    1928:	026d      	lsls	r5, r5, #9
    192a:	46ac      	mov	ip, r5
    192c:	4460      	add	r0, ip
    192e:	0c1d      	lsrs	r5, r3, #16
    1930:	0412      	lsls	r2, r2, #16
    1932:	041b      	lsls	r3, r3, #16
    1934:	0c12      	lsrs	r2, r2, #16
    1936:	1828      	adds	r0, r5, r0
    1938:	189b      	adds	r3, r3, r2
    193a:	4286      	cmp	r6, r0
    193c:	d200      	bcs.n	1940 <__aeabi_ddiv+0x3cc>
    193e:	e093      	b.n	1a68 <__aeabi_ddiv+0x4f4>
    1940:	d100      	bne.n	1944 <__aeabi_ddiv+0x3d0>
    1942:	e08e      	b.n	1a62 <__aeabi_ddiv+0x4ee>
    1944:	2301      	movs	r3, #1
    1946:	4319      	orrs	r1, r3
    1948:	4ba0      	ldr	r3, [pc, #640]	; (1bcc <__aeabi_ddiv+0x658>)
    194a:	18e3      	adds	r3, r4, r3
    194c:	2b00      	cmp	r3, #0
    194e:	dc00      	bgt.n	1952 <__aeabi_ddiv+0x3de>
    1950:	e099      	b.n	1a86 <__aeabi_ddiv+0x512>
    1952:	074a      	lsls	r2, r1, #29
    1954:	d000      	beq.n	1958 <__aeabi_ddiv+0x3e4>
    1956:	e09e      	b.n	1a96 <__aeabi_ddiv+0x522>
    1958:	465a      	mov	r2, fp
    195a:	01d2      	lsls	r2, r2, #7
    195c:	d506      	bpl.n	196c <__aeabi_ddiv+0x3f8>
    195e:	465a      	mov	r2, fp
    1960:	4b9b      	ldr	r3, [pc, #620]	; (1bd0 <__aeabi_ddiv+0x65c>)
    1962:	401a      	ands	r2, r3
    1964:	2380      	movs	r3, #128	; 0x80
    1966:	4693      	mov	fp, r2
    1968:	00db      	lsls	r3, r3, #3
    196a:	18e3      	adds	r3, r4, r3
    196c:	4a99      	ldr	r2, [pc, #612]	; (1bd4 <__aeabi_ddiv+0x660>)
    196e:	4293      	cmp	r3, r2
    1970:	dd68      	ble.n	1a44 <__aeabi_ddiv+0x4d0>
    1972:	2301      	movs	r3, #1
    1974:	9a02      	ldr	r2, [sp, #8]
    1976:	4c98      	ldr	r4, [pc, #608]	; (1bd8 <__aeabi_ddiv+0x664>)
    1978:	401a      	ands	r2, r3
    197a:	2300      	movs	r3, #0
    197c:	4694      	mov	ip, r2
    197e:	4698      	mov	r8, r3
    1980:	2200      	movs	r2, #0
    1982:	e6c5      	b.n	1710 <__aeabi_ddiv+0x19c>
    1984:	2280      	movs	r2, #128	; 0x80
    1986:	464b      	mov	r3, r9
    1988:	0312      	lsls	r2, r2, #12
    198a:	4213      	tst	r3, r2
    198c:	d00a      	beq.n	19a4 <__aeabi_ddiv+0x430>
    198e:	465b      	mov	r3, fp
    1990:	4213      	tst	r3, r2
    1992:	d106      	bne.n	19a2 <__aeabi_ddiv+0x42e>
    1994:	431a      	orrs	r2, r3
    1996:	0312      	lsls	r2, r2, #12
    1998:	0b12      	lsrs	r2, r2, #12
    199a:	46ac      	mov	ip, r5
    199c:	4688      	mov	r8, r1
    199e:	4c8e      	ldr	r4, [pc, #568]	; (1bd8 <__aeabi_ddiv+0x664>)
    19a0:	e6b6      	b.n	1710 <__aeabi_ddiv+0x19c>
    19a2:	464b      	mov	r3, r9
    19a4:	431a      	orrs	r2, r3
    19a6:	0312      	lsls	r2, r2, #12
    19a8:	0b12      	lsrs	r2, r2, #12
    19aa:	46bc      	mov	ip, r7
    19ac:	4c8a      	ldr	r4, [pc, #552]	; (1bd8 <__aeabi_ddiv+0x664>)
    19ae:	e6af      	b.n	1710 <__aeabi_ddiv+0x19c>
    19b0:	0003      	movs	r3, r0
    19b2:	465a      	mov	r2, fp
    19b4:	3b28      	subs	r3, #40	; 0x28
    19b6:	409a      	lsls	r2, r3
    19b8:	2300      	movs	r3, #0
    19ba:	4691      	mov	r9, r2
    19bc:	4698      	mov	r8, r3
    19be:	e657      	b.n	1670 <__aeabi_ddiv+0xfc>
    19c0:	4658      	mov	r0, fp
    19c2:	f001 f8a3 	bl	2b0c <__clzsi2>
    19c6:	3020      	adds	r0, #32
    19c8:	e640      	b.n	164c <__aeabi_ddiv+0xd8>
    19ca:	0003      	movs	r3, r0
    19cc:	4652      	mov	r2, sl
    19ce:	3b28      	subs	r3, #40	; 0x28
    19d0:	409a      	lsls	r2, r3
    19d2:	2100      	movs	r1, #0
    19d4:	4693      	mov	fp, r2
    19d6:	e677      	b.n	16c8 <__aeabi_ddiv+0x154>
    19d8:	f001 f898 	bl	2b0c <__clzsi2>
    19dc:	3020      	adds	r0, #32
    19de:	e65f      	b.n	16a0 <__aeabi_ddiv+0x12c>
    19e0:	4588      	cmp	r8, r1
    19e2:	d200      	bcs.n	19e6 <__aeabi_ddiv+0x472>
    19e4:	e6c7      	b.n	1776 <__aeabi_ddiv+0x202>
    19e6:	464b      	mov	r3, r9
    19e8:	07de      	lsls	r6, r3, #31
    19ea:	085d      	lsrs	r5, r3, #1
    19ec:	4643      	mov	r3, r8
    19ee:	085b      	lsrs	r3, r3, #1
    19f0:	431e      	orrs	r6, r3
    19f2:	4643      	mov	r3, r8
    19f4:	07db      	lsls	r3, r3, #31
    19f6:	469a      	mov	sl, r3
    19f8:	e6c2      	b.n	1780 <__aeabi_ddiv+0x20c>
    19fa:	2500      	movs	r5, #0
    19fc:	4592      	cmp	sl, r2
    19fe:	d300      	bcc.n	1a02 <__aeabi_ddiv+0x48e>
    1a00:	e733      	b.n	186a <__aeabi_ddiv+0x2f6>
    1a02:	9e03      	ldr	r6, [sp, #12]
    1a04:	4659      	mov	r1, fp
    1a06:	46b4      	mov	ip, r6
    1a08:	44e2      	add	sl, ip
    1a0a:	45b2      	cmp	sl, r6
    1a0c:	41ad      	sbcs	r5, r5
    1a0e:	426d      	negs	r5, r5
    1a10:	4445      	add	r5, r8
    1a12:	18eb      	adds	r3, r5, r3
    1a14:	3901      	subs	r1, #1
    1a16:	4598      	cmp	r8, r3
    1a18:	d207      	bcs.n	1a2a <__aeabi_ddiv+0x4b6>
    1a1a:	4298      	cmp	r0, r3
    1a1c:	d900      	bls.n	1a20 <__aeabi_ddiv+0x4ac>
    1a1e:	e07f      	b.n	1b20 <__aeabi_ddiv+0x5ac>
    1a20:	d100      	bne.n	1a24 <__aeabi_ddiv+0x4b0>
    1a22:	e0bc      	b.n	1b9e <__aeabi_ddiv+0x62a>
    1a24:	1a1d      	subs	r5, r3, r0
    1a26:	468b      	mov	fp, r1
    1a28:	e71f      	b.n	186a <__aeabi_ddiv+0x2f6>
    1a2a:	4598      	cmp	r8, r3
    1a2c:	d1fa      	bne.n	1a24 <__aeabi_ddiv+0x4b0>
    1a2e:	9d03      	ldr	r5, [sp, #12]
    1a30:	4555      	cmp	r5, sl
    1a32:	d9f2      	bls.n	1a1a <__aeabi_ddiv+0x4a6>
    1a34:	4643      	mov	r3, r8
    1a36:	468b      	mov	fp, r1
    1a38:	1a1d      	subs	r5, r3, r0
    1a3a:	e716      	b.n	186a <__aeabi_ddiv+0x2f6>
    1a3c:	469b      	mov	fp, r3
    1a3e:	e6ca      	b.n	17d6 <__aeabi_ddiv+0x262>
    1a40:	0015      	movs	r5, r2
    1a42:	e6e7      	b.n	1814 <__aeabi_ddiv+0x2a0>
    1a44:	465a      	mov	r2, fp
    1a46:	08c9      	lsrs	r1, r1, #3
    1a48:	0752      	lsls	r2, r2, #29
    1a4a:	430a      	orrs	r2, r1
    1a4c:	055b      	lsls	r3, r3, #21
    1a4e:	4690      	mov	r8, r2
    1a50:	0d5c      	lsrs	r4, r3, #21
    1a52:	465a      	mov	r2, fp
    1a54:	2301      	movs	r3, #1
    1a56:	9902      	ldr	r1, [sp, #8]
    1a58:	0252      	lsls	r2, r2, #9
    1a5a:	4019      	ands	r1, r3
    1a5c:	0b12      	lsrs	r2, r2, #12
    1a5e:	468c      	mov	ip, r1
    1a60:	e656      	b.n	1710 <__aeabi_ddiv+0x19c>
    1a62:	2b00      	cmp	r3, #0
    1a64:	d100      	bne.n	1a68 <__aeabi_ddiv+0x4f4>
    1a66:	e76f      	b.n	1948 <__aeabi_ddiv+0x3d4>
    1a68:	4446      	add	r6, r8
    1a6a:	1e4a      	subs	r2, r1, #1
    1a6c:	45b0      	cmp	r8, r6
    1a6e:	d929      	bls.n	1ac4 <__aeabi_ddiv+0x550>
    1a70:	0011      	movs	r1, r2
    1a72:	4286      	cmp	r6, r0
    1a74:	d000      	beq.n	1a78 <__aeabi_ddiv+0x504>
    1a76:	e765      	b.n	1944 <__aeabi_ddiv+0x3d0>
    1a78:	9a03      	ldr	r2, [sp, #12]
    1a7a:	4293      	cmp	r3, r2
    1a7c:	d000      	beq.n	1a80 <__aeabi_ddiv+0x50c>
    1a7e:	e761      	b.n	1944 <__aeabi_ddiv+0x3d0>
    1a80:	e762      	b.n	1948 <__aeabi_ddiv+0x3d4>
    1a82:	2101      	movs	r1, #1
    1a84:	4249      	negs	r1, r1
    1a86:	2001      	movs	r0, #1
    1a88:	1ac2      	subs	r2, r0, r3
    1a8a:	2a38      	cmp	r2, #56	; 0x38
    1a8c:	dd21      	ble.n	1ad2 <__aeabi_ddiv+0x55e>
    1a8e:	9b02      	ldr	r3, [sp, #8]
    1a90:	4003      	ands	r3, r0
    1a92:	469c      	mov	ip, r3
    1a94:	e638      	b.n	1708 <__aeabi_ddiv+0x194>
    1a96:	220f      	movs	r2, #15
    1a98:	400a      	ands	r2, r1
    1a9a:	2a04      	cmp	r2, #4
    1a9c:	d100      	bne.n	1aa0 <__aeabi_ddiv+0x52c>
    1a9e:	e75b      	b.n	1958 <__aeabi_ddiv+0x3e4>
    1aa0:	000a      	movs	r2, r1
    1aa2:	1d11      	adds	r1, r2, #4
    1aa4:	4291      	cmp	r1, r2
    1aa6:	4192      	sbcs	r2, r2
    1aa8:	4252      	negs	r2, r2
    1aaa:	4493      	add	fp, r2
    1aac:	e754      	b.n	1958 <__aeabi_ddiv+0x3e4>
    1aae:	4b47      	ldr	r3, [pc, #284]	; (1bcc <__aeabi_ddiv+0x658>)
    1ab0:	18e3      	adds	r3, r4, r3
    1ab2:	2b00      	cmp	r3, #0
    1ab4:	dde5      	ble.n	1a82 <__aeabi_ddiv+0x50e>
    1ab6:	2201      	movs	r2, #1
    1ab8:	4252      	negs	r2, r2
    1aba:	e7f2      	b.n	1aa2 <__aeabi_ddiv+0x52e>
    1abc:	001d      	movs	r5, r3
    1abe:	e6fa      	b.n	18b6 <__aeabi_ddiv+0x342>
    1ac0:	469a      	mov	sl, r3
    1ac2:	e71c      	b.n	18fe <__aeabi_ddiv+0x38a>
    1ac4:	42b0      	cmp	r0, r6
    1ac6:	d839      	bhi.n	1b3c <__aeabi_ddiv+0x5c8>
    1ac8:	d06e      	beq.n	1ba8 <__aeabi_ddiv+0x634>
    1aca:	0011      	movs	r1, r2
    1acc:	e73a      	b.n	1944 <__aeabi_ddiv+0x3d0>
    1ace:	9302      	str	r3, [sp, #8]
    1ad0:	e73a      	b.n	1948 <__aeabi_ddiv+0x3d4>
    1ad2:	2a1f      	cmp	r2, #31
    1ad4:	dc3c      	bgt.n	1b50 <__aeabi_ddiv+0x5dc>
    1ad6:	2320      	movs	r3, #32
    1ad8:	1a9b      	subs	r3, r3, r2
    1ada:	000c      	movs	r4, r1
    1adc:	4658      	mov	r0, fp
    1ade:	4099      	lsls	r1, r3
    1ae0:	4098      	lsls	r0, r3
    1ae2:	1e4b      	subs	r3, r1, #1
    1ae4:	4199      	sbcs	r1, r3
    1ae6:	465b      	mov	r3, fp
    1ae8:	40d4      	lsrs	r4, r2
    1aea:	40d3      	lsrs	r3, r2
    1aec:	4320      	orrs	r0, r4
    1aee:	4308      	orrs	r0, r1
    1af0:	001a      	movs	r2, r3
    1af2:	0743      	lsls	r3, r0, #29
    1af4:	d009      	beq.n	1b0a <__aeabi_ddiv+0x596>
    1af6:	230f      	movs	r3, #15
    1af8:	4003      	ands	r3, r0
    1afa:	2b04      	cmp	r3, #4
    1afc:	d005      	beq.n	1b0a <__aeabi_ddiv+0x596>
    1afe:	0001      	movs	r1, r0
    1b00:	1d08      	adds	r0, r1, #4
    1b02:	4288      	cmp	r0, r1
    1b04:	419b      	sbcs	r3, r3
    1b06:	425b      	negs	r3, r3
    1b08:	18d2      	adds	r2, r2, r3
    1b0a:	0213      	lsls	r3, r2, #8
    1b0c:	d53a      	bpl.n	1b84 <__aeabi_ddiv+0x610>
    1b0e:	2301      	movs	r3, #1
    1b10:	9a02      	ldr	r2, [sp, #8]
    1b12:	2401      	movs	r4, #1
    1b14:	401a      	ands	r2, r3
    1b16:	2300      	movs	r3, #0
    1b18:	4694      	mov	ip, r2
    1b1a:	4698      	mov	r8, r3
    1b1c:	2200      	movs	r2, #0
    1b1e:	e5f7      	b.n	1710 <__aeabi_ddiv+0x19c>
    1b20:	2102      	movs	r1, #2
    1b22:	4249      	negs	r1, r1
    1b24:	468c      	mov	ip, r1
    1b26:	9d03      	ldr	r5, [sp, #12]
    1b28:	44e3      	add	fp, ip
    1b2a:	46ac      	mov	ip, r5
    1b2c:	44e2      	add	sl, ip
    1b2e:	45aa      	cmp	sl, r5
    1b30:	41ad      	sbcs	r5, r5
    1b32:	426d      	negs	r5, r5
    1b34:	4445      	add	r5, r8
    1b36:	18ed      	adds	r5, r5, r3
    1b38:	1a2d      	subs	r5, r5, r0
    1b3a:	e696      	b.n	186a <__aeabi_ddiv+0x2f6>
    1b3c:	1e8a      	subs	r2, r1, #2
    1b3e:	9903      	ldr	r1, [sp, #12]
    1b40:	004d      	lsls	r5, r1, #1
    1b42:	428d      	cmp	r5, r1
    1b44:	4189      	sbcs	r1, r1
    1b46:	4249      	negs	r1, r1
    1b48:	4441      	add	r1, r8
    1b4a:	1876      	adds	r6, r6, r1
    1b4c:	9503      	str	r5, [sp, #12]
    1b4e:	e78f      	b.n	1a70 <__aeabi_ddiv+0x4fc>
    1b50:	201f      	movs	r0, #31
    1b52:	4240      	negs	r0, r0
    1b54:	1ac3      	subs	r3, r0, r3
    1b56:	4658      	mov	r0, fp
    1b58:	40d8      	lsrs	r0, r3
    1b5a:	0003      	movs	r3, r0
    1b5c:	2a20      	cmp	r2, #32
    1b5e:	d028      	beq.n	1bb2 <__aeabi_ddiv+0x63e>
    1b60:	2040      	movs	r0, #64	; 0x40
    1b62:	465d      	mov	r5, fp
    1b64:	1a82      	subs	r2, r0, r2
    1b66:	4095      	lsls	r5, r2
    1b68:	4329      	orrs	r1, r5
    1b6a:	1e4a      	subs	r2, r1, #1
    1b6c:	4191      	sbcs	r1, r2
    1b6e:	4319      	orrs	r1, r3
    1b70:	2307      	movs	r3, #7
    1b72:	2200      	movs	r2, #0
    1b74:	400b      	ands	r3, r1
    1b76:	d009      	beq.n	1b8c <__aeabi_ddiv+0x618>
    1b78:	230f      	movs	r3, #15
    1b7a:	2200      	movs	r2, #0
    1b7c:	400b      	ands	r3, r1
    1b7e:	0008      	movs	r0, r1
    1b80:	2b04      	cmp	r3, #4
    1b82:	d1bd      	bne.n	1b00 <__aeabi_ddiv+0x58c>
    1b84:	0001      	movs	r1, r0
    1b86:	0753      	lsls	r3, r2, #29
    1b88:	0252      	lsls	r2, r2, #9
    1b8a:	0b12      	lsrs	r2, r2, #12
    1b8c:	08c9      	lsrs	r1, r1, #3
    1b8e:	4319      	orrs	r1, r3
    1b90:	2301      	movs	r3, #1
    1b92:	4688      	mov	r8, r1
    1b94:	9902      	ldr	r1, [sp, #8]
    1b96:	2400      	movs	r4, #0
    1b98:	4019      	ands	r1, r3
    1b9a:	468c      	mov	ip, r1
    1b9c:	e5b8      	b.n	1710 <__aeabi_ddiv+0x19c>
    1b9e:	4552      	cmp	r2, sl
    1ba0:	d8be      	bhi.n	1b20 <__aeabi_ddiv+0x5ac>
    1ba2:	468b      	mov	fp, r1
    1ba4:	2500      	movs	r5, #0
    1ba6:	e660      	b.n	186a <__aeabi_ddiv+0x2f6>
    1ba8:	9d03      	ldr	r5, [sp, #12]
    1baa:	429d      	cmp	r5, r3
    1bac:	d3c6      	bcc.n	1b3c <__aeabi_ddiv+0x5c8>
    1bae:	0011      	movs	r1, r2
    1bb0:	e762      	b.n	1a78 <__aeabi_ddiv+0x504>
    1bb2:	2500      	movs	r5, #0
    1bb4:	e7d8      	b.n	1b68 <__aeabi_ddiv+0x5f4>
    1bb6:	2280      	movs	r2, #128	; 0x80
    1bb8:	465b      	mov	r3, fp
    1bba:	0312      	lsls	r2, r2, #12
    1bbc:	431a      	orrs	r2, r3
    1bbe:	9b01      	ldr	r3, [sp, #4]
    1bc0:	0312      	lsls	r2, r2, #12
    1bc2:	0b12      	lsrs	r2, r2, #12
    1bc4:	469c      	mov	ip, r3
    1bc6:	4688      	mov	r8, r1
    1bc8:	4c03      	ldr	r4, [pc, #12]	; (1bd8 <__aeabi_ddiv+0x664>)
    1bca:	e5a1      	b.n	1710 <__aeabi_ddiv+0x19c>
    1bcc:	000003ff 	.word	0x000003ff
    1bd0:	feffffff 	.word	0xfeffffff
    1bd4:	000007fe 	.word	0x000007fe
    1bd8:	000007ff 	.word	0x000007ff

00001bdc <__eqdf2>:
    1bdc:	b5f0      	push	{r4, r5, r6, r7, lr}
    1bde:	464f      	mov	r7, r9
    1be0:	4646      	mov	r6, r8
    1be2:	46d6      	mov	lr, sl
    1be4:	005c      	lsls	r4, r3, #1
    1be6:	b5c0      	push	{r6, r7, lr}
    1be8:	031f      	lsls	r7, r3, #12
    1bea:	0fdb      	lsrs	r3, r3, #31
    1bec:	469a      	mov	sl, r3
    1bee:	4b17      	ldr	r3, [pc, #92]	; (1c4c <__eqdf2+0x70>)
    1bf0:	030e      	lsls	r6, r1, #12
    1bf2:	004d      	lsls	r5, r1, #1
    1bf4:	4684      	mov	ip, r0
    1bf6:	4680      	mov	r8, r0
    1bf8:	0b36      	lsrs	r6, r6, #12
    1bfa:	0d6d      	lsrs	r5, r5, #21
    1bfc:	0fc9      	lsrs	r1, r1, #31
    1bfe:	4691      	mov	r9, r2
    1c00:	0b3f      	lsrs	r7, r7, #12
    1c02:	0d64      	lsrs	r4, r4, #21
    1c04:	2001      	movs	r0, #1
    1c06:	429d      	cmp	r5, r3
    1c08:	d008      	beq.n	1c1c <__eqdf2+0x40>
    1c0a:	429c      	cmp	r4, r3
    1c0c:	d001      	beq.n	1c12 <__eqdf2+0x36>
    1c0e:	42a5      	cmp	r5, r4
    1c10:	d00b      	beq.n	1c2a <__eqdf2+0x4e>
    1c12:	bc1c      	pop	{r2, r3, r4}
    1c14:	4690      	mov	r8, r2
    1c16:	4699      	mov	r9, r3
    1c18:	46a2      	mov	sl, r4
    1c1a:	bdf0      	pop	{r4, r5, r6, r7, pc}
    1c1c:	4663      	mov	r3, ip
    1c1e:	4333      	orrs	r3, r6
    1c20:	d1f7      	bne.n	1c12 <__eqdf2+0x36>
    1c22:	42ac      	cmp	r4, r5
    1c24:	d1f5      	bne.n	1c12 <__eqdf2+0x36>
    1c26:	433a      	orrs	r2, r7
    1c28:	d1f3      	bne.n	1c12 <__eqdf2+0x36>
    1c2a:	2001      	movs	r0, #1
    1c2c:	42be      	cmp	r6, r7
    1c2e:	d1f0      	bne.n	1c12 <__eqdf2+0x36>
    1c30:	45c8      	cmp	r8, r9
    1c32:	d1ee      	bne.n	1c12 <__eqdf2+0x36>
    1c34:	4551      	cmp	r1, sl
    1c36:	d007      	beq.n	1c48 <__eqdf2+0x6c>
    1c38:	2d00      	cmp	r5, #0
    1c3a:	d1ea      	bne.n	1c12 <__eqdf2+0x36>
    1c3c:	4663      	mov	r3, ip
    1c3e:	431e      	orrs	r6, r3
    1c40:	0030      	movs	r0, r6
    1c42:	1e46      	subs	r6, r0, #1
    1c44:	41b0      	sbcs	r0, r6
    1c46:	e7e4      	b.n	1c12 <__eqdf2+0x36>
    1c48:	2000      	movs	r0, #0
    1c4a:	e7e2      	b.n	1c12 <__eqdf2+0x36>
    1c4c:	000007ff 	.word	0x000007ff

00001c50 <__gedf2>:
    1c50:	b5f0      	push	{r4, r5, r6, r7, lr}
    1c52:	4645      	mov	r5, r8
    1c54:	46de      	mov	lr, fp
    1c56:	4657      	mov	r7, sl
    1c58:	464e      	mov	r6, r9
    1c5a:	b5e0      	push	{r5, r6, r7, lr}
    1c5c:	031f      	lsls	r7, r3, #12
    1c5e:	0b3d      	lsrs	r5, r7, #12
    1c60:	4f2c      	ldr	r7, [pc, #176]	; (1d14 <__gedf2+0xc4>)
    1c62:	030e      	lsls	r6, r1, #12
    1c64:	004c      	lsls	r4, r1, #1
    1c66:	46ab      	mov	fp, r5
    1c68:	005d      	lsls	r5, r3, #1
    1c6a:	4684      	mov	ip, r0
    1c6c:	0b36      	lsrs	r6, r6, #12
    1c6e:	0d64      	lsrs	r4, r4, #21
    1c70:	0fc9      	lsrs	r1, r1, #31
    1c72:	4690      	mov	r8, r2
    1c74:	0d6d      	lsrs	r5, r5, #21
    1c76:	0fdb      	lsrs	r3, r3, #31
    1c78:	42bc      	cmp	r4, r7
    1c7a:	d02a      	beq.n	1cd2 <__gedf2+0x82>
    1c7c:	4f25      	ldr	r7, [pc, #148]	; (1d14 <__gedf2+0xc4>)
    1c7e:	42bd      	cmp	r5, r7
    1c80:	d02d      	beq.n	1cde <__gedf2+0x8e>
    1c82:	2c00      	cmp	r4, #0
    1c84:	d10f      	bne.n	1ca6 <__gedf2+0x56>
    1c86:	4330      	orrs	r0, r6
    1c88:	0007      	movs	r7, r0
    1c8a:	4681      	mov	r9, r0
    1c8c:	4278      	negs	r0, r7
    1c8e:	4178      	adcs	r0, r7
    1c90:	b2c0      	uxtb	r0, r0
    1c92:	2d00      	cmp	r5, #0
    1c94:	d117      	bne.n	1cc6 <__gedf2+0x76>
    1c96:	465f      	mov	r7, fp
    1c98:	433a      	orrs	r2, r7
    1c9a:	d114      	bne.n	1cc6 <__gedf2+0x76>
    1c9c:	464b      	mov	r3, r9
    1c9e:	2000      	movs	r0, #0
    1ca0:	2b00      	cmp	r3, #0
    1ca2:	d00a      	beq.n	1cba <__gedf2+0x6a>
    1ca4:	e006      	b.n	1cb4 <__gedf2+0x64>
    1ca6:	2d00      	cmp	r5, #0
    1ca8:	d102      	bne.n	1cb0 <__gedf2+0x60>
    1caa:	4658      	mov	r0, fp
    1cac:	4302      	orrs	r2, r0
    1cae:	d001      	beq.n	1cb4 <__gedf2+0x64>
    1cb0:	4299      	cmp	r1, r3
    1cb2:	d018      	beq.n	1ce6 <__gedf2+0x96>
    1cb4:	4248      	negs	r0, r1
    1cb6:	2101      	movs	r1, #1
    1cb8:	4308      	orrs	r0, r1
    1cba:	bc3c      	pop	{r2, r3, r4, r5}
    1cbc:	4690      	mov	r8, r2
    1cbe:	4699      	mov	r9, r3
    1cc0:	46a2      	mov	sl, r4
    1cc2:	46ab      	mov	fp, r5
    1cc4:	bdf0      	pop	{r4, r5, r6, r7, pc}
    1cc6:	2800      	cmp	r0, #0
    1cc8:	d0f2      	beq.n	1cb0 <__gedf2+0x60>
    1cca:	2001      	movs	r0, #1
    1ccc:	3b01      	subs	r3, #1
    1cce:	4318      	orrs	r0, r3
    1cd0:	e7f3      	b.n	1cba <__gedf2+0x6a>
    1cd2:	0037      	movs	r7, r6
    1cd4:	4307      	orrs	r7, r0
    1cd6:	d0d1      	beq.n	1c7c <__gedf2+0x2c>
    1cd8:	2002      	movs	r0, #2
    1cda:	4240      	negs	r0, r0
    1cdc:	e7ed      	b.n	1cba <__gedf2+0x6a>
    1cde:	465f      	mov	r7, fp
    1ce0:	4317      	orrs	r7, r2
    1ce2:	d0ce      	beq.n	1c82 <__gedf2+0x32>
    1ce4:	e7f8      	b.n	1cd8 <__gedf2+0x88>
    1ce6:	42ac      	cmp	r4, r5
    1ce8:	dce4      	bgt.n	1cb4 <__gedf2+0x64>
    1cea:	da03      	bge.n	1cf4 <__gedf2+0xa4>
    1cec:	1e48      	subs	r0, r1, #1
    1cee:	2101      	movs	r1, #1
    1cf0:	4308      	orrs	r0, r1
    1cf2:	e7e2      	b.n	1cba <__gedf2+0x6a>
    1cf4:	455e      	cmp	r6, fp
    1cf6:	d8dd      	bhi.n	1cb4 <__gedf2+0x64>
    1cf8:	d006      	beq.n	1d08 <__gedf2+0xb8>
    1cfa:	2000      	movs	r0, #0
    1cfc:	455e      	cmp	r6, fp
    1cfe:	d2dc      	bcs.n	1cba <__gedf2+0x6a>
    1d00:	2301      	movs	r3, #1
    1d02:	1e48      	subs	r0, r1, #1
    1d04:	4318      	orrs	r0, r3
    1d06:	e7d8      	b.n	1cba <__gedf2+0x6a>
    1d08:	45c4      	cmp	ip, r8
    1d0a:	d8d3      	bhi.n	1cb4 <__gedf2+0x64>
    1d0c:	2000      	movs	r0, #0
    1d0e:	45c4      	cmp	ip, r8
    1d10:	d3f6      	bcc.n	1d00 <__gedf2+0xb0>
    1d12:	e7d2      	b.n	1cba <__gedf2+0x6a>
    1d14:	000007ff 	.word	0x000007ff

00001d18 <__ledf2>:
    1d18:	b5f0      	push	{r4, r5, r6, r7, lr}
    1d1a:	464e      	mov	r6, r9
    1d1c:	4645      	mov	r5, r8
    1d1e:	46de      	mov	lr, fp
    1d20:	4657      	mov	r7, sl
    1d22:	005c      	lsls	r4, r3, #1
    1d24:	b5e0      	push	{r5, r6, r7, lr}
    1d26:	031f      	lsls	r7, r3, #12
    1d28:	0fdb      	lsrs	r3, r3, #31
    1d2a:	4699      	mov	r9, r3
    1d2c:	4b2a      	ldr	r3, [pc, #168]	; (1dd8 <__ledf2+0xc0>)
    1d2e:	030e      	lsls	r6, r1, #12
    1d30:	004d      	lsls	r5, r1, #1
    1d32:	0fc9      	lsrs	r1, r1, #31
    1d34:	4684      	mov	ip, r0
    1d36:	0b36      	lsrs	r6, r6, #12
    1d38:	0d6d      	lsrs	r5, r5, #21
    1d3a:	468b      	mov	fp, r1
    1d3c:	4690      	mov	r8, r2
    1d3e:	0b3f      	lsrs	r7, r7, #12
    1d40:	0d64      	lsrs	r4, r4, #21
    1d42:	429d      	cmp	r5, r3
    1d44:	d020      	beq.n	1d88 <__ledf2+0x70>
    1d46:	4b24      	ldr	r3, [pc, #144]	; (1dd8 <__ledf2+0xc0>)
    1d48:	429c      	cmp	r4, r3
    1d4a:	d022      	beq.n	1d92 <__ledf2+0x7a>
    1d4c:	2d00      	cmp	r5, #0
    1d4e:	d112      	bne.n	1d76 <__ledf2+0x5e>
    1d50:	4330      	orrs	r0, r6
    1d52:	4243      	negs	r3, r0
    1d54:	4143      	adcs	r3, r0
    1d56:	b2db      	uxtb	r3, r3
    1d58:	2c00      	cmp	r4, #0
    1d5a:	d01f      	beq.n	1d9c <__ledf2+0x84>
    1d5c:	2b00      	cmp	r3, #0
    1d5e:	d00c      	beq.n	1d7a <__ledf2+0x62>
    1d60:	464b      	mov	r3, r9
    1d62:	2001      	movs	r0, #1
    1d64:	3b01      	subs	r3, #1
    1d66:	4303      	orrs	r3, r0
    1d68:	0018      	movs	r0, r3
    1d6a:	bc3c      	pop	{r2, r3, r4, r5}
    1d6c:	4690      	mov	r8, r2
    1d6e:	4699      	mov	r9, r3
    1d70:	46a2      	mov	sl, r4
    1d72:	46ab      	mov	fp, r5
    1d74:	bdf0      	pop	{r4, r5, r6, r7, pc}
    1d76:	2c00      	cmp	r4, #0
    1d78:	d016      	beq.n	1da8 <__ledf2+0x90>
    1d7a:	45cb      	cmp	fp, r9
    1d7c:	d017      	beq.n	1dae <__ledf2+0x96>
    1d7e:	465b      	mov	r3, fp
    1d80:	4259      	negs	r1, r3
    1d82:	2301      	movs	r3, #1
    1d84:	430b      	orrs	r3, r1
    1d86:	e7ef      	b.n	1d68 <__ledf2+0x50>
    1d88:	0031      	movs	r1, r6
    1d8a:	2302      	movs	r3, #2
    1d8c:	4301      	orrs	r1, r0
    1d8e:	d1eb      	bne.n	1d68 <__ledf2+0x50>
    1d90:	e7d9      	b.n	1d46 <__ledf2+0x2e>
    1d92:	0039      	movs	r1, r7
    1d94:	2302      	movs	r3, #2
    1d96:	4311      	orrs	r1, r2
    1d98:	d1e6      	bne.n	1d68 <__ledf2+0x50>
    1d9a:	e7d7      	b.n	1d4c <__ledf2+0x34>
    1d9c:	433a      	orrs	r2, r7
    1d9e:	d1dd      	bne.n	1d5c <__ledf2+0x44>
    1da0:	2300      	movs	r3, #0
    1da2:	2800      	cmp	r0, #0
    1da4:	d0e0      	beq.n	1d68 <__ledf2+0x50>
    1da6:	e7ea      	b.n	1d7e <__ledf2+0x66>
    1da8:	433a      	orrs	r2, r7
    1daa:	d1e6      	bne.n	1d7a <__ledf2+0x62>
    1dac:	e7e7      	b.n	1d7e <__ledf2+0x66>
    1dae:	42a5      	cmp	r5, r4
    1db0:	dce5      	bgt.n	1d7e <__ledf2+0x66>
    1db2:	db05      	blt.n	1dc0 <__ledf2+0xa8>
    1db4:	42be      	cmp	r6, r7
    1db6:	d8e2      	bhi.n	1d7e <__ledf2+0x66>
    1db8:	d007      	beq.n	1dca <__ledf2+0xb2>
    1dba:	2300      	movs	r3, #0
    1dbc:	42be      	cmp	r6, r7
    1dbe:	d2d3      	bcs.n	1d68 <__ledf2+0x50>
    1dc0:	4659      	mov	r1, fp
    1dc2:	2301      	movs	r3, #1
    1dc4:	3901      	subs	r1, #1
    1dc6:	430b      	orrs	r3, r1
    1dc8:	e7ce      	b.n	1d68 <__ledf2+0x50>
    1dca:	45c4      	cmp	ip, r8
    1dcc:	d8d7      	bhi.n	1d7e <__ledf2+0x66>
    1dce:	2300      	movs	r3, #0
    1dd0:	45c4      	cmp	ip, r8
    1dd2:	d3f5      	bcc.n	1dc0 <__ledf2+0xa8>
    1dd4:	e7c8      	b.n	1d68 <__ledf2+0x50>
    1dd6:	46c0      	nop			; (mov r8, r8)
    1dd8:	000007ff 	.word	0x000007ff

00001ddc <__aeabi_dmul>:
    1ddc:	b5f0      	push	{r4, r5, r6, r7, lr}
    1dde:	4657      	mov	r7, sl
    1de0:	4645      	mov	r5, r8
    1de2:	46de      	mov	lr, fp
    1de4:	464e      	mov	r6, r9
    1de6:	b5e0      	push	{r5, r6, r7, lr}
    1de8:	030c      	lsls	r4, r1, #12
    1dea:	4698      	mov	r8, r3
    1dec:	004e      	lsls	r6, r1, #1
    1dee:	0b23      	lsrs	r3, r4, #12
    1df0:	b087      	sub	sp, #28
    1df2:	0007      	movs	r7, r0
    1df4:	4692      	mov	sl, r2
    1df6:	469b      	mov	fp, r3
    1df8:	0d76      	lsrs	r6, r6, #21
    1dfa:	0fcd      	lsrs	r5, r1, #31
    1dfc:	2e00      	cmp	r6, #0
    1dfe:	d06b      	beq.n	1ed8 <__aeabi_dmul+0xfc>
    1e00:	4b6d      	ldr	r3, [pc, #436]	; (1fb8 <__aeabi_dmul+0x1dc>)
    1e02:	429e      	cmp	r6, r3
    1e04:	d035      	beq.n	1e72 <__aeabi_dmul+0x96>
    1e06:	2480      	movs	r4, #128	; 0x80
    1e08:	465b      	mov	r3, fp
    1e0a:	0f42      	lsrs	r2, r0, #29
    1e0c:	0424      	lsls	r4, r4, #16
    1e0e:	00db      	lsls	r3, r3, #3
    1e10:	4314      	orrs	r4, r2
    1e12:	431c      	orrs	r4, r3
    1e14:	00c3      	lsls	r3, r0, #3
    1e16:	4699      	mov	r9, r3
    1e18:	4b68      	ldr	r3, [pc, #416]	; (1fbc <__aeabi_dmul+0x1e0>)
    1e1a:	46a3      	mov	fp, r4
    1e1c:	469c      	mov	ip, r3
    1e1e:	2300      	movs	r3, #0
    1e20:	2700      	movs	r7, #0
    1e22:	4466      	add	r6, ip
    1e24:	9302      	str	r3, [sp, #8]
    1e26:	4643      	mov	r3, r8
    1e28:	031c      	lsls	r4, r3, #12
    1e2a:	005a      	lsls	r2, r3, #1
    1e2c:	0fdb      	lsrs	r3, r3, #31
    1e2e:	4650      	mov	r0, sl
    1e30:	0b24      	lsrs	r4, r4, #12
    1e32:	0d52      	lsrs	r2, r2, #21
    1e34:	4698      	mov	r8, r3
    1e36:	d100      	bne.n	1e3a <__aeabi_dmul+0x5e>
    1e38:	e076      	b.n	1f28 <__aeabi_dmul+0x14c>
    1e3a:	4b5f      	ldr	r3, [pc, #380]	; (1fb8 <__aeabi_dmul+0x1dc>)
    1e3c:	429a      	cmp	r2, r3
    1e3e:	d06d      	beq.n	1f1c <__aeabi_dmul+0x140>
    1e40:	2380      	movs	r3, #128	; 0x80
    1e42:	0f41      	lsrs	r1, r0, #29
    1e44:	041b      	lsls	r3, r3, #16
    1e46:	430b      	orrs	r3, r1
    1e48:	495c      	ldr	r1, [pc, #368]	; (1fbc <__aeabi_dmul+0x1e0>)
    1e4a:	00e4      	lsls	r4, r4, #3
    1e4c:	468c      	mov	ip, r1
    1e4e:	431c      	orrs	r4, r3
    1e50:	00c3      	lsls	r3, r0, #3
    1e52:	2000      	movs	r0, #0
    1e54:	4462      	add	r2, ip
    1e56:	4641      	mov	r1, r8
    1e58:	18b6      	adds	r6, r6, r2
    1e5a:	4069      	eors	r1, r5
    1e5c:	1c72      	adds	r2, r6, #1
    1e5e:	9101      	str	r1, [sp, #4]
    1e60:	4694      	mov	ip, r2
    1e62:	4307      	orrs	r7, r0
    1e64:	2f0f      	cmp	r7, #15
    1e66:	d900      	bls.n	1e6a <__aeabi_dmul+0x8e>
    1e68:	e0b0      	b.n	1fcc <__aeabi_dmul+0x1f0>
    1e6a:	4a55      	ldr	r2, [pc, #340]	; (1fc0 <__aeabi_dmul+0x1e4>)
    1e6c:	00bf      	lsls	r7, r7, #2
    1e6e:	59d2      	ldr	r2, [r2, r7]
    1e70:	4697      	mov	pc, r2
    1e72:	465b      	mov	r3, fp
    1e74:	4303      	orrs	r3, r0
    1e76:	4699      	mov	r9, r3
    1e78:	d000      	beq.n	1e7c <__aeabi_dmul+0xa0>
    1e7a:	e087      	b.n	1f8c <__aeabi_dmul+0x1b0>
    1e7c:	2300      	movs	r3, #0
    1e7e:	469b      	mov	fp, r3
    1e80:	3302      	adds	r3, #2
    1e82:	2708      	movs	r7, #8
    1e84:	9302      	str	r3, [sp, #8]
    1e86:	e7ce      	b.n	1e26 <__aeabi_dmul+0x4a>
    1e88:	4642      	mov	r2, r8
    1e8a:	9201      	str	r2, [sp, #4]
    1e8c:	2802      	cmp	r0, #2
    1e8e:	d067      	beq.n	1f60 <__aeabi_dmul+0x184>
    1e90:	2803      	cmp	r0, #3
    1e92:	d100      	bne.n	1e96 <__aeabi_dmul+0xba>
    1e94:	e20e      	b.n	22b4 <__aeabi_dmul+0x4d8>
    1e96:	2801      	cmp	r0, #1
    1e98:	d000      	beq.n	1e9c <__aeabi_dmul+0xc0>
    1e9a:	e162      	b.n	2162 <__aeabi_dmul+0x386>
    1e9c:	2300      	movs	r3, #0
    1e9e:	2400      	movs	r4, #0
    1ea0:	2200      	movs	r2, #0
    1ea2:	4699      	mov	r9, r3
    1ea4:	9901      	ldr	r1, [sp, #4]
    1ea6:	4001      	ands	r1, r0
    1ea8:	b2cd      	uxtb	r5, r1
    1eaa:	2100      	movs	r1, #0
    1eac:	0312      	lsls	r2, r2, #12
    1eae:	0d0b      	lsrs	r3, r1, #20
    1eb0:	0b12      	lsrs	r2, r2, #12
    1eb2:	051b      	lsls	r3, r3, #20
    1eb4:	4313      	orrs	r3, r2
    1eb6:	4a43      	ldr	r2, [pc, #268]	; (1fc4 <__aeabi_dmul+0x1e8>)
    1eb8:	0524      	lsls	r4, r4, #20
    1eba:	4013      	ands	r3, r2
    1ebc:	431c      	orrs	r4, r3
    1ebe:	0064      	lsls	r4, r4, #1
    1ec0:	07ed      	lsls	r5, r5, #31
    1ec2:	0864      	lsrs	r4, r4, #1
    1ec4:	432c      	orrs	r4, r5
    1ec6:	4648      	mov	r0, r9
    1ec8:	0021      	movs	r1, r4
    1eca:	b007      	add	sp, #28
    1ecc:	bc3c      	pop	{r2, r3, r4, r5}
    1ece:	4690      	mov	r8, r2
    1ed0:	4699      	mov	r9, r3
    1ed2:	46a2      	mov	sl, r4
    1ed4:	46ab      	mov	fp, r5
    1ed6:	bdf0      	pop	{r4, r5, r6, r7, pc}
    1ed8:	4303      	orrs	r3, r0
    1eda:	4699      	mov	r9, r3
    1edc:	d04f      	beq.n	1f7e <__aeabi_dmul+0x1a2>
    1ede:	465b      	mov	r3, fp
    1ee0:	2b00      	cmp	r3, #0
    1ee2:	d100      	bne.n	1ee6 <__aeabi_dmul+0x10a>
    1ee4:	e189      	b.n	21fa <__aeabi_dmul+0x41e>
    1ee6:	4658      	mov	r0, fp
    1ee8:	f000 fe10 	bl	2b0c <__clzsi2>
    1eec:	0003      	movs	r3, r0
    1eee:	3b0b      	subs	r3, #11
    1ef0:	2b1c      	cmp	r3, #28
    1ef2:	dd00      	ble.n	1ef6 <__aeabi_dmul+0x11a>
    1ef4:	e17a      	b.n	21ec <__aeabi_dmul+0x410>
    1ef6:	221d      	movs	r2, #29
    1ef8:	1ad3      	subs	r3, r2, r3
    1efa:	003a      	movs	r2, r7
    1efc:	0001      	movs	r1, r0
    1efe:	465c      	mov	r4, fp
    1f00:	40da      	lsrs	r2, r3
    1f02:	3908      	subs	r1, #8
    1f04:	408c      	lsls	r4, r1
    1f06:	0013      	movs	r3, r2
    1f08:	408f      	lsls	r7, r1
    1f0a:	4323      	orrs	r3, r4
    1f0c:	469b      	mov	fp, r3
    1f0e:	46b9      	mov	r9, r7
    1f10:	2300      	movs	r3, #0
    1f12:	4e2d      	ldr	r6, [pc, #180]	; (1fc8 <__aeabi_dmul+0x1ec>)
    1f14:	2700      	movs	r7, #0
    1f16:	1a36      	subs	r6, r6, r0
    1f18:	9302      	str	r3, [sp, #8]
    1f1a:	e784      	b.n	1e26 <__aeabi_dmul+0x4a>
    1f1c:	4653      	mov	r3, sl
    1f1e:	4323      	orrs	r3, r4
    1f20:	d12a      	bne.n	1f78 <__aeabi_dmul+0x19c>
    1f22:	2400      	movs	r4, #0
    1f24:	2002      	movs	r0, #2
    1f26:	e796      	b.n	1e56 <__aeabi_dmul+0x7a>
    1f28:	4653      	mov	r3, sl
    1f2a:	4323      	orrs	r3, r4
    1f2c:	d020      	beq.n	1f70 <__aeabi_dmul+0x194>
    1f2e:	2c00      	cmp	r4, #0
    1f30:	d100      	bne.n	1f34 <__aeabi_dmul+0x158>
    1f32:	e157      	b.n	21e4 <__aeabi_dmul+0x408>
    1f34:	0020      	movs	r0, r4
    1f36:	f000 fde9 	bl	2b0c <__clzsi2>
    1f3a:	0003      	movs	r3, r0
    1f3c:	3b0b      	subs	r3, #11
    1f3e:	2b1c      	cmp	r3, #28
    1f40:	dd00      	ble.n	1f44 <__aeabi_dmul+0x168>
    1f42:	e149      	b.n	21d8 <__aeabi_dmul+0x3fc>
    1f44:	211d      	movs	r1, #29
    1f46:	1acb      	subs	r3, r1, r3
    1f48:	4651      	mov	r1, sl
    1f4a:	0002      	movs	r2, r0
    1f4c:	40d9      	lsrs	r1, r3
    1f4e:	4653      	mov	r3, sl
    1f50:	3a08      	subs	r2, #8
    1f52:	4094      	lsls	r4, r2
    1f54:	4093      	lsls	r3, r2
    1f56:	430c      	orrs	r4, r1
    1f58:	4a1b      	ldr	r2, [pc, #108]	; (1fc8 <__aeabi_dmul+0x1ec>)
    1f5a:	1a12      	subs	r2, r2, r0
    1f5c:	2000      	movs	r0, #0
    1f5e:	e77a      	b.n	1e56 <__aeabi_dmul+0x7a>
    1f60:	2501      	movs	r5, #1
    1f62:	9b01      	ldr	r3, [sp, #4]
    1f64:	4c14      	ldr	r4, [pc, #80]	; (1fb8 <__aeabi_dmul+0x1dc>)
    1f66:	401d      	ands	r5, r3
    1f68:	2300      	movs	r3, #0
    1f6a:	2200      	movs	r2, #0
    1f6c:	4699      	mov	r9, r3
    1f6e:	e79c      	b.n	1eaa <__aeabi_dmul+0xce>
    1f70:	2400      	movs	r4, #0
    1f72:	2200      	movs	r2, #0
    1f74:	2001      	movs	r0, #1
    1f76:	e76e      	b.n	1e56 <__aeabi_dmul+0x7a>
    1f78:	4653      	mov	r3, sl
    1f7a:	2003      	movs	r0, #3
    1f7c:	e76b      	b.n	1e56 <__aeabi_dmul+0x7a>
    1f7e:	2300      	movs	r3, #0
    1f80:	469b      	mov	fp, r3
    1f82:	3301      	adds	r3, #1
    1f84:	2704      	movs	r7, #4
    1f86:	2600      	movs	r6, #0
    1f88:	9302      	str	r3, [sp, #8]
    1f8a:	e74c      	b.n	1e26 <__aeabi_dmul+0x4a>
    1f8c:	2303      	movs	r3, #3
    1f8e:	4681      	mov	r9, r0
    1f90:	270c      	movs	r7, #12
    1f92:	9302      	str	r3, [sp, #8]
    1f94:	e747      	b.n	1e26 <__aeabi_dmul+0x4a>
    1f96:	2280      	movs	r2, #128	; 0x80
    1f98:	2300      	movs	r3, #0
    1f9a:	2500      	movs	r5, #0
    1f9c:	0312      	lsls	r2, r2, #12
    1f9e:	4699      	mov	r9, r3
    1fa0:	4c05      	ldr	r4, [pc, #20]	; (1fb8 <__aeabi_dmul+0x1dc>)
    1fa2:	e782      	b.n	1eaa <__aeabi_dmul+0xce>
    1fa4:	465c      	mov	r4, fp
    1fa6:	464b      	mov	r3, r9
    1fa8:	9802      	ldr	r0, [sp, #8]
    1faa:	e76f      	b.n	1e8c <__aeabi_dmul+0xb0>
    1fac:	465c      	mov	r4, fp
    1fae:	464b      	mov	r3, r9
    1fb0:	9501      	str	r5, [sp, #4]
    1fb2:	9802      	ldr	r0, [sp, #8]
    1fb4:	e76a      	b.n	1e8c <__aeabi_dmul+0xb0>
    1fb6:	46c0      	nop			; (mov r8, r8)
    1fb8:	000007ff 	.word	0x000007ff
    1fbc:	fffffc01 	.word	0xfffffc01
    1fc0:	00005ba4 	.word	0x00005ba4
    1fc4:	800fffff 	.word	0x800fffff
    1fc8:	fffffc0d 	.word	0xfffffc0d
    1fcc:	464a      	mov	r2, r9
    1fce:	4649      	mov	r1, r9
    1fd0:	0c17      	lsrs	r7, r2, #16
    1fd2:	0c1a      	lsrs	r2, r3, #16
    1fd4:	041b      	lsls	r3, r3, #16
    1fd6:	0c1b      	lsrs	r3, r3, #16
    1fd8:	0408      	lsls	r0, r1, #16
    1fda:	0019      	movs	r1, r3
    1fdc:	0c00      	lsrs	r0, r0, #16
    1fde:	4341      	muls	r1, r0
    1fe0:	0015      	movs	r5, r2
    1fe2:	4688      	mov	r8, r1
    1fe4:	0019      	movs	r1, r3
    1fe6:	437d      	muls	r5, r7
    1fe8:	4379      	muls	r1, r7
    1fea:	9503      	str	r5, [sp, #12]
    1fec:	4689      	mov	r9, r1
    1fee:	0029      	movs	r1, r5
    1ff0:	0015      	movs	r5, r2
    1ff2:	4345      	muls	r5, r0
    1ff4:	444d      	add	r5, r9
    1ff6:	9502      	str	r5, [sp, #8]
    1ff8:	4645      	mov	r5, r8
    1ffa:	0c2d      	lsrs	r5, r5, #16
    1ffc:	46aa      	mov	sl, r5
    1ffe:	9d02      	ldr	r5, [sp, #8]
    2000:	4455      	add	r5, sl
    2002:	45a9      	cmp	r9, r5
    2004:	d906      	bls.n	2014 <__aeabi_dmul+0x238>
    2006:	468a      	mov	sl, r1
    2008:	2180      	movs	r1, #128	; 0x80
    200a:	0249      	lsls	r1, r1, #9
    200c:	4689      	mov	r9, r1
    200e:	44ca      	add	sl, r9
    2010:	4651      	mov	r1, sl
    2012:	9103      	str	r1, [sp, #12]
    2014:	0c29      	lsrs	r1, r5, #16
    2016:	9104      	str	r1, [sp, #16]
    2018:	4641      	mov	r1, r8
    201a:	0409      	lsls	r1, r1, #16
    201c:	042d      	lsls	r5, r5, #16
    201e:	0c09      	lsrs	r1, r1, #16
    2020:	4688      	mov	r8, r1
    2022:	0029      	movs	r1, r5
    2024:	0c25      	lsrs	r5, r4, #16
    2026:	0424      	lsls	r4, r4, #16
    2028:	4441      	add	r1, r8
    202a:	0c24      	lsrs	r4, r4, #16
    202c:	9105      	str	r1, [sp, #20]
    202e:	0021      	movs	r1, r4
    2030:	4341      	muls	r1, r0
    2032:	4688      	mov	r8, r1
    2034:	0021      	movs	r1, r4
    2036:	4379      	muls	r1, r7
    2038:	468a      	mov	sl, r1
    203a:	4368      	muls	r0, r5
    203c:	4641      	mov	r1, r8
    203e:	4450      	add	r0, sl
    2040:	4681      	mov	r9, r0
    2042:	0c08      	lsrs	r0, r1, #16
    2044:	4448      	add	r0, r9
    2046:	436f      	muls	r7, r5
    2048:	4582      	cmp	sl, r0
    204a:	d903      	bls.n	2054 <__aeabi_dmul+0x278>
    204c:	2180      	movs	r1, #128	; 0x80
    204e:	0249      	lsls	r1, r1, #9
    2050:	4689      	mov	r9, r1
    2052:	444f      	add	r7, r9
    2054:	0c01      	lsrs	r1, r0, #16
    2056:	4689      	mov	r9, r1
    2058:	0039      	movs	r1, r7
    205a:	4449      	add	r1, r9
    205c:	9102      	str	r1, [sp, #8]
    205e:	4641      	mov	r1, r8
    2060:	040f      	lsls	r7, r1, #16
    2062:	9904      	ldr	r1, [sp, #16]
    2064:	0c3f      	lsrs	r7, r7, #16
    2066:	4688      	mov	r8, r1
    2068:	0400      	lsls	r0, r0, #16
    206a:	19c0      	adds	r0, r0, r7
    206c:	4480      	add	r8, r0
    206e:	4641      	mov	r1, r8
    2070:	9104      	str	r1, [sp, #16]
    2072:	4659      	mov	r1, fp
    2074:	0c0f      	lsrs	r7, r1, #16
    2076:	0409      	lsls	r1, r1, #16
    2078:	0c09      	lsrs	r1, r1, #16
    207a:	4688      	mov	r8, r1
    207c:	4359      	muls	r1, r3
    207e:	468a      	mov	sl, r1
    2080:	0039      	movs	r1, r7
    2082:	4351      	muls	r1, r2
    2084:	4689      	mov	r9, r1
    2086:	4641      	mov	r1, r8
    2088:	434a      	muls	r2, r1
    208a:	4651      	mov	r1, sl
    208c:	0c09      	lsrs	r1, r1, #16
    208e:	468b      	mov	fp, r1
    2090:	437b      	muls	r3, r7
    2092:	18d2      	adds	r2, r2, r3
    2094:	445a      	add	r2, fp
    2096:	4293      	cmp	r3, r2
    2098:	d903      	bls.n	20a2 <__aeabi_dmul+0x2c6>
    209a:	2380      	movs	r3, #128	; 0x80
    209c:	025b      	lsls	r3, r3, #9
    209e:	469b      	mov	fp, r3
    20a0:	44d9      	add	r9, fp
    20a2:	4651      	mov	r1, sl
    20a4:	0409      	lsls	r1, r1, #16
    20a6:	0c09      	lsrs	r1, r1, #16
    20a8:	468a      	mov	sl, r1
    20aa:	4641      	mov	r1, r8
    20ac:	4361      	muls	r1, r4
    20ae:	437c      	muls	r4, r7
    20b0:	0c13      	lsrs	r3, r2, #16
    20b2:	0412      	lsls	r2, r2, #16
    20b4:	444b      	add	r3, r9
    20b6:	4452      	add	r2, sl
    20b8:	46a1      	mov	r9, r4
    20ba:	468a      	mov	sl, r1
    20bc:	003c      	movs	r4, r7
    20be:	4641      	mov	r1, r8
    20c0:	436c      	muls	r4, r5
    20c2:	434d      	muls	r5, r1
    20c4:	4651      	mov	r1, sl
    20c6:	444d      	add	r5, r9
    20c8:	0c0f      	lsrs	r7, r1, #16
    20ca:	197d      	adds	r5, r7, r5
    20cc:	45a9      	cmp	r9, r5
    20ce:	d903      	bls.n	20d8 <__aeabi_dmul+0x2fc>
    20d0:	2180      	movs	r1, #128	; 0x80
    20d2:	0249      	lsls	r1, r1, #9
    20d4:	4688      	mov	r8, r1
    20d6:	4444      	add	r4, r8
    20d8:	9f04      	ldr	r7, [sp, #16]
    20da:	9903      	ldr	r1, [sp, #12]
    20dc:	46b8      	mov	r8, r7
    20de:	4441      	add	r1, r8
    20e0:	468b      	mov	fp, r1
    20e2:	4583      	cmp	fp, r0
    20e4:	4180      	sbcs	r0, r0
    20e6:	4241      	negs	r1, r0
    20e8:	4688      	mov	r8, r1
    20ea:	4651      	mov	r1, sl
    20ec:	0408      	lsls	r0, r1, #16
    20ee:	042f      	lsls	r7, r5, #16
    20f0:	0c00      	lsrs	r0, r0, #16
    20f2:	183f      	adds	r7, r7, r0
    20f4:	4658      	mov	r0, fp
    20f6:	9902      	ldr	r1, [sp, #8]
    20f8:	1810      	adds	r0, r2, r0
    20fa:	4689      	mov	r9, r1
    20fc:	4290      	cmp	r0, r2
    20fe:	4192      	sbcs	r2, r2
    2100:	444f      	add	r7, r9
    2102:	46ba      	mov	sl, r7
    2104:	4252      	negs	r2, r2
    2106:	4699      	mov	r9, r3
    2108:	4693      	mov	fp, r2
    210a:	44c2      	add	sl, r8
    210c:	44d1      	add	r9, sl
    210e:	44cb      	add	fp, r9
    2110:	428f      	cmp	r7, r1
    2112:	41bf      	sbcs	r7, r7
    2114:	45c2      	cmp	sl, r8
    2116:	4189      	sbcs	r1, r1
    2118:	4599      	cmp	r9, r3
    211a:	419b      	sbcs	r3, r3
    211c:	4593      	cmp	fp, r2
    211e:	4192      	sbcs	r2, r2
    2120:	427f      	negs	r7, r7
    2122:	4249      	negs	r1, r1
    2124:	0c2d      	lsrs	r5, r5, #16
    2126:	4252      	negs	r2, r2
    2128:	430f      	orrs	r7, r1
    212a:	425b      	negs	r3, r3
    212c:	4313      	orrs	r3, r2
    212e:	197f      	adds	r7, r7, r5
    2130:	18ff      	adds	r7, r7, r3
    2132:	465b      	mov	r3, fp
    2134:	193c      	adds	r4, r7, r4
    2136:	0ddb      	lsrs	r3, r3, #23
    2138:	9a05      	ldr	r2, [sp, #20]
    213a:	0264      	lsls	r4, r4, #9
    213c:	431c      	orrs	r4, r3
    213e:	0243      	lsls	r3, r0, #9
    2140:	4313      	orrs	r3, r2
    2142:	1e5d      	subs	r5, r3, #1
    2144:	41ab      	sbcs	r3, r5
    2146:	465a      	mov	r2, fp
    2148:	0dc0      	lsrs	r0, r0, #23
    214a:	4303      	orrs	r3, r0
    214c:	0252      	lsls	r2, r2, #9
    214e:	4313      	orrs	r3, r2
    2150:	01e2      	lsls	r2, r4, #7
    2152:	d556      	bpl.n	2202 <__aeabi_dmul+0x426>
    2154:	2001      	movs	r0, #1
    2156:	085a      	lsrs	r2, r3, #1
    2158:	4003      	ands	r3, r0
    215a:	4313      	orrs	r3, r2
    215c:	07e2      	lsls	r2, r4, #31
    215e:	4313      	orrs	r3, r2
    2160:	0864      	lsrs	r4, r4, #1
    2162:	485a      	ldr	r0, [pc, #360]	; (22cc <__aeabi_dmul+0x4f0>)
    2164:	4460      	add	r0, ip
    2166:	2800      	cmp	r0, #0
    2168:	dd4d      	ble.n	2206 <__aeabi_dmul+0x42a>
    216a:	075a      	lsls	r2, r3, #29
    216c:	d009      	beq.n	2182 <__aeabi_dmul+0x3a6>
    216e:	220f      	movs	r2, #15
    2170:	401a      	ands	r2, r3
    2172:	2a04      	cmp	r2, #4
    2174:	d005      	beq.n	2182 <__aeabi_dmul+0x3a6>
    2176:	1d1a      	adds	r2, r3, #4
    2178:	429a      	cmp	r2, r3
    217a:	419b      	sbcs	r3, r3
    217c:	425b      	negs	r3, r3
    217e:	18e4      	adds	r4, r4, r3
    2180:	0013      	movs	r3, r2
    2182:	01e2      	lsls	r2, r4, #7
    2184:	d504      	bpl.n	2190 <__aeabi_dmul+0x3b4>
    2186:	2080      	movs	r0, #128	; 0x80
    2188:	4a51      	ldr	r2, [pc, #324]	; (22d0 <__aeabi_dmul+0x4f4>)
    218a:	00c0      	lsls	r0, r0, #3
    218c:	4014      	ands	r4, r2
    218e:	4460      	add	r0, ip
    2190:	4a50      	ldr	r2, [pc, #320]	; (22d4 <__aeabi_dmul+0x4f8>)
    2192:	4290      	cmp	r0, r2
    2194:	dd00      	ble.n	2198 <__aeabi_dmul+0x3bc>
    2196:	e6e3      	b.n	1f60 <__aeabi_dmul+0x184>
    2198:	2501      	movs	r5, #1
    219a:	08db      	lsrs	r3, r3, #3
    219c:	0762      	lsls	r2, r4, #29
    219e:	431a      	orrs	r2, r3
    21a0:	0264      	lsls	r4, r4, #9
    21a2:	9b01      	ldr	r3, [sp, #4]
    21a4:	4691      	mov	r9, r2
    21a6:	0b22      	lsrs	r2, r4, #12
    21a8:	0544      	lsls	r4, r0, #21
    21aa:	0d64      	lsrs	r4, r4, #21
    21ac:	401d      	ands	r5, r3
    21ae:	e67c      	b.n	1eaa <__aeabi_dmul+0xce>
    21b0:	2280      	movs	r2, #128	; 0x80
    21b2:	4659      	mov	r1, fp
    21b4:	0312      	lsls	r2, r2, #12
    21b6:	4211      	tst	r1, r2
    21b8:	d008      	beq.n	21cc <__aeabi_dmul+0x3f0>
    21ba:	4214      	tst	r4, r2
    21bc:	d106      	bne.n	21cc <__aeabi_dmul+0x3f0>
    21be:	4322      	orrs	r2, r4
    21c0:	0312      	lsls	r2, r2, #12
    21c2:	0b12      	lsrs	r2, r2, #12
    21c4:	4645      	mov	r5, r8
    21c6:	4699      	mov	r9, r3
    21c8:	4c43      	ldr	r4, [pc, #268]	; (22d8 <__aeabi_dmul+0x4fc>)
    21ca:	e66e      	b.n	1eaa <__aeabi_dmul+0xce>
    21cc:	465b      	mov	r3, fp
    21ce:	431a      	orrs	r2, r3
    21d0:	0312      	lsls	r2, r2, #12
    21d2:	0b12      	lsrs	r2, r2, #12
    21d4:	4c40      	ldr	r4, [pc, #256]	; (22d8 <__aeabi_dmul+0x4fc>)
    21d6:	e668      	b.n	1eaa <__aeabi_dmul+0xce>
    21d8:	0003      	movs	r3, r0
    21da:	4654      	mov	r4, sl
    21dc:	3b28      	subs	r3, #40	; 0x28
    21de:	409c      	lsls	r4, r3
    21e0:	2300      	movs	r3, #0
    21e2:	e6b9      	b.n	1f58 <__aeabi_dmul+0x17c>
    21e4:	f000 fc92 	bl	2b0c <__clzsi2>
    21e8:	3020      	adds	r0, #32
    21ea:	e6a6      	b.n	1f3a <__aeabi_dmul+0x15e>
    21ec:	0003      	movs	r3, r0
    21ee:	3b28      	subs	r3, #40	; 0x28
    21f0:	409f      	lsls	r7, r3
    21f2:	2300      	movs	r3, #0
    21f4:	46bb      	mov	fp, r7
    21f6:	4699      	mov	r9, r3
    21f8:	e68a      	b.n	1f10 <__aeabi_dmul+0x134>
    21fa:	f000 fc87 	bl	2b0c <__clzsi2>
    21fe:	3020      	adds	r0, #32
    2200:	e674      	b.n	1eec <__aeabi_dmul+0x110>
    2202:	46b4      	mov	ip, r6
    2204:	e7ad      	b.n	2162 <__aeabi_dmul+0x386>
    2206:	2501      	movs	r5, #1
    2208:	1a2a      	subs	r2, r5, r0
    220a:	2a38      	cmp	r2, #56	; 0x38
    220c:	dd06      	ble.n	221c <__aeabi_dmul+0x440>
    220e:	9b01      	ldr	r3, [sp, #4]
    2210:	2400      	movs	r4, #0
    2212:	401d      	ands	r5, r3
    2214:	2300      	movs	r3, #0
    2216:	2200      	movs	r2, #0
    2218:	4699      	mov	r9, r3
    221a:	e646      	b.n	1eaa <__aeabi_dmul+0xce>
    221c:	2a1f      	cmp	r2, #31
    221e:	dc21      	bgt.n	2264 <__aeabi_dmul+0x488>
    2220:	2520      	movs	r5, #32
    2222:	0020      	movs	r0, r4
    2224:	1aad      	subs	r5, r5, r2
    2226:	001e      	movs	r6, r3
    2228:	40ab      	lsls	r3, r5
    222a:	40a8      	lsls	r0, r5
    222c:	40d6      	lsrs	r6, r2
    222e:	1e5d      	subs	r5, r3, #1
    2230:	41ab      	sbcs	r3, r5
    2232:	4330      	orrs	r0, r6
    2234:	4318      	orrs	r0, r3
    2236:	40d4      	lsrs	r4, r2
    2238:	0743      	lsls	r3, r0, #29
    223a:	d009      	beq.n	2250 <__aeabi_dmul+0x474>
    223c:	230f      	movs	r3, #15
    223e:	4003      	ands	r3, r0
    2240:	2b04      	cmp	r3, #4
    2242:	d005      	beq.n	2250 <__aeabi_dmul+0x474>
    2244:	0003      	movs	r3, r0
    2246:	1d18      	adds	r0, r3, #4
    2248:	4298      	cmp	r0, r3
    224a:	419b      	sbcs	r3, r3
    224c:	425b      	negs	r3, r3
    224e:	18e4      	adds	r4, r4, r3
    2250:	0223      	lsls	r3, r4, #8
    2252:	d521      	bpl.n	2298 <__aeabi_dmul+0x4bc>
    2254:	2501      	movs	r5, #1
    2256:	9b01      	ldr	r3, [sp, #4]
    2258:	2401      	movs	r4, #1
    225a:	401d      	ands	r5, r3
    225c:	2300      	movs	r3, #0
    225e:	2200      	movs	r2, #0
    2260:	4699      	mov	r9, r3
    2262:	e622      	b.n	1eaa <__aeabi_dmul+0xce>
    2264:	251f      	movs	r5, #31
    2266:	0021      	movs	r1, r4
    2268:	426d      	negs	r5, r5
    226a:	1a28      	subs	r0, r5, r0
    226c:	40c1      	lsrs	r1, r0
    226e:	0008      	movs	r0, r1
    2270:	2a20      	cmp	r2, #32
    2272:	d01d      	beq.n	22b0 <__aeabi_dmul+0x4d4>
    2274:	355f      	adds	r5, #95	; 0x5f
    2276:	1aaa      	subs	r2, r5, r2
    2278:	4094      	lsls	r4, r2
    227a:	4323      	orrs	r3, r4
    227c:	1e5c      	subs	r4, r3, #1
    227e:	41a3      	sbcs	r3, r4
    2280:	2507      	movs	r5, #7
    2282:	4303      	orrs	r3, r0
    2284:	401d      	ands	r5, r3
    2286:	2200      	movs	r2, #0
    2288:	2d00      	cmp	r5, #0
    228a:	d009      	beq.n	22a0 <__aeabi_dmul+0x4c4>
    228c:	220f      	movs	r2, #15
    228e:	2400      	movs	r4, #0
    2290:	401a      	ands	r2, r3
    2292:	0018      	movs	r0, r3
    2294:	2a04      	cmp	r2, #4
    2296:	d1d6      	bne.n	2246 <__aeabi_dmul+0x46a>
    2298:	0003      	movs	r3, r0
    229a:	0765      	lsls	r5, r4, #29
    229c:	0264      	lsls	r4, r4, #9
    229e:	0b22      	lsrs	r2, r4, #12
    22a0:	08db      	lsrs	r3, r3, #3
    22a2:	432b      	orrs	r3, r5
    22a4:	2501      	movs	r5, #1
    22a6:	4699      	mov	r9, r3
    22a8:	9b01      	ldr	r3, [sp, #4]
    22aa:	2400      	movs	r4, #0
    22ac:	401d      	ands	r5, r3
    22ae:	e5fc      	b.n	1eaa <__aeabi_dmul+0xce>
    22b0:	2400      	movs	r4, #0
    22b2:	e7e2      	b.n	227a <__aeabi_dmul+0x49e>
    22b4:	2280      	movs	r2, #128	; 0x80
    22b6:	2501      	movs	r5, #1
    22b8:	0312      	lsls	r2, r2, #12
    22ba:	4322      	orrs	r2, r4
    22bc:	9901      	ldr	r1, [sp, #4]
    22be:	0312      	lsls	r2, r2, #12
    22c0:	0b12      	lsrs	r2, r2, #12
    22c2:	400d      	ands	r5, r1
    22c4:	4699      	mov	r9, r3
    22c6:	4c04      	ldr	r4, [pc, #16]	; (22d8 <__aeabi_dmul+0x4fc>)
    22c8:	e5ef      	b.n	1eaa <__aeabi_dmul+0xce>
    22ca:	46c0      	nop			; (mov r8, r8)
    22cc:	000003ff 	.word	0x000003ff
    22d0:	feffffff 	.word	0xfeffffff
    22d4:	000007fe 	.word	0x000007fe
    22d8:	000007ff 	.word	0x000007ff

000022dc <__aeabi_dsub>:
    22dc:	b5f0      	push	{r4, r5, r6, r7, lr}
    22de:	4646      	mov	r6, r8
    22e0:	46d6      	mov	lr, sl
    22e2:	464f      	mov	r7, r9
    22e4:	030c      	lsls	r4, r1, #12
    22e6:	b5c0      	push	{r6, r7, lr}
    22e8:	0fcd      	lsrs	r5, r1, #31
    22ea:	004e      	lsls	r6, r1, #1
    22ec:	0a61      	lsrs	r1, r4, #9
    22ee:	0f44      	lsrs	r4, r0, #29
    22f0:	430c      	orrs	r4, r1
    22f2:	00c1      	lsls	r1, r0, #3
    22f4:	0058      	lsls	r0, r3, #1
    22f6:	0d40      	lsrs	r0, r0, #21
    22f8:	4684      	mov	ip, r0
    22fa:	468a      	mov	sl, r1
    22fc:	000f      	movs	r7, r1
    22fe:	0319      	lsls	r1, r3, #12
    2300:	0f50      	lsrs	r0, r2, #29
    2302:	0a49      	lsrs	r1, r1, #9
    2304:	4301      	orrs	r1, r0
    2306:	48c6      	ldr	r0, [pc, #792]	; (2620 <__aeabi_dsub+0x344>)
    2308:	0d76      	lsrs	r6, r6, #21
    230a:	46a8      	mov	r8, r5
    230c:	0fdb      	lsrs	r3, r3, #31
    230e:	00d2      	lsls	r2, r2, #3
    2310:	4584      	cmp	ip, r0
    2312:	d100      	bne.n	2316 <__aeabi_dsub+0x3a>
    2314:	e0d8      	b.n	24c8 <__aeabi_dsub+0x1ec>
    2316:	2001      	movs	r0, #1
    2318:	4043      	eors	r3, r0
    231a:	42ab      	cmp	r3, r5
    231c:	d100      	bne.n	2320 <__aeabi_dsub+0x44>
    231e:	e0a6      	b.n	246e <__aeabi_dsub+0x192>
    2320:	4660      	mov	r0, ip
    2322:	1a35      	subs	r5, r6, r0
    2324:	2d00      	cmp	r5, #0
    2326:	dc00      	bgt.n	232a <__aeabi_dsub+0x4e>
    2328:	e105      	b.n	2536 <__aeabi_dsub+0x25a>
    232a:	2800      	cmp	r0, #0
    232c:	d110      	bne.n	2350 <__aeabi_dsub+0x74>
    232e:	000b      	movs	r3, r1
    2330:	4313      	orrs	r3, r2
    2332:	d100      	bne.n	2336 <__aeabi_dsub+0x5a>
    2334:	e0d7      	b.n	24e6 <__aeabi_dsub+0x20a>
    2336:	1e6b      	subs	r3, r5, #1
    2338:	2b00      	cmp	r3, #0
    233a:	d000      	beq.n	233e <__aeabi_dsub+0x62>
    233c:	e14b      	b.n	25d6 <__aeabi_dsub+0x2fa>
    233e:	4653      	mov	r3, sl
    2340:	1a9f      	subs	r7, r3, r2
    2342:	45ba      	cmp	sl, r7
    2344:	4180      	sbcs	r0, r0
    2346:	1a64      	subs	r4, r4, r1
    2348:	4240      	negs	r0, r0
    234a:	1a24      	subs	r4, r4, r0
    234c:	2601      	movs	r6, #1
    234e:	e01e      	b.n	238e <__aeabi_dsub+0xb2>
    2350:	4bb3      	ldr	r3, [pc, #716]	; (2620 <__aeabi_dsub+0x344>)
    2352:	429e      	cmp	r6, r3
    2354:	d048      	beq.n	23e8 <__aeabi_dsub+0x10c>
    2356:	2380      	movs	r3, #128	; 0x80
    2358:	041b      	lsls	r3, r3, #16
    235a:	4319      	orrs	r1, r3
    235c:	2d38      	cmp	r5, #56	; 0x38
    235e:	dd00      	ble.n	2362 <__aeabi_dsub+0x86>
    2360:	e119      	b.n	2596 <__aeabi_dsub+0x2ba>
    2362:	2d1f      	cmp	r5, #31
    2364:	dd00      	ble.n	2368 <__aeabi_dsub+0x8c>
    2366:	e14c      	b.n	2602 <__aeabi_dsub+0x326>
    2368:	2320      	movs	r3, #32
    236a:	000f      	movs	r7, r1
    236c:	1b5b      	subs	r3, r3, r5
    236e:	0010      	movs	r0, r2
    2370:	409a      	lsls	r2, r3
    2372:	409f      	lsls	r7, r3
    2374:	40e8      	lsrs	r0, r5
    2376:	1e53      	subs	r3, r2, #1
    2378:	419a      	sbcs	r2, r3
    237a:	40e9      	lsrs	r1, r5
    237c:	4307      	orrs	r7, r0
    237e:	4317      	orrs	r7, r2
    2380:	4653      	mov	r3, sl
    2382:	1bdf      	subs	r7, r3, r7
    2384:	1a61      	subs	r1, r4, r1
    2386:	45ba      	cmp	sl, r7
    2388:	41a4      	sbcs	r4, r4
    238a:	4264      	negs	r4, r4
    238c:	1b0c      	subs	r4, r1, r4
    238e:	0223      	lsls	r3, r4, #8
    2390:	d400      	bmi.n	2394 <__aeabi_dsub+0xb8>
    2392:	e0c5      	b.n	2520 <__aeabi_dsub+0x244>
    2394:	0264      	lsls	r4, r4, #9
    2396:	0a65      	lsrs	r5, r4, #9
    2398:	2d00      	cmp	r5, #0
    239a:	d100      	bne.n	239e <__aeabi_dsub+0xc2>
    239c:	e0f6      	b.n	258c <__aeabi_dsub+0x2b0>
    239e:	0028      	movs	r0, r5
    23a0:	f000 fbb4 	bl	2b0c <__clzsi2>
    23a4:	0003      	movs	r3, r0
    23a6:	3b08      	subs	r3, #8
    23a8:	2b1f      	cmp	r3, #31
    23aa:	dd00      	ble.n	23ae <__aeabi_dsub+0xd2>
    23ac:	e0e9      	b.n	2582 <__aeabi_dsub+0x2a6>
    23ae:	2220      	movs	r2, #32
    23b0:	003c      	movs	r4, r7
    23b2:	1ad2      	subs	r2, r2, r3
    23b4:	409d      	lsls	r5, r3
    23b6:	40d4      	lsrs	r4, r2
    23b8:	409f      	lsls	r7, r3
    23ba:	4325      	orrs	r5, r4
    23bc:	429e      	cmp	r6, r3
    23be:	dd00      	ble.n	23c2 <__aeabi_dsub+0xe6>
    23c0:	e0db      	b.n	257a <__aeabi_dsub+0x29e>
    23c2:	1b9e      	subs	r6, r3, r6
    23c4:	1c73      	adds	r3, r6, #1
    23c6:	2b1f      	cmp	r3, #31
    23c8:	dd00      	ble.n	23cc <__aeabi_dsub+0xf0>
    23ca:	e10a      	b.n	25e2 <__aeabi_dsub+0x306>
    23cc:	2220      	movs	r2, #32
    23ce:	0038      	movs	r0, r7
    23d0:	1ad2      	subs	r2, r2, r3
    23d2:	0029      	movs	r1, r5
    23d4:	4097      	lsls	r7, r2
    23d6:	002c      	movs	r4, r5
    23d8:	4091      	lsls	r1, r2
    23da:	40d8      	lsrs	r0, r3
    23dc:	1e7a      	subs	r2, r7, #1
    23de:	4197      	sbcs	r7, r2
    23e0:	40dc      	lsrs	r4, r3
    23e2:	2600      	movs	r6, #0
    23e4:	4301      	orrs	r1, r0
    23e6:	430f      	orrs	r7, r1
    23e8:	077b      	lsls	r3, r7, #29
    23ea:	d009      	beq.n	2400 <__aeabi_dsub+0x124>
    23ec:	230f      	movs	r3, #15
    23ee:	403b      	ands	r3, r7
    23f0:	2b04      	cmp	r3, #4
    23f2:	d005      	beq.n	2400 <__aeabi_dsub+0x124>
    23f4:	1d3b      	adds	r3, r7, #4
    23f6:	42bb      	cmp	r3, r7
    23f8:	41bf      	sbcs	r7, r7
    23fa:	427f      	negs	r7, r7
    23fc:	19e4      	adds	r4, r4, r7
    23fe:	001f      	movs	r7, r3
    2400:	0223      	lsls	r3, r4, #8
    2402:	d525      	bpl.n	2450 <__aeabi_dsub+0x174>
    2404:	4b86      	ldr	r3, [pc, #536]	; (2620 <__aeabi_dsub+0x344>)
    2406:	3601      	adds	r6, #1
    2408:	429e      	cmp	r6, r3
    240a:	d100      	bne.n	240e <__aeabi_dsub+0x132>
    240c:	e0af      	b.n	256e <__aeabi_dsub+0x292>
    240e:	4b85      	ldr	r3, [pc, #532]	; (2624 <__aeabi_dsub+0x348>)
    2410:	2501      	movs	r5, #1
    2412:	401c      	ands	r4, r3
    2414:	4643      	mov	r3, r8
    2416:	0762      	lsls	r2, r4, #29
    2418:	08ff      	lsrs	r7, r7, #3
    241a:	0264      	lsls	r4, r4, #9
    241c:	0576      	lsls	r6, r6, #21
    241e:	4317      	orrs	r7, r2
    2420:	0b24      	lsrs	r4, r4, #12
    2422:	0d76      	lsrs	r6, r6, #21
    2424:	401d      	ands	r5, r3
    2426:	2100      	movs	r1, #0
    2428:	0324      	lsls	r4, r4, #12
    242a:	0b23      	lsrs	r3, r4, #12
    242c:	0d0c      	lsrs	r4, r1, #20
    242e:	4a7e      	ldr	r2, [pc, #504]	; (2628 <__aeabi_dsub+0x34c>)
    2430:	0524      	lsls	r4, r4, #20
    2432:	431c      	orrs	r4, r3
    2434:	4014      	ands	r4, r2
    2436:	0533      	lsls	r3, r6, #20
    2438:	4323      	orrs	r3, r4
    243a:	005b      	lsls	r3, r3, #1
    243c:	07ed      	lsls	r5, r5, #31
    243e:	085b      	lsrs	r3, r3, #1
    2440:	432b      	orrs	r3, r5
    2442:	0038      	movs	r0, r7
    2444:	0019      	movs	r1, r3
    2446:	bc1c      	pop	{r2, r3, r4}
    2448:	4690      	mov	r8, r2
    244a:	4699      	mov	r9, r3
    244c:	46a2      	mov	sl, r4
    244e:	bdf0      	pop	{r4, r5, r6, r7, pc}
    2450:	2501      	movs	r5, #1
    2452:	4643      	mov	r3, r8
    2454:	0762      	lsls	r2, r4, #29
    2456:	08ff      	lsrs	r7, r7, #3
    2458:	4317      	orrs	r7, r2
    245a:	08e4      	lsrs	r4, r4, #3
    245c:	401d      	ands	r5, r3
    245e:	4b70      	ldr	r3, [pc, #448]	; (2620 <__aeabi_dsub+0x344>)
    2460:	429e      	cmp	r6, r3
    2462:	d036      	beq.n	24d2 <__aeabi_dsub+0x1f6>
    2464:	0324      	lsls	r4, r4, #12
    2466:	0576      	lsls	r6, r6, #21
    2468:	0b24      	lsrs	r4, r4, #12
    246a:	0d76      	lsrs	r6, r6, #21
    246c:	e7db      	b.n	2426 <__aeabi_dsub+0x14a>
    246e:	4663      	mov	r3, ip
    2470:	1af3      	subs	r3, r6, r3
    2472:	2b00      	cmp	r3, #0
    2474:	dc00      	bgt.n	2478 <__aeabi_dsub+0x19c>
    2476:	e094      	b.n	25a2 <__aeabi_dsub+0x2c6>
    2478:	4660      	mov	r0, ip
    247a:	2800      	cmp	r0, #0
    247c:	d035      	beq.n	24ea <__aeabi_dsub+0x20e>
    247e:	4868      	ldr	r0, [pc, #416]	; (2620 <__aeabi_dsub+0x344>)
    2480:	4286      	cmp	r6, r0
    2482:	d0b1      	beq.n	23e8 <__aeabi_dsub+0x10c>
    2484:	2780      	movs	r7, #128	; 0x80
    2486:	043f      	lsls	r7, r7, #16
    2488:	4339      	orrs	r1, r7
    248a:	2b38      	cmp	r3, #56	; 0x38
    248c:	dc00      	bgt.n	2490 <__aeabi_dsub+0x1b4>
    248e:	e0fd      	b.n	268c <__aeabi_dsub+0x3b0>
    2490:	430a      	orrs	r2, r1
    2492:	0017      	movs	r7, r2
    2494:	2100      	movs	r1, #0
    2496:	1e7a      	subs	r2, r7, #1
    2498:	4197      	sbcs	r7, r2
    249a:	4457      	add	r7, sl
    249c:	4557      	cmp	r7, sl
    249e:	4180      	sbcs	r0, r0
    24a0:	1909      	adds	r1, r1, r4
    24a2:	4244      	negs	r4, r0
    24a4:	190c      	adds	r4, r1, r4
    24a6:	0223      	lsls	r3, r4, #8
    24a8:	d53a      	bpl.n	2520 <__aeabi_dsub+0x244>
    24aa:	4b5d      	ldr	r3, [pc, #372]	; (2620 <__aeabi_dsub+0x344>)
    24ac:	3601      	adds	r6, #1
    24ae:	429e      	cmp	r6, r3
    24b0:	d100      	bne.n	24b4 <__aeabi_dsub+0x1d8>
    24b2:	e14b      	b.n	274c <__aeabi_dsub+0x470>
    24b4:	2201      	movs	r2, #1
    24b6:	4b5b      	ldr	r3, [pc, #364]	; (2624 <__aeabi_dsub+0x348>)
    24b8:	401c      	ands	r4, r3
    24ba:	087b      	lsrs	r3, r7, #1
    24bc:	4017      	ands	r7, r2
    24be:	431f      	orrs	r7, r3
    24c0:	07e2      	lsls	r2, r4, #31
    24c2:	4317      	orrs	r7, r2
    24c4:	0864      	lsrs	r4, r4, #1
    24c6:	e78f      	b.n	23e8 <__aeabi_dsub+0x10c>
    24c8:	0008      	movs	r0, r1
    24ca:	4310      	orrs	r0, r2
    24cc:	d000      	beq.n	24d0 <__aeabi_dsub+0x1f4>
    24ce:	e724      	b.n	231a <__aeabi_dsub+0x3e>
    24d0:	e721      	b.n	2316 <__aeabi_dsub+0x3a>
    24d2:	0023      	movs	r3, r4
    24d4:	433b      	orrs	r3, r7
    24d6:	d100      	bne.n	24da <__aeabi_dsub+0x1fe>
    24d8:	e1b9      	b.n	284e <__aeabi_dsub+0x572>
    24da:	2280      	movs	r2, #128	; 0x80
    24dc:	0312      	lsls	r2, r2, #12
    24de:	4314      	orrs	r4, r2
    24e0:	0324      	lsls	r4, r4, #12
    24e2:	0b24      	lsrs	r4, r4, #12
    24e4:	e79f      	b.n	2426 <__aeabi_dsub+0x14a>
    24e6:	002e      	movs	r6, r5
    24e8:	e77e      	b.n	23e8 <__aeabi_dsub+0x10c>
    24ea:	0008      	movs	r0, r1
    24ec:	4310      	orrs	r0, r2
    24ee:	d100      	bne.n	24f2 <__aeabi_dsub+0x216>
    24f0:	e0ca      	b.n	2688 <__aeabi_dsub+0x3ac>
    24f2:	1e58      	subs	r0, r3, #1
    24f4:	4684      	mov	ip, r0
    24f6:	2800      	cmp	r0, #0
    24f8:	d000      	beq.n	24fc <__aeabi_dsub+0x220>
    24fa:	e0e7      	b.n	26cc <__aeabi_dsub+0x3f0>
    24fc:	4452      	add	r2, sl
    24fe:	4552      	cmp	r2, sl
    2500:	4180      	sbcs	r0, r0
    2502:	1864      	adds	r4, r4, r1
    2504:	4240      	negs	r0, r0
    2506:	1824      	adds	r4, r4, r0
    2508:	0017      	movs	r7, r2
    250a:	2601      	movs	r6, #1
    250c:	0223      	lsls	r3, r4, #8
    250e:	d507      	bpl.n	2520 <__aeabi_dsub+0x244>
    2510:	2602      	movs	r6, #2
    2512:	e7cf      	b.n	24b4 <__aeabi_dsub+0x1d8>
    2514:	4664      	mov	r4, ip
    2516:	432c      	orrs	r4, r5
    2518:	d100      	bne.n	251c <__aeabi_dsub+0x240>
    251a:	e1b3      	b.n	2884 <__aeabi_dsub+0x5a8>
    251c:	002c      	movs	r4, r5
    251e:	4667      	mov	r7, ip
    2520:	077b      	lsls	r3, r7, #29
    2522:	d000      	beq.n	2526 <__aeabi_dsub+0x24a>
    2524:	e762      	b.n	23ec <__aeabi_dsub+0x110>
    2526:	0763      	lsls	r3, r4, #29
    2528:	08ff      	lsrs	r7, r7, #3
    252a:	431f      	orrs	r7, r3
    252c:	2501      	movs	r5, #1
    252e:	4643      	mov	r3, r8
    2530:	08e4      	lsrs	r4, r4, #3
    2532:	401d      	ands	r5, r3
    2534:	e793      	b.n	245e <__aeabi_dsub+0x182>
    2536:	2d00      	cmp	r5, #0
    2538:	d178      	bne.n	262c <__aeabi_dsub+0x350>
    253a:	1c75      	adds	r5, r6, #1
    253c:	056d      	lsls	r5, r5, #21
    253e:	0d6d      	lsrs	r5, r5, #21
    2540:	2d01      	cmp	r5, #1
    2542:	dc00      	bgt.n	2546 <__aeabi_dsub+0x26a>
    2544:	e0f2      	b.n	272c <__aeabi_dsub+0x450>
    2546:	4650      	mov	r0, sl
    2548:	1a80      	subs	r0, r0, r2
    254a:	4582      	cmp	sl, r0
    254c:	41bf      	sbcs	r7, r7
    254e:	1a65      	subs	r5, r4, r1
    2550:	427f      	negs	r7, r7
    2552:	1bed      	subs	r5, r5, r7
    2554:	4684      	mov	ip, r0
    2556:	0228      	lsls	r0, r5, #8
    2558:	d400      	bmi.n	255c <__aeabi_dsub+0x280>
    255a:	e08c      	b.n	2676 <__aeabi_dsub+0x39a>
    255c:	4650      	mov	r0, sl
    255e:	1a17      	subs	r7, r2, r0
    2560:	42ba      	cmp	r2, r7
    2562:	4192      	sbcs	r2, r2
    2564:	1b0c      	subs	r4, r1, r4
    2566:	4255      	negs	r5, r2
    2568:	1b65      	subs	r5, r4, r5
    256a:	4698      	mov	r8, r3
    256c:	e714      	b.n	2398 <__aeabi_dsub+0xbc>
    256e:	2501      	movs	r5, #1
    2570:	4643      	mov	r3, r8
    2572:	2400      	movs	r4, #0
    2574:	401d      	ands	r5, r3
    2576:	2700      	movs	r7, #0
    2578:	e755      	b.n	2426 <__aeabi_dsub+0x14a>
    257a:	4c2a      	ldr	r4, [pc, #168]	; (2624 <__aeabi_dsub+0x348>)
    257c:	1af6      	subs	r6, r6, r3
    257e:	402c      	ands	r4, r5
    2580:	e732      	b.n	23e8 <__aeabi_dsub+0x10c>
    2582:	003d      	movs	r5, r7
    2584:	3828      	subs	r0, #40	; 0x28
    2586:	4085      	lsls	r5, r0
    2588:	2700      	movs	r7, #0
    258a:	e717      	b.n	23bc <__aeabi_dsub+0xe0>
    258c:	0038      	movs	r0, r7
    258e:	f000 fabd 	bl	2b0c <__clzsi2>
    2592:	3020      	adds	r0, #32
    2594:	e706      	b.n	23a4 <__aeabi_dsub+0xc8>
    2596:	430a      	orrs	r2, r1
    2598:	0017      	movs	r7, r2
    259a:	2100      	movs	r1, #0
    259c:	1e7a      	subs	r2, r7, #1
    259e:	4197      	sbcs	r7, r2
    25a0:	e6ee      	b.n	2380 <__aeabi_dsub+0xa4>
    25a2:	2b00      	cmp	r3, #0
    25a4:	d000      	beq.n	25a8 <__aeabi_dsub+0x2cc>
    25a6:	e0e5      	b.n	2774 <__aeabi_dsub+0x498>
    25a8:	1c73      	adds	r3, r6, #1
    25aa:	469c      	mov	ip, r3
    25ac:	055b      	lsls	r3, r3, #21
    25ae:	0d5b      	lsrs	r3, r3, #21
    25b0:	2b01      	cmp	r3, #1
    25b2:	dc00      	bgt.n	25b6 <__aeabi_dsub+0x2da>
    25b4:	e09f      	b.n	26f6 <__aeabi_dsub+0x41a>
    25b6:	4b1a      	ldr	r3, [pc, #104]	; (2620 <__aeabi_dsub+0x344>)
    25b8:	459c      	cmp	ip, r3
    25ba:	d100      	bne.n	25be <__aeabi_dsub+0x2e2>
    25bc:	e0c5      	b.n	274a <__aeabi_dsub+0x46e>
    25be:	4452      	add	r2, sl
    25c0:	4552      	cmp	r2, sl
    25c2:	4180      	sbcs	r0, r0
    25c4:	1864      	adds	r4, r4, r1
    25c6:	4240      	negs	r0, r0
    25c8:	1824      	adds	r4, r4, r0
    25ca:	07e7      	lsls	r7, r4, #31
    25cc:	0852      	lsrs	r2, r2, #1
    25ce:	4317      	orrs	r7, r2
    25d0:	0864      	lsrs	r4, r4, #1
    25d2:	4666      	mov	r6, ip
    25d4:	e708      	b.n	23e8 <__aeabi_dsub+0x10c>
    25d6:	4812      	ldr	r0, [pc, #72]	; (2620 <__aeabi_dsub+0x344>)
    25d8:	4285      	cmp	r5, r0
    25da:	d100      	bne.n	25de <__aeabi_dsub+0x302>
    25dc:	e085      	b.n	26ea <__aeabi_dsub+0x40e>
    25de:	001d      	movs	r5, r3
    25e0:	e6bc      	b.n	235c <__aeabi_dsub+0x80>
    25e2:	0029      	movs	r1, r5
    25e4:	3e1f      	subs	r6, #31
    25e6:	40f1      	lsrs	r1, r6
    25e8:	2b20      	cmp	r3, #32
    25ea:	d100      	bne.n	25ee <__aeabi_dsub+0x312>
    25ec:	e07f      	b.n	26ee <__aeabi_dsub+0x412>
    25ee:	2240      	movs	r2, #64	; 0x40
    25f0:	1ad3      	subs	r3, r2, r3
    25f2:	409d      	lsls	r5, r3
    25f4:	432f      	orrs	r7, r5
    25f6:	1e7d      	subs	r5, r7, #1
    25f8:	41af      	sbcs	r7, r5
    25fa:	2400      	movs	r4, #0
    25fc:	430f      	orrs	r7, r1
    25fe:	2600      	movs	r6, #0
    2600:	e78e      	b.n	2520 <__aeabi_dsub+0x244>
    2602:	002b      	movs	r3, r5
    2604:	000f      	movs	r7, r1
    2606:	3b20      	subs	r3, #32
    2608:	40df      	lsrs	r7, r3
    260a:	2d20      	cmp	r5, #32
    260c:	d071      	beq.n	26f2 <__aeabi_dsub+0x416>
    260e:	2340      	movs	r3, #64	; 0x40
    2610:	1b5d      	subs	r5, r3, r5
    2612:	40a9      	lsls	r1, r5
    2614:	430a      	orrs	r2, r1
    2616:	1e51      	subs	r1, r2, #1
    2618:	418a      	sbcs	r2, r1
    261a:	2100      	movs	r1, #0
    261c:	4317      	orrs	r7, r2
    261e:	e6af      	b.n	2380 <__aeabi_dsub+0xa4>
    2620:	000007ff 	.word	0x000007ff
    2624:	ff7fffff 	.word	0xff7fffff
    2628:	800fffff 	.word	0x800fffff
    262c:	2e00      	cmp	r6, #0
    262e:	d03e      	beq.n	26ae <__aeabi_dsub+0x3d2>
    2630:	4eb3      	ldr	r6, [pc, #716]	; (2900 <__aeabi_dsub+0x624>)
    2632:	45b4      	cmp	ip, r6
    2634:	d045      	beq.n	26c2 <__aeabi_dsub+0x3e6>
    2636:	2680      	movs	r6, #128	; 0x80
    2638:	0436      	lsls	r6, r6, #16
    263a:	426d      	negs	r5, r5
    263c:	4334      	orrs	r4, r6
    263e:	2d38      	cmp	r5, #56	; 0x38
    2640:	dd00      	ble.n	2644 <__aeabi_dsub+0x368>
    2642:	e0a8      	b.n	2796 <__aeabi_dsub+0x4ba>
    2644:	2d1f      	cmp	r5, #31
    2646:	dd00      	ble.n	264a <__aeabi_dsub+0x36e>
    2648:	e11f      	b.n	288a <__aeabi_dsub+0x5ae>
    264a:	2620      	movs	r6, #32
    264c:	0027      	movs	r7, r4
    264e:	4650      	mov	r0, sl
    2650:	1b76      	subs	r6, r6, r5
    2652:	40b7      	lsls	r7, r6
    2654:	40e8      	lsrs	r0, r5
    2656:	4307      	orrs	r7, r0
    2658:	4650      	mov	r0, sl
    265a:	40b0      	lsls	r0, r6
    265c:	1e46      	subs	r6, r0, #1
    265e:	41b0      	sbcs	r0, r6
    2660:	40ec      	lsrs	r4, r5
    2662:	4338      	orrs	r0, r7
    2664:	1a17      	subs	r7, r2, r0
    2666:	42ba      	cmp	r2, r7
    2668:	4192      	sbcs	r2, r2
    266a:	1b0c      	subs	r4, r1, r4
    266c:	4252      	negs	r2, r2
    266e:	1aa4      	subs	r4, r4, r2
    2670:	4666      	mov	r6, ip
    2672:	4698      	mov	r8, r3
    2674:	e68b      	b.n	238e <__aeabi_dsub+0xb2>
    2676:	4664      	mov	r4, ip
    2678:	4667      	mov	r7, ip
    267a:	432c      	orrs	r4, r5
    267c:	d000      	beq.n	2680 <__aeabi_dsub+0x3a4>
    267e:	e68b      	b.n	2398 <__aeabi_dsub+0xbc>
    2680:	2500      	movs	r5, #0
    2682:	2600      	movs	r6, #0
    2684:	2700      	movs	r7, #0
    2686:	e6ea      	b.n	245e <__aeabi_dsub+0x182>
    2688:	001e      	movs	r6, r3
    268a:	e6ad      	b.n	23e8 <__aeabi_dsub+0x10c>
    268c:	2b1f      	cmp	r3, #31
    268e:	dc60      	bgt.n	2752 <__aeabi_dsub+0x476>
    2690:	2720      	movs	r7, #32
    2692:	1af8      	subs	r0, r7, r3
    2694:	000f      	movs	r7, r1
    2696:	4684      	mov	ip, r0
    2698:	4087      	lsls	r7, r0
    269a:	0010      	movs	r0, r2
    269c:	40d8      	lsrs	r0, r3
    269e:	4307      	orrs	r7, r0
    26a0:	4660      	mov	r0, ip
    26a2:	4082      	lsls	r2, r0
    26a4:	1e50      	subs	r0, r2, #1
    26a6:	4182      	sbcs	r2, r0
    26a8:	40d9      	lsrs	r1, r3
    26aa:	4317      	orrs	r7, r2
    26ac:	e6f5      	b.n	249a <__aeabi_dsub+0x1be>
    26ae:	0026      	movs	r6, r4
    26b0:	4650      	mov	r0, sl
    26b2:	4306      	orrs	r6, r0
    26b4:	d005      	beq.n	26c2 <__aeabi_dsub+0x3e6>
    26b6:	43ed      	mvns	r5, r5
    26b8:	2d00      	cmp	r5, #0
    26ba:	d0d3      	beq.n	2664 <__aeabi_dsub+0x388>
    26bc:	4e90      	ldr	r6, [pc, #576]	; (2900 <__aeabi_dsub+0x624>)
    26be:	45b4      	cmp	ip, r6
    26c0:	d1bd      	bne.n	263e <__aeabi_dsub+0x362>
    26c2:	000c      	movs	r4, r1
    26c4:	0017      	movs	r7, r2
    26c6:	4666      	mov	r6, ip
    26c8:	4698      	mov	r8, r3
    26ca:	e68d      	b.n	23e8 <__aeabi_dsub+0x10c>
    26cc:	488c      	ldr	r0, [pc, #560]	; (2900 <__aeabi_dsub+0x624>)
    26ce:	4283      	cmp	r3, r0
    26d0:	d00b      	beq.n	26ea <__aeabi_dsub+0x40e>
    26d2:	4663      	mov	r3, ip
    26d4:	e6d9      	b.n	248a <__aeabi_dsub+0x1ae>
    26d6:	2d00      	cmp	r5, #0
    26d8:	d000      	beq.n	26dc <__aeabi_dsub+0x400>
    26da:	e096      	b.n	280a <__aeabi_dsub+0x52e>
    26dc:	0008      	movs	r0, r1
    26de:	4310      	orrs	r0, r2
    26e0:	d100      	bne.n	26e4 <__aeabi_dsub+0x408>
    26e2:	e0e2      	b.n	28aa <__aeabi_dsub+0x5ce>
    26e4:	000c      	movs	r4, r1
    26e6:	0017      	movs	r7, r2
    26e8:	4698      	mov	r8, r3
    26ea:	4e85      	ldr	r6, [pc, #532]	; (2900 <__aeabi_dsub+0x624>)
    26ec:	e67c      	b.n	23e8 <__aeabi_dsub+0x10c>
    26ee:	2500      	movs	r5, #0
    26f0:	e780      	b.n	25f4 <__aeabi_dsub+0x318>
    26f2:	2100      	movs	r1, #0
    26f4:	e78e      	b.n	2614 <__aeabi_dsub+0x338>
    26f6:	0023      	movs	r3, r4
    26f8:	4650      	mov	r0, sl
    26fa:	4303      	orrs	r3, r0
    26fc:	2e00      	cmp	r6, #0
    26fe:	d000      	beq.n	2702 <__aeabi_dsub+0x426>
    2700:	e0a8      	b.n	2854 <__aeabi_dsub+0x578>
    2702:	2b00      	cmp	r3, #0
    2704:	d100      	bne.n	2708 <__aeabi_dsub+0x42c>
    2706:	e0de      	b.n	28c6 <__aeabi_dsub+0x5ea>
    2708:	000b      	movs	r3, r1
    270a:	4313      	orrs	r3, r2
    270c:	d100      	bne.n	2710 <__aeabi_dsub+0x434>
    270e:	e66b      	b.n	23e8 <__aeabi_dsub+0x10c>
    2710:	4452      	add	r2, sl
    2712:	4552      	cmp	r2, sl
    2714:	4180      	sbcs	r0, r0
    2716:	1864      	adds	r4, r4, r1
    2718:	4240      	negs	r0, r0
    271a:	1824      	adds	r4, r4, r0
    271c:	0017      	movs	r7, r2
    271e:	0223      	lsls	r3, r4, #8
    2720:	d400      	bmi.n	2724 <__aeabi_dsub+0x448>
    2722:	e6fd      	b.n	2520 <__aeabi_dsub+0x244>
    2724:	4b77      	ldr	r3, [pc, #476]	; (2904 <__aeabi_dsub+0x628>)
    2726:	4666      	mov	r6, ip
    2728:	401c      	ands	r4, r3
    272a:	e65d      	b.n	23e8 <__aeabi_dsub+0x10c>
    272c:	0025      	movs	r5, r4
    272e:	4650      	mov	r0, sl
    2730:	4305      	orrs	r5, r0
    2732:	2e00      	cmp	r6, #0
    2734:	d1cf      	bne.n	26d6 <__aeabi_dsub+0x3fa>
    2736:	2d00      	cmp	r5, #0
    2738:	d14f      	bne.n	27da <__aeabi_dsub+0x4fe>
    273a:	000c      	movs	r4, r1
    273c:	4314      	orrs	r4, r2
    273e:	d100      	bne.n	2742 <__aeabi_dsub+0x466>
    2740:	e0a0      	b.n	2884 <__aeabi_dsub+0x5a8>
    2742:	000c      	movs	r4, r1
    2744:	0017      	movs	r7, r2
    2746:	4698      	mov	r8, r3
    2748:	e64e      	b.n	23e8 <__aeabi_dsub+0x10c>
    274a:	4666      	mov	r6, ip
    274c:	2400      	movs	r4, #0
    274e:	2700      	movs	r7, #0
    2750:	e685      	b.n	245e <__aeabi_dsub+0x182>
    2752:	001f      	movs	r7, r3
    2754:	0008      	movs	r0, r1
    2756:	3f20      	subs	r7, #32
    2758:	40f8      	lsrs	r0, r7
    275a:	0007      	movs	r7, r0
    275c:	2b20      	cmp	r3, #32
    275e:	d100      	bne.n	2762 <__aeabi_dsub+0x486>
    2760:	e08e      	b.n	2880 <__aeabi_dsub+0x5a4>
    2762:	2040      	movs	r0, #64	; 0x40
    2764:	1ac3      	subs	r3, r0, r3
    2766:	4099      	lsls	r1, r3
    2768:	430a      	orrs	r2, r1
    276a:	1e51      	subs	r1, r2, #1
    276c:	418a      	sbcs	r2, r1
    276e:	2100      	movs	r1, #0
    2770:	4317      	orrs	r7, r2
    2772:	e692      	b.n	249a <__aeabi_dsub+0x1be>
    2774:	2e00      	cmp	r6, #0
    2776:	d114      	bne.n	27a2 <__aeabi_dsub+0x4c6>
    2778:	0026      	movs	r6, r4
    277a:	4650      	mov	r0, sl
    277c:	4306      	orrs	r6, r0
    277e:	d062      	beq.n	2846 <__aeabi_dsub+0x56a>
    2780:	43db      	mvns	r3, r3
    2782:	2b00      	cmp	r3, #0
    2784:	d15c      	bne.n	2840 <__aeabi_dsub+0x564>
    2786:	1887      	adds	r7, r0, r2
    2788:	4297      	cmp	r7, r2
    278a:	4192      	sbcs	r2, r2
    278c:	1864      	adds	r4, r4, r1
    278e:	4252      	negs	r2, r2
    2790:	18a4      	adds	r4, r4, r2
    2792:	4666      	mov	r6, ip
    2794:	e687      	b.n	24a6 <__aeabi_dsub+0x1ca>
    2796:	4650      	mov	r0, sl
    2798:	4320      	orrs	r0, r4
    279a:	1e44      	subs	r4, r0, #1
    279c:	41a0      	sbcs	r0, r4
    279e:	2400      	movs	r4, #0
    27a0:	e760      	b.n	2664 <__aeabi_dsub+0x388>
    27a2:	4e57      	ldr	r6, [pc, #348]	; (2900 <__aeabi_dsub+0x624>)
    27a4:	45b4      	cmp	ip, r6
    27a6:	d04e      	beq.n	2846 <__aeabi_dsub+0x56a>
    27a8:	2680      	movs	r6, #128	; 0x80
    27aa:	0436      	lsls	r6, r6, #16
    27ac:	425b      	negs	r3, r3
    27ae:	4334      	orrs	r4, r6
    27b0:	2b38      	cmp	r3, #56	; 0x38
    27b2:	dd00      	ble.n	27b6 <__aeabi_dsub+0x4da>
    27b4:	e07f      	b.n	28b6 <__aeabi_dsub+0x5da>
    27b6:	2b1f      	cmp	r3, #31
    27b8:	dd00      	ble.n	27bc <__aeabi_dsub+0x4e0>
    27ba:	e08b      	b.n	28d4 <__aeabi_dsub+0x5f8>
    27bc:	2620      	movs	r6, #32
    27be:	0027      	movs	r7, r4
    27c0:	4650      	mov	r0, sl
    27c2:	1af6      	subs	r6, r6, r3
    27c4:	40b7      	lsls	r7, r6
    27c6:	40d8      	lsrs	r0, r3
    27c8:	4307      	orrs	r7, r0
    27ca:	4650      	mov	r0, sl
    27cc:	40b0      	lsls	r0, r6
    27ce:	1e46      	subs	r6, r0, #1
    27d0:	41b0      	sbcs	r0, r6
    27d2:	4307      	orrs	r7, r0
    27d4:	40dc      	lsrs	r4, r3
    27d6:	18bf      	adds	r7, r7, r2
    27d8:	e7d6      	b.n	2788 <__aeabi_dsub+0x4ac>
    27da:	000d      	movs	r5, r1
    27dc:	4315      	orrs	r5, r2
    27de:	d100      	bne.n	27e2 <__aeabi_dsub+0x506>
    27e0:	e602      	b.n	23e8 <__aeabi_dsub+0x10c>
    27e2:	4650      	mov	r0, sl
    27e4:	1a80      	subs	r0, r0, r2
    27e6:	4582      	cmp	sl, r0
    27e8:	41bf      	sbcs	r7, r7
    27ea:	1a65      	subs	r5, r4, r1
    27ec:	427f      	negs	r7, r7
    27ee:	1bed      	subs	r5, r5, r7
    27f0:	4684      	mov	ip, r0
    27f2:	0228      	lsls	r0, r5, #8
    27f4:	d400      	bmi.n	27f8 <__aeabi_dsub+0x51c>
    27f6:	e68d      	b.n	2514 <__aeabi_dsub+0x238>
    27f8:	4650      	mov	r0, sl
    27fa:	1a17      	subs	r7, r2, r0
    27fc:	42ba      	cmp	r2, r7
    27fe:	4192      	sbcs	r2, r2
    2800:	1b0c      	subs	r4, r1, r4
    2802:	4252      	negs	r2, r2
    2804:	1aa4      	subs	r4, r4, r2
    2806:	4698      	mov	r8, r3
    2808:	e5ee      	b.n	23e8 <__aeabi_dsub+0x10c>
    280a:	000d      	movs	r5, r1
    280c:	4315      	orrs	r5, r2
    280e:	d100      	bne.n	2812 <__aeabi_dsub+0x536>
    2810:	e76b      	b.n	26ea <__aeabi_dsub+0x40e>
    2812:	4650      	mov	r0, sl
    2814:	0767      	lsls	r7, r4, #29
    2816:	08c0      	lsrs	r0, r0, #3
    2818:	4307      	orrs	r7, r0
    281a:	2080      	movs	r0, #128	; 0x80
    281c:	08e4      	lsrs	r4, r4, #3
    281e:	0300      	lsls	r0, r0, #12
    2820:	4204      	tst	r4, r0
    2822:	d007      	beq.n	2834 <__aeabi_dsub+0x558>
    2824:	08cd      	lsrs	r5, r1, #3
    2826:	4205      	tst	r5, r0
    2828:	d104      	bne.n	2834 <__aeabi_dsub+0x558>
    282a:	002c      	movs	r4, r5
    282c:	4698      	mov	r8, r3
    282e:	08d7      	lsrs	r7, r2, #3
    2830:	0749      	lsls	r1, r1, #29
    2832:	430f      	orrs	r7, r1
    2834:	0f7b      	lsrs	r3, r7, #29
    2836:	00e4      	lsls	r4, r4, #3
    2838:	431c      	orrs	r4, r3
    283a:	00ff      	lsls	r7, r7, #3
    283c:	4e30      	ldr	r6, [pc, #192]	; (2900 <__aeabi_dsub+0x624>)
    283e:	e5d3      	b.n	23e8 <__aeabi_dsub+0x10c>
    2840:	4e2f      	ldr	r6, [pc, #188]	; (2900 <__aeabi_dsub+0x624>)
    2842:	45b4      	cmp	ip, r6
    2844:	d1b4      	bne.n	27b0 <__aeabi_dsub+0x4d4>
    2846:	000c      	movs	r4, r1
    2848:	0017      	movs	r7, r2
    284a:	4666      	mov	r6, ip
    284c:	e5cc      	b.n	23e8 <__aeabi_dsub+0x10c>
    284e:	2700      	movs	r7, #0
    2850:	2400      	movs	r4, #0
    2852:	e5e8      	b.n	2426 <__aeabi_dsub+0x14a>
    2854:	2b00      	cmp	r3, #0
    2856:	d039      	beq.n	28cc <__aeabi_dsub+0x5f0>
    2858:	000b      	movs	r3, r1
    285a:	4313      	orrs	r3, r2
    285c:	d100      	bne.n	2860 <__aeabi_dsub+0x584>
    285e:	e744      	b.n	26ea <__aeabi_dsub+0x40e>
    2860:	08c0      	lsrs	r0, r0, #3
    2862:	0767      	lsls	r7, r4, #29
    2864:	4307      	orrs	r7, r0
    2866:	2080      	movs	r0, #128	; 0x80
    2868:	08e4      	lsrs	r4, r4, #3
    286a:	0300      	lsls	r0, r0, #12
    286c:	4204      	tst	r4, r0
    286e:	d0e1      	beq.n	2834 <__aeabi_dsub+0x558>
    2870:	08cb      	lsrs	r3, r1, #3
    2872:	4203      	tst	r3, r0
    2874:	d1de      	bne.n	2834 <__aeabi_dsub+0x558>
    2876:	08d7      	lsrs	r7, r2, #3
    2878:	0749      	lsls	r1, r1, #29
    287a:	430f      	orrs	r7, r1
    287c:	001c      	movs	r4, r3
    287e:	e7d9      	b.n	2834 <__aeabi_dsub+0x558>
    2880:	2100      	movs	r1, #0
    2882:	e771      	b.n	2768 <__aeabi_dsub+0x48c>
    2884:	2500      	movs	r5, #0
    2886:	2700      	movs	r7, #0
    2888:	e5e9      	b.n	245e <__aeabi_dsub+0x182>
    288a:	002e      	movs	r6, r5
    288c:	0027      	movs	r7, r4
    288e:	3e20      	subs	r6, #32
    2890:	40f7      	lsrs	r7, r6
    2892:	2d20      	cmp	r5, #32
    2894:	d02f      	beq.n	28f6 <__aeabi_dsub+0x61a>
    2896:	2640      	movs	r6, #64	; 0x40
    2898:	1b75      	subs	r5, r6, r5
    289a:	40ac      	lsls	r4, r5
    289c:	4650      	mov	r0, sl
    289e:	4320      	orrs	r0, r4
    28a0:	1e44      	subs	r4, r0, #1
    28a2:	41a0      	sbcs	r0, r4
    28a4:	2400      	movs	r4, #0
    28a6:	4338      	orrs	r0, r7
    28a8:	e6dc      	b.n	2664 <__aeabi_dsub+0x388>
    28aa:	2480      	movs	r4, #128	; 0x80
    28ac:	2500      	movs	r5, #0
    28ae:	0324      	lsls	r4, r4, #12
    28b0:	4e13      	ldr	r6, [pc, #76]	; (2900 <__aeabi_dsub+0x624>)
    28b2:	2700      	movs	r7, #0
    28b4:	e5d3      	b.n	245e <__aeabi_dsub+0x182>
    28b6:	4650      	mov	r0, sl
    28b8:	4320      	orrs	r0, r4
    28ba:	0007      	movs	r7, r0
    28bc:	1e78      	subs	r0, r7, #1
    28be:	4187      	sbcs	r7, r0
    28c0:	2400      	movs	r4, #0
    28c2:	18bf      	adds	r7, r7, r2
    28c4:	e760      	b.n	2788 <__aeabi_dsub+0x4ac>
    28c6:	000c      	movs	r4, r1
    28c8:	0017      	movs	r7, r2
    28ca:	e58d      	b.n	23e8 <__aeabi_dsub+0x10c>
    28cc:	000c      	movs	r4, r1
    28ce:	0017      	movs	r7, r2
    28d0:	4e0b      	ldr	r6, [pc, #44]	; (2900 <__aeabi_dsub+0x624>)
    28d2:	e589      	b.n	23e8 <__aeabi_dsub+0x10c>
    28d4:	001e      	movs	r6, r3
    28d6:	0027      	movs	r7, r4
    28d8:	3e20      	subs	r6, #32
    28da:	40f7      	lsrs	r7, r6
    28dc:	2b20      	cmp	r3, #32
    28de:	d00c      	beq.n	28fa <__aeabi_dsub+0x61e>
    28e0:	2640      	movs	r6, #64	; 0x40
    28e2:	1af3      	subs	r3, r6, r3
    28e4:	409c      	lsls	r4, r3
    28e6:	4650      	mov	r0, sl
    28e8:	4320      	orrs	r0, r4
    28ea:	1e44      	subs	r4, r0, #1
    28ec:	41a0      	sbcs	r0, r4
    28ee:	4307      	orrs	r7, r0
    28f0:	2400      	movs	r4, #0
    28f2:	18bf      	adds	r7, r7, r2
    28f4:	e748      	b.n	2788 <__aeabi_dsub+0x4ac>
    28f6:	2400      	movs	r4, #0
    28f8:	e7d0      	b.n	289c <__aeabi_dsub+0x5c0>
    28fa:	2400      	movs	r4, #0
    28fc:	e7f3      	b.n	28e6 <__aeabi_dsub+0x60a>
    28fe:	46c0      	nop			; (mov r8, r8)
    2900:	000007ff 	.word	0x000007ff
    2904:	ff7fffff 	.word	0xff7fffff

00002908 <__aeabi_d2iz>:
    2908:	b530      	push	{r4, r5, lr}
    290a:	4d13      	ldr	r5, [pc, #76]	; (2958 <__aeabi_d2iz+0x50>)
    290c:	030a      	lsls	r2, r1, #12
    290e:	004b      	lsls	r3, r1, #1
    2910:	0b12      	lsrs	r2, r2, #12
    2912:	0d5b      	lsrs	r3, r3, #21
    2914:	0fc9      	lsrs	r1, r1, #31
    2916:	2400      	movs	r4, #0
    2918:	42ab      	cmp	r3, r5
    291a:	dd10      	ble.n	293e <__aeabi_d2iz+0x36>
    291c:	4c0f      	ldr	r4, [pc, #60]	; (295c <__aeabi_d2iz+0x54>)
    291e:	42a3      	cmp	r3, r4
    2920:	dc0f      	bgt.n	2942 <__aeabi_d2iz+0x3a>
    2922:	2480      	movs	r4, #128	; 0x80
    2924:	4d0e      	ldr	r5, [pc, #56]	; (2960 <__aeabi_d2iz+0x58>)
    2926:	0364      	lsls	r4, r4, #13
    2928:	4322      	orrs	r2, r4
    292a:	1aed      	subs	r5, r5, r3
    292c:	2d1f      	cmp	r5, #31
    292e:	dd0b      	ble.n	2948 <__aeabi_d2iz+0x40>
    2930:	480c      	ldr	r0, [pc, #48]	; (2964 <__aeabi_d2iz+0x5c>)
    2932:	1ac3      	subs	r3, r0, r3
    2934:	40da      	lsrs	r2, r3
    2936:	4254      	negs	r4, r2
    2938:	2900      	cmp	r1, #0
    293a:	d100      	bne.n	293e <__aeabi_d2iz+0x36>
    293c:	0014      	movs	r4, r2
    293e:	0020      	movs	r0, r4
    2940:	bd30      	pop	{r4, r5, pc}
    2942:	4b09      	ldr	r3, [pc, #36]	; (2968 <__aeabi_d2iz+0x60>)
    2944:	18cc      	adds	r4, r1, r3
    2946:	e7fa      	b.n	293e <__aeabi_d2iz+0x36>
    2948:	4c08      	ldr	r4, [pc, #32]	; (296c <__aeabi_d2iz+0x64>)
    294a:	40e8      	lsrs	r0, r5
    294c:	46a4      	mov	ip, r4
    294e:	4463      	add	r3, ip
    2950:	409a      	lsls	r2, r3
    2952:	4302      	orrs	r2, r0
    2954:	e7ef      	b.n	2936 <__aeabi_d2iz+0x2e>
    2956:	46c0      	nop			; (mov r8, r8)
    2958:	000003fe 	.word	0x000003fe
    295c:	0000041d 	.word	0x0000041d
    2960:	00000433 	.word	0x00000433
    2964:	00000413 	.word	0x00000413
    2968:	7fffffff 	.word	0x7fffffff
    296c:	fffffbed 	.word	0xfffffbed

00002970 <__aeabi_i2d>:
    2970:	b570      	push	{r4, r5, r6, lr}
    2972:	2800      	cmp	r0, #0
    2974:	d030      	beq.n	29d8 <__aeabi_i2d+0x68>
    2976:	17c3      	asrs	r3, r0, #31
    2978:	18c4      	adds	r4, r0, r3
    297a:	405c      	eors	r4, r3
    297c:	0fc5      	lsrs	r5, r0, #31
    297e:	0020      	movs	r0, r4
    2980:	f000 f8c4 	bl	2b0c <__clzsi2>
    2984:	4b17      	ldr	r3, [pc, #92]	; (29e4 <__aeabi_i2d+0x74>)
    2986:	4a18      	ldr	r2, [pc, #96]	; (29e8 <__aeabi_i2d+0x78>)
    2988:	1a1b      	subs	r3, r3, r0
    298a:	1ad2      	subs	r2, r2, r3
    298c:	2a1f      	cmp	r2, #31
    298e:	dd18      	ble.n	29c2 <__aeabi_i2d+0x52>
    2990:	4a16      	ldr	r2, [pc, #88]	; (29ec <__aeabi_i2d+0x7c>)
    2992:	1ad2      	subs	r2, r2, r3
    2994:	4094      	lsls	r4, r2
    2996:	2200      	movs	r2, #0
    2998:	0324      	lsls	r4, r4, #12
    299a:	055b      	lsls	r3, r3, #21
    299c:	0b24      	lsrs	r4, r4, #12
    299e:	0d5b      	lsrs	r3, r3, #21
    29a0:	2100      	movs	r1, #0
    29a2:	0010      	movs	r0, r2
    29a4:	0324      	lsls	r4, r4, #12
    29a6:	0d0a      	lsrs	r2, r1, #20
    29a8:	0b24      	lsrs	r4, r4, #12
    29aa:	0512      	lsls	r2, r2, #20
    29ac:	4322      	orrs	r2, r4
    29ae:	4c10      	ldr	r4, [pc, #64]	; (29f0 <__aeabi_i2d+0x80>)
    29b0:	051b      	lsls	r3, r3, #20
    29b2:	4022      	ands	r2, r4
    29b4:	4313      	orrs	r3, r2
    29b6:	005b      	lsls	r3, r3, #1
    29b8:	07ed      	lsls	r5, r5, #31
    29ba:	085b      	lsrs	r3, r3, #1
    29bc:	432b      	orrs	r3, r5
    29be:	0019      	movs	r1, r3
    29c0:	bd70      	pop	{r4, r5, r6, pc}
    29c2:	0021      	movs	r1, r4
    29c4:	4091      	lsls	r1, r2
    29c6:	000a      	movs	r2, r1
    29c8:	210b      	movs	r1, #11
    29ca:	1a08      	subs	r0, r1, r0
    29cc:	40c4      	lsrs	r4, r0
    29ce:	055b      	lsls	r3, r3, #21
    29d0:	0324      	lsls	r4, r4, #12
    29d2:	0b24      	lsrs	r4, r4, #12
    29d4:	0d5b      	lsrs	r3, r3, #21
    29d6:	e7e3      	b.n	29a0 <__aeabi_i2d+0x30>
    29d8:	2500      	movs	r5, #0
    29da:	2300      	movs	r3, #0
    29dc:	2400      	movs	r4, #0
    29de:	2200      	movs	r2, #0
    29e0:	e7de      	b.n	29a0 <__aeabi_i2d+0x30>
    29e2:	46c0      	nop			; (mov r8, r8)
    29e4:	0000041e 	.word	0x0000041e
    29e8:	00000433 	.word	0x00000433
    29ec:	00000413 	.word	0x00000413
    29f0:	800fffff 	.word	0x800fffff

000029f4 <__udivsi3>:
    29f4:	2200      	movs	r2, #0
    29f6:	0843      	lsrs	r3, r0, #1
    29f8:	428b      	cmp	r3, r1
    29fa:	d374      	bcc.n	2ae6 <__udivsi3+0xf2>
    29fc:	0903      	lsrs	r3, r0, #4
    29fe:	428b      	cmp	r3, r1
    2a00:	d35f      	bcc.n	2ac2 <__udivsi3+0xce>
    2a02:	0a03      	lsrs	r3, r0, #8
    2a04:	428b      	cmp	r3, r1
    2a06:	d344      	bcc.n	2a92 <__udivsi3+0x9e>
    2a08:	0b03      	lsrs	r3, r0, #12
    2a0a:	428b      	cmp	r3, r1
    2a0c:	d328      	bcc.n	2a60 <__udivsi3+0x6c>
    2a0e:	0c03      	lsrs	r3, r0, #16
    2a10:	428b      	cmp	r3, r1
    2a12:	d30d      	bcc.n	2a30 <__udivsi3+0x3c>
    2a14:	22ff      	movs	r2, #255	; 0xff
    2a16:	0209      	lsls	r1, r1, #8
    2a18:	ba12      	rev	r2, r2
    2a1a:	0c03      	lsrs	r3, r0, #16
    2a1c:	428b      	cmp	r3, r1
    2a1e:	d302      	bcc.n	2a26 <__udivsi3+0x32>
    2a20:	1212      	asrs	r2, r2, #8
    2a22:	0209      	lsls	r1, r1, #8
    2a24:	d065      	beq.n	2af2 <__udivsi3+0xfe>
    2a26:	0b03      	lsrs	r3, r0, #12
    2a28:	428b      	cmp	r3, r1
    2a2a:	d319      	bcc.n	2a60 <__udivsi3+0x6c>
    2a2c:	e000      	b.n	2a30 <__udivsi3+0x3c>
    2a2e:	0a09      	lsrs	r1, r1, #8
    2a30:	0bc3      	lsrs	r3, r0, #15
    2a32:	428b      	cmp	r3, r1
    2a34:	d301      	bcc.n	2a3a <__udivsi3+0x46>
    2a36:	03cb      	lsls	r3, r1, #15
    2a38:	1ac0      	subs	r0, r0, r3
    2a3a:	4152      	adcs	r2, r2
    2a3c:	0b83      	lsrs	r3, r0, #14
    2a3e:	428b      	cmp	r3, r1
    2a40:	d301      	bcc.n	2a46 <__udivsi3+0x52>
    2a42:	038b      	lsls	r3, r1, #14
    2a44:	1ac0      	subs	r0, r0, r3
    2a46:	4152      	adcs	r2, r2
    2a48:	0b43      	lsrs	r3, r0, #13
    2a4a:	428b      	cmp	r3, r1
    2a4c:	d301      	bcc.n	2a52 <__udivsi3+0x5e>
    2a4e:	034b      	lsls	r3, r1, #13
    2a50:	1ac0      	subs	r0, r0, r3
    2a52:	4152      	adcs	r2, r2
    2a54:	0b03      	lsrs	r3, r0, #12
    2a56:	428b      	cmp	r3, r1
    2a58:	d301      	bcc.n	2a5e <__udivsi3+0x6a>
    2a5a:	030b      	lsls	r3, r1, #12
    2a5c:	1ac0      	subs	r0, r0, r3
    2a5e:	4152      	adcs	r2, r2
    2a60:	0ac3      	lsrs	r3, r0, #11
    2a62:	428b      	cmp	r3, r1
    2a64:	d301      	bcc.n	2a6a <__udivsi3+0x76>
    2a66:	02cb      	lsls	r3, r1, #11
    2a68:	1ac0      	subs	r0, r0, r3
    2a6a:	4152      	adcs	r2, r2
    2a6c:	0a83      	lsrs	r3, r0, #10
    2a6e:	428b      	cmp	r3, r1
    2a70:	d301      	bcc.n	2a76 <__udivsi3+0x82>
    2a72:	028b      	lsls	r3, r1, #10
    2a74:	1ac0      	subs	r0, r0, r3
    2a76:	4152      	adcs	r2, r2
    2a78:	0a43      	lsrs	r3, r0, #9
    2a7a:	428b      	cmp	r3, r1
    2a7c:	d301      	bcc.n	2a82 <__udivsi3+0x8e>
    2a7e:	024b      	lsls	r3, r1, #9
    2a80:	1ac0      	subs	r0, r0, r3
    2a82:	4152      	adcs	r2, r2
    2a84:	0a03      	lsrs	r3, r0, #8
    2a86:	428b      	cmp	r3, r1
    2a88:	d301      	bcc.n	2a8e <__udivsi3+0x9a>
    2a8a:	020b      	lsls	r3, r1, #8
    2a8c:	1ac0      	subs	r0, r0, r3
    2a8e:	4152      	adcs	r2, r2
    2a90:	d2cd      	bcs.n	2a2e <__udivsi3+0x3a>
    2a92:	09c3      	lsrs	r3, r0, #7
    2a94:	428b      	cmp	r3, r1
    2a96:	d301      	bcc.n	2a9c <__udivsi3+0xa8>
    2a98:	01cb      	lsls	r3, r1, #7
    2a9a:	1ac0      	subs	r0, r0, r3
    2a9c:	4152      	adcs	r2, r2
    2a9e:	0983      	lsrs	r3, r0, #6
    2aa0:	428b      	cmp	r3, r1
    2aa2:	d301      	bcc.n	2aa8 <__udivsi3+0xb4>
    2aa4:	018b      	lsls	r3, r1, #6
    2aa6:	1ac0      	subs	r0, r0, r3
    2aa8:	4152      	adcs	r2, r2
    2aaa:	0943      	lsrs	r3, r0, #5
    2aac:	428b      	cmp	r3, r1
    2aae:	d301      	bcc.n	2ab4 <__udivsi3+0xc0>
    2ab0:	014b      	lsls	r3, r1, #5
    2ab2:	1ac0      	subs	r0, r0, r3
    2ab4:	4152      	adcs	r2, r2
    2ab6:	0903      	lsrs	r3, r0, #4
    2ab8:	428b      	cmp	r3, r1
    2aba:	d301      	bcc.n	2ac0 <__udivsi3+0xcc>
    2abc:	010b      	lsls	r3, r1, #4
    2abe:	1ac0      	subs	r0, r0, r3
    2ac0:	4152      	adcs	r2, r2
    2ac2:	08c3      	lsrs	r3, r0, #3
    2ac4:	428b      	cmp	r3, r1
    2ac6:	d301      	bcc.n	2acc <__udivsi3+0xd8>
    2ac8:	00cb      	lsls	r3, r1, #3
    2aca:	1ac0      	subs	r0, r0, r3
    2acc:	4152      	adcs	r2, r2
    2ace:	0883      	lsrs	r3, r0, #2
    2ad0:	428b      	cmp	r3, r1
    2ad2:	d301      	bcc.n	2ad8 <__udivsi3+0xe4>
    2ad4:	008b      	lsls	r3, r1, #2
    2ad6:	1ac0      	subs	r0, r0, r3
    2ad8:	4152      	adcs	r2, r2
    2ada:	0843      	lsrs	r3, r0, #1
    2adc:	428b      	cmp	r3, r1
    2ade:	d301      	bcc.n	2ae4 <__udivsi3+0xf0>
    2ae0:	004b      	lsls	r3, r1, #1
    2ae2:	1ac0      	subs	r0, r0, r3
    2ae4:	4152      	adcs	r2, r2
    2ae6:	1a41      	subs	r1, r0, r1
    2ae8:	d200      	bcs.n	2aec <__udivsi3+0xf8>
    2aea:	4601      	mov	r1, r0
    2aec:	4152      	adcs	r2, r2
    2aee:	4610      	mov	r0, r2
    2af0:	4770      	bx	lr
    2af2:	e7ff      	b.n	2af4 <__udivsi3+0x100>
    2af4:	b501      	push	{r0, lr}
    2af6:	2000      	movs	r0, #0
    2af8:	f000 f806 	bl	2b08 <__aeabi_idiv0>
    2afc:	bd02      	pop	{r1, pc}
    2afe:	46c0      	nop			; (mov r8, r8)

00002b00 <__aeabi_uidivmod>:
    2b00:	2900      	cmp	r1, #0
    2b02:	d0f7      	beq.n	2af4 <__udivsi3+0x100>
    2b04:	e776      	b.n	29f4 <__udivsi3>
    2b06:	4770      	bx	lr

00002b08 <__aeabi_idiv0>:
    2b08:	4770      	bx	lr
    2b0a:	46c0      	nop			; (mov r8, r8)

00002b0c <__clzsi2>:
    2b0c:	211c      	movs	r1, #28
    2b0e:	2301      	movs	r3, #1
    2b10:	041b      	lsls	r3, r3, #16
    2b12:	4298      	cmp	r0, r3
    2b14:	d301      	bcc.n	2b1a <__clzsi2+0xe>
    2b16:	0c00      	lsrs	r0, r0, #16
    2b18:	3910      	subs	r1, #16
    2b1a:	0a1b      	lsrs	r3, r3, #8
    2b1c:	4298      	cmp	r0, r3
    2b1e:	d301      	bcc.n	2b24 <__clzsi2+0x18>
    2b20:	0a00      	lsrs	r0, r0, #8
    2b22:	3908      	subs	r1, #8
    2b24:	091b      	lsrs	r3, r3, #4
    2b26:	4298      	cmp	r0, r3
    2b28:	d301      	bcc.n	2b2e <__clzsi2+0x22>
    2b2a:	0900      	lsrs	r0, r0, #4
    2b2c:	3904      	subs	r1, #4
    2b2e:	a202      	add	r2, pc, #8	; (adr r2, 2b38 <__clzsi2+0x2c>)
    2b30:	5c10      	ldrb	r0, [r2, r0]
    2b32:	1840      	adds	r0, r0, r1
    2b34:	4770      	bx	lr
    2b36:	46c0      	nop			; (mov r8, r8)
    2b38:	02020304 	.word	0x02020304
    2b3c:	01010101 	.word	0x01010101
	...

00002b48 <_sbrk>:
    2b48:	4a04      	ldr	r2, [pc, #16]	; (2b5c <_sbrk+0x14>)
    2b4a:	6813      	ldr	r3, [r2, #0]
    2b4c:	2b00      	cmp	r3, #0
    2b4e:	d003      	beq.n	2b58 <_sbrk+0x10>
    2b50:	1818      	adds	r0, r3, r0
    2b52:	6010      	str	r0, [r2, #0]
    2b54:	0018      	movs	r0, r3
    2b56:	4770      	bx	lr
    2b58:	4b01      	ldr	r3, [pc, #4]	; (2b60 <_sbrk+0x18>)
    2b5a:	e7f9      	b.n	2b50 <_sbrk+0x8>
    2b5c:	40000034 	.word	0x40000034
    2b60:	40400000 	.word	0x40400000
