
main.elf:     file format elf32-littlearm


Disassembly of section .text:

00000000 <hang-0x50>:
       0:	40800000 	.word	0x40800000
       4:	00000075 	.word	0x00000075
       8:	00000051 	.word	0x00000051
       c:	00000053 	.word	0x00000053
      10:	00000055 	.word	0x00000055
      14:	00000057 	.word	0x00000057
      18:	00000059 	.word	0x00000059
      1c:	0000005b 	.word	0x0000005b
      20:	0000005d 	.word	0x0000005d
      24:	0000005f 	.word	0x0000005f
      28:	00000061 	.word	0x00000061
      2c:	00000063 	.word	0x00000063
      30:	00000065 	.word	0x00000065
      34:	00000067 	.word	0x00000067
      38:	00000069 	.word	0x00000069
      3c:	0000006b 	.word	0x0000006b
      40:	0000006d 	.word	0x0000006d
      44:	0000006f 	.word	0x0000006f
      48:	00000071 	.word	0x00000071
      4c:	00000073 	.word	0x00000073

00000050 <hang>:
      50:	e7fe      	b.n	50 <hang>

00000052 <hang1>:
      52:	e7fe      	b.n	52 <hang1>

00000054 <hang2>:
      54:	e7fe      	b.n	54 <hang2>

00000056 <hang3>:
      56:	e7fe      	b.n	56 <hang3>

00000058 <hang4>:
      58:	e7fe      	b.n	58 <hang4>

0000005a <hang5>:
      5a:	e7fe      	b.n	5a <hang5>

0000005c <hang6>:
      5c:	e7fe      	b.n	5c <hang6>

0000005e <hang7>:
      5e:	e7fe      	b.n	5e <hang7>

00000060 <hang8>:
      60:	e7fe      	b.n	60 <hang8>

00000062 <hang9>:
      62:	e7fe      	b.n	62 <hang9>

00000064 <hang10>:
      64:	e7fe      	b.n	64 <hang10>

00000066 <hang11>:
      66:	e7fe      	b.n	66 <hang11>

00000068 <hang12>:
      68:	e7fe      	b.n	68 <hang12>

0000006a <hang13>:
      6a:	e7fe      	b.n	6a <hang13>

0000006c <hang14>:
      6c:	e7fe      	b.n	6c <hang14>

0000006e <hang15>:
      6e:	e7fe      	b.n	6e <hang15>

00000070 <hang16>:
      70:	e7fe      	b.n	70 <hang16>

00000072 <hang17>:
      72:	e7fe      	b.n	72 <hang17>

00000074 <_start>:
      74:	f000 faea 	bl	64c <main>

00000078 <exit>:
      78:	df01      	svc	1
      7a:	e7fe      	b.n	7a <exit+0x2>

0000007c <putchar>:
      7c:	b580      	push	{r7, lr}
      7e:	af00      	add	r7, sp, #0
      80:	22e0      	movs	r2, #224	; 0xe0
      82:	0612      	lsls	r2, r2, #24
      84:	6010      	str	r0, [r2, #0]
      86:	46bd      	mov	sp, r7
      88:	bd80      	pop	{r7, pc}

0000008a <PUT32>:
      8a:	6001      	str	r1, [r0, #0]
      8c:	4770      	bx	lr

0000008e <GET32>:
      8e:	6800      	ldr	r0, [r0, #0]
      90:	4770      	bx	lr

00000092 <PUTGETCLR>:
      92:	6802      	ldr	r2, [r0, #0]
      94:	438a      	bics	r2, r1
      96:	6002      	str	r2, [r0, #0]
      98:	4770      	bx	lr

0000009a <atest>:
      9a:	1842      	adds	r2, r0, r1
      9c:	2000      	movs	r0, #0
      9e:	d701      	bvc.n	a4 <atest1>
      a0:	2301      	movs	r3, #1
      a2:	4318      	orrs	r0, r3

000000a4 <atest1>:
      a4:	d301      	bcc.n	aa <atest2>
      a6:	2302      	movs	r3, #2
      a8:	4318      	orrs	r0, r3

000000aa <atest2>:
      aa:	4770      	bx	lr

000000ac <stest>:
      ac:	1a42      	subs	r2, r0, r1
      ae:	2000      	movs	r0, #0
      b0:	d701      	bvc.n	b6 <stest1>
      b2:	2301      	movs	r3, #1
      b4:	4318      	orrs	r0, r3

000000b6 <stest1>:
      b6:	d301      	bcc.n	bc <stest2>
      b8:	2302      	movs	r3, #2
      ba:	4318      	orrs	r0, r3

000000bc <stest2>:
      bc:	4770      	bx	lr

000000be <returnvcflags>:
      be:	d703      	bvc.n	c8 <returnvcflags+0xa>
      c0:	d306      	bcc.n	d0 <returnvcflags+0x12>
      c2:	2003      	movs	r0, #3
      c4:	0700      	lsls	r0, r0, #28
      c6:	4770      	bx	lr
      c8:	d305      	bcc.n	d6 <returnvcflags+0x18>
      ca:	2002      	movs	r0, #2
      cc:	0700      	lsls	r0, r0, #28
      ce:	4770      	bx	lr
      d0:	2001      	movs	r0, #1
      d2:	0700      	lsls	r0, r0, #28
      d4:	4770      	bx	lr
      d6:	2000      	movs	r0, #0
      d8:	0700      	lsls	r0, r0, #28
      da:	4770      	bx	lr

000000dc <testfun1>:
      dc:	2200      	movs	r2, #0
      de:	41d2      	rors	r2, r2
      e0:	4148      	adcs	r0, r1
      e2:	e7ec      	b.n	be <returnvcflags>

000000e4 <testfun2>:
      e4:	2201      	movs	r2, #1
      e6:	41d2      	rors	r2, r2
      e8:	4148      	adcs	r0, r1
      ea:	e7e8      	b.n	be <returnvcflags>

000000ec <testfun3>:
      ec:	2200      	movs	r2, #0
      ee:	41d2      	rors	r2, r2
      f0:	4188      	sbcs	r0, r1
      f2:	e7e4      	b.n	be <returnvcflags>

000000f4 <testfun4>:
      f4:	2201      	movs	r2, #1
      f6:	41d2      	rors	r2, r2
      f8:	4188      	sbcs	r0, r1
      fa:	e7e0      	b.n	be <returnvcflags>

000000fc <PUTGETSET>:
      fc:	6802      	ldr	r2, [r0, #0]
      fe:	430a      	orrs	r2, r1
     100:	6002      	str	r2, [r0, #0]
     102:	4770      	bx	lr

00000104 <_fini>:
     104:	4770      	bx	lr
     106:	46c0      	nop			; (mov r8, r8)

00000108 <__exidx_start>:
     108:	4770      	bx	lr
     10a:	46c0      	nop			; (mov r8, r8)

0000010c <__exidx_end>:
     10c:	4770      	bx	lr
     10e:	46c0      	nop			; (mov r8, r8)

00000110 <__errno>:
     110:	4770      	bx	lr
     112:	46c0      	nop			; (mov r8, r8)

00000114 <rand>:
     114:	2007      	movs	r0, #7
     116:	4770      	bx	lr

00000118 <srand>:
     118:	200b      	movs	r0, #11
     11a:	4770      	bx	lr

0000011c <initLED>:
     11c:	b580      	push	{r7, lr}
     11e:	af00      	add	r7, sp, #0
     120:	2243      	movs	r2, #67	; 0x43
     122:	0212      	lsls	r2, r2, #8
     124:	3290      	adds	r2, #144	; 0x90
     126:	0212      	lsls	r2, r2, #8
     128:	3208      	adds	r2, #8
     12a:	0212      	lsls	r2, r2, #8
     12c:	32b4      	adds	r2, #180	; 0xb4
     12e:	2301      	movs	r3, #1
     130:	6013      	str	r3, [r2, #0]
     132:	230c      	movs	r3, #12
     134:	2240      	movs	r2, #64	; 0x40
     136:	0412      	lsls	r2, r2, #16
     138:	3260      	adds	r2, #96	; 0x60
     13a:	0212      	lsls	r2, r2, #8
     13c:	3290      	adds	r2, #144	; 0x90
     13e:	6153      	str	r3, [r2, #20]
     140:	2344      	movs	r3, #68	; 0x44
     142:	021b      	lsls	r3, r3, #8
     144:	6053      	str	r3, [r2, #4]
     146:	46bd      	mov	sp, r7
     148:	bd80      	pop	{r7, pc}

0000014a <LED>:
     14a:	b580      	push	{r7, lr}
     14c:	af00      	add	r7, sp, #0
     14e:	2240      	movs	r2, #64	; 0x40
     150:	0412      	lsls	r2, r2, #16
     152:	3260      	adds	r2, #96	; 0x60
     154:	0212      	lsls	r2, r2, #8
     156:	3290      	adds	r2, #144	; 0x90
     158:	2308      	movs	r3, #8
     15a:	6153      	str	r3, [r2, #20]
     15c:	2301      	movs	r3, #1
     15e:	4003      	ands	r3, r0
     160:	00db      	lsls	r3, r3, #3
     162:	6113      	str	r3, [r2, #16]
     164:	2304      	movs	r3, #4
     166:	6193      	str	r3, [r2, #24]
     168:	2200      	movs	r2, #0
     16a:	2300      	movs	r3, #0
     16c:	46bd      	mov	sp, r7
     16e:	bd80      	pop	{r7, pc}

00000170 <init_timer>:
     170:	4770      	bx	lr
     172:	46c0      	nop			; (mov r8, r8)

00000174 <timer>:
     174:	2000      	movs	r0, #0
     176:	2100      	movs	r1, #0
     178:	4770      	bx	lr
     17a:	46c0      	nop			; (mov r8, r8)

0000017c <timer_getres>:
     17c:	2000      	movs	r0, #0
     17e:	2100      	movs	r1, #0
     180:	4770      	bx	lr
     182:	46c0      	nop			; (mov r8, r8)

00000184 <tic>:
     184:	2000      	movs	r0, #0
     186:	2100      	movs	r1, #0
     188:	4b01      	ldr	r3, [pc, #4]	; (190 <tic+0xc>)
     18a:	6018      	str	r0, [r3, #0]
     18c:	6059      	str	r1, [r3, #4]
     18e:	4770      	bx	lr
     190:	0000ca18 	.word	0x0000ca18

00000194 <toc>:
     194:	b510      	push	{r4, lr}
     196:	4c06      	ldr	r4, [pc, #24]	; (1b0 <toc+0x1c>)
     198:	2000      	movs	r0, #0
     19a:	6822      	ldr	r2, [r4, #0]
     19c:	6863      	ldr	r3, [r4, #4]
     19e:	2100      	movs	r1, #0
     1a0:	f00b f856 	bl	b250 <__aeabi_dsub>
     1a4:	2200      	movs	r2, #0
     1a6:	2300      	movs	r3, #0
     1a8:	6022      	str	r2, [r4, #0]
     1aa:	6063      	str	r3, [r4, #4]
     1ac:	bd10      	pop	{r4, pc}
     1ae:	46c0      	nop			; (mov r8, r8)
     1b0:	0000ca18 	.word	0x0000ca18

000001b4 <warp_image>:
     1b4:	b5f0      	push	{r4, r5, r6, r7, lr}
     1b6:	46de      	mov	lr, fp
     1b8:	464e      	mov	r6, r9
     1ba:	4645      	mov	r5, r8
     1bc:	4657      	mov	r7, sl
     1be:	4698      	mov	r8, r3
     1c0:	b5e0      	push	{r5, r6, r7, lr}
     1c2:	689b      	ldr	r3, [r3, #8]
     1c4:	b089      	sub	sp, #36	; 0x24
     1c6:	9306      	str	r3, [sp, #24]
     1c8:	4643      	mov	r3, r8
     1ca:	695b      	ldr	r3, [r3, #20]
     1cc:	468b      	mov	fp, r1
     1ce:	4691      	mov	r9, r2
     1d0:	9004      	str	r0, [sp, #16]
     1d2:	9307      	str	r3, [sp, #28]
     1d4:	2a00      	cmp	r2, #0
     1d6:	dd45      	ble.n	264 <warp_image+0xb0>
     1d8:	2900      	cmp	r1, #0
     1da:	dd43      	ble.n	264 <warp_image+0xb0>
     1dc:	2301      	movs	r3, #1
     1de:	2500      	movs	r5, #0
     1e0:	9305      	str	r3, [sp, #20]
     1e2:	9805      	ldr	r0, [sp, #20]
     1e4:	f009 fdc6 	bl	9d74 <__aeabi_i2f>
     1e8:	4643      	mov	r3, r8
     1ea:	6859      	ldr	r1, [r3, #4]
     1ec:	1c04      	adds	r4, r0, #0
     1ee:	f009 fab3 	bl	9758 <__aeabi_fmul>
     1f2:	9906      	ldr	r1, [sp, #24]
     1f4:	f009 f910 	bl	9418 <__aeabi_fadd>
     1f8:	4643      	mov	r3, r8
     1fa:	4682      	mov	sl, r0
     1fc:	6919      	ldr	r1, [r3, #16]
     1fe:	1c20      	adds	r0, r4, #0
     200:	f009 faaa 	bl	9758 <__aeabi_fmul>
     204:	9907      	ldr	r1, [sp, #28]
     206:	f009 f907 	bl	9418 <__aeabi_fadd>
     20a:	9b12      	ldr	r3, [sp, #72]	; 0x48
     20c:	2401      	movs	r4, #1
     20e:	469c      	mov	ip, r3
     210:	00af      	lsls	r7, r5, #2
     212:	9002      	str	r0, [sp, #8]
     214:	9503      	str	r5, [sp, #12]
     216:	4467      	add	r7, ip
     218:	0020      	movs	r0, r4
     21a:	f009 fdab 	bl	9d74 <__aeabi_i2f>
     21e:	4643      	mov	r3, r8
     220:	68d9      	ldr	r1, [r3, #12]
     222:	1c05      	adds	r5, r0, #0
     224:	f009 fa98 	bl	9758 <__aeabi_fmul>
     228:	9902      	ldr	r1, [sp, #8]
     22a:	f009 f8f5 	bl	9418 <__aeabi_fadd>
     22e:	4643      	mov	r3, r8
     230:	1c06      	adds	r6, r0, #0
     232:	6819      	ldr	r1, [r3, #0]
     234:	1c28      	adds	r0, r5, #0
     236:	f009 fa8f 	bl	9758 <__aeabi_fmul>
     23a:	4651      	mov	r1, sl
     23c:	f009 f8ec 	bl	9418 <__aeabi_fadd>
     240:	9b04      	ldr	r3, [sp, #16]
     242:	465a      	mov	r2, fp
     244:	9300      	str	r3, [sp, #0]
     246:	1c31      	adds	r1, r6, #0
     248:	464b      	mov	r3, r9
     24a:	f000 f96b 	bl	524 <interpolate>
     24e:	9b03      	ldr	r3, [sp, #12]
     250:	c701      	stmia	r7!, {r0}
     252:	18e5      	adds	r5, r4, r3
     254:	3401      	adds	r4, #1
     256:	45a3      	cmp	fp, r4
     258:	dade      	bge.n	218 <warp_image+0x64>
     25a:	9b05      	ldr	r3, [sp, #20]
     25c:	3301      	adds	r3, #1
     25e:	9305      	str	r3, [sp, #20]
     260:	4599      	cmp	r9, r3
     262:	dabe      	bge.n	1e2 <warp_image+0x2e>
     264:	b009      	add	sp, #36	; 0x24
     266:	bcf0      	pop	{r4, r5, r6, r7}
     268:	46bb      	mov	fp, r7
     26a:	46b2      	mov	sl, r6
     26c:	46a9      	mov	r9, r5
     26e:	46a0      	mov	r8, r4
     270:	bdf0      	pop	{r4, r5, r6, r7, pc}
     272:	46c0      	nop			; (mov r8, r8)

00000274 <steepest_descent>:
     274:	b5f0      	push	{r4, r5, r6, r7, lr}
     276:	46de      	mov	lr, fp
     278:	4657      	mov	r7, sl
     27a:	464e      	mov	r6, r9
     27c:	4645      	mov	r5, r8
     27e:	b5e0      	push	{r5, r6, r7, lr}
     280:	b08f      	sub	sp, #60	; 0x3c
     282:	900a      	str	r0, [sp, #40]	; 0x28
     284:	910b      	str	r1, [sp, #44]	; 0x2c
     286:	9207      	str	r2, [sp, #28]
     288:	930c      	str	r3, [sp, #48]	; 0x30
     28a:	2b00      	cmp	r3, #0
     28c:	dc00      	bgt.n	290 <steepest_descent+0x1c>
     28e:	e0a9      	b.n	3e4 <steepest_descent+0x170>
     290:	0090      	lsls	r0, r2, #2
     292:	9005      	str	r0, [sp, #20]
     294:	2a00      	cmp	r2, #0
     296:	dc00      	bgt.n	29a <steepest_descent+0x26>
     298:	e0a4      	b.n	3e4 <steepest_descent+0x170>
     29a:	4694      	mov	ip, r2
     29c:	1a13      	subs	r3, r2, r0
     29e:	00db      	lsls	r3, r3, #3
     2a0:	930d      	str	r3, [sp, #52]	; 0x34
     2a2:	00d3      	lsls	r3, r2, #3
     2a4:	9304      	str	r3, [sp, #16]
     2a6:	0053      	lsls	r3, r2, #1
     2a8:	4463      	add	r3, ip
     2aa:	009b      	lsls	r3, r3, #2
     2ac:	9303      	str	r3, [sp, #12]
     2ae:	0113      	lsls	r3, r2, #4
     2b0:	9302      	str	r3, [sp, #8]
     2b2:	0003      	movs	r3, r0
     2b4:	4463      	add	r3, ip
     2b6:	009b      	lsls	r3, r3, #2
     2b8:	9301      	str	r3, [sp, #4]
     2ba:	2300      	movs	r3, #0
     2bc:	9306      	str	r3, [sp, #24]
     2be:	9309      	str	r3, [sp, #36]	; 0x24
     2c0:	9308      	str	r3, [sp, #32]
     2c2:	9808      	ldr	r0, [sp, #32]
     2c4:	f009 fd56 	bl	9d74 <__aeabi_i2f>
     2c8:	9b09      	ldr	r3, [sp, #36]	; 0x24
     2ca:	9a0a      	ldr	r2, [sp, #40]	; 0x28
     2cc:	009c      	lsls	r4, r3, #2
     2ce:	1915      	adds	r5, r2, r4
     2d0:	9a0b      	ldr	r2, [sp, #44]	; 0x2c
     2d2:	4683      	mov	fp, r0
     2d4:	4694      	mov	ip, r2
     2d6:	001a      	movs	r2, r3
     2d8:	4464      	add	r4, ip
     2da:	4694      	mov	ip, r2
     2dc:	9a18      	ldr	r2, [sp, #96]	; 0x60
     2de:	005b      	lsls	r3, r3, #1
     2e0:	4690      	mov	r8, r2
     2e2:	4463      	add	r3, ip
     2e4:	00db      	lsls	r3, r3, #3
     2e6:	4498      	add	r8, r3
     2e8:	2300      	movs	r3, #0
     2ea:	4699      	mov	r9, r3
     2ec:	4648      	mov	r0, r9
     2ee:	f009 fd41 	bl	9d74 <__aeabi_i2f>
     2f2:	6829      	ldr	r1, [r5, #0]
     2f4:	1c07      	adds	r7, r0, #0
     2f6:	f009 fa2f 	bl	9758 <__aeabi_fmul>
     2fa:	2100      	movs	r1, #0
     2fc:	1c06      	adds	r6, r0, #0
     2fe:	6820      	ldr	r0, [r4, #0]
     300:	f009 fa2a 	bl	9758 <__aeabi_fmul>
     304:	1c01      	adds	r1, r0, #0
     306:	1c30      	adds	r0, r6, #0
     308:	f009 f886 	bl	9418 <__aeabi_fadd>
     30c:	4643      	mov	r3, r8
     30e:	6018      	str	r0, [r3, #0]
     310:	6828      	ldr	r0, [r5, #0]
     312:	2100      	movs	r1, #0
     314:	f009 fa20 	bl	9758 <__aeabi_fmul>
     318:	6821      	ldr	r1, [r4, #0]
     31a:	4682      	mov	sl, r0
     31c:	1c38      	adds	r0, r7, #0
     31e:	f009 fa1b 	bl	9758 <__aeabi_fmul>
     322:	1c01      	adds	r1, r0, #0
     324:	4650      	mov	r0, sl
     326:	f009 f877 	bl	9418 <__aeabi_fadd>
     32a:	9e06      	ldr	r6, [sp, #24]
     32c:	9b05      	ldr	r3, [sp, #20]
     32e:	4446      	add	r6, r8
     330:	50f0      	str	r0, [r6, r3]
     332:	6829      	ldr	r1, [r5, #0]
     334:	4658      	mov	r0, fp
     336:	f009 fa0f 	bl	9758 <__aeabi_fmul>
     33a:	2100      	movs	r1, #0
     33c:	1c07      	adds	r7, r0, #0
     33e:	6820      	ldr	r0, [r4, #0]
     340:	f009 fa0a 	bl	9758 <__aeabi_fmul>
     344:	1c01      	adds	r1, r0, #0
     346:	1c38      	adds	r0, r7, #0
     348:	f009 f866 	bl	9418 <__aeabi_fadd>
     34c:	9b04      	ldr	r3, [sp, #16]
     34e:	2100      	movs	r1, #0
     350:	50f0      	str	r0, [r6, r3]
     352:	6828      	ldr	r0, [r5, #0]
     354:	f009 fa00 	bl	9758 <__aeabi_fmul>
     358:	6821      	ldr	r1, [r4, #0]
     35a:	1c07      	adds	r7, r0, #0
     35c:	4658      	mov	r0, fp
     35e:	f009 f9fb 	bl	9758 <__aeabi_fmul>
     362:	1c01      	adds	r1, r0, #0
     364:	1c38      	adds	r0, r7, #0
     366:	f009 f857 	bl	9418 <__aeabi_fadd>
     36a:	9b03      	ldr	r3, [sp, #12]
     36c:	2100      	movs	r1, #0
     36e:	50f0      	str	r0, [r6, r3]
     370:	6820      	ldr	r0, [r4, #0]
     372:	f009 f9f1 	bl	9758 <__aeabi_fmul>
     376:	6829      	ldr	r1, [r5, #0]
     378:	f009 f84e 	bl	9418 <__aeabi_fadd>
     37c:	9b02      	ldr	r3, [sp, #8]
     37e:	2100      	movs	r1, #0
     380:	50f0      	str	r0, [r6, r3]
     382:	cd01      	ldmia	r5!, {r0}
     384:	f009 f9e8 	bl	9758 <__aeabi_fmul>
     388:	cc02      	ldmia	r4!, {r1}
     38a:	f009 f845 	bl	9418 <__aeabi_fadd>
     38e:	9b01      	ldr	r3, [sp, #4]
     390:	50f0      	str	r0, [r6, r3]
     392:	2301      	movs	r3, #1
     394:	469c      	mov	ip, r3
     396:	3303      	adds	r3, #3
     398:	44e1      	add	r9, ip
     39a:	469c      	mov	ip, r3
     39c:	9b07      	ldr	r3, [sp, #28]
     39e:	44e0      	add	r8, ip
     3a0:	454b      	cmp	r3, r9
     3a2:	d1a3      	bne.n	2ec <steepest_descent+0x78>
     3a4:	001a      	movs	r2, r3
     3a6:	4694      	mov	ip, r2
     3a8:	9b09      	ldr	r3, [sp, #36]	; 0x24
     3aa:	9a05      	ldr	r2, [sp, #20]
     3ac:	4463      	add	r3, ip
     3ae:	9309      	str	r3, [sp, #36]	; 0x24
     3b0:	9b0d      	ldr	r3, [sp, #52]	; 0x34
     3b2:	9908      	ldr	r1, [sp, #32]
     3b4:	469c      	mov	ip, r3
     3b6:	1ad2      	subs	r2, r2, r3
     3b8:	9205      	str	r2, [sp, #20]
     3ba:	9a04      	ldr	r2, [sp, #16]
     3bc:	9806      	ldr	r0, [sp, #24]
     3be:	1ad2      	subs	r2, r2, r3
     3c0:	9204      	str	r2, [sp, #16]
     3c2:	9a03      	ldr	r2, [sp, #12]
     3c4:	3101      	adds	r1, #1
     3c6:	1ad2      	subs	r2, r2, r3
     3c8:	9203      	str	r2, [sp, #12]
     3ca:	9a02      	ldr	r2, [sp, #8]
     3cc:	4460      	add	r0, ip
     3ce:	1ad2      	subs	r2, r2, r3
     3d0:	9202      	str	r2, [sp, #8]
     3d2:	9a01      	ldr	r2, [sp, #4]
     3d4:	9108      	str	r1, [sp, #32]
     3d6:	1ad3      	subs	r3, r2, r3
     3d8:	9301      	str	r3, [sp, #4]
     3da:	9b0c      	ldr	r3, [sp, #48]	; 0x30
     3dc:	9006      	str	r0, [sp, #24]
     3de:	428b      	cmp	r3, r1
     3e0:	d000      	beq.n	3e4 <steepest_descent+0x170>
     3e2:	e76e      	b.n	2c2 <steepest_descent+0x4e>
     3e4:	b00f      	add	sp, #60	; 0x3c
     3e6:	bcf0      	pop	{r4, r5, r6, r7}
     3e8:	46bb      	mov	fp, r7
     3ea:	46b2      	mov	sl, r6
     3ec:	46a9      	mov	r9, r5
     3ee:	46a0      	mov	r8, r4
     3f0:	bdf0      	pop	{r4, r5, r6, r7, pc}
     3f2:	46c0      	nop			; (mov r8, r8)

000003f4 <hessian>:
     3f4:	b5f0      	push	{r4, r5, r6, r7, lr}
     3f6:	46de      	mov	lr, fp
     3f8:	4657      	mov	r7, sl
     3fa:	464e      	mov	r6, r9
     3fc:	4645      	mov	r5, r8
     3fe:	b5e0      	push	{r5, r6, r7, lr}
     400:	b091      	sub	sp, #68	; 0x44
     402:	9005      	str	r0, [sp, #20]
     404:	9100      	str	r1, [sp, #0]
     406:	920d      	str	r2, [sp, #52]	; 0x34
     408:	2a00      	cmp	r2, #0
     40a:	dc00      	bgt.n	40e <hessian+0x1a>
     40c:	e083      	b.n	516 <hessian+0x122>
     40e:	2b00      	cmp	r3, #0
     410:	dc00      	bgt.n	414 <hessian+0x20>
     412:	e080      	b.n	516 <hessian+0x122>
     414:	468c      	mov	ip, r1
     416:	004a      	lsls	r2, r1, #1
     418:	4462      	add	r2, ip
     41a:	0052      	lsls	r2, r2, #1
     41c:	920e      	str	r2, [sp, #56]	; 0x38
     41e:	008a      	lsls	r2, r1, #2
     420:	4693      	mov	fp, r2
     422:	1a8a      	subs	r2, r1, r2
     424:	00d2      	lsls	r2, r2, #3
     426:	0001      	movs	r1, r0
     428:	920f      	str	r2, [sp, #60]	; 0x3c
     42a:	0002      	movs	r2, r0
     42c:	981a      	ldr	r0, [sp, #104]	; 0x68
     42e:	445a      	add	r2, fp
     430:	4684      	mov	ip, r0
     432:	9207      	str	r2, [sp, #28]
     434:	009a      	lsls	r2, r3, #2
     436:	4462      	add	r2, ip
     438:	920b      	str	r2, [sp, #44]	; 0x2c
     43a:	005a      	lsls	r2, r3, #1
     43c:	18d3      	adds	r3, r2, r3
     43e:	005b      	lsls	r3, r3, #1
     440:	9306      	str	r3, [sp, #24]
     442:	465b      	mov	r3, fp
     444:	425b      	negs	r3, r3
     446:	1a5b      	subs	r3, r3, r1
     448:	930c      	str	r3, [sp, #48]	; 0x30
     44a:	2300      	movs	r3, #0
     44c:	9309      	str	r3, [sp, #36]	; 0x24
     44e:	9308      	str	r3, [sp, #32]
     450:	930a      	str	r3, [sp, #40]	; 0x28
     452:	9b07      	ldr	r3, [sp, #28]
     454:	990c      	ldr	r1, [sp, #48]	; 0x30
     456:	001a      	movs	r2, r3
     458:	4698      	mov	r8, r3
     45a:	9b08      	ldr	r3, [sp, #32]
     45c:	468c      	mov	ip, r1
     45e:	9302      	str	r3, [sp, #8]
     460:	9b0b      	ldr	r3, [sp, #44]	; 0x2c
     462:	4462      	add	r2, ip
     464:	469a      	mov	sl, r3
     466:	2300      	movs	r3, #0
     468:	9f09      	ldr	r7, [sp, #36]	; 0x24
     46a:	9204      	str	r2, [sp, #16]
     46c:	9303      	str	r3, [sp, #12]
     46e:	9a1a      	ldr	r2, [sp, #104]	; 0x68
     470:	9b03      	ldr	r3, [sp, #12]
     472:	4691      	mov	r9, r2
     474:	9a05      	ldr	r2, [sp, #20]
     476:	009b      	lsls	r3, r3, #2
     478:	4694      	mov	ip, r2
     47a:	4499      	add	r9, r3
     47c:	9b02      	ldr	r3, [sp, #8]
     47e:	9e04      	ldr	r6, [sp, #16]
     480:	009b      	lsls	r3, r3, #2
     482:	4463      	add	r3, ip
     484:	9301      	str	r3, [sp, #4]
     486:	9b00      	ldr	r3, [sp, #0]
     488:	2400      	movs	r4, #0
     48a:	2b00      	cmp	r3, #0
     48c:	dd14      	ble.n	4b8 <hessian+0xc4>
     48e:	0033      	movs	r3, r6
     490:	2400      	movs	r4, #0
     492:	4646      	mov	r6, r8
     494:	4698      	mov	r8, r3
     496:	9d01      	ldr	r5, [sp, #4]
     498:	4642      	mov	r2, r8
     49a:	19eb      	adds	r3, r5, r7
     49c:	5898      	ldr	r0, [r3, r2]
     49e:	cd02      	ldmia	r5!, {r1}
     4a0:	f009 f95a 	bl	9758 <__aeabi_fmul>
     4a4:	1c01      	adds	r1, r0, #0
     4a6:	1c20      	adds	r0, r4, #0
     4a8:	f008 ffb6 	bl	9418 <__aeabi_fadd>
     4ac:	1c04      	adds	r4, r0, #0
     4ae:	42b5      	cmp	r5, r6
     4b0:	d1f2      	bne.n	498 <hessian+0xa4>
     4b2:	4643      	mov	r3, r8
     4b4:	46b0      	mov	r8, r6
     4b6:	001e      	movs	r6, r3
     4b8:	464b      	mov	r3, r9
     4ba:	1c21      	adds	r1, r4, #0
     4bc:	6818      	ldr	r0, [r3, #0]
     4be:	f008 ffab 	bl	9418 <__aeabi_fadd>
     4c2:	464b      	mov	r3, r9
     4c4:	c301      	stmia	r3!, {r0}
     4c6:	4699      	mov	r9, r3
     4c8:	445e      	add	r6, fp
     4ca:	459a      	cmp	sl, r3
     4cc:	d1db      	bne.n	486 <hessian+0x92>
     4ce:	2218      	movs	r2, #24
     4d0:	4694      	mov	ip, r2
     4d2:	9900      	ldr	r1, [sp, #0]
     4d4:	44e2      	add	sl, ip
     4d6:	468c      	mov	ip, r1
     4d8:	9a02      	ldr	r2, [sp, #8]
     4da:	9b03      	ldr	r3, [sp, #12]
     4dc:	4462      	add	r2, ip
     4de:	9202      	str	r2, [sp, #8]
     4e0:	465a      	mov	r2, fp
     4e2:	1abf      	subs	r7, r7, r2
     4e4:	9a06      	ldr	r2, [sp, #24]
     4e6:	3306      	adds	r3, #6
     4e8:	9303      	str	r3, [sp, #12]
     4ea:	44d8      	add	r8, fp
     4ec:	429a      	cmp	r2, r3
     4ee:	d1be      	bne.n	46e <hessian+0x7a>
     4f0:	990e      	ldr	r1, [sp, #56]	; 0x38
     4f2:	9a08      	ldr	r2, [sp, #32]
     4f4:	468c      	mov	ip, r1
     4f6:	990f      	ldr	r1, [sp, #60]	; 0x3c
     4f8:	4462      	add	r2, ip
     4fa:	468c      	mov	ip, r1
     4fc:	9208      	str	r2, [sp, #32]
     4fe:	9a09      	ldr	r2, [sp, #36]	; 0x24
     500:	9b0a      	ldr	r3, [sp, #40]	; 0x28
     502:	4462      	add	r2, ip
     504:	9209      	str	r2, [sp, #36]	; 0x24
     506:	9a07      	ldr	r2, [sp, #28]
     508:	3301      	adds	r3, #1
     50a:	1a52      	subs	r2, r2, r1
     50c:	9207      	str	r2, [sp, #28]
     50e:	9a0d      	ldr	r2, [sp, #52]	; 0x34
     510:	930a      	str	r3, [sp, #40]	; 0x28
     512:	429a      	cmp	r2, r3
     514:	d19d      	bne.n	452 <hessian+0x5e>
     516:	b011      	add	sp, #68	; 0x44
     518:	bcf0      	pop	{r4, r5, r6, r7}
     51a:	46bb      	mov	fp, r7
     51c:	46b2      	mov	sl, r6
     51e:	46a9      	mov	r9, r5
     520:	46a0      	mov	r8, r4
     522:	bdf0      	pop	{r4, r5, r6, r7, pc}

00000524 <interpolate>:
     524:	b5f0      	push	{r4, r5, r6, r7, lr}
     526:	46de      	mov	lr, fp
     528:	4657      	mov	r7, sl
     52a:	464e      	mov	r6, r9
     52c:	4645      	mov	r5, r8
     52e:	b5e0      	push	{r5, r6, r7, lr}
     530:	b083      	sub	sp, #12
     532:	4691      	mov	r9, r2
     534:	9301      	str	r3, [sp, #4]
     536:	1c0c      	adds	r4, r1, #0
     538:	1c05      	adds	r5, r0, #0
     53a:	f00b fab5 	bl	baa8 <__aeabi_f2d>
     53e:	f008 fc35 	bl	8dac <floor>
     542:	f00b faf9 	bl	bb38 <__aeabi_d2f>
     546:	4680      	mov	r8, r0
     548:	1c20      	adds	r0, r4, #0
     54a:	f00b faad 	bl	baa8 <__aeabi_f2d>
     54e:	f008 fc2d 	bl	8dac <floor>
     552:	0006      	movs	r6, r0
     554:	4640      	mov	r0, r8
     556:	000f      	movs	r7, r1
     558:	f009 fbec 	bl	9d34 <__aeabi_f2iz>
     55c:	4682      	mov	sl, r0
     55e:	2800      	cmp	r0, #0
     560:	db6b      	blt.n	63a <interpolate+0x116>
     562:	0039      	movs	r1, r7
     564:	0030      	movs	r0, r6
     566:	f00b fae7 	bl	bb38 <__aeabi_d2f>
     56a:	1c07      	adds	r7, r0, #0
     56c:	f009 fbe2 	bl	9d34 <__aeabi_f2iz>
     570:	1e06      	subs	r6, r0, #0
     572:	db62      	blt.n	63a <interpolate+0x116>
     574:	2201      	movs	r2, #1
     576:	4452      	add	r2, sl
     578:	4693      	mov	fp, r2
     57a:	454a      	cmp	r2, r9
     57c:	da5d      	bge.n	63a <interpolate+0x116>
     57e:	9a01      	ldr	r2, [sp, #4]
     580:	1c43      	adds	r3, r0, #1
     582:	4293      	cmp	r3, r2
     584:	da59      	bge.n	63a <interpolate+0x116>
     586:	4641      	mov	r1, r8
     588:	1c28      	adds	r0, r5, #0
     58a:	f009 fa33 	bl	99f4 <__aeabi_fsub>
     58e:	1c39      	adds	r1, r7, #0
     590:	1c05      	adds	r5, r0, #0
     592:	1c20      	adds	r0, r4, #0
     594:	f009 fa2e 	bl	99f4 <__aeabi_fsub>
     598:	1c04      	adds	r4, r0, #0
     59a:	20fe      	movs	r0, #254	; 0xfe
     59c:	1c29      	adds	r1, r5, #0
     59e:	0580      	lsls	r0, r0, #22
     5a0:	f009 fa28 	bl	99f4 <__aeabi_fsub>
     5a4:	4680      	mov	r8, r0
     5a6:	20fe      	movs	r0, #254	; 0xfe
     5a8:	1c21      	adds	r1, r4, #0
     5aa:	0580      	lsls	r0, r0, #22
     5ac:	f009 fa22 	bl	99f4 <__aeabi_fsub>
     5b0:	464b      	mov	r3, r9
     5b2:	435e      	muls	r6, r3
     5b4:	44b1      	add	r9, r6
     5b6:	464b      	mov	r3, r9
     5b8:	4652      	mov	r2, sl
     5ba:	9301      	str	r3, [sp, #4]
     5bc:	18b3      	adds	r3, r6, r2
     5be:	009a      	lsls	r2, r3, #2
     5c0:	4691      	mov	r9, r2
     5c2:	1c07      	adds	r7, r0, #0
     5c4:	1c01      	adds	r1, r0, #0
     5c6:	4640      	mov	r0, r8
     5c8:	f009 f8c6 	bl	9758 <__aeabi_fmul>
     5cc:	4649      	mov	r1, r9
     5ce:	9a0c      	ldr	r2, [sp, #48]	; 0x30
     5d0:	445e      	add	r6, fp
     5d2:	5889      	ldr	r1, [r1, r2]
     5d4:	f009 f8c0 	bl	9758 <__aeabi_fmul>
     5d8:	9b01      	ldr	r3, [sp, #4]
     5da:	4681      	mov	r9, r0
     5dc:	4453      	add	r3, sl
     5de:	009a      	lsls	r2, r3, #2
     5e0:	4692      	mov	sl, r2
     5e2:	4641      	mov	r1, r8
     5e4:	1c20      	adds	r0, r4, #0
     5e6:	f009 f8b7 	bl	9758 <__aeabi_fmul>
     5ea:	4651      	mov	r1, sl
     5ec:	9a0c      	ldr	r2, [sp, #48]	; 0x30
     5ee:	00b6      	lsls	r6, r6, #2
     5f0:	5889      	ldr	r1, [r1, r2]
     5f2:	f009 f8b1 	bl	9758 <__aeabi_fmul>
     5f6:	1c01      	adds	r1, r0, #0
     5f8:	4648      	mov	r0, r9
     5fa:	f008 ff0d 	bl	9418 <__aeabi_fadd>
     5fe:	1c39      	adds	r1, r7, #0
     600:	4680      	mov	r8, r0
     602:	1c28      	adds	r0, r5, #0
     604:	f009 f8a8 	bl	9758 <__aeabi_fmul>
     608:	9a0c      	ldr	r2, [sp, #48]	; 0x30
     60a:	58b1      	ldr	r1, [r6, r2]
     60c:	f009 f8a4 	bl	9758 <__aeabi_fmul>
     610:	1c01      	adds	r1, r0, #0
     612:	4640      	mov	r0, r8
     614:	f008 ff00 	bl	9418 <__aeabi_fadd>
     618:	9e01      	ldr	r6, [sp, #4]
     61a:	1c07      	adds	r7, r0, #0
     61c:	1c21      	adds	r1, r4, #0
     61e:	1c28      	adds	r0, r5, #0
     620:	f009 f89a 	bl	9758 <__aeabi_fmul>
     624:	445e      	add	r6, fp
     626:	9b0c      	ldr	r3, [sp, #48]	; 0x30
     628:	00b6      	lsls	r6, r6, #2
     62a:	58f1      	ldr	r1, [r6, r3]
     62c:	f009 f894 	bl	9758 <__aeabi_fmul>
     630:	1c01      	adds	r1, r0, #0
     632:	1c38      	adds	r0, r7, #0
     634:	f008 fef0 	bl	9418 <__aeabi_fadd>
     638:	e000      	b.n	63c <interpolate+0x118>
     63a:	2000      	movs	r0, #0
     63c:	b003      	add	sp, #12
     63e:	bcf0      	pop	{r4, r5, r6, r7}
     640:	46bb      	mov	fp, r7
     642:	46b2      	mov	sl, r6
     644:	46a9      	mov	r9, r5
     646:	46a0      	mov	r8, r4
     648:	bdf0      	pop	{r4, r5, r6, r7, pc}
     64a:	46c0      	nop			; (mov r8, r8)

0000064c <main>:
     64c:	b5f0      	push	{r4, r5, r6, r7, lr}
     64e:	46ce      	mov	lr, r9
     650:	4647      	mov	r7, r8
     652:	2080      	movs	r0, #128	; 0x80
     654:	b580      	push	{r7, lr}
     656:	2104      	movs	r1, #4
     658:	b08d      	sub	sp, #52	; 0x34
     65a:	02c0      	lsls	r0, r0, #11
     65c:	f004 fa6c 	bl	4b38 <calloc>
     660:	0005      	movs	r5, r0
     662:	2080      	movs	r0, #128	; 0x80
     664:	2104      	movs	r1, #4
     666:	02c0      	lsls	r0, r0, #11
     668:	f004 fa66 	bl	4b38 <calloc>
     66c:	0004      	movs	r4, r0
     66e:	2080      	movs	r0, #128	; 0x80
     670:	2104      	movs	r1, #4
     672:	02c0      	lsls	r0, r0, #11
     674:	f004 fa60 	bl	4b38 <calloc>
     678:	4680      	mov	r8, r0
     67a:	2080      	movs	r0, #128	; 0x80
     67c:	2104      	movs	r1, #4
     67e:	02c0      	lsls	r0, r0, #11
     680:	f004 fa5a 	bl	4b38 <calloc>
     684:	0007      	movs	r7, r0
     686:	20c0      	movs	r0, #192	; 0xc0
     688:	2104      	movs	r1, #4
     68a:	0340      	lsls	r0, r0, #13
     68c:	f004 fa54 	bl	4b38 <calloc>
     690:	2104      	movs	r1, #4
     692:	0006      	movs	r6, r0
     694:	2024      	movs	r0, #36	; 0x24
     696:	f004 fa4f 	bl	4b38 <calloc>
     69a:	4681      	mov	r9, r0
     69c:	2d00      	cmp	r5, #0
     69e:	d066      	beq.n	76e <main+0x122>
     6a0:	2c00      	cmp	r4, #0
     6a2:	d064      	beq.n	76e <main+0x122>
     6a4:	4643      	mov	r3, r8
     6a6:	2b00      	cmp	r3, #0
     6a8:	d061      	beq.n	76e <main+0x122>
     6aa:	2f00      	cmp	r7, #0
     6ac:	d05f      	beq.n	76e <main+0x122>
     6ae:	2e00      	cmp	r6, #0
     6b0:	d05d      	beq.n	76e <main+0x122>
     6b2:	2800      	cmp	r0, #0
     6b4:	d05b      	beq.n	76e <main+0x122>
     6b6:	2180      	movs	r1, #128	; 0x80
     6b8:	2300      	movs	r3, #0
     6ba:	483b      	ldr	r0, [pc, #236]	; (7a8 <main+0x15c>)
     6bc:	0349      	lsls	r1, r1, #13
     6be:	58c2      	ldr	r2, [r0, r3]
     6c0:	50ea      	str	r2, [r5, r3]
     6c2:	3304      	adds	r3, #4
     6c4:	428b      	cmp	r3, r1
     6c6:	d1fa      	bne.n	6be <main+0x72>
     6c8:	2180      	movs	r1, #128	; 0x80
     6ca:	2300      	movs	r3, #0
     6cc:	4837      	ldr	r0, [pc, #220]	; (7ac <main+0x160>)
     6ce:	0349      	lsls	r1, r1, #13
     6d0:	58c2      	ldr	r2, [r0, r3]
     6d2:	50e2      	str	r2, [r4, r3]
     6d4:	3304      	adds	r3, #4
     6d6:	428b      	cmp	r3, r1
     6d8:	d1fa      	bne.n	6d0 <main+0x84>
     6da:	4b35      	ldr	r3, [pc, #212]	; (7b0 <main+0x164>)
     6dc:	4a35      	ldr	r2, [pc, #212]	; (7b4 <main+0x168>)
     6de:	9304      	str	r3, [sp, #16]
     6e0:	4b35      	ldr	r3, [pc, #212]	; (7b8 <main+0x16c>)
     6e2:	9203      	str	r2, [sp, #12]
     6e4:	9305      	str	r3, [sp, #20]
     6e6:	9308      	str	r3, [sp, #32]
     6e8:	2300      	movs	r3, #0
     6ea:	9309      	str	r3, [sp, #36]	; 0x24
     6ec:	930a      	str	r3, [sp, #40]	; 0x28
     6ee:	23fe      	movs	r3, #254	; 0xfe
     6f0:	9207      	str	r2, [sp, #28]
     6f2:	059b      	lsls	r3, r3, #22
     6f4:	2280      	movs	r2, #128	; 0x80
     6f6:	930b      	str	r3, [sp, #44]	; 0x2c
     6f8:	4643      	mov	r3, r8
     6fa:	4930      	ldr	r1, [pc, #192]	; (7bc <main+0x170>)
     6fc:	0092      	lsls	r2, r2, #2
     6fe:	0028      	movs	r0, r5
     700:	9106      	str	r1, [sp, #24]
     702:	9300      	str	r3, [sp, #0]
     704:	0011      	movs	r1, r2
     706:	ab03      	add	r3, sp, #12
     708:	f7ff fd54 	bl	1b4 <warp_image>
     70c:	2280      	movs	r2, #128	; 0x80
     70e:	0092      	lsls	r2, r2, #2
     710:	0011      	movs	r1, r2
     712:	0020      	movs	r0, r4
     714:	ab03      	add	r3, sp, #12
     716:	9700      	str	r7, [sp, #0]
     718:	f7ff fd4c 	bl	1b4 <warp_image>
     71c:	2380      	movs	r3, #128	; 0x80
     71e:	009b      	lsls	r3, r3, #2
     720:	001a      	movs	r2, r3
     722:	0039      	movs	r1, r7
     724:	4640      	mov	r0, r8
     726:	9600      	str	r6, [sp, #0]
     728:	f7ff fda4 	bl	274 <steepest_descent>
     72c:	2280      	movs	r2, #128	; 0x80
     72e:	464b      	mov	r3, r9
     730:	0092      	lsls	r2, r2, #2
     732:	0011      	movs	r1, r2
     734:	0030      	movs	r0, r6
     736:	9300      	str	r3, [sp, #0]
     738:	2306      	movs	r3, #6
     73a:	f7ff fe5b 	bl	3f4 <hessian>
     73e:	0028      	movs	r0, r5
     740:	f003 f81a 	bl	3778 <free>
     744:	0020      	movs	r0, r4
     746:	f003 f817 	bl	3778 <free>
     74a:	4640      	mov	r0, r8
     74c:	f003 f814 	bl	3778 <free>
     750:	0038      	movs	r0, r7
     752:	f003 f811 	bl	3778 <free>
     756:	0030      	movs	r0, r6
     758:	f003 f80e 	bl	3778 <free>
     75c:	4648      	mov	r0, r9
     75e:	f003 f80b 	bl	3778 <free>
     762:	2000      	movs	r0, #0
     764:	b00d      	add	sp, #52	; 0x34
     766:	bcc0      	pop	{r6, r7}
     768:	46b9      	mov	r9, r7
     76a:	46b0      	mov	r8, r6
     76c:	bdf0      	pop	{r4, r5, r6, r7, pc}
     76e:	4b14      	ldr	r3, [pc, #80]	; (7c0 <main+0x174>)
     770:	4914      	ldr	r1, [pc, #80]	; (7c4 <main+0x178>)
     772:	681b      	ldr	r3, [r3, #0]
     774:	68d8      	ldr	r0, [r3, #12]
     776:	f000 f833 	bl	7e0 <fprintf>
     77a:	0028      	movs	r0, r5
     77c:	f002 fffc 	bl	3778 <free>
     780:	0020      	movs	r0, r4
     782:	f002 fff9 	bl	3778 <free>
     786:	4640      	mov	r0, r8
     788:	f002 fff6 	bl	3778 <free>
     78c:	0038      	movs	r0, r7
     78e:	f002 fff3 	bl	3778 <free>
     792:	0030      	movs	r0, r6
     794:	f002 fff0 	bl	3778 <free>
     798:	4648      	mov	r0, r9
     79a:	f002 ffed 	bl	3778 <free>
     79e:	2001      	movs	r0, #1
     7a0:	4240      	negs	r0, r0
     7a2:	f7ff fc69 	bl	78 <exit>
     7a6:	46c0      	nop			; (mov r8, r8)
     7a8:	0010ca20 	.word	0x0010ca20
     7ac:	0000ca20 	.word	0x0000ca20
     7b0:	bc23d70a 	.word	0xbc23d70a
     7b4:	3f770a3d 	.word	0x3f770a3d
     7b8:	40b00000 	.word	0x40b00000
     7bc:	3c23d70a 	.word	0x3c23d70a
     7c0:	0020d0e0 	.word	0x0020d0e0
     7c4:	0000bd38 	.word	0x0000bd38

000007c8 <_fprintf_r>:
     7c8:	b40c      	push	{r2, r3}
     7ca:	b500      	push	{lr}
     7cc:	b083      	sub	sp, #12
     7ce:	ab04      	add	r3, sp, #16
     7d0:	cb04      	ldmia	r3!, {r2}
     7d2:	9301      	str	r3, [sp, #4]
     7d4:	f000 f816 	bl	804 <_vfprintf_r>
     7d8:	b003      	add	sp, #12
     7da:	bc08      	pop	{r3}
     7dc:	b002      	add	sp, #8
     7de:	4718      	bx	r3

000007e0 <fprintf>:
     7e0:	b40e      	push	{r1, r2, r3}
     7e2:	b500      	push	{lr}
     7e4:	b082      	sub	sp, #8
     7e6:	ab03      	add	r3, sp, #12
     7e8:	0001      	movs	r1, r0
     7ea:	4805      	ldr	r0, [pc, #20]	; (800 <fprintf+0x20>)
     7ec:	cb04      	ldmia	r3!, {r2}
     7ee:	6800      	ldr	r0, [r0, #0]
     7f0:	9301      	str	r3, [sp, #4]
     7f2:	f000 f807 	bl	804 <_vfprintf_r>
     7f6:	b002      	add	sp, #8
     7f8:	bc08      	pop	{r3}
     7fa:	b003      	add	sp, #12
     7fc:	4718      	bx	r3
     7fe:	46c0      	nop			; (mov r8, r8)
     800:	0020d0e0 	.word	0x0020d0e0

00000804 <_vfprintf_r>:
     804:	b5f0      	push	{r4, r5, r6, r7, lr}
     806:	46de      	mov	lr, fp
     808:	4657      	mov	r7, sl
     80a:	4645      	mov	r5, r8
     80c:	464e      	mov	r6, r9
     80e:	b5e0      	push	{r5, r6, r7, lr}
     810:	b0dd      	sub	sp, #372	; 0x174
     812:	4688      	mov	r8, r1
     814:	4693      	mov	fp, r2
     816:	0007      	movs	r7, r0
     818:	001c      	movs	r4, r3
     81a:	930f      	str	r3, [sp, #60]	; 0x3c
     81c:	f003 ffc4 	bl	47a8 <_localeconv_r>
     820:	6803      	ldr	r3, [r0, #0]
     822:	0018      	movs	r0, r3
     824:	931d      	str	r3, [sp, #116]	; 0x74
     826:	f005 fd85 	bl	6334 <strlen>
     82a:	2208      	movs	r2, #8
     82c:	901c      	str	r0, [sp, #112]	; 0x70
     82e:	2100      	movs	r1, #0
     830:	a82c      	add	r0, sp, #176	; 0xb0
     832:	f003 fa69 	bl	3d08 <memset>
     836:	2f00      	cmp	r7, #0
     838:	d004      	beq.n	844 <_vfprintf_r+0x40>
     83a:	6b7b      	ldr	r3, [r7, #52]	; 0x34
     83c:	2b00      	cmp	r3, #0
     83e:	d101      	bne.n	844 <_vfprintf_r+0x40>
     840:	f001 f936 	bl	1ab0 <_vfprintf_r+0x12ac>
     844:	4643      	mov	r3, r8
     846:	6e5b      	ldr	r3, [r3, #100]	; 0x64
     848:	07db      	lsls	r3, r3, #31
     84a:	d500      	bpl.n	84e <_vfprintf_r+0x4a>
     84c:	e0e2      	b.n	a14 <_vfprintf_r+0x210>
     84e:	4643      	mov	r3, r8
     850:	210c      	movs	r1, #12
     852:	5e59      	ldrsh	r1, [r3, r1]
     854:	4643      	mov	r3, r8
     856:	899b      	ldrh	r3, [r3, #12]
     858:	059a      	lsls	r2, r3, #22
     85a:	d400      	bmi.n	85e <_vfprintf_r+0x5a>
     85c:	e0d6      	b.n	a0c <_vfprintf_r+0x208>
     85e:	2280      	movs	r2, #128	; 0x80
     860:	0192      	lsls	r2, r2, #6
     862:	4213      	tst	r3, r2
     864:	d108      	bne.n	878 <_vfprintf_r+0x74>
     866:	4643      	mov	r3, r8
     868:	430a      	orrs	r2, r1
     86a:	819a      	strh	r2, [r3, #12]
     86c:	49c3      	ldr	r1, [pc, #780]	; (b7c <_vfprintf_r+0x378>)
     86e:	6e5b      	ldr	r3, [r3, #100]	; 0x64
     870:	400b      	ands	r3, r1
     872:	4641      	mov	r1, r8
     874:	664b      	str	r3, [r1, #100]	; 0x64
     876:	b293      	uxth	r3, r2
     878:	071a      	lsls	r2, r3, #28
     87a:	d55d      	bpl.n	938 <_vfprintf_r+0x134>
     87c:	4642      	mov	r2, r8
     87e:	6912      	ldr	r2, [r2, #16]
     880:	2a00      	cmp	r2, #0
     882:	d059      	beq.n	938 <_vfprintf_r+0x134>
     884:	221a      	movs	r2, #26
     886:	401a      	ands	r2, r3
     888:	2a0a      	cmp	r2, #10
     88a:	d063      	beq.n	954 <_vfprintf_r+0x150>
     88c:	ab33      	add	r3, sp, #204	; 0xcc
     88e:	9330      	str	r3, [sp, #192]	; 0xc0
     890:	2300      	movs	r3, #0
     892:	2400      	movs	r4, #0
     894:	9332      	str	r3, [sp, #200]	; 0xc8
     896:	9331      	str	r3, [sp, #196]	; 0xc4
     898:	9317      	str	r3, [sp, #92]	; 0x5c
     89a:	2300      	movs	r3, #0
     89c:	9318      	str	r3, [sp, #96]	; 0x60
     89e:	9419      	str	r4, [sp, #100]	; 0x64
     8a0:	ab33      	add	r3, sp, #204	; 0xcc
     8a2:	4699      	mov	r9, r3
     8a4:	2300      	movs	r3, #0
     8a6:	465d      	mov	r5, fp
     8a8:	464c      	mov	r4, r9
     8aa:	46c3      	mov	fp, r8
     8ac:	46b8      	mov	r8, r7
     8ae:	931e      	str	r3, [sp, #120]	; 0x78
     8b0:	931f      	str	r3, [sp, #124]	; 0x7c
     8b2:	931b      	str	r3, [sp, #108]	; 0x6c
     8b4:	9320      	str	r3, [sp, #128]	; 0x80
     8b6:	9321      	str	r3, [sp, #132]	; 0x84
     8b8:	9309      	str	r3, [sp, #36]	; 0x24
     8ba:	4bb1      	ldr	r3, [pc, #708]	; (b80 <_vfprintf_r+0x37c>)
     8bc:	9314      	str	r3, [sp, #80]	; 0x50
     8be:	4bb1      	ldr	r3, [pc, #708]	; (b84 <_vfprintf_r+0x380>)
     8c0:	9310      	str	r3, [sp, #64]	; 0x40
     8c2:	23e4      	movs	r3, #228	; 0xe4
     8c4:	002f      	movs	r7, r5
     8c6:	4699      	mov	r9, r3
     8c8:	46aa      	mov	sl, r5
     8ca:	4646      	mov	r6, r8
     8cc:	46a0      	mov	r8, r4
     8ce:	9c14      	ldr	r4, [sp, #80]	; 0x50
     8d0:	464b      	mov	r3, r9
     8d2:	58e5      	ldr	r5, [r4, r3]
     8d4:	f003 ff40 	bl	4758 <__locale_mb_cur_max>
     8d8:	aa2c      	add	r2, sp, #176	; 0xb0
     8da:	0003      	movs	r3, r0
     8dc:	9200      	str	r2, [sp, #0]
     8de:	0030      	movs	r0, r6
     8e0:	003a      	movs	r2, r7
     8e2:	a928      	add	r1, sp, #160	; 0xa0
     8e4:	47a8      	blx	r5
     8e6:	2800      	cmp	r0, #0
     8e8:	d069      	beq.n	9be <_vfprintf_r+0x1ba>
     8ea:	db60      	blt.n	9ae <_vfprintf_r+0x1aa>
     8ec:	9b28      	ldr	r3, [sp, #160]	; 0xa0
     8ee:	2b25      	cmp	r3, #37	; 0x25
     8f0:	d001      	beq.n	8f6 <_vfprintf_r+0xf2>
     8f2:	183f      	adds	r7, r7, r0
     8f4:	e7ec      	b.n	8d0 <_vfprintf_r+0xcc>
     8f6:	4655      	mov	r5, sl
     8f8:	1b7b      	subs	r3, r7, r5
     8fa:	4644      	mov	r4, r8
     8fc:	4699      	mov	r9, r3
     8fe:	46b0      	mov	r8, r6
     900:	0006      	movs	r6, r0
     902:	4557      	cmp	r7, sl
     904:	d163      	bne.n	9ce <_vfprintf_r+0x1ca>
     906:	1c7b      	adds	r3, r7, #1
     908:	9306      	str	r3, [sp, #24]
     90a:	2300      	movs	r3, #0
     90c:	aa1e      	add	r2, sp, #120	; 0x78
     90e:	77d3      	strb	r3, [r2, #31]
     910:	2201      	movs	r2, #1
     912:	4252      	negs	r2, r2
     914:	9208      	str	r2, [sp, #32]
     916:	2200      	movs	r2, #0
     918:	787b      	ldrb	r3, [r7, #1]
     91a:	0016      	movs	r6, r2
     91c:	4647      	mov	r7, r8
     91e:	920b      	str	r2, [sp, #44]	; 0x2c
     920:	9a06      	ldr	r2, [sp, #24]
     922:	3201      	adds	r2, #1
     924:	9206      	str	r2, [sp, #24]
     926:	001a      	movs	r2, r3
     928:	3a20      	subs	r2, #32
     92a:	2a5a      	cmp	r2, #90	; 0x5a
     92c:	d900      	bls.n	930 <_vfprintf_r+0x12c>
     92e:	e082      	b.n	a36 <_vfprintf_r+0x232>
     930:	9910      	ldr	r1, [sp, #64]	; 0x40
     932:	0092      	lsls	r2, r2, #2
     934:	588a      	ldr	r2, [r1, r2]
     936:	4697      	mov	pc, r2
     938:	4641      	mov	r1, r8
     93a:	0038      	movs	r0, r7
     93c:	f003 ff80 	bl	4840 <__swsetup_r>
     940:	4643      	mov	r3, r8
     942:	2800      	cmp	r0, #0
     944:	d001      	beq.n	94a <_vfprintf_r+0x146>
     946:	f001 fce5 	bl	2314 <_vfprintf_r+0x1b10>
     94a:	221a      	movs	r2, #26
     94c:	899b      	ldrh	r3, [r3, #12]
     94e:	401a      	ands	r2, r3
     950:	2a0a      	cmp	r2, #10
     952:	d19b      	bne.n	88c <_vfprintf_r+0x88>
     954:	4642      	mov	r2, r8
     956:	210e      	movs	r1, #14
     958:	5e52      	ldrsh	r2, [r2, r1]
     95a:	2a00      	cmp	r2, #0
     95c:	db96      	blt.n	88c <_vfprintf_r+0x88>
     95e:	4642      	mov	r2, r8
     960:	6e52      	ldr	r2, [r2, #100]	; 0x64
     962:	07d2      	lsls	r2, r2, #31
     964:	d403      	bmi.n	96e <_vfprintf_r+0x16a>
     966:	059b      	lsls	r3, r3, #22
     968:	d401      	bmi.n	96e <_vfprintf_r+0x16a>
     96a:	f001 fabe 	bl	1eea <_vfprintf_r+0x16e6>
     96e:	0023      	movs	r3, r4
     970:	465a      	mov	r2, fp
     972:	4641      	mov	r1, r8
     974:	0038      	movs	r0, r7
     976:	f001 fe3f 	bl	25f8 <__sbprintf>
     97a:	9009      	str	r0, [sp, #36]	; 0x24
     97c:	f000 fca7 	bl	12ce <_vfprintf_r+0xaca>
     980:	0038      	movs	r0, r7
     982:	f003 ff11 	bl	47a8 <_localeconv_r>
     986:	6843      	ldr	r3, [r0, #4]
     988:	0018      	movs	r0, r3
     98a:	9321      	str	r3, [sp, #132]	; 0x84
     98c:	f005 fcd2 	bl	6334 <strlen>
     990:	4680      	mov	r8, r0
     992:	9020      	str	r0, [sp, #128]	; 0x80
     994:	0038      	movs	r0, r7
     996:	f003 ff07 	bl	47a8 <_localeconv_r>
     99a:	6883      	ldr	r3, [r0, #8]
     99c:	931b      	str	r3, [sp, #108]	; 0x6c
     99e:	4643      	mov	r3, r8
     9a0:	2b00      	cmp	r3, #0
     9a2:	d001      	beq.n	9a8 <_vfprintf_r+0x1a4>
     9a4:	f000 fe65 	bl	1672 <_vfprintf_r+0xe6e>
     9a8:	9b06      	ldr	r3, [sp, #24]
     9aa:	781b      	ldrb	r3, [r3, #0]
     9ac:	e7b8      	b.n	920 <_vfprintf_r+0x11c>
     9ae:	2208      	movs	r2, #8
     9b0:	2100      	movs	r1, #0
     9b2:	a82c      	add	r0, sp, #176	; 0xb0
     9b4:	f003 f9a8 	bl	3d08 <memset>
     9b8:	2001      	movs	r0, #1
     9ba:	183f      	adds	r7, r7, r0
     9bc:	e788      	b.n	8d0 <_vfprintf_r+0xcc>
     9be:	4655      	mov	r5, sl
     9c0:	1b7b      	subs	r3, r7, r5
     9c2:	4644      	mov	r4, r8
     9c4:	4699      	mov	r9, r3
     9c6:	46b0      	mov	r8, r6
     9c8:	0006      	movs	r6, r0
     9ca:	4557      	cmp	r7, sl
     9cc:	d010      	beq.n	9f0 <_vfprintf_r+0x1ec>
     9ce:	464b      	mov	r3, r9
     9d0:	6063      	str	r3, [r4, #4]
     9d2:	9b32      	ldr	r3, [sp, #200]	; 0xc8
     9d4:	6025      	str	r5, [r4, #0]
     9d6:	444b      	add	r3, r9
     9d8:	9332      	str	r3, [sp, #200]	; 0xc8
     9da:	9b31      	ldr	r3, [sp, #196]	; 0xc4
     9dc:	3408      	adds	r4, #8
     9de:	3301      	adds	r3, #1
     9e0:	9331      	str	r3, [sp, #196]	; 0xc4
     9e2:	2b07      	cmp	r3, #7
     9e4:	dc1c      	bgt.n	a20 <_vfprintf_r+0x21c>
     9e6:	9b09      	ldr	r3, [sp, #36]	; 0x24
     9e8:	444b      	add	r3, r9
     9ea:	9309      	str	r3, [sp, #36]	; 0x24
     9ec:	2e00      	cmp	r6, #0
     9ee:	d18a      	bne.n	906 <_vfprintf_r+0x102>
     9f0:	9b32      	ldr	r3, [sp, #200]	; 0xc8
     9f2:	4647      	mov	r7, r8
     9f4:	46d8      	mov	r8, fp
     9f6:	2b00      	cmp	r3, #0
     9f8:	d001      	beq.n	9fe <_vfprintf_r+0x1fa>
     9fa:	f001 fa5d 	bl	1eb8 <_vfprintf_r+0x16b4>
     9fe:	2300      	movs	r3, #0
     a00:	9331      	str	r3, [sp, #196]	; 0xc4
     a02:	4643      	mov	r3, r8
     a04:	220c      	movs	r2, #12
     a06:	5e9b      	ldrsh	r3, [r3, r2]
     a08:	f000 fc58 	bl	12bc <_vfprintf_r+0xab8>
     a0c:	4643      	mov	r3, r8
     a0e:	6d98      	ldr	r0, [r3, #88]	; 0x58
     a10:	f003 fa2c 	bl	3e6c <__retarget_lock_acquire_recursive>
     a14:	4643      	mov	r3, r8
     a16:	210c      	movs	r1, #12
     a18:	5e59      	ldrsh	r1, [r3, r1]
     a1a:	4643      	mov	r3, r8
     a1c:	899b      	ldrh	r3, [r3, #12]
     a1e:	e71e      	b.n	85e <_vfprintf_r+0x5a>
     a20:	4659      	mov	r1, fp
     a22:	4640      	mov	r0, r8
     a24:	aa30      	add	r2, sp, #192	; 0xc0
     a26:	f001 fe71 	bl	270c <__sprint_r>
     a2a:	2800      	cmp	r0, #0
     a2c:	d001      	beq.n	a32 <_vfprintf_r+0x22e>
     a2e:	f001 fd79 	bl	2524 <_vfprintf_r+0x1d20>
     a32:	ac33      	add	r4, sp, #204	; 0xcc
     a34:	e7d7      	b.n	9e6 <_vfprintf_r+0x1e2>
     a36:	46b2      	mov	sl, r6
     a38:	46b8      	mov	r8, r7
     a3a:	9313      	str	r3, [sp, #76]	; 0x4c
     a3c:	2b00      	cmp	r3, #0
     a3e:	d0d7      	beq.n	9f0 <_vfprintf_r+0x1ec>
     a40:	ad43      	add	r5, sp, #268	; 0x10c
     a42:	702b      	strb	r3, [r5, #0]
     a44:	2300      	movs	r3, #0
     a46:	aa1e      	add	r2, sp, #120	; 0x78
     a48:	77d3      	strb	r3, [r2, #31]
     a4a:	2200      	movs	r2, #0
     a4c:	920e      	str	r2, [sp, #56]	; 0x38
     a4e:	3201      	adds	r2, #1
     a50:	3301      	adds	r3, #1
     a52:	920a      	str	r2, [sp, #40]	; 0x28
     a54:	2200      	movs	r2, #0
     a56:	9307      	str	r3, [sp, #28]
     a58:	2300      	movs	r3, #0
     a5a:	9208      	str	r2, [sp, #32]
     a5c:	921a      	str	r2, [sp, #104]	; 0x68
     a5e:	9215      	str	r2, [sp, #84]	; 0x54
     a60:	9216      	str	r2, [sp, #88]	; 0x58
     a62:	2202      	movs	r2, #2
     a64:	4651      	mov	r1, sl
     a66:	4011      	ands	r1, r2
     a68:	9111      	str	r1, [sp, #68]	; 0x44
     a6a:	4651      	mov	r1, sl
     a6c:	420a      	tst	r2, r1
     a6e:	d002      	beq.n	a76 <_vfprintf_r+0x272>
     a70:	9a07      	ldr	r2, [sp, #28]
     a72:	3202      	adds	r2, #2
     a74:	9207      	str	r2, [sp, #28]
     a76:	2284      	movs	r2, #132	; 0x84
     a78:	4651      	mov	r1, sl
     a7a:	4011      	ands	r1, r2
     a7c:	9112      	str	r1, [sp, #72]	; 0x48
     a7e:	4651      	mov	r1, sl
     a80:	420a      	tst	r2, r1
     a82:	d105      	bne.n	a90 <_vfprintf_r+0x28c>
     a84:	9a0b      	ldr	r2, [sp, #44]	; 0x2c
     a86:	9907      	ldr	r1, [sp, #28]
     a88:	1a56      	subs	r6, r2, r1
     a8a:	2e00      	cmp	r6, #0
     a8c:	dd00      	ble.n	a90 <_vfprintf_r+0x28c>
     a8e:	e0c4      	b.n	c1a <_vfprintf_r+0x416>
     a90:	9e32      	ldr	r6, [sp, #200]	; 0xc8
     a92:	2b00      	cmp	r3, #0
     a94:	d010      	beq.n	ab8 <_vfprintf_r+0x2b4>
     a96:	aa1e      	add	r2, sp, #120	; 0x78
     a98:	231f      	movs	r3, #31
     a9a:	4694      	mov	ip, r2
     a9c:	4463      	add	r3, ip
     a9e:	6023      	str	r3, [r4, #0]
     aa0:	2301      	movs	r3, #1
     aa2:	6063      	str	r3, [r4, #4]
     aa4:	9b31      	ldr	r3, [sp, #196]	; 0xc4
     aa6:	3601      	adds	r6, #1
     aa8:	3301      	adds	r3, #1
     aaa:	9632      	str	r6, [sp, #200]	; 0xc8
     aac:	9331      	str	r3, [sp, #196]	; 0xc4
     aae:	2b07      	cmp	r3, #7
     ab0:	dd01      	ble.n	ab6 <_vfprintf_r+0x2b2>
     ab2:	f000 fc14 	bl	12de <_vfprintf_r+0xada>
     ab6:	3408      	adds	r4, #8
     ab8:	9b11      	ldr	r3, [sp, #68]	; 0x44
     aba:	2b00      	cmp	r3, #0
     abc:	d00d      	beq.n	ada <_vfprintf_r+0x2d6>
     abe:	ab26      	add	r3, sp, #152	; 0x98
     ac0:	6023      	str	r3, [r4, #0]
     ac2:	2302      	movs	r3, #2
     ac4:	6063      	str	r3, [r4, #4]
     ac6:	9b31      	ldr	r3, [sp, #196]	; 0xc4
     ac8:	3602      	adds	r6, #2
     aca:	3301      	adds	r3, #1
     acc:	9632      	str	r6, [sp, #200]	; 0xc8
     ace:	9331      	str	r3, [sp, #196]	; 0xc4
     ad0:	2b07      	cmp	r3, #7
     ad2:	dd01      	ble.n	ad8 <_vfprintf_r+0x2d4>
     ad4:	f000 fc0e 	bl	12f4 <_vfprintf_r+0xaf0>
     ad8:	3408      	adds	r4, #8
     ada:	9b12      	ldr	r3, [sp, #72]	; 0x48
     adc:	2b80      	cmp	r3, #128	; 0x80
     ade:	d100      	bne.n	ae2 <_vfprintf_r+0x2de>
     ae0:	e363      	b.n	11aa <_vfprintf_r+0x9a6>
     ae2:	9b08      	ldr	r3, [sp, #32]
     ae4:	9a0a      	ldr	r2, [sp, #40]	; 0x28
     ae6:	1a9f      	subs	r7, r3, r2
     ae8:	2f00      	cmp	r7, #0
     aea:	dd00      	ble.n	aee <_vfprintf_r+0x2ea>
     aec:	e39d      	b.n	122a <_vfprintf_r+0xa26>
     aee:	4653      	mov	r3, sl
     af0:	05db      	lsls	r3, r3, #23
     af2:	d500      	bpl.n	af6 <_vfprintf_r+0x2f2>
     af4:	e301      	b.n	10fa <_vfprintf_r+0x8f6>
     af6:	9b0a      	ldr	r3, [sp, #40]	; 0x28
     af8:	6025      	str	r5, [r4, #0]
     afa:	469c      	mov	ip, r3
     afc:	6063      	str	r3, [r4, #4]
     afe:	9b31      	ldr	r3, [sp, #196]	; 0xc4
     b00:	4466      	add	r6, ip
     b02:	3301      	adds	r3, #1
     b04:	9632      	str	r6, [sp, #200]	; 0xc8
     b06:	9331      	str	r3, [sp, #196]	; 0xc4
     b08:	2b07      	cmp	r3, #7
     b0a:	dd00      	ble.n	b0e <_vfprintf_r+0x30a>
     b0c:	e103      	b.n	d16 <_vfprintf_r+0x512>
     b0e:	3408      	adds	r4, #8
     b10:	4653      	mov	r3, sl
     b12:	075b      	lsls	r3, r3, #29
     b14:	d506      	bpl.n	b24 <_vfprintf_r+0x320>
     b16:	9b0b      	ldr	r3, [sp, #44]	; 0x2c
     b18:	9a07      	ldr	r2, [sp, #28]
     b1a:	1a9d      	subs	r5, r3, r2
     b1c:	2d00      	cmp	r5, #0
     b1e:	dd01      	ble.n	b24 <_vfprintf_r+0x320>
     b20:	f000 fbf3 	bl	130a <_vfprintf_r+0xb06>
     b24:	9b0b      	ldr	r3, [sp, #44]	; 0x2c
     b26:	9a07      	ldr	r2, [sp, #28]
     b28:	4293      	cmp	r3, r2
     b2a:	da00      	bge.n	b2e <_vfprintf_r+0x32a>
     b2c:	0013      	movs	r3, r2
     b2e:	9a09      	ldr	r2, [sp, #36]	; 0x24
     b30:	4694      	mov	ip, r2
     b32:	449c      	add	ip, r3
     b34:	4663      	mov	r3, ip
     b36:	9309      	str	r3, [sp, #36]	; 0x24
     b38:	2e00      	cmp	r6, #0
     b3a:	d000      	beq.n	b3e <_vfprintf_r+0x33a>
     b3c:	e3aa      	b.n	1294 <_vfprintf_r+0xa90>
     b3e:	2300      	movs	r3, #0
     b40:	9331      	str	r3, [sp, #196]	; 0xc4
     b42:	9b0e      	ldr	r3, [sp, #56]	; 0x38
     b44:	2b00      	cmp	r3, #0
     b46:	d003      	beq.n	b50 <_vfprintf_r+0x34c>
     b48:	4640      	mov	r0, r8
     b4a:	990e      	ldr	r1, [sp, #56]	; 0x38
     b4c:	f005 fcc0 	bl	64d0 <_free_r>
     b50:	9d06      	ldr	r5, [sp, #24]
     b52:	ac33      	add	r4, sp, #204	; 0xcc
     b54:	e6b5      	b.n	8c2 <_vfprintf_r+0xbe>
     b56:	3b30      	subs	r3, #48	; 0x30
     b58:	2000      	movs	r0, #0
     b5a:	001a      	movs	r2, r3
     b5c:	9906      	ldr	r1, [sp, #24]
     b5e:	0083      	lsls	r3, r0, #2
     b60:	1818      	adds	r0, r3, r0
     b62:	000b      	movs	r3, r1
     b64:	781b      	ldrb	r3, [r3, #0]
     b66:	0040      	lsls	r0, r0, #1
     b68:	1810      	adds	r0, r2, r0
     b6a:	001a      	movs	r2, r3
     b6c:	3a30      	subs	r2, #48	; 0x30
     b6e:	3101      	adds	r1, #1
     b70:	2a09      	cmp	r2, #9
     b72:	d9f4      	bls.n	b5e <_vfprintf_r+0x35a>
     b74:	9106      	str	r1, [sp, #24]
     b76:	900b      	str	r0, [sp, #44]	; 0x2c
     b78:	e6d5      	b.n	926 <_vfprintf_r+0x122>
     b7a:	46c0      	nop			; (mov r8, r8)
     b7c:	ffffdfff 	.word	0xffffdfff
     b80:	0020ce50 	.word	0x0020ce50
     b84:	0000bde0 	.word	0x0000bde0
     b88:	2207      	movs	r2, #7
     b8a:	9313      	str	r3, [sp, #76]	; 0x4c
     b8c:	9b0f      	ldr	r3, [sp, #60]	; 0x3c
     b8e:	46b8      	mov	r8, r7
     b90:	3307      	adds	r3, #7
     b92:	4393      	bics	r3, r2
     b94:	0019      	movs	r1, r3
     b96:	c90c      	ldmia	r1!, {r2, r3}
     b98:	9218      	str	r2, [sp, #96]	; 0x60
     b9a:	9319      	str	r3, [sp, #100]	; 0x64
     b9c:	9a18      	ldr	r2, [sp, #96]	; 0x60
     b9e:	9b19      	ldr	r3, [sp, #100]	; 0x64
     ba0:	0017      	movs	r7, r2
     ba2:	2201      	movs	r2, #1
     ba4:	46b2      	mov	sl, r6
     ba6:	005e      	lsls	r6, r3, #1
     ba8:	0876      	lsrs	r6, r6, #1
     baa:	910f      	str	r1, [sp, #60]	; 0x3c
     bac:	0038      	movs	r0, r7
     bae:	0031      	movs	r1, r6
     bb0:	4bdc      	ldr	r3, [pc, #880]	; (f24 <_vfprintf_r+0x720>)
     bb2:	4252      	negs	r2, r2
     bb4:	f00a fece 	bl	b954 <__aeabi_dcmpun>
     bb8:	2800      	cmp	r0, #0
     bba:	d001      	beq.n	bc0 <_vfprintf_r+0x3bc>
     bbc:	f000 fd75 	bl	16aa <_vfprintf_r+0xea6>
     bc0:	2201      	movs	r2, #1
     bc2:	0038      	movs	r0, r7
     bc4:	0031      	movs	r1, r6
     bc6:	4bd7      	ldr	r3, [pc, #860]	; (f24 <_vfprintf_r+0x720>)
     bc8:	4252      	negs	r2, r2
     bca:	f008 fb1b 	bl	9204 <__aeabi_dcmple>
     bce:	2800      	cmp	r0, #0
     bd0:	d001      	beq.n	bd6 <_vfprintf_r+0x3d2>
     bd2:	f000 fd6a 	bl	16aa <_vfprintf_r+0xea6>
     bd6:	9818      	ldr	r0, [sp, #96]	; 0x60
     bd8:	9919      	ldr	r1, [sp, #100]	; 0x64
     bda:	2200      	movs	r2, #0
     bdc:	2300      	movs	r3, #0
     bde:	f008 fb07 	bl	91f0 <__aeabi_dcmplt>
     be2:	2800      	cmp	r0, #0
     be4:	d001      	beq.n	bea <_vfprintf_r+0x3e6>
     be6:	f001 fa26 	bl	2036 <_vfprintf_r+0x1832>
     bea:	ab1e      	add	r3, sp, #120	; 0x78
     bec:	7fdb      	ldrb	r3, [r3, #31]
     bee:	9a13      	ldr	r2, [sp, #76]	; 0x4c
     bf0:	2a47      	cmp	r2, #71	; 0x47
     bf2:	dc01      	bgt.n	bf8 <_vfprintf_r+0x3f4>
     bf4:	f001 f858 	bl	1ca8 <_vfprintf_r+0x14a4>
     bf8:	4dcb      	ldr	r5, [pc, #812]	; (f28 <_vfprintf_r+0x724>)
     bfa:	2280      	movs	r2, #128	; 0x80
     bfc:	4651      	mov	r1, sl
     bfe:	4391      	bics	r1, r2
     c00:	3a7d      	subs	r2, #125	; 0x7d
     c02:	9207      	str	r2, [sp, #28]
     c04:	2200      	movs	r2, #0
     c06:	468a      	mov	sl, r1
     c08:	920e      	str	r2, [sp, #56]	; 0x38
     c0a:	3203      	adds	r2, #3
     c0c:	920a      	str	r2, [sp, #40]	; 0x28
     c0e:	2200      	movs	r2, #0
     c10:	9208      	str	r2, [sp, #32]
     c12:	921a      	str	r2, [sp, #104]	; 0x68
     c14:	9215      	str	r2, [sp, #84]	; 0x54
     c16:	9216      	str	r2, [sp, #88]	; 0x58
     c18:	e17c      	b.n	f14 <_vfprintf_r+0x710>
     c1a:	9a32      	ldr	r2, [sp, #200]	; 0xc8
     c1c:	9b31      	ldr	r3, [sp, #196]	; 0xc4
     c1e:	4fc3      	ldr	r7, [pc, #780]	; (f2c <_vfprintf_r+0x728>)
     c20:	2e10      	cmp	r6, #16
     c22:	dd26      	ble.n	c72 <_vfprintf_r+0x46e>
     c24:	2110      	movs	r1, #16
     c26:	4689      	mov	r9, r1
     c28:	0021      	movs	r1, r4
     c2a:	4644      	mov	r4, r8
     c2c:	46a8      	mov	r8, r5
     c2e:	465d      	mov	r5, fp
     c30:	e003      	b.n	c3a <_vfprintf_r+0x436>
     c32:	3e10      	subs	r6, #16
     c34:	3108      	adds	r1, #8
     c36:	2e10      	cmp	r6, #16
     c38:	dd17      	ble.n	c6a <_vfprintf_r+0x466>
     c3a:	4648      	mov	r0, r9
     c3c:	3210      	adds	r2, #16
     c3e:	3301      	adds	r3, #1
     c40:	600f      	str	r7, [r1, #0]
     c42:	6048      	str	r0, [r1, #4]
     c44:	9232      	str	r2, [sp, #200]	; 0xc8
     c46:	9331      	str	r3, [sp, #196]	; 0xc4
     c48:	2b07      	cmp	r3, #7
     c4a:	ddf2      	ble.n	c32 <_vfprintf_r+0x42e>
     c4c:	0029      	movs	r1, r5
     c4e:	0020      	movs	r0, r4
     c50:	aa30      	add	r2, sp, #192	; 0xc0
     c52:	f001 fd5b 	bl	270c <__sprint_r>
     c56:	2800      	cmp	r0, #0
     c58:	d001      	beq.n	c5e <_vfprintf_r+0x45a>
     c5a:	f000 ff25 	bl	1aa8 <_vfprintf_r+0x12a4>
     c5e:	3e10      	subs	r6, #16
     c60:	9a32      	ldr	r2, [sp, #200]	; 0xc8
     c62:	9b31      	ldr	r3, [sp, #196]	; 0xc4
     c64:	a933      	add	r1, sp, #204	; 0xcc
     c66:	2e10      	cmp	r6, #16
     c68:	dce7      	bgt.n	c3a <_vfprintf_r+0x436>
     c6a:	46ab      	mov	fp, r5
     c6c:	4645      	mov	r5, r8
     c6e:	46a0      	mov	r8, r4
     c70:	000c      	movs	r4, r1
     c72:	6066      	str	r6, [r4, #4]
     c74:	3301      	adds	r3, #1
     c76:	18b6      	adds	r6, r6, r2
     c78:	6027      	str	r7, [r4, #0]
     c7a:	9632      	str	r6, [sp, #200]	; 0xc8
     c7c:	9331      	str	r3, [sp, #196]	; 0xc4
     c7e:	2b07      	cmp	r3, #7
     c80:	dd01      	ble.n	c86 <_vfprintf_r+0x482>
     c82:	f000 ff02 	bl	1a8a <_vfprintf_r+0x1286>
     c86:	ab1e      	add	r3, sp, #120	; 0x78
     c88:	7fdb      	ldrb	r3, [r3, #31]
     c8a:	3408      	adds	r4, #8
     c8c:	e701      	b.n	a92 <_vfprintf_r+0x28e>
     c8e:	9b17      	ldr	r3, [sp, #92]	; 0x5c
     c90:	6025      	str	r5, [r4, #0]
     c92:	2b01      	cmp	r3, #1
     c94:	dc01      	bgt.n	c9a <_vfprintf_r+0x496>
     c96:	f000 fc0e 	bl	14b6 <_vfprintf_r+0xcb2>
     c9a:	2301      	movs	r3, #1
     c9c:	9f31      	ldr	r7, [sp, #196]	; 0xc4
     c9e:	3601      	adds	r6, #1
     ca0:	3701      	adds	r7, #1
     ca2:	6063      	str	r3, [r4, #4]
     ca4:	9632      	str	r6, [sp, #200]	; 0xc8
     ca6:	9731      	str	r7, [sp, #196]	; 0xc4
     ca8:	2f07      	cmp	r7, #7
     caa:	dd01      	ble.n	cb0 <_vfprintf_r+0x4ac>
     cac:	f000 fec7 	bl	1a3e <_vfprintf_r+0x123a>
     cb0:	3408      	adds	r4, #8
     cb2:	9b1d      	ldr	r3, [sp, #116]	; 0x74
     cb4:	3701      	adds	r7, #1
     cb6:	6023      	str	r3, [r4, #0]
     cb8:	9b1c      	ldr	r3, [sp, #112]	; 0x70
     cba:	9731      	str	r7, [sp, #196]	; 0xc4
     cbc:	469c      	mov	ip, r3
     cbe:	4466      	add	r6, ip
     cc0:	6063      	str	r3, [r4, #4]
     cc2:	9632      	str	r6, [sp, #200]	; 0xc8
     cc4:	2f07      	cmp	r7, #7
     cc6:	dd01      	ble.n	ccc <_vfprintf_r+0x4c8>
     cc8:	f000 fec6 	bl	1a58 <_vfprintf_r+0x1254>
     ccc:	3408      	adds	r4, #8
     cce:	2200      	movs	r2, #0
     cd0:	9818      	ldr	r0, [sp, #96]	; 0x60
     cd2:	9919      	ldr	r1, [sp, #100]	; 0x64
     cd4:	2300      	movs	r3, #0
     cd6:	f008 fa85 	bl	91e4 <__aeabi_dcmpeq>
     cda:	2800      	cmp	r0, #0
     cdc:	d001      	beq.n	ce2 <_vfprintf_r+0x4de>
     cde:	f000 fc07 	bl	14f0 <_vfprintf_r+0xcec>
     ce2:	9b17      	ldr	r3, [sp, #92]	; 0x5c
     ce4:	3501      	adds	r5, #1
     ce6:	3b01      	subs	r3, #1
     ce8:	18f6      	adds	r6, r6, r3
     cea:	3701      	adds	r7, #1
     cec:	6025      	str	r5, [r4, #0]
     cee:	6063      	str	r3, [r4, #4]
     cf0:	9632      	str	r6, [sp, #200]	; 0xc8
     cf2:	9731      	str	r7, [sp, #196]	; 0xc4
     cf4:	2f07      	cmp	r7, #7
     cf6:	dd01      	ble.n	cfc <_vfprintf_r+0x4f8>
     cf8:	f000 fbed 	bl	14d6 <_vfprintf_r+0xcd2>
     cfc:	3408      	adds	r4, #8
     cfe:	ab2a      	add	r3, sp, #168	; 0xa8
     d00:	6023      	str	r3, [r4, #0]
     d02:	9b1f      	ldr	r3, [sp, #124]	; 0x7c
     d04:	3701      	adds	r7, #1
     d06:	469c      	mov	ip, r3
     d08:	4466      	add	r6, ip
     d0a:	6063      	str	r3, [r4, #4]
     d0c:	9632      	str	r6, [sp, #200]	; 0xc8
     d0e:	9731      	str	r7, [sp, #196]	; 0xc4
     d10:	2f07      	cmp	r7, #7
     d12:	dc00      	bgt.n	d16 <_vfprintf_r+0x512>
     d14:	e6fb      	b.n	b0e <_vfprintf_r+0x30a>
     d16:	4659      	mov	r1, fp
     d18:	4640      	mov	r0, r8
     d1a:	aa30      	add	r2, sp, #192	; 0xc0
     d1c:	f001 fcf6 	bl	270c <__sprint_r>
     d20:	2800      	cmp	r0, #0
     d22:	d000      	beq.n	d26 <_vfprintf_r+0x522>
     d24:	e2be      	b.n	12a4 <_vfprintf_r+0xaa0>
     d26:	9e32      	ldr	r6, [sp, #200]	; 0xc8
     d28:	ac33      	add	r4, sp, #204	; 0xcc
     d2a:	e6f1      	b.n	b10 <_vfprintf_r+0x30c>
     d2c:	2320      	movs	r3, #32
     d2e:	431e      	orrs	r6, r3
     d30:	9b06      	ldr	r3, [sp, #24]
     d32:	781b      	ldrb	r3, [r3, #0]
     d34:	e5f4      	b.n	920 <_vfprintf_r+0x11c>
     d36:	9313      	str	r3, [sp, #76]	; 0x4c
     d38:	9b0f      	ldr	r3, [sp, #60]	; 0x3c
     d3a:	aa1e      	add	r2, sp, #120	; 0x78
     d3c:	cb20      	ldmia	r3!, {r5}
     d3e:	46b2      	mov	sl, r6
     d40:	4699      	mov	r9, r3
     d42:	2300      	movs	r3, #0
     d44:	46b8      	mov	r8, r7
     d46:	77d3      	strb	r3, [r2, #31]
     d48:	2d00      	cmp	r5, #0
     d4a:	d101      	bne.n	d50 <_vfprintf_r+0x54c>
     d4c:	f000 fd4e 	bl	17ec <_vfprintf_r+0xfe8>
     d50:	9b13      	ldr	r3, [sp, #76]	; 0x4c
     d52:	2b53      	cmp	r3, #83	; 0x53
     d54:	d101      	bne.n	d5a <_vfprintf_r+0x556>
     d56:	f000 febd 	bl	1ad4 <_vfprintf_r+0x12d0>
     d5a:	2310      	movs	r3, #16
     d5c:	0032      	movs	r2, r6
     d5e:	401a      	ands	r2, r3
     d60:	9216      	str	r2, [sp, #88]	; 0x58
     d62:	4233      	tst	r3, r6
     d64:	d001      	beq.n	d6a <_vfprintf_r+0x566>
     d66:	f000 feb5 	bl	1ad4 <_vfprintf_r+0x12d0>
     d6a:	9a08      	ldr	r2, [sp, #32]
     d6c:	1c53      	adds	r3, r2, #1
     d6e:	d101      	bne.n	d74 <_vfprintf_r+0x570>
     d70:	f001 f89c 	bl	1eac <_vfprintf_r+0x16a8>
     d74:	2100      	movs	r1, #0
     d76:	0028      	movs	r0, r5
     d78:	f005 fa50 	bl	621c <memchr>
     d7c:	900e      	str	r0, [sp, #56]	; 0x38
     d7e:	2800      	cmp	r0, #0
     d80:	d101      	bne.n	d86 <_vfprintf_r+0x582>
     d82:	f001 fb73 	bl	246c <_vfprintf_r+0x1c68>
     d86:	9b0e      	ldr	r3, [sp, #56]	; 0x38
     d88:	1b59      	subs	r1, r3, r5
     d8a:	43ca      	mvns	r2, r1
     d8c:	17d2      	asrs	r2, r2, #31
     d8e:	910a      	str	r1, [sp, #40]	; 0x28
     d90:	4011      	ands	r1, r2
     d92:	464a      	mov	r2, r9
     d94:	920f      	str	r2, [sp, #60]	; 0x3c
     d96:	2200      	movs	r2, #0
     d98:	ab1e      	add	r3, sp, #120	; 0x78
     d9a:	9208      	str	r2, [sp, #32]
     d9c:	921a      	str	r2, [sp, #104]	; 0x68
     d9e:	9215      	str	r2, [sp, #84]	; 0x54
     da0:	920e      	str	r2, [sp, #56]	; 0x38
     da2:	3273      	adds	r2, #115	; 0x73
     da4:	7fdb      	ldrb	r3, [r3, #31]
     da6:	9107      	str	r1, [sp, #28]
     da8:	9213      	str	r2, [sp, #76]	; 0x4c
     daa:	e0b3      	b.n	f14 <_vfprintf_r+0x710>
     dac:	46b2      	mov	sl, r6
     dae:	46b8      	mov	r8, r7
     db0:	9313      	str	r3, [sp, #76]	; 0x4c
     db2:	2b43      	cmp	r3, #67	; 0x43
     db4:	d101      	bne.n	dba <_vfprintf_r+0x5b6>
     db6:	f000 fd2d 	bl	1814 <_vfprintf_r+0x1010>
     dba:	0033      	movs	r3, r6
     dbc:	06db      	lsls	r3, r3, #27
     dbe:	d501      	bpl.n	dc4 <_vfprintf_r+0x5c0>
     dc0:	f000 fd28 	bl	1814 <_vfprintf_r+0x1010>
     dc4:	9b0f      	ldr	r3, [sp, #60]	; 0x3c
     dc6:	ad43      	add	r5, sp, #268	; 0x10c
     dc8:	cb04      	ldmia	r3!, {r2}
     dca:	930f      	str	r3, [sp, #60]	; 0x3c
     dcc:	2301      	movs	r3, #1
     dce:	702a      	strb	r2, [r5, #0]
     dd0:	9307      	str	r3, [sp, #28]
     dd2:	930a      	str	r3, [sp, #40]	; 0x28
     dd4:	2300      	movs	r3, #0
     dd6:	aa1e      	add	r2, sp, #120	; 0x78
     dd8:	77d3      	strb	r3, [r2, #31]
     dda:	2200      	movs	r2, #0
     ddc:	920e      	str	r2, [sp, #56]	; 0x38
     dde:	9208      	str	r2, [sp, #32]
     de0:	921a      	str	r2, [sp, #104]	; 0x68
     de2:	9215      	str	r2, [sp, #84]	; 0x54
     de4:	9216      	str	r2, [sp, #88]	; 0x58
     de6:	e63c      	b.n	a62 <_vfprintf_r+0x25e>
     de8:	9a0f      	ldr	r2, [sp, #60]	; 0x3c
     dea:	ca08      	ldmia	r2!, {r3}
     dec:	930b      	str	r3, [sp, #44]	; 0x2c
     dee:	2b00      	cmp	r3, #0
     df0:	db01      	blt.n	df6 <_vfprintf_r+0x5f2>
     df2:	f000 fbe7 	bl	15c4 <_vfprintf_r+0xdc0>
     df6:	9b0b      	ldr	r3, [sp, #44]	; 0x2c
     df8:	920f      	str	r2, [sp, #60]	; 0x3c
     dfa:	425b      	negs	r3, r3
     dfc:	930b      	str	r3, [sp, #44]	; 0x2c
     dfe:	2304      	movs	r3, #4
     e00:	431e      	orrs	r6, r3
     e02:	9b06      	ldr	r3, [sp, #24]
     e04:	781b      	ldrb	r3, [r3, #0]
     e06:	e58b      	b.n	920 <_vfprintf_r+0x11c>
     e08:	9b06      	ldr	r3, [sp, #24]
     e0a:	781b      	ldrb	r3, [r3, #0]
     e0c:	2b68      	cmp	r3, #104	; 0x68
     e0e:	d101      	bne.n	e14 <_vfprintf_r+0x610>
     e10:	f000 fcbe 	bl	1790 <_vfprintf_r+0xf8c>
     e14:	2240      	movs	r2, #64	; 0x40
     e16:	4316      	orrs	r6, r2
     e18:	e582      	b.n	920 <_vfprintf_r+0x11c>
     e1a:	232b      	movs	r3, #43	; 0x2b
     e1c:	aa1e      	add	r2, sp, #120	; 0x78
     e1e:	77d3      	strb	r3, [r2, #31]
     e20:	9b06      	ldr	r3, [sp, #24]
     e22:	781b      	ldrb	r3, [r3, #0]
     e24:	e57c      	b.n	920 <_vfprintf_r+0x11c>
     e26:	2380      	movs	r3, #128	; 0x80
     e28:	431e      	orrs	r6, r3
     e2a:	9b06      	ldr	r3, [sp, #24]
     e2c:	781b      	ldrb	r3, [r3, #0]
     e2e:	e577      	b.n	920 <_vfprintf_r+0x11c>
     e30:	9b06      	ldr	r3, [sp, #24]
     e32:	1c58      	adds	r0, r3, #1
     e34:	781b      	ldrb	r3, [r3, #0]
     e36:	2b2a      	cmp	r3, #42	; 0x2a
     e38:	d101      	bne.n	e3e <_vfprintf_r+0x63a>
     e3a:	f001 fb85 	bl	2548 <_vfprintf_r+0x1d44>
     e3e:	001a      	movs	r2, r3
     e40:	2100      	movs	r1, #0
     e42:	3a30      	subs	r2, #48	; 0x30
     e44:	4680      	mov	r8, r0
     e46:	9108      	str	r1, [sp, #32]
     e48:	2a09      	cmp	r2, #9
     e4a:	d901      	bls.n	e50 <_vfprintf_r+0x64c>
     e4c:	f001 fa3f 	bl	22ce <_vfprintf_r+0x1aca>
     e50:	2000      	movs	r0, #0
     e52:	46a4      	mov	ip, r4
     e54:	4641      	mov	r1, r8
     e56:	0083      	lsls	r3, r0, #2
     e58:	1818      	adds	r0, r3, r0
     e5a:	000b      	movs	r3, r1
     e5c:	781b      	ldrb	r3, [r3, #0]
     e5e:	0040      	lsls	r0, r0, #1
     e60:	1880      	adds	r0, r0, r2
     e62:	001a      	movs	r2, r3
     e64:	3a30      	subs	r2, #48	; 0x30
     e66:	3101      	adds	r1, #1
     e68:	2a09      	cmp	r2, #9
     e6a:	d9f4      	bls.n	e56 <_vfprintf_r+0x652>
     e6c:	4664      	mov	r4, ip
     e6e:	9106      	str	r1, [sp, #24]
     e70:	9008      	str	r0, [sp, #32]
     e72:	e558      	b.n	926 <_vfprintf_r+0x122>
     e74:	2301      	movs	r3, #1
     e76:	431e      	orrs	r6, r3
     e78:	9b06      	ldr	r3, [sp, #24]
     e7a:	781b      	ldrb	r3, [r3, #0]
     e7c:	e550      	b.n	920 <_vfprintf_r+0x11c>
     e7e:	ab1e      	add	r3, sp, #120	; 0x78
     e80:	7fdb      	ldrb	r3, [r3, #31]
     e82:	2b00      	cmp	r3, #0
     e84:	d000      	beq.n	e88 <_vfprintf_r+0x684>
     e86:	e58f      	b.n	9a8 <_vfprintf_r+0x1a4>
     e88:	2320      	movs	r3, #32
     e8a:	aa1e      	add	r2, sp, #120	; 0x78
     e8c:	77d3      	strb	r3, [r2, #31]
     e8e:	9b06      	ldr	r3, [sp, #24]
     e90:	781b      	ldrb	r3, [r3, #0]
     e92:	e545      	b.n	920 <_vfprintf_r+0x11c>
     e94:	46b2      	mov	sl, r6
     e96:	9313      	str	r3, [sp, #76]	; 0x4c
     e98:	2610      	movs	r6, #16
     e9a:	4653      	mov	r3, sl
     e9c:	4333      	orrs	r3, r6
     e9e:	46b8      	mov	r8, r7
     ea0:	001e      	movs	r6, r3
     ea2:	06b3      	lsls	r3, r6, #26
     ea4:	d400      	bmi.n	ea8 <_vfprintf_r+0x6a4>
     ea6:	e379      	b.n	159c <_vfprintf_r+0xd98>
     ea8:	2207      	movs	r2, #7
     eaa:	9b0f      	ldr	r3, [sp, #60]	; 0x3c
     eac:	3307      	adds	r3, #7
     eae:	4393      	bics	r3, r2
     eb0:	0019      	movs	r1, r3
     eb2:	c90c      	ldmia	r1!, {r2, r3}
     eb4:	920c      	str	r2, [sp, #48]	; 0x30
     eb6:	930d      	str	r3, [sp, #52]	; 0x34
     eb8:	2301      	movs	r3, #1
     eba:	910f      	str	r1, [sp, #60]	; 0x3c
     ebc:	2200      	movs	r2, #0
     ebe:	9808      	ldr	r0, [sp, #32]
     ec0:	a91e      	add	r1, sp, #120	; 0x78
     ec2:	77ca      	strb	r2, [r1, #31]
     ec4:	1c42      	adds	r2, r0, #1
     ec6:	d100      	bne.n	eca <_vfprintf_r+0x6c6>
     ec8:	e0ce      	b.n	1068 <_vfprintf_r+0x864>
     eca:	2280      	movs	r2, #128	; 0x80
     ecc:	0031      	movs	r1, r6
     ece:	4391      	bics	r1, r2
     ed0:	468a      	mov	sl, r1
     ed2:	990c      	ldr	r1, [sp, #48]	; 0x30
     ed4:	9a0d      	ldr	r2, [sp, #52]	; 0x34
     ed6:	000d      	movs	r5, r1
     ed8:	4315      	orrs	r5, r2
     eda:	d000      	beq.n	ede <_vfprintf_r+0x6da>
     edc:	e0c3      	b.n	1066 <_vfprintf_r+0x862>
     ede:	2800      	cmp	r0, #0
     ee0:	d001      	beq.n	ee6 <_vfprintf_r+0x6e2>
     ee2:	f000 fe6c 	bl	1bbe <_vfprintf_r+0x13ba>
     ee6:	2b00      	cmp	r3, #0
     ee8:	d14b      	bne.n	f82 <_vfprintf_r+0x77e>
     eea:	3301      	adds	r3, #1
     eec:	001a      	movs	r2, r3
     eee:	4032      	ands	r2, r6
     ef0:	920a      	str	r2, [sp, #40]	; 0x28
     ef2:	ad5c      	add	r5, sp, #368	; 0x170
     ef4:	4233      	tst	r3, r6
     ef6:	d000      	beq.n	efa <_vfprintf_r+0x6f6>
     ef8:	e369      	b.n	15ce <_vfprintf_r+0xdca>
     efa:	9a0a      	ldr	r2, [sp, #40]	; 0x28
     efc:	9908      	ldr	r1, [sp, #32]
     efe:	ab1e      	add	r3, sp, #120	; 0x78
     f00:	7fdb      	ldrb	r3, [r3, #31]
     f02:	9207      	str	r2, [sp, #28]
     f04:	428a      	cmp	r2, r1
     f06:	da00      	bge.n	f0a <_vfprintf_r+0x706>
     f08:	9107      	str	r1, [sp, #28]
     f0a:	2200      	movs	r2, #0
     f0c:	920e      	str	r2, [sp, #56]	; 0x38
     f0e:	921a      	str	r2, [sp, #104]	; 0x68
     f10:	9215      	str	r2, [sp, #84]	; 0x54
     f12:	9216      	str	r2, [sp, #88]	; 0x58
     f14:	2b00      	cmp	r3, #0
     f16:	d100      	bne.n	f1a <_vfprintf_r+0x716>
     f18:	e5a3      	b.n	a62 <_vfprintf_r+0x25e>
     f1a:	9a07      	ldr	r2, [sp, #28]
     f1c:	3201      	adds	r2, #1
     f1e:	9207      	str	r2, [sp, #28]
     f20:	e59f      	b.n	a62 <_vfprintf_r+0x25e>
     f22:	46c0      	nop			; (mov r8, r8)
     f24:	7fefffff 	.word	0x7fefffff
     f28:	0000bda0 	.word	0x0000bda0
     f2c:	0000bfe4 	.word	0x0000bfe4
     f30:	0032      	movs	r2, r6
     f32:	9313      	str	r3, [sp, #76]	; 0x4c
     f34:	2310      	movs	r3, #16
     f36:	431a      	orrs	r2, r3
     f38:	46b8      	mov	r8, r7
     f3a:	4692      	mov	sl, r2
     f3c:	4653      	mov	r3, sl
     f3e:	069b      	lsls	r3, r3, #26
     f40:	d400      	bmi.n	f44 <_vfprintf_r+0x740>
     f42:	e315      	b.n	1570 <_vfprintf_r+0xd6c>
     f44:	2307      	movs	r3, #7
     f46:	9a0f      	ldr	r2, [sp, #60]	; 0x3c
     f48:	3207      	adds	r2, #7
     f4a:	439a      	bics	r2, r3
     f4c:	3301      	adds	r3, #1
     f4e:	469c      	mov	ip, r3
     f50:	4494      	add	ip, r2
     f52:	4663      	mov	r3, ip
     f54:	930f      	str	r3, [sp, #60]	; 0x3c
     f56:	6853      	ldr	r3, [r2, #4]
     f58:	6812      	ldr	r2, [r2, #0]
     f5a:	930d      	str	r3, [sp, #52]	; 0x34
     f5c:	920c      	str	r2, [sp, #48]	; 0x30
     f5e:	2b00      	cmp	r3, #0
     f60:	da00      	bge.n	f64 <_vfprintf_r+0x760>
     f62:	e310      	b.n	1586 <_vfprintf_r+0xd82>
     f64:	9b08      	ldr	r3, [sp, #32]
     f66:	4656      	mov	r6, sl
     f68:	3301      	adds	r3, #1
     f6a:	d00f      	beq.n	f8c <_vfprintf_r+0x788>
     f6c:	2380      	movs	r3, #128	; 0x80
     f6e:	439e      	bics	r6, r3
     f70:	9a0c      	ldr	r2, [sp, #48]	; 0x30
     f72:	9b0d      	ldr	r3, [sp, #52]	; 0x34
     f74:	0011      	movs	r1, r2
     f76:	4319      	orrs	r1, r3
     f78:	d108      	bne.n	f8c <_vfprintf_r+0x788>
     f7a:	9b08      	ldr	r3, [sp, #32]
     f7c:	2b00      	cmp	r3, #0
     f7e:	d10f      	bne.n	fa0 <_vfprintf_r+0x79c>
     f80:	46b2      	mov	sl, r6
     f82:	2300      	movs	r3, #0
     f84:	ad5c      	add	r5, sp, #368	; 0x170
     f86:	9308      	str	r3, [sp, #32]
     f88:	930a      	str	r3, [sp, #40]	; 0x28
     f8a:	e7b6      	b.n	efa <_vfprintf_r+0x6f6>
     f8c:	9a0c      	ldr	r2, [sp, #48]	; 0x30
     f8e:	9b0d      	ldr	r3, [sp, #52]	; 0x34
     f90:	2b00      	cmp	r3, #0
     f92:	d001      	beq.n	f98 <_vfprintf_r+0x794>
     f94:	f000 fc59 	bl	184a <_vfprintf_r+0x1046>
     f98:	2a09      	cmp	r2, #9
     f9a:	d901      	bls.n	fa0 <_vfprintf_r+0x79c>
     f9c:	f000 fc55 	bl	184a <_vfprintf_r+0x1046>
     fa0:	2263      	movs	r2, #99	; 0x63
     fa2:	9b0c      	ldr	r3, [sp, #48]	; 0x30
     fa4:	a943      	add	r1, sp, #268	; 0x10c
     fa6:	3330      	adds	r3, #48	; 0x30
     fa8:	548b      	strb	r3, [r1, r2]
     faa:	2301      	movs	r3, #1
     fac:	930a      	str	r3, [sp, #40]	; 0x28
     fae:	ab1e      	add	r3, sp, #120	; 0x78
     fb0:	25f7      	movs	r5, #247	; 0xf7
     fb2:	469c      	mov	ip, r3
     fb4:	46b2      	mov	sl, r6
     fb6:	4465      	add	r5, ip
     fb8:	e79f      	b.n	efa <_vfprintf_r+0x6f6>
     fba:	0032      	movs	r2, r6
     fbc:	9313      	str	r3, [sp, #76]	; 0x4c
     fbe:	2310      	movs	r3, #16
     fc0:	431a      	orrs	r2, r3
     fc2:	46b8      	mov	r8, r7
     fc4:	4692      	mov	sl, r2
     fc6:	4653      	mov	r3, sl
     fc8:	069b      	lsls	r3, r3, #26
     fca:	d400      	bmi.n	fce <_vfprintf_r+0x7ca>
     fcc:	e2c2      	b.n	1554 <_vfprintf_r+0xd50>
     fce:	2207      	movs	r2, #7
     fd0:	9b0f      	ldr	r3, [sp, #60]	; 0x3c
     fd2:	3307      	adds	r3, #7
     fd4:	4393      	bics	r3, r2
     fd6:	0019      	movs	r1, r3
     fd8:	c90c      	ldmia	r1!, {r2, r3}
     fda:	920c      	str	r2, [sp, #48]	; 0x30
     fdc:	930d      	str	r3, [sp, #52]	; 0x34
     fde:	910f      	str	r1, [sp, #60]	; 0x3c
     fe0:	4653      	mov	r3, sl
     fe2:	4ecd      	ldr	r6, [pc, #820]	; (1318 <_vfprintf_r+0xb14>)
     fe4:	4033      	ands	r3, r6
     fe6:	001e      	movs	r6, r3
     fe8:	2300      	movs	r3, #0
     fea:	e767      	b.n	ebc <_vfprintf_r+0x6b8>
     fec:	2308      	movs	r3, #8
     fee:	431e      	orrs	r6, r3
     ff0:	9b06      	ldr	r3, [sp, #24]
     ff2:	781b      	ldrb	r3, [r3, #0]
     ff4:	e494      	b.n	920 <_vfprintf_r+0x11c>
     ff6:	9b0f      	ldr	r3, [sp, #60]	; 0x3c
     ff8:	46b2      	mov	sl, r6
     ffa:	cb04      	ldmia	r3!, {r2}
     ffc:	2602      	movs	r6, #2
     ffe:	920c      	str	r2, [sp, #48]	; 0x30
    1000:	2200      	movs	r2, #0
    1002:	920d      	str	r2, [sp, #52]	; 0x34
    1004:	4652      	mov	r2, sl
    1006:	49c5      	ldr	r1, [pc, #788]	; (131c <_vfprintf_r+0xb18>)
    1008:	4332      	orrs	r2, r6
    100a:	0016      	movs	r6, r2
    100c:	aa26      	add	r2, sp, #152	; 0x98
    100e:	8011      	strh	r1, [r2, #0]
    1010:	2278      	movs	r2, #120	; 0x78
    1012:	930f      	str	r3, [sp, #60]	; 0x3c
    1014:	4bc2      	ldr	r3, [pc, #776]	; (1320 <_vfprintf_r+0xb1c>)
    1016:	46b8      	mov	r8, r7
    1018:	931e      	str	r3, [sp, #120]	; 0x78
    101a:	9213      	str	r2, [sp, #76]	; 0x4c
    101c:	2302      	movs	r3, #2
    101e:	e74d      	b.n	ebc <_vfprintf_r+0x6b8>
    1020:	0033      	movs	r3, r6
    1022:	46b8      	mov	r8, r7
    1024:	069b      	lsls	r3, r3, #26
    1026:	d500      	bpl.n	102a <_vfprintf_r+0x826>
    1028:	e335      	b.n	1696 <_vfprintf_r+0xe92>
    102a:	0033      	movs	r3, r6
    102c:	06db      	lsls	r3, r3, #27
    102e:	d501      	bpl.n	1034 <_vfprintf_r+0x830>
    1030:	f000 fdcc 	bl	1bcc <_vfprintf_r+0x13c8>
    1034:	0033      	movs	r3, r6
    1036:	065b      	lsls	r3, r3, #25
    1038:	d501      	bpl.n	103e <_vfprintf_r+0x83a>
    103a:	f000 ff2f 	bl	1e9c <_vfprintf_r+0x1698>
    103e:	0033      	movs	r3, r6
    1040:	059b      	lsls	r3, r3, #22
    1042:	d401      	bmi.n	1048 <_vfprintf_r+0x844>
    1044:	f000 fdc2 	bl	1bcc <_vfprintf_r+0x13c8>
    1048:	9b0f      	ldr	r3, [sp, #60]	; 0x3c
    104a:	9909      	ldr	r1, [sp, #36]	; 0x24
    104c:	cb04      	ldmia	r3!, {r2}
    104e:	9d06      	ldr	r5, [sp, #24]
    1050:	7011      	strb	r1, [r2, #0]
    1052:	930f      	str	r3, [sp, #60]	; 0x3c
    1054:	e435      	b.n	8c2 <_vfprintf_r+0xbe>
    1056:	9b06      	ldr	r3, [sp, #24]
    1058:	781b      	ldrb	r3, [r3, #0]
    105a:	2b6c      	cmp	r3, #108	; 0x6c
    105c:	d100      	bne.n	1060 <_vfprintf_r+0x85c>
    105e:	e3b6      	b.n	17ce <_vfprintf_r+0xfca>
    1060:	2210      	movs	r2, #16
    1062:	4316      	orrs	r6, r2
    1064:	e45c      	b.n	920 <_vfprintf_r+0x11c>
    1066:	4656      	mov	r6, sl
    1068:	2b01      	cmp	r3, #1
    106a:	d08f      	beq.n	f8c <_vfprintf_r+0x788>
    106c:	ad5c      	add	r5, sp, #368	; 0x170
    106e:	2b02      	cmp	r3, #2
    1070:	d026      	beq.n	10c0 <_vfprintf_r+0x8bc>
    1072:	2307      	movs	r3, #7
    1074:	46b2      	mov	sl, r6
    1076:	46a1      	mov	r9, r4
    1078:	469c      	mov	ip, r3
    107a:	9a0c      	ldr	r2, [sp, #48]	; 0x30
    107c:	9b0d      	ldr	r3, [sp, #52]	; 0x34
    107e:	075e      	lsls	r6, r3, #29
    1080:	08d7      	lsrs	r7, r2, #3
    1082:	4661      	mov	r1, ip
    1084:	08d8      	lsrs	r0, r3, #3
    1086:	433e      	orrs	r6, r7
    1088:	0003      	movs	r3, r0
    108a:	0030      	movs	r0, r6
    108c:	4011      	ands	r1, r2
    108e:	002c      	movs	r4, r5
    1090:	3130      	adds	r1, #48	; 0x30
    1092:	3d01      	subs	r5, #1
    1094:	0032      	movs	r2, r6
    1096:	7029      	strb	r1, [r5, #0]
    1098:	4318      	orrs	r0, r3
    109a:	d1f0      	bne.n	107e <_vfprintf_r+0x87a>
    109c:	4656      	mov	r6, sl
    109e:	0027      	movs	r7, r4
    10a0:	920c      	str	r2, [sp, #48]	; 0x30
    10a2:	930d      	str	r3, [sp, #52]	; 0x34
    10a4:	464c      	mov	r4, r9
    10a6:	07f2      	lsls	r2, r6, #31
    10a8:	d522      	bpl.n	10f0 <_vfprintf_r+0x8ec>
    10aa:	2930      	cmp	r1, #48	; 0x30
    10ac:	d020      	beq.n	10f0 <_vfprintf_r+0x8ec>
    10ae:	2330      	movs	r3, #48	; 0x30
    10b0:	3d01      	subs	r5, #1
    10b2:	3f02      	subs	r7, #2
    10b4:	702b      	strb	r3, [r5, #0]
    10b6:	ab5c      	add	r3, sp, #368	; 0x170
    10b8:	1bdb      	subs	r3, r3, r7
    10ba:	003d      	movs	r5, r7
    10bc:	930a      	str	r3, [sp, #40]	; 0x28
    10be:	e71c      	b.n	efa <_vfprintf_r+0x6f6>
    10c0:	200f      	movs	r0, #15
    10c2:	9a0c      	ldr	r2, [sp, #48]	; 0x30
    10c4:	9b0d      	ldr	r3, [sp, #52]	; 0x34
    10c6:	46a1      	mov	r9, r4
    10c8:	46b4      	mov	ip, r6
    10ca:	9e1e      	ldr	r6, [sp, #120]	; 0x78
    10cc:	0001      	movs	r1, r0
    10ce:	4011      	ands	r1, r2
    10d0:	5c71      	ldrb	r1, [r6, r1]
    10d2:	071c      	lsls	r4, r3, #28
    10d4:	0917      	lsrs	r7, r2, #4
    10d6:	3d01      	subs	r5, #1
    10d8:	433c      	orrs	r4, r7
    10da:	7029      	strb	r1, [r5, #0]
    10dc:	0919      	lsrs	r1, r3, #4
    10de:	000b      	movs	r3, r1
    10e0:	0021      	movs	r1, r4
    10e2:	0022      	movs	r2, r4
    10e4:	4319      	orrs	r1, r3
    10e6:	d1f1      	bne.n	10cc <_vfprintf_r+0x8c8>
    10e8:	4666      	mov	r6, ip
    10ea:	464c      	mov	r4, r9
    10ec:	920c      	str	r2, [sp, #48]	; 0x30
    10ee:	930d      	str	r3, [sp, #52]	; 0x34
    10f0:	ab5c      	add	r3, sp, #368	; 0x170
    10f2:	1b5b      	subs	r3, r3, r5
    10f4:	46b2      	mov	sl, r6
    10f6:	930a      	str	r3, [sp, #40]	; 0x28
    10f8:	e6ff      	b.n	efa <_vfprintf_r+0x6f6>
    10fa:	9b13      	ldr	r3, [sp, #76]	; 0x4c
    10fc:	2b65      	cmp	r3, #101	; 0x65
    10fe:	dc00      	bgt.n	1102 <_vfprintf_r+0x8fe>
    1100:	e5c5      	b.n	c8e <_vfprintf_r+0x48a>
    1102:	9818      	ldr	r0, [sp, #96]	; 0x60
    1104:	9919      	ldr	r1, [sp, #100]	; 0x64
    1106:	2200      	movs	r2, #0
    1108:	2300      	movs	r3, #0
    110a:	f008 f86b 	bl	91e4 <__aeabi_dcmpeq>
    110e:	2800      	cmp	r0, #0
    1110:	d100      	bne.n	1114 <_vfprintf_r+0x910>
    1112:	e149      	b.n	13a8 <_vfprintf_r+0xba4>
    1114:	4b83      	ldr	r3, [pc, #524]	; (1324 <_vfprintf_r+0xb20>)
    1116:	3601      	adds	r6, #1
    1118:	6023      	str	r3, [r4, #0]
    111a:	2301      	movs	r3, #1
    111c:	6063      	str	r3, [r4, #4]
    111e:	9b31      	ldr	r3, [sp, #196]	; 0xc4
    1120:	9632      	str	r6, [sp, #200]	; 0xc8
    1122:	3301      	adds	r3, #1
    1124:	9331      	str	r3, [sp, #196]	; 0xc4
    1126:	2b07      	cmp	r3, #7
    1128:	dd01      	ble.n	112e <_vfprintf_r+0x92a>
    112a:	f000 fcc6 	bl	1aba <_vfprintf_r+0x12b6>
    112e:	3408      	adds	r4, #8
    1130:	9b27      	ldr	r3, [sp, #156]	; 0x9c
    1132:	9a17      	ldr	r2, [sp, #92]	; 0x5c
    1134:	4293      	cmp	r3, r2
    1136:	db00      	blt.n	113a <_vfprintf_r+0x936>
    1138:	e23a      	b.n	15b0 <_vfprintf_r+0xdac>
    113a:	9b1d      	ldr	r3, [sp, #116]	; 0x74
    113c:	6023      	str	r3, [r4, #0]
    113e:	9b1c      	ldr	r3, [sp, #112]	; 0x70
    1140:	469c      	mov	ip, r3
    1142:	6063      	str	r3, [r4, #4]
    1144:	9b31      	ldr	r3, [sp, #196]	; 0xc4
    1146:	4466      	add	r6, ip
    1148:	3301      	adds	r3, #1
    114a:	9632      	str	r6, [sp, #200]	; 0xc8
    114c:	9331      	str	r3, [sp, #196]	; 0xc4
    114e:	2b07      	cmp	r3, #7
    1150:	dd00      	ble.n	1154 <_vfprintf_r+0x950>
    1152:	e326      	b.n	17a2 <_vfprintf_r+0xf9e>
    1154:	3408      	adds	r4, #8
    1156:	9b17      	ldr	r3, [sp, #92]	; 0x5c
    1158:	1e5d      	subs	r5, r3, #1
    115a:	2d00      	cmp	r5, #0
    115c:	dc00      	bgt.n	1160 <_vfprintf_r+0x95c>
    115e:	e4d7      	b.n	b10 <_vfprintf_r+0x30c>
    1160:	4a71      	ldr	r2, [pc, #452]	; (1328 <_vfprintf_r+0xb24>)
    1162:	9b31      	ldr	r3, [sp, #196]	; 0xc4
    1164:	4691      	mov	r9, r2
    1166:	2d10      	cmp	r5, #16
    1168:	dc01      	bgt.n	116e <_vfprintf_r+0x96a>
    116a:	f000 fd1b 	bl	1ba4 <_vfprintf_r+0x13a0>
    116e:	0032      	movs	r2, r6
    1170:	2710      	movs	r7, #16
    1172:	464e      	mov	r6, r9
    1174:	e005      	b.n	1182 <_vfprintf_r+0x97e>
    1176:	3408      	adds	r4, #8
    1178:	3d10      	subs	r5, #16
    117a:	2d10      	cmp	r5, #16
    117c:	dc01      	bgt.n	1182 <_vfprintf_r+0x97e>
    117e:	f000 fd0f 	bl	1ba0 <_vfprintf_r+0x139c>
    1182:	3210      	adds	r2, #16
    1184:	3301      	adds	r3, #1
    1186:	6026      	str	r6, [r4, #0]
    1188:	6067      	str	r7, [r4, #4]
    118a:	9232      	str	r2, [sp, #200]	; 0xc8
    118c:	9331      	str	r3, [sp, #196]	; 0xc4
    118e:	2b07      	cmp	r3, #7
    1190:	ddf1      	ble.n	1176 <_vfprintf_r+0x972>
    1192:	4659      	mov	r1, fp
    1194:	4640      	mov	r0, r8
    1196:	aa30      	add	r2, sp, #192	; 0xc0
    1198:	f001 fab8 	bl	270c <__sprint_r>
    119c:	2800      	cmp	r0, #0
    119e:	d000      	beq.n	11a2 <_vfprintf_r+0x99e>
    11a0:	e080      	b.n	12a4 <_vfprintf_r+0xaa0>
    11a2:	9a32      	ldr	r2, [sp, #200]	; 0xc8
    11a4:	9b31      	ldr	r3, [sp, #196]	; 0xc4
    11a6:	ac33      	add	r4, sp, #204	; 0xcc
    11a8:	e7e6      	b.n	1178 <_vfprintf_r+0x974>
    11aa:	9b0b      	ldr	r3, [sp, #44]	; 0x2c
    11ac:	9a07      	ldr	r2, [sp, #28]
    11ae:	1a9f      	subs	r7, r3, r2
    11b0:	2f00      	cmp	r7, #0
    11b2:	dc00      	bgt.n	11b6 <_vfprintf_r+0x9b2>
    11b4:	e495      	b.n	ae2 <_vfprintf_r+0x2de>
    11b6:	4a5c      	ldr	r2, [pc, #368]	; (1328 <_vfprintf_r+0xb24>)
    11b8:	9b31      	ldr	r3, [sp, #196]	; 0xc4
    11ba:	4691      	mov	r9, r2
    11bc:	2f10      	cmp	r7, #16
    11be:	dd23      	ble.n	1208 <_vfprintf_r+0xa04>
    11c0:	0032      	movs	r2, r6
    11c2:	4646      	mov	r6, r8
    11c4:	46a8      	mov	r8, r5
    11c6:	464d      	mov	r5, r9
    11c8:	e003      	b.n	11d2 <_vfprintf_r+0x9ce>
    11ca:	3f10      	subs	r7, #16
    11cc:	3408      	adds	r4, #8
    11ce:	2f10      	cmp	r7, #16
    11d0:	dd16      	ble.n	1200 <_vfprintf_r+0x9fc>
    11d2:	2110      	movs	r1, #16
    11d4:	3210      	adds	r2, #16
    11d6:	3301      	adds	r3, #1
    11d8:	6025      	str	r5, [r4, #0]
    11da:	6061      	str	r1, [r4, #4]
    11dc:	9232      	str	r2, [sp, #200]	; 0xc8
    11de:	9331      	str	r3, [sp, #196]	; 0xc4
    11e0:	2b07      	cmp	r3, #7
    11e2:	ddf2      	ble.n	11ca <_vfprintf_r+0x9c6>
    11e4:	4659      	mov	r1, fp
    11e6:	0030      	movs	r0, r6
    11e8:	aa30      	add	r2, sp, #192	; 0xc0
    11ea:	f001 fa8f 	bl	270c <__sprint_r>
    11ee:	2800      	cmp	r0, #0
    11f0:	d000      	beq.n	11f4 <_vfprintf_r+0x9f0>
    11f2:	e0d6      	b.n	13a2 <_vfprintf_r+0xb9e>
    11f4:	3f10      	subs	r7, #16
    11f6:	9a32      	ldr	r2, [sp, #200]	; 0xc8
    11f8:	9b31      	ldr	r3, [sp, #196]	; 0xc4
    11fa:	ac33      	add	r4, sp, #204	; 0xcc
    11fc:	2f10      	cmp	r7, #16
    11fe:	dce8      	bgt.n	11d2 <_vfprintf_r+0x9ce>
    1200:	46a9      	mov	r9, r5
    1202:	4645      	mov	r5, r8
    1204:	46b0      	mov	r8, r6
    1206:	0016      	movs	r6, r2
    1208:	464a      	mov	r2, r9
    120a:	19f6      	adds	r6, r6, r7
    120c:	3301      	adds	r3, #1
    120e:	6022      	str	r2, [r4, #0]
    1210:	6067      	str	r7, [r4, #4]
    1212:	9632      	str	r6, [sp, #200]	; 0xc8
    1214:	9331      	str	r3, [sp, #196]	; 0xc4
    1216:	2b07      	cmp	r3, #7
    1218:	dd00      	ble.n	121c <_vfprintf_r+0xa18>
    121a:	e27f      	b.n	171c <_vfprintf_r+0xf18>
    121c:	9b08      	ldr	r3, [sp, #32]
    121e:	9a0a      	ldr	r2, [sp, #40]	; 0x28
    1220:	3408      	adds	r4, #8
    1222:	1a9f      	subs	r7, r3, r2
    1224:	2f00      	cmp	r7, #0
    1226:	dc00      	bgt.n	122a <_vfprintf_r+0xa26>
    1228:	e461      	b.n	aee <_vfprintf_r+0x2ea>
    122a:	4a3f      	ldr	r2, [pc, #252]	; (1328 <_vfprintf_r+0xb24>)
    122c:	9b31      	ldr	r3, [sp, #196]	; 0xc4
    122e:	4691      	mov	r9, r2
    1230:	2f10      	cmp	r7, #16
    1232:	dd23      	ble.n	127c <_vfprintf_r+0xa78>
    1234:	0032      	movs	r2, r6
    1236:	4646      	mov	r6, r8
    1238:	46a8      	mov	r8, r5
    123a:	464d      	mov	r5, r9
    123c:	e003      	b.n	1246 <_vfprintf_r+0xa42>
    123e:	3f10      	subs	r7, #16
    1240:	3408      	adds	r4, #8
    1242:	2f10      	cmp	r7, #16
    1244:	dd16      	ble.n	1274 <_vfprintf_r+0xa70>
    1246:	2110      	movs	r1, #16
    1248:	3210      	adds	r2, #16
    124a:	3301      	adds	r3, #1
    124c:	6025      	str	r5, [r4, #0]
    124e:	6061      	str	r1, [r4, #4]
    1250:	9232      	str	r2, [sp, #200]	; 0xc8
    1252:	9331      	str	r3, [sp, #196]	; 0xc4
    1254:	2b07      	cmp	r3, #7
    1256:	ddf2      	ble.n	123e <_vfprintf_r+0xa3a>
    1258:	4659      	mov	r1, fp
    125a:	0030      	movs	r0, r6
    125c:	aa30      	add	r2, sp, #192	; 0xc0
    125e:	f001 fa55 	bl	270c <__sprint_r>
    1262:	2800      	cmp	r0, #0
    1264:	d000      	beq.n	1268 <_vfprintf_r+0xa64>
    1266:	e09c      	b.n	13a2 <_vfprintf_r+0xb9e>
    1268:	3f10      	subs	r7, #16
    126a:	9a32      	ldr	r2, [sp, #200]	; 0xc8
    126c:	9b31      	ldr	r3, [sp, #196]	; 0xc4
    126e:	ac33      	add	r4, sp, #204	; 0xcc
    1270:	2f10      	cmp	r7, #16
    1272:	dce8      	bgt.n	1246 <_vfprintf_r+0xa42>
    1274:	46a9      	mov	r9, r5
    1276:	4645      	mov	r5, r8
    1278:	46b0      	mov	r8, r6
    127a:	0016      	movs	r6, r2
    127c:	464a      	mov	r2, r9
    127e:	19f6      	adds	r6, r6, r7
    1280:	3301      	adds	r3, #1
    1282:	6022      	str	r2, [r4, #0]
    1284:	6067      	str	r7, [r4, #4]
    1286:	9632      	str	r6, [sp, #200]	; 0xc8
    1288:	9331      	str	r3, [sp, #196]	; 0xc4
    128a:	2b07      	cmp	r3, #7
    128c:	dd00      	ble.n	1290 <_vfprintf_r+0xa8c>
    128e:	e155      	b.n	153c <_vfprintf_r+0xd38>
    1290:	3408      	adds	r4, #8
    1292:	e42c      	b.n	aee <_vfprintf_r+0x2ea>
    1294:	4659      	mov	r1, fp
    1296:	4640      	mov	r0, r8
    1298:	aa30      	add	r2, sp, #192	; 0xc0
    129a:	f001 fa37 	bl	270c <__sprint_r>
    129e:	2800      	cmp	r0, #0
    12a0:	d100      	bne.n	12a4 <_vfprintf_r+0xaa0>
    12a2:	e44c      	b.n	b3e <_vfprintf_r+0x33a>
    12a4:	4647      	mov	r7, r8
    12a6:	46d8      	mov	r8, fp
    12a8:	9b0e      	ldr	r3, [sp, #56]	; 0x38
    12aa:	2b00      	cmp	r3, #0
    12ac:	d003      	beq.n	12b6 <_vfprintf_r+0xab2>
    12ae:	0038      	movs	r0, r7
    12b0:	990e      	ldr	r1, [sp, #56]	; 0x38
    12b2:	f005 f90d 	bl	64d0 <_free_r>
    12b6:	4643      	mov	r3, r8
    12b8:	220c      	movs	r2, #12
    12ba:	5e9b      	ldrsh	r3, [r3, r2]
    12bc:	4642      	mov	r2, r8
    12be:	6e52      	ldr	r2, [r2, #100]	; 0x64
    12c0:	07d2      	lsls	r2, r2, #31
    12c2:	d564      	bpl.n	138e <_vfprintf_r+0xb8a>
    12c4:	b29a      	uxth	r2, r3
    12c6:	0652      	lsls	r2, r2, #25
    12c8:	d501      	bpl.n	12ce <_vfprintf_r+0xaca>
    12ca:	f001 f82e 	bl	232a <_vfprintf_r+0x1b26>
    12ce:	9809      	ldr	r0, [sp, #36]	; 0x24
    12d0:	b05d      	add	sp, #372	; 0x174
    12d2:	bcf0      	pop	{r4, r5, r6, r7}
    12d4:	46bb      	mov	fp, r7
    12d6:	46b2      	mov	sl, r6
    12d8:	46a9      	mov	r9, r5
    12da:	46a0      	mov	r8, r4
    12dc:	bdf0      	pop	{r4, r5, r6, r7, pc}
    12de:	4659      	mov	r1, fp
    12e0:	4640      	mov	r0, r8
    12e2:	aa30      	add	r2, sp, #192	; 0xc0
    12e4:	f001 fa12 	bl	270c <__sprint_r>
    12e8:	2800      	cmp	r0, #0
    12ea:	d1db      	bne.n	12a4 <_vfprintf_r+0xaa0>
    12ec:	9e32      	ldr	r6, [sp, #200]	; 0xc8
    12ee:	ac33      	add	r4, sp, #204	; 0xcc
    12f0:	f7ff fbe2 	bl	ab8 <_vfprintf_r+0x2b4>
    12f4:	4659      	mov	r1, fp
    12f6:	4640      	mov	r0, r8
    12f8:	aa30      	add	r2, sp, #192	; 0xc0
    12fa:	f001 fa07 	bl	270c <__sprint_r>
    12fe:	2800      	cmp	r0, #0
    1300:	d1d0      	bne.n	12a4 <_vfprintf_r+0xaa0>
    1302:	9e32      	ldr	r6, [sp, #200]	; 0xc8
    1304:	ac33      	add	r4, sp, #204	; 0xcc
    1306:	f7ff fbe8 	bl	ada <_vfprintf_r+0x2d6>
    130a:	9b31      	ldr	r3, [sp, #196]	; 0xc4
    130c:	4f07      	ldr	r7, [pc, #28]	; (132c <_vfprintf_r+0xb28>)
    130e:	2d10      	cmp	r5, #16
    1310:	dd28      	ble.n	1364 <_vfprintf_r+0xb60>
    1312:	2210      	movs	r2, #16
    1314:	4691      	mov	r9, r2
    1316:	e00f      	b.n	1338 <_vfprintf_r+0xb34>
    1318:	fffffbff 	.word	0xfffffbff
    131c:	00007830 	.word	0x00007830
    1320:	0000bdac 	.word	0x0000bdac
    1324:	0000bddc 	.word	0x0000bddc
    1328:	0000c004 	.word	0x0000c004
    132c:	0000bfe4 	.word	0x0000bfe4
    1330:	3d10      	subs	r5, #16
    1332:	3408      	adds	r4, #8
    1334:	2d10      	cmp	r5, #16
    1336:	dd15      	ble.n	1364 <_vfprintf_r+0xb60>
    1338:	464a      	mov	r2, r9
    133a:	3610      	adds	r6, #16
    133c:	3301      	adds	r3, #1
    133e:	6027      	str	r7, [r4, #0]
    1340:	6062      	str	r2, [r4, #4]
    1342:	9632      	str	r6, [sp, #200]	; 0xc8
    1344:	9331      	str	r3, [sp, #196]	; 0xc4
    1346:	2b07      	cmp	r3, #7
    1348:	ddf2      	ble.n	1330 <_vfprintf_r+0xb2c>
    134a:	4659      	mov	r1, fp
    134c:	4640      	mov	r0, r8
    134e:	aa30      	add	r2, sp, #192	; 0xc0
    1350:	f001 f9dc 	bl	270c <__sprint_r>
    1354:	2800      	cmp	r0, #0
    1356:	d1a5      	bne.n	12a4 <_vfprintf_r+0xaa0>
    1358:	3d10      	subs	r5, #16
    135a:	9e32      	ldr	r6, [sp, #200]	; 0xc8
    135c:	9b31      	ldr	r3, [sp, #196]	; 0xc4
    135e:	ac33      	add	r4, sp, #204	; 0xcc
    1360:	2d10      	cmp	r5, #16
    1362:	dce9      	bgt.n	1338 <_vfprintf_r+0xb34>
    1364:	1976      	adds	r6, r6, r5
    1366:	3301      	adds	r3, #1
    1368:	6027      	str	r7, [r4, #0]
    136a:	6065      	str	r5, [r4, #4]
    136c:	9632      	str	r6, [sp, #200]	; 0xc8
    136e:	9331      	str	r3, [sp, #196]	; 0xc4
    1370:	2b07      	cmp	r3, #7
    1372:	dc01      	bgt.n	1378 <_vfprintf_r+0xb74>
    1374:	f7ff fbd6 	bl	b24 <_vfprintf_r+0x320>
    1378:	4659      	mov	r1, fp
    137a:	4640      	mov	r0, r8
    137c:	aa30      	add	r2, sp, #192	; 0xc0
    137e:	f001 f9c5 	bl	270c <__sprint_r>
    1382:	2800      	cmp	r0, #0
    1384:	d000      	beq.n	1388 <_vfprintf_r+0xb84>
    1386:	e78d      	b.n	12a4 <_vfprintf_r+0xaa0>
    1388:	9e32      	ldr	r6, [sp, #200]	; 0xc8
    138a:	f7ff fbcb 	bl	b24 <_vfprintf_r+0x320>
    138e:	b29a      	uxth	r2, r3
    1390:	059b      	lsls	r3, r3, #22
    1392:	d498      	bmi.n	12c6 <_vfprintf_r+0xac2>
    1394:	4643      	mov	r3, r8
    1396:	6d98      	ldr	r0, [r3, #88]	; 0x58
    1398:	f002 fd70 	bl	3e7c <__retarget_lock_release_recursive>
    139c:	4643      	mov	r3, r8
    139e:	899a      	ldrh	r2, [r3, #12]
    13a0:	e791      	b.n	12c6 <_vfprintf_r+0xac2>
    13a2:	0037      	movs	r7, r6
    13a4:	46d8      	mov	r8, fp
    13a6:	e77f      	b.n	12a8 <_vfprintf_r+0xaa4>
    13a8:	9927      	ldr	r1, [sp, #156]	; 0x9c
    13aa:	2900      	cmp	r1, #0
    13ac:	dc00      	bgt.n	13b0 <_vfprintf_r+0xbac>
    13ae:	e117      	b.n	15e0 <_vfprintf_r+0xddc>
    13b0:	9a16      	ldr	r2, [sp, #88]	; 0x58
    13b2:	9b17      	ldr	r3, [sp, #92]	; 0x5c
    13b4:	0017      	movs	r7, r2
    13b6:	429a      	cmp	r2, r3
    13b8:	dd00      	ble.n	13bc <_vfprintf_r+0xbb8>
    13ba:	001f      	movs	r7, r3
    13bc:	2f00      	cmp	r7, #0
    13be:	dd0b      	ble.n	13d8 <_vfprintf_r+0xbd4>
    13c0:	9b31      	ldr	r3, [sp, #196]	; 0xc4
    13c2:	19f6      	adds	r6, r6, r7
    13c4:	3301      	adds	r3, #1
    13c6:	6025      	str	r5, [r4, #0]
    13c8:	6067      	str	r7, [r4, #4]
    13ca:	9632      	str	r6, [sp, #200]	; 0xc8
    13cc:	9331      	str	r3, [sp, #196]	; 0xc4
    13ce:	2b07      	cmp	r3, #7
    13d0:	dd01      	ble.n	13d6 <_vfprintf_r+0xbd2>
    13d2:	f000 ff27 	bl	2224 <_vfprintf_r+0x1a20>
    13d6:	3408      	adds	r4, #8
    13d8:	43fb      	mvns	r3, r7
    13da:	17db      	asrs	r3, r3, #31
    13dc:	401f      	ands	r7, r3
    13de:	9b16      	ldr	r3, [sp, #88]	; 0x58
    13e0:	1bdf      	subs	r7, r3, r7
    13e2:	2f00      	cmp	r7, #0
    13e4:	dd01      	ble.n	13ea <_vfprintf_r+0xbe6>
    13e6:	f000 fc05 	bl	1bf4 <_vfprintf_r+0x13f0>
    13ea:	9b16      	ldr	r3, [sp, #88]	; 0x58
    13ec:	469c      	mov	ip, r3
    13ee:	44ac      	add	ip, r5
    13f0:	4663      	mov	r3, ip
    13f2:	930a      	str	r3, [sp, #40]	; 0x28
    13f4:	4653      	mov	r3, sl
    13f6:	055b      	lsls	r3, r3, #21
    13f8:	d501      	bpl.n	13fe <_vfprintf_r+0xbfa>
    13fa:	f000 fe21 	bl	2040 <_vfprintf_r+0x183c>
    13fe:	9a27      	ldr	r2, [sp, #156]	; 0x9c
    1400:	9b17      	ldr	r3, [sp, #92]	; 0x5c
    1402:	429a      	cmp	r2, r3
    1404:	db04      	blt.n	1410 <_vfprintf_r+0xc0c>
    1406:	4653      	mov	r3, sl
    1408:	07db      	lsls	r3, r3, #31
    140a:	d401      	bmi.n	1410 <_vfprintf_r+0xc0c>
    140c:	f000 fd28 	bl	1e60 <_vfprintf_r+0x165c>
    1410:	9b1d      	ldr	r3, [sp, #116]	; 0x74
    1412:	6023      	str	r3, [r4, #0]
    1414:	9b1c      	ldr	r3, [sp, #112]	; 0x70
    1416:	469c      	mov	ip, r3
    1418:	6063      	str	r3, [r4, #4]
    141a:	9b31      	ldr	r3, [sp, #196]	; 0xc4
    141c:	4466      	add	r6, ip
    141e:	3301      	adds	r3, #1
    1420:	9632      	str	r6, [sp, #200]	; 0xc8
    1422:	9331      	str	r3, [sp, #196]	; 0xc4
    1424:	2b07      	cmp	r3, #7
    1426:	dd01      	ble.n	142c <_vfprintf_r+0xc28>
    1428:	f000 ff09 	bl	223e <_vfprintf_r+0x1a3a>
    142c:	3408      	adds	r4, #8
    142e:	9b17      	ldr	r3, [sp, #92]	; 0x5c
    1430:	469c      	mov	ip, r3
    1432:	1a9a      	subs	r2, r3, r2
    1434:	9b0a      	ldr	r3, [sp, #40]	; 0x28
    1436:	4465      	add	r5, ip
    1438:	1aef      	subs	r7, r5, r3
    143a:	4297      	cmp	r7, r2
    143c:	dd01      	ble.n	1442 <_vfprintf_r+0xc3e>
    143e:	f000 fc47 	bl	1cd0 <_vfprintf_r+0x14cc>
    1442:	2f00      	cmp	r7, #0
    1444:	dd0c      	ble.n	1460 <_vfprintf_r+0xc5c>
    1446:	9b0a      	ldr	r3, [sp, #40]	; 0x28
    1448:	19f6      	adds	r6, r6, r7
    144a:	6023      	str	r3, [r4, #0]
    144c:	9b31      	ldr	r3, [sp, #196]	; 0xc4
    144e:	6067      	str	r7, [r4, #4]
    1450:	3301      	adds	r3, #1
    1452:	9632      	str	r6, [sp, #200]	; 0xc8
    1454:	9331      	str	r3, [sp, #196]	; 0xc4
    1456:	2b07      	cmp	r3, #7
    1458:	dd01      	ble.n	145e <_vfprintf_r+0xc5a>
    145a:	f000 ff18 	bl	228e <_vfprintf_r+0x1a8a>
    145e:	3408      	adds	r4, #8
    1460:	43fb      	mvns	r3, r7
    1462:	17db      	asrs	r3, r3, #31
    1464:	403b      	ands	r3, r7
    1466:	1ad5      	subs	r5, r2, r3
    1468:	2d00      	cmp	r5, #0
    146a:	dc01      	bgt.n	1470 <_vfprintf_r+0xc6c>
    146c:	f7ff fb50 	bl	b10 <_vfprintf_r+0x30c>
    1470:	4ad8      	ldr	r2, [pc, #864]	; (17d4 <_vfprintf_r+0xfd0>)
    1472:	9b31      	ldr	r3, [sp, #196]	; 0xc4
    1474:	4691      	mov	r9, r2
    1476:	2d10      	cmp	r5, #16
    1478:	dc00      	bgt.n	147c <_vfprintf_r+0xc78>
    147a:	e393      	b.n	1ba4 <_vfprintf_r+0x13a0>
    147c:	0032      	movs	r2, r6
    147e:	2710      	movs	r7, #16
    1480:	464e      	mov	r6, r9
    1482:	e004      	b.n	148e <_vfprintf_r+0xc8a>
    1484:	3408      	adds	r4, #8
    1486:	3d10      	subs	r5, #16
    1488:	2d10      	cmp	r5, #16
    148a:	dc00      	bgt.n	148e <_vfprintf_r+0xc8a>
    148c:	e388      	b.n	1ba0 <_vfprintf_r+0x139c>
    148e:	3210      	adds	r2, #16
    1490:	3301      	adds	r3, #1
    1492:	6026      	str	r6, [r4, #0]
    1494:	6067      	str	r7, [r4, #4]
    1496:	9232      	str	r2, [sp, #200]	; 0xc8
    1498:	9331      	str	r3, [sp, #196]	; 0xc4
    149a:	2b07      	cmp	r3, #7
    149c:	ddf2      	ble.n	1484 <_vfprintf_r+0xc80>
    149e:	4659      	mov	r1, fp
    14a0:	4640      	mov	r0, r8
    14a2:	aa30      	add	r2, sp, #192	; 0xc0
    14a4:	f001 f932 	bl	270c <__sprint_r>
    14a8:	2800      	cmp	r0, #0
    14aa:	d000      	beq.n	14ae <_vfprintf_r+0xcaa>
    14ac:	e6fa      	b.n	12a4 <_vfprintf_r+0xaa0>
    14ae:	9a32      	ldr	r2, [sp, #200]	; 0xc8
    14b0:	9b31      	ldr	r3, [sp, #196]	; 0xc4
    14b2:	ac33      	add	r4, sp, #204	; 0xcc
    14b4:	e7e7      	b.n	1486 <_vfprintf_r+0xc82>
    14b6:	2301      	movs	r3, #1
    14b8:	4652      	mov	r2, sl
    14ba:	4213      	tst	r3, r2
    14bc:	d001      	beq.n	14c2 <_vfprintf_r+0xcbe>
    14be:	f7ff fbec 	bl	c9a <_vfprintf_r+0x496>
    14c2:	9f31      	ldr	r7, [sp, #196]	; 0xc4
    14c4:	3601      	adds	r6, #1
    14c6:	3701      	adds	r7, #1
    14c8:	6063      	str	r3, [r4, #4]
    14ca:	9632      	str	r6, [sp, #200]	; 0xc8
    14cc:	9731      	str	r7, [sp, #196]	; 0xc4
    14ce:	2f07      	cmp	r7, #7
    14d0:	dc01      	bgt.n	14d6 <_vfprintf_r+0xcd2>
    14d2:	f7ff fc13 	bl	cfc <_vfprintf_r+0x4f8>
    14d6:	4659      	mov	r1, fp
    14d8:	4640      	mov	r0, r8
    14da:	aa30      	add	r2, sp, #192	; 0xc0
    14dc:	f001 f916 	bl	270c <__sprint_r>
    14e0:	2800      	cmp	r0, #0
    14e2:	d000      	beq.n	14e6 <_vfprintf_r+0xce2>
    14e4:	e6de      	b.n	12a4 <_vfprintf_r+0xaa0>
    14e6:	9e32      	ldr	r6, [sp, #200]	; 0xc8
    14e8:	9f31      	ldr	r7, [sp, #196]	; 0xc4
    14ea:	ac33      	add	r4, sp, #204	; 0xcc
    14ec:	f7ff fc07 	bl	cfe <_vfprintf_r+0x4fa>
    14f0:	9b17      	ldr	r3, [sp, #92]	; 0x5c
    14f2:	1e5d      	subs	r5, r3, #1
    14f4:	2d00      	cmp	r5, #0
    14f6:	dc01      	bgt.n	14fc <_vfprintf_r+0xcf8>
    14f8:	f7ff fc01 	bl	cfe <_vfprintf_r+0x4fa>
    14fc:	4bb5      	ldr	r3, [pc, #724]	; (17d4 <_vfprintf_r+0xfd0>)
    14fe:	4699      	mov	r9, r3
    1500:	2d10      	cmp	r5, #16
    1502:	dc05      	bgt.n	1510 <_vfprintf_r+0xd0c>
    1504:	e36a      	b.n	1bdc <_vfprintf_r+0x13d8>
    1506:	3408      	adds	r4, #8
    1508:	3d10      	subs	r5, #16
    150a:	2d10      	cmp	r5, #16
    150c:	dc00      	bgt.n	1510 <_vfprintf_r+0xd0c>
    150e:	e365      	b.n	1bdc <_vfprintf_r+0x13d8>
    1510:	464b      	mov	r3, r9
    1512:	6023      	str	r3, [r4, #0]
    1514:	2310      	movs	r3, #16
    1516:	3610      	adds	r6, #16
    1518:	3701      	adds	r7, #1
    151a:	6063      	str	r3, [r4, #4]
    151c:	9632      	str	r6, [sp, #200]	; 0xc8
    151e:	9731      	str	r7, [sp, #196]	; 0xc4
    1520:	2f07      	cmp	r7, #7
    1522:	ddf0      	ble.n	1506 <_vfprintf_r+0xd02>
    1524:	4659      	mov	r1, fp
    1526:	4640      	mov	r0, r8
    1528:	aa30      	add	r2, sp, #192	; 0xc0
    152a:	f001 f8ef 	bl	270c <__sprint_r>
    152e:	2800      	cmp	r0, #0
    1530:	d000      	beq.n	1534 <_vfprintf_r+0xd30>
    1532:	e6b7      	b.n	12a4 <_vfprintf_r+0xaa0>
    1534:	9e32      	ldr	r6, [sp, #200]	; 0xc8
    1536:	9f31      	ldr	r7, [sp, #196]	; 0xc4
    1538:	ac33      	add	r4, sp, #204	; 0xcc
    153a:	e7e5      	b.n	1508 <_vfprintf_r+0xd04>
    153c:	4659      	mov	r1, fp
    153e:	4640      	mov	r0, r8
    1540:	aa30      	add	r2, sp, #192	; 0xc0
    1542:	f001 f8e3 	bl	270c <__sprint_r>
    1546:	2800      	cmp	r0, #0
    1548:	d000      	beq.n	154c <_vfprintf_r+0xd48>
    154a:	e6ab      	b.n	12a4 <_vfprintf_r+0xaa0>
    154c:	9e32      	ldr	r6, [sp, #200]	; 0xc8
    154e:	ac33      	add	r4, sp, #204	; 0xcc
    1550:	f7ff facd 	bl	aee <_vfprintf_r+0x2ea>
    1554:	4653      	mov	r3, sl
    1556:	06db      	lsls	r3, r3, #27
    1558:	d471      	bmi.n	163e <_vfprintf_r+0xe3a>
    155a:	4653      	mov	r3, sl
    155c:	065b      	lsls	r3, r3, #25
    155e:	d569      	bpl.n	1634 <_vfprintf_r+0xe30>
    1560:	9b0f      	ldr	r3, [sp, #60]	; 0x3c
    1562:	cb04      	ldmia	r3!, {r2}
    1564:	b292      	uxth	r2, r2
    1566:	920c      	str	r2, [sp, #48]	; 0x30
    1568:	2200      	movs	r2, #0
    156a:	930f      	str	r3, [sp, #60]	; 0x3c
    156c:	920d      	str	r2, [sp, #52]	; 0x34
    156e:	e537      	b.n	fe0 <_vfprintf_r+0x7dc>
    1570:	4653      	mov	r3, sl
    1572:	06db      	lsls	r3, r3, #27
    1574:	d56a      	bpl.n	164c <_vfprintf_r+0xe48>
    1576:	9a0f      	ldr	r2, [sp, #60]	; 0x3c
    1578:	ca08      	ldmia	r2!, {r3}
    157a:	930c      	str	r3, [sp, #48]	; 0x30
    157c:	17db      	asrs	r3, r3, #31
    157e:	930d      	str	r3, [sp, #52]	; 0x34
    1580:	920f      	str	r2, [sp, #60]	; 0x3c
    1582:	d400      	bmi.n	1586 <_vfprintf_r+0xd82>
    1584:	e4ee      	b.n	f64 <_vfprintf_r+0x760>
    1586:	980c      	ldr	r0, [sp, #48]	; 0x30
    1588:	990d      	ldr	r1, [sp, #52]	; 0x34
    158a:	2300      	movs	r3, #0
    158c:	4242      	negs	r2, r0
    158e:	418b      	sbcs	r3, r1
    1590:	4656      	mov	r6, sl
    1592:	920c      	str	r2, [sp, #48]	; 0x30
    1594:	930d      	str	r3, [sp, #52]	; 0x34
    1596:	222d      	movs	r2, #45	; 0x2d
    1598:	2301      	movs	r3, #1
    159a:	e490      	b.n	ebe <_vfprintf_r+0x6ba>
    159c:	06f3      	lsls	r3, r6, #27
    159e:	d561      	bpl.n	1664 <_vfprintf_r+0xe60>
    15a0:	9b0f      	ldr	r3, [sp, #60]	; 0x3c
    15a2:	cb04      	ldmia	r3!, {r2}
    15a4:	920c      	str	r2, [sp, #48]	; 0x30
    15a6:	2200      	movs	r2, #0
    15a8:	930f      	str	r3, [sp, #60]	; 0x3c
    15aa:	920d      	str	r2, [sp, #52]	; 0x34
    15ac:	2301      	movs	r3, #1
    15ae:	e485      	b.n	ebc <_vfprintf_r+0x6b8>
    15b0:	4653      	mov	r3, sl
    15b2:	07db      	lsls	r3, r3, #31
    15b4:	d401      	bmi.n	15ba <_vfprintf_r+0xdb6>
    15b6:	f7ff faab 	bl	b10 <_vfprintf_r+0x30c>
    15ba:	e5be      	b.n	113a <_vfprintf_r+0x936>
    15bc:	46b2      	mov	sl, r6
    15be:	46b8      	mov	r8, r7
    15c0:	9313      	str	r3, [sp, #76]	; 0x4c
    15c2:	e4bb      	b.n	f3c <_vfprintf_r+0x738>
    15c4:	9b06      	ldr	r3, [sp, #24]
    15c6:	920f      	str	r2, [sp, #60]	; 0x3c
    15c8:	781b      	ldrb	r3, [r3, #0]
    15ca:	f7ff f9a9 	bl	920 <_vfprintf_r+0x11c>
    15ce:	2130      	movs	r1, #48	; 0x30
    15d0:	3362      	adds	r3, #98	; 0x62
    15d2:	aa43      	add	r2, sp, #268	; 0x10c
    15d4:	54d1      	strb	r1, [r2, r3]
    15d6:	ab1e      	add	r3, sp, #120	; 0x78
    15d8:	25f7      	movs	r5, #247	; 0xf7
    15da:	469c      	mov	ip, r3
    15dc:	4465      	add	r5, ip
    15de:	e48c      	b.n	efa <_vfprintf_r+0x6f6>
    15e0:	4b7d      	ldr	r3, [pc, #500]	; (17d8 <_vfprintf_r+0xfd4>)
    15e2:	3601      	adds	r6, #1
    15e4:	6023      	str	r3, [r4, #0]
    15e6:	2301      	movs	r3, #1
    15e8:	6063      	str	r3, [r4, #4]
    15ea:	9b31      	ldr	r3, [sp, #196]	; 0xc4
    15ec:	9632      	str	r6, [sp, #200]	; 0xc8
    15ee:	3301      	adds	r3, #1
    15f0:	9331      	str	r3, [sp, #196]	; 0xc4
    15f2:	2b07      	cmp	r3, #7
    15f4:	dd01      	ble.n	15fa <_vfprintf_r+0xdf6>
    15f6:	f000 fde5 	bl	21c4 <_vfprintf_r+0x19c0>
    15fa:	3408      	adds	r4, #8
    15fc:	2900      	cmp	r1, #0
    15fe:	d000      	beq.n	1602 <_vfprintf_r+0xdfe>
    1600:	e31c      	b.n	1c3c <_vfprintf_r+0x1438>
    1602:	4652      	mov	r2, sl
    1604:	2301      	movs	r3, #1
    1606:	4013      	ands	r3, r2
    1608:	9a17      	ldr	r2, [sp, #92]	; 0x5c
    160a:	4313      	orrs	r3, r2
    160c:	d101      	bne.n	1612 <_vfprintf_r+0xe0e>
    160e:	f7ff fa7f 	bl	b10 <_vfprintf_r+0x30c>
    1612:	9b1d      	ldr	r3, [sp, #116]	; 0x74
    1614:	6023      	str	r3, [r4, #0]
    1616:	9b1c      	ldr	r3, [sp, #112]	; 0x70
    1618:	469c      	mov	ip, r3
    161a:	6063      	str	r3, [r4, #4]
    161c:	9b31      	ldr	r3, [sp, #196]	; 0xc4
    161e:	4466      	add	r6, ip
    1620:	3301      	adds	r3, #1
    1622:	9632      	str	r6, [sp, #200]	; 0xc8
    1624:	9331      	str	r3, [sp, #196]	; 0xc4
    1626:	2b07      	cmp	r3, #7
    1628:	dd01      	ble.n	162e <_vfprintf_r+0xe2a>
    162a:	f000 fc50 	bl	1ece <_vfprintf_r+0x16ca>
    162e:	0022      	movs	r2, r4
    1630:	3208      	adds	r2, #8
    1632:	e315      	b.n	1c60 <_vfprintf_r+0x145c>
    1634:	4653      	mov	r3, sl
    1636:	059b      	lsls	r3, r3, #22
    1638:	d501      	bpl.n	163e <_vfprintf_r+0xe3a>
    163a:	f000 fc26 	bl	1e8a <_vfprintf_r+0x1686>
    163e:	9b0f      	ldr	r3, [sp, #60]	; 0x3c
    1640:	cb04      	ldmia	r3!, {r2}
    1642:	920c      	str	r2, [sp, #48]	; 0x30
    1644:	2200      	movs	r2, #0
    1646:	930f      	str	r3, [sp, #60]	; 0x3c
    1648:	920d      	str	r2, [sp, #52]	; 0x34
    164a:	e4c9      	b.n	fe0 <_vfprintf_r+0x7dc>
    164c:	4653      	mov	r3, sl
    164e:	065b      	lsls	r3, r3, #25
    1650:	d400      	bmi.n	1654 <_vfprintf_r+0xe50>
    1652:	e31c      	b.n	1c8e <_vfprintf_r+0x148a>
    1654:	9a0f      	ldr	r2, [sp, #60]	; 0x3c
    1656:	ca08      	ldmia	r2!, {r3}
    1658:	b21b      	sxth	r3, r3
    165a:	930c      	str	r3, [sp, #48]	; 0x30
    165c:	17db      	asrs	r3, r3, #31
    165e:	930d      	str	r3, [sp, #52]	; 0x34
    1660:	920f      	str	r2, [sp, #60]	; 0x3c
    1662:	e47c      	b.n	f5e <_vfprintf_r+0x75a>
    1664:	0673      	lsls	r3, r6, #25
    1666:	d400      	bmi.n	166a <_vfprintf_r+0xe66>
    1668:	e30a      	b.n	1c80 <_vfprintf_r+0x147c>
    166a:	9b0f      	ldr	r3, [sp, #60]	; 0x3c
    166c:	cb04      	ldmia	r3!, {r2}
    166e:	b292      	uxth	r2, r2
    1670:	e798      	b.n	15a4 <_vfprintf_r+0xda0>
    1672:	9b1b      	ldr	r3, [sp, #108]	; 0x6c
    1674:	2b00      	cmp	r3, #0
    1676:	d101      	bne.n	167c <_vfprintf_r+0xe78>
    1678:	f7ff f996 	bl	9a8 <_vfprintf_r+0x1a4>
    167c:	9b1b      	ldr	r3, [sp, #108]	; 0x6c
    167e:	781b      	ldrb	r3, [r3, #0]
    1680:	2b00      	cmp	r3, #0
    1682:	d101      	bne.n	1688 <_vfprintf_r+0xe84>
    1684:	f7ff f990 	bl	9a8 <_vfprintf_r+0x1a4>
    1688:	2380      	movs	r3, #128	; 0x80
    168a:	00db      	lsls	r3, r3, #3
    168c:	431e      	orrs	r6, r3
    168e:	9b06      	ldr	r3, [sp, #24]
    1690:	781b      	ldrb	r3, [r3, #0]
    1692:	f7ff f945 	bl	920 <_vfprintf_r+0x11c>
    1696:	9b0f      	ldr	r3, [sp, #60]	; 0x3c
    1698:	9909      	ldr	r1, [sp, #36]	; 0x24
    169a:	cb04      	ldmia	r3!, {r2}
    169c:	9d06      	ldr	r5, [sp, #24]
    169e:	6011      	str	r1, [r2, #0]
    16a0:	17c9      	asrs	r1, r1, #31
    16a2:	6051      	str	r1, [r2, #4]
    16a4:	930f      	str	r3, [sp, #60]	; 0x3c
    16a6:	f7ff f90c 	bl	8c2 <_vfprintf_r+0xbe>
    16aa:	9818      	ldr	r0, [sp, #96]	; 0x60
    16ac:	9919      	ldr	r1, [sp, #100]	; 0x64
    16ae:	0002      	movs	r2, r0
    16b0:	000b      	movs	r3, r1
    16b2:	f00a f94f 	bl	b954 <__aeabi_dcmpun>
    16b6:	2800      	cmp	r0, #0
    16b8:	d001      	beq.n	16be <_vfprintf_r+0xeba>
    16ba:	f000 ff28 	bl	250e <_vfprintf_r+0x1d0a>
    16be:	9b13      	ldr	r3, [sp, #76]	; 0x4c
    16c0:	2b61      	cmp	r3, #97	; 0x61
    16c2:	d100      	bne.n	16c6 <_vfprintf_r+0xec2>
    16c4:	e100      	b.n	18c8 <_vfprintf_r+0x10c4>
    16c6:	2258      	movs	r2, #88	; 0x58
    16c8:	2b41      	cmp	r3, #65	; 0x41
    16ca:	d100      	bne.n	16ce <_vfprintf_r+0xeca>
    16cc:	e0fd      	b.n	18ca <_vfprintf_r+0x10c6>
    16ce:	9b08      	ldr	r3, [sp, #32]
    16d0:	3301      	adds	r3, #1
    16d2:	d101      	bne.n	16d8 <_vfprintf_r+0xed4>
    16d4:	f000 feb3 	bl	243e <_vfprintf_r+0x1c3a>
    16d8:	2320      	movs	r3, #32
    16da:	9a13      	ldr	r2, [sp, #76]	; 0x4c
    16dc:	439a      	bics	r2, r3
    16de:	920a      	str	r2, [sp, #40]	; 0x28
    16e0:	2a47      	cmp	r2, #71	; 0x47
    16e2:	d101      	bne.n	16e8 <_vfprintf_r+0xee4>
    16e4:	f000 fe63 	bl	23ae <_vfprintf_r+0x1baa>
    16e8:	2380      	movs	r3, #128	; 0x80
    16ea:	4652      	mov	r2, sl
    16ec:	005b      	lsls	r3, r3, #1
    16ee:	4313      	orrs	r3, r2
    16f0:	9918      	ldr	r1, [sp, #96]	; 0x60
    16f2:	9a19      	ldr	r2, [sp, #100]	; 0x64
    16f4:	1e17      	subs	r7, r2, #0
    16f6:	da01      	bge.n	16fc <_vfprintf_r+0xef8>
    16f8:	f000 fe62 	bl	23c0 <_vfprintf_r+0x1bbc>
    16fc:	4652      	mov	r2, sl
    16fe:	469a      	mov	sl, r3
    1700:	2300      	movs	r3, #0
    1702:	4689      	mov	r9, r1
    1704:	9215      	str	r2, [sp, #84]	; 0x54
    1706:	9322      	str	r3, [sp, #136]	; 0x88
    1708:	930e      	str	r3, [sp, #56]	; 0x38
    170a:	9b13      	ldr	r3, [sp, #76]	; 0x4c
    170c:	3b41      	subs	r3, #65	; 0x41
    170e:	2b25      	cmp	r3, #37	; 0x25
    1710:	d900      	bls.n	1714 <_vfprintf_r+0xf10>
    1712:	e2e0      	b.n	1cd6 <_vfprintf_r+0x14d2>
    1714:	4a31      	ldr	r2, [pc, #196]	; (17dc <_vfprintf_r+0xfd8>)
    1716:	009b      	lsls	r3, r3, #2
    1718:	58d3      	ldr	r3, [r2, r3]
    171a:	469f      	mov	pc, r3
    171c:	4659      	mov	r1, fp
    171e:	4640      	mov	r0, r8
    1720:	aa30      	add	r2, sp, #192	; 0xc0
    1722:	f000 fff3 	bl	270c <__sprint_r>
    1726:	2800      	cmp	r0, #0
    1728:	d000      	beq.n	172c <_vfprintf_r+0xf28>
    172a:	e5bb      	b.n	12a4 <_vfprintf_r+0xaa0>
    172c:	9e32      	ldr	r6, [sp, #200]	; 0xc8
    172e:	ac33      	add	r4, sp, #204	; 0xcc
    1730:	f7ff f9d7 	bl	ae2 <_vfprintf_r+0x2de>
    1734:	46b8      	mov	r8, r7
    1736:	9313      	str	r3, [sp, #76]	; 0x4c
    1738:	f7ff fbb3 	bl	ea2 <_vfprintf_r+0x69e>
    173c:	46b2      	mov	sl, r6
    173e:	46b8      	mov	r8, r7
    1740:	9313      	str	r3, [sp, #76]	; 0x4c
    1742:	4b27      	ldr	r3, [pc, #156]	; (17e0 <_vfprintf_r+0xfdc>)
    1744:	931e      	str	r3, [sp, #120]	; 0x78
    1746:	4653      	mov	r3, sl
    1748:	069b      	lsls	r3, r3, #26
    174a:	d400      	bmi.n	174e <_vfprintf_r+0xf4a>
    174c:	e169      	b.n	1a22 <_vfprintf_r+0x121e>
    174e:	2207      	movs	r2, #7
    1750:	9b0f      	ldr	r3, [sp, #60]	; 0x3c
    1752:	3307      	adds	r3, #7
    1754:	4393      	bics	r3, r2
    1756:	0019      	movs	r1, r3
    1758:	c90c      	ldmia	r1!, {r2, r3}
    175a:	920c      	str	r2, [sp, #48]	; 0x30
    175c:	930d      	str	r3, [sp, #52]	; 0x34
    175e:	910f      	str	r1, [sp, #60]	; 0x3c
    1760:	4653      	mov	r3, sl
    1762:	07db      	lsls	r3, r3, #31
    1764:	d50d      	bpl.n	1782 <_vfprintf_r+0xf7e>
    1766:	9a0c      	ldr	r2, [sp, #48]	; 0x30
    1768:	9b0d      	ldr	r3, [sp, #52]	; 0x34
    176a:	0011      	movs	r1, r2
    176c:	4319      	orrs	r1, r3
    176e:	d008      	beq.n	1782 <_vfprintf_r+0xf7e>
    1770:	2230      	movs	r2, #48	; 0x30
    1772:	ab26      	add	r3, sp, #152	; 0x98
    1774:	701a      	strb	r2, [r3, #0]
    1776:	9a13      	ldr	r2, [sp, #76]	; 0x4c
    1778:	705a      	strb	r2, [r3, #1]
    177a:	4652      	mov	r2, sl
    177c:	2302      	movs	r3, #2
    177e:	431a      	orrs	r2, r3
    1780:	4692      	mov	sl, r2
    1782:	4653      	mov	r3, sl
    1784:	4e17      	ldr	r6, [pc, #92]	; (17e4 <_vfprintf_r+0xfe0>)
    1786:	4033      	ands	r3, r6
    1788:	001e      	movs	r6, r3
    178a:	2302      	movs	r3, #2
    178c:	f7ff fb96 	bl	ebc <_vfprintf_r+0x6b8>
    1790:	3399      	adds	r3, #153	; 0x99
    1792:	33ff      	adds	r3, #255	; 0xff
    1794:	9a06      	ldr	r2, [sp, #24]
    1796:	431e      	orrs	r6, r3
    1798:	3201      	adds	r2, #1
    179a:	7813      	ldrb	r3, [r2, #0]
    179c:	9206      	str	r2, [sp, #24]
    179e:	f7ff f8bf 	bl	920 <_vfprintf_r+0x11c>
    17a2:	4659      	mov	r1, fp
    17a4:	4640      	mov	r0, r8
    17a6:	aa30      	add	r2, sp, #192	; 0xc0
    17a8:	f000 ffb0 	bl	270c <__sprint_r>
    17ac:	2800      	cmp	r0, #0
    17ae:	d000      	beq.n	17b2 <_vfprintf_r+0xfae>
    17b0:	e578      	b.n	12a4 <_vfprintf_r+0xaa0>
    17b2:	9e32      	ldr	r6, [sp, #200]	; 0xc8
    17b4:	ac33      	add	r4, sp, #204	; 0xcc
    17b6:	e4ce      	b.n	1156 <_vfprintf_r+0x952>
    17b8:	9313      	str	r3, [sp, #76]	; 0x4c
    17ba:	4b0b      	ldr	r3, [pc, #44]	; (17e8 <_vfprintf_r+0xfe4>)
    17bc:	46b2      	mov	sl, r6
    17be:	46b8      	mov	r8, r7
    17c0:	931e      	str	r3, [sp, #120]	; 0x78
    17c2:	e7c0      	b.n	1746 <_vfprintf_r+0xf42>
    17c4:	46b2      	mov	sl, r6
    17c6:	46b8      	mov	r8, r7
    17c8:	9313      	str	r3, [sp, #76]	; 0x4c
    17ca:	f7ff fbfc 	bl	fc6 <_vfprintf_r+0x7c2>
    17ce:	3b4c      	subs	r3, #76	; 0x4c
    17d0:	e7e0      	b.n	1794 <_vfprintf_r+0xf90>
    17d2:	46c0      	nop			; (mov r8, r8)
    17d4:	0000c004 	.word	0x0000c004
    17d8:	0000bddc 	.word	0x0000bddc
    17dc:	0000bf4c 	.word	0x0000bf4c
    17e0:	0000bdac 	.word	0x0000bdac
    17e4:	fffffbff 	.word	0xfffffbff
    17e8:	0000bdc0 	.word	0x0000bdc0
    17ec:	9b08      	ldr	r3, [sp, #32]
    17ee:	9307      	str	r3, [sp, #28]
    17f0:	2b06      	cmp	r3, #6
    17f2:	d900      	bls.n	17f6 <_vfprintf_r+0xff2>
    17f4:	e331      	b.n	1e5a <_vfprintf_r+0x1656>
    17f6:	464b      	mov	r3, r9
    17f8:	930f      	str	r3, [sp, #60]	; 0x3c
    17fa:	2300      	movs	r3, #0
    17fc:	2200      	movs	r2, #0
    17fe:	930e      	str	r3, [sp, #56]	; 0x38
    1800:	9b07      	ldr	r3, [sp, #28]
    1802:	4de3      	ldr	r5, [pc, #908]	; (1b90 <_vfprintf_r+0x138c>)
    1804:	930a      	str	r3, [sp, #40]	; 0x28
    1806:	9208      	str	r2, [sp, #32]
    1808:	2300      	movs	r3, #0
    180a:	921a      	str	r2, [sp, #104]	; 0x68
    180c:	9215      	str	r2, [sp, #84]	; 0x54
    180e:	9216      	str	r2, [sp, #88]	; 0x58
    1810:	f7ff f927 	bl	a62 <_vfprintf_r+0x25e>
    1814:	2208      	movs	r2, #8
    1816:	2100      	movs	r1, #0
    1818:	a82e      	add	r0, sp, #184	; 0xb8
    181a:	f002 fa75 	bl	3d08 <memset>
    181e:	9e0f      	ldr	r6, [sp, #60]	; 0x3c
    1820:	ad43      	add	r5, sp, #268	; 0x10c
    1822:	ab2e      	add	r3, sp, #184	; 0xb8
    1824:	0029      	movs	r1, r5
    1826:	4640      	mov	r0, r8
    1828:	ce04      	ldmia	r6!, {r2}
    182a:	f002 fac1 	bl	3db0 <_wcrtomb_r>
    182e:	0003      	movs	r3, r0
    1830:	900a      	str	r0, [sp, #40]	; 0x28
    1832:	3301      	adds	r3, #1
    1834:	d101      	bne.n	183a <_vfprintf_r+0x1036>
    1836:	f000 fe0a 	bl	244e <_vfprintf_r+0x1c4a>
    183a:	9a0a      	ldr	r2, [sp, #40]	; 0x28
    183c:	960f      	str	r6, [sp, #60]	; 0x3c
    183e:	43d3      	mvns	r3, r2
    1840:	17db      	asrs	r3, r3, #31
    1842:	401a      	ands	r2, r3
    1844:	9207      	str	r2, [sp, #28]
    1846:	f7ff fac5 	bl	dd4 <_vfprintf_r+0x5d0>
    184a:	2380      	movs	r3, #128	; 0x80
    184c:	00db      	lsls	r3, r3, #3
    184e:	4033      	ands	r3, r6
    1850:	469a      	mov	sl, r3
    1852:	2300      	movs	r3, #0
    1854:	4699      	mov	r9, r3
    1856:	4643      	mov	r3, r8
    1858:	9607      	str	r6, [sp, #28]
    185a:	ad5c      	add	r5, sp, #368	; 0x170
    185c:	940a      	str	r4, [sp, #40]	; 0x28
    185e:	930e      	str	r3, [sp, #56]	; 0x38
    1860:	9e0c      	ldr	r6, [sp, #48]	; 0x30
    1862:	9f0d      	ldr	r7, [sp, #52]	; 0x34
    1864:	e005      	b.n	1872 <_vfprintf_r+0x106e>
    1866:	2f00      	cmp	r7, #0
    1868:	d101      	bne.n	186e <_vfprintf_r+0x106a>
    186a:	f000 fcc1 	bl	21f0 <_vfprintf_r+0x19ec>
    186e:	0026      	movs	r6, r4
    1870:	4647      	mov	r7, r8
    1872:	220a      	movs	r2, #10
    1874:	2300      	movs	r3, #0
    1876:	0030      	movs	r0, r6
    1878:	0039      	movs	r1, r7
    187a:	f007 fce1 	bl	9240 <__aeabi_uldivmod>
    187e:	2301      	movs	r3, #1
    1880:	469c      	mov	ip, r3
    1882:	4653      	mov	r3, sl
    1884:	3d01      	subs	r5, #1
    1886:	3230      	adds	r2, #48	; 0x30
    1888:	0004      	movs	r4, r0
    188a:	4688      	mov	r8, r1
    188c:	702a      	strb	r2, [r5, #0]
    188e:	44e1      	add	r9, ip
    1890:	2b00      	cmp	r3, #0
    1892:	d0e8      	beq.n	1866 <_vfprintf_r+0x1062>
    1894:	9b1b      	ldr	r3, [sp, #108]	; 0x6c
    1896:	781b      	ldrb	r3, [r3, #0]
    1898:	4599      	cmp	r9, r3
    189a:	d1e4      	bne.n	1866 <_vfprintf_r+0x1062>
    189c:	464b      	mov	r3, r9
    189e:	2bff      	cmp	r3, #255	; 0xff
    18a0:	d0e1      	beq.n	1866 <_vfprintf_r+0x1062>
    18a2:	2f00      	cmp	r7, #0
    18a4:	d000      	beq.n	18a8 <_vfprintf_r+0x10a4>
    18a6:	e33c      	b.n	1f22 <_vfprintf_r+0x171e>
    18a8:	2e09      	cmp	r6, #9
    18aa:	d900      	bls.n	18ae <_vfprintf_r+0x10aa>
    18ac:	e339      	b.n	1f22 <_vfprintf_r+0x171e>
    18ae:	960c      	str	r6, [sp, #48]	; 0x30
    18b0:	970d      	str	r7, [sp, #52]	; 0x34
    18b2:	9c0a      	ldr	r4, [sp, #40]	; 0x28
    18b4:	9e07      	ldr	r6, [sp, #28]
    18b6:	9317      	str	r3, [sp, #92]	; 0x5c
    18b8:	9b0e      	ldr	r3, [sp, #56]	; 0x38
    18ba:	46b2      	mov	sl, r6
    18bc:	4698      	mov	r8, r3
    18be:	ab5c      	add	r3, sp, #368	; 0x170
    18c0:	1b5b      	subs	r3, r3, r5
    18c2:	930a      	str	r3, [sp, #40]	; 0x28
    18c4:	f7ff fb19 	bl	efa <_vfprintf_r+0x6f6>
    18c8:	2278      	movs	r2, #120	; 0x78
    18ca:	2130      	movs	r1, #48	; 0x30
    18cc:	ab26      	add	r3, sp, #152	; 0x98
    18ce:	705a      	strb	r2, [r3, #1]
    18d0:	7019      	strb	r1, [r3, #0]
    18d2:	4652      	mov	r2, sl
    18d4:	2302      	movs	r3, #2
    18d6:	431a      	orrs	r2, r3
    18d8:	9b08      	ldr	r3, [sp, #32]
    18da:	9215      	str	r2, [sp, #84]	; 0x54
    18dc:	2b63      	cmp	r3, #99	; 0x63
    18de:	dd00      	ble.n	18e2 <_vfprintf_r+0x10de>
    18e0:	e309      	b.n	1ef6 <_vfprintf_r+0x16f2>
    18e2:	2300      	movs	r3, #0
    18e4:	ad43      	add	r5, sp, #268	; 0x10c
    18e6:	930e      	str	r3, [sp, #56]	; 0x38
    18e8:	2381      	movs	r3, #129	; 0x81
    18ea:	9818      	ldr	r0, [sp, #96]	; 0x60
    18ec:	9919      	ldr	r1, [sp, #100]	; 0x64
    18ee:	4652      	mov	r2, sl
    18f0:	005b      	lsls	r3, r3, #1
    18f2:	431a      	orrs	r2, r3
    18f4:	4692      	mov	sl, r2
    18f6:	1e0f      	subs	r7, r1, #0
    18f8:	da01      	bge.n	18fe <_vfprintf_r+0x10fa>
    18fa:	f000 fcd8 	bl	22ae <_vfprintf_r+0x1aaa>
    18fe:	2220      	movs	r2, #32
    1900:	9b13      	ldr	r3, [sp, #76]	; 0x4c
    1902:	4681      	mov	r9, r0
    1904:	4393      	bics	r3, r2
    1906:	930a      	str	r3, [sp, #40]	; 0x28
    1908:	2300      	movs	r3, #0
    190a:	9322      	str	r3, [sp, #136]	; 0x88
    190c:	9b13      	ldr	r3, [sp, #76]	; 0x4c
    190e:	2b61      	cmp	r3, #97	; 0x61
    1910:	d000      	beq.n	1914 <_vfprintf_r+0x1110>
    1912:	e6fa      	b.n	170a <_vfprintf_r+0xf06>
    1914:	0039      	movs	r1, r7
    1916:	aa27      	add	r2, sp, #156	; 0x9c
    1918:	4648      	mov	r0, r9
    191a:	f004 fd39 	bl	6390 <frexp>
    191e:	23ff      	movs	r3, #255	; 0xff
    1920:	2200      	movs	r2, #0
    1922:	059b      	lsls	r3, r3, #22
    1924:	f009 f9d2 	bl	accc <__aeabi_dmul>
    1928:	2200      	movs	r2, #0
    192a:	2300      	movs	r3, #0
    192c:	0006      	movs	r6, r0
    192e:	000f      	movs	r7, r1
    1930:	f007 fc58 	bl	91e4 <__aeabi_dcmpeq>
    1934:	2800      	cmp	r0, #0
    1936:	d001      	beq.n	193c <_vfprintf_r+0x1138>
    1938:	2301      	movs	r3, #1
    193a:	9327      	str	r3, [sp, #156]	; 0x9c
    193c:	4b95      	ldr	r3, [pc, #596]	; (1b94 <_vfprintf_r+0x1390>)
    193e:	9307      	str	r3, [sp, #28]
    1940:	9b08      	ldr	r3, [sp, #32]
    1942:	46a9      	mov	r9, r5
    1944:	469c      	mov	ip, r3
    1946:	44ac      	add	ip, r5
    1948:	4663      	mov	r3, ip
    194a:	9316      	str	r3, [sp, #88]	; 0x58
    194c:	3b01      	subs	r3, #1
    194e:	9317      	str	r3, [sp, #92]	; 0x5c
    1950:	4653      	mov	r3, sl
    1952:	9423      	str	r4, [sp, #140]	; 0x8c
    1954:	46c2      	mov	sl, r8
    1956:	931a      	str	r3, [sp, #104]	; 0x68
    1958:	e007      	b.n	196a <_vfprintf_r+0x1166>
    195a:	2200      	movs	r2, #0
    195c:	2300      	movs	r3, #0
    195e:	f007 fc41 	bl	91e4 <__aeabi_dcmpeq>
    1962:	2800      	cmp	r0, #0
    1964:	d001      	beq.n	196a <_vfprintf_r+0x1166>
    1966:	f000 fd5e 	bl	2426 <_vfprintf_r+0x1c22>
    196a:	2200      	movs	r2, #0
    196c:	4b8a      	ldr	r3, [pc, #552]	; (1b98 <_vfprintf_r+0x1394>)
    196e:	0030      	movs	r0, r6
    1970:	0039      	movs	r1, r7
    1972:	f009 f9ab 	bl	accc <__aeabi_dmul>
    1976:	000f      	movs	r7, r1
    1978:	0006      	movs	r6, r0
    197a:	f00a f809 	bl	b990 <__aeabi_d2iz>
    197e:	0004      	movs	r4, r0
    1980:	f00a f83c 	bl	b9fc <__aeabi_i2d>
    1984:	46a8      	mov	r8, r5
    1986:	0002      	movs	r2, r0
    1988:	000b      	movs	r3, r1
    198a:	0030      	movs	r0, r6
    198c:	0039      	movs	r1, r7
    198e:	f009 fc5f 	bl	b250 <__aeabi_dsub>
    1992:	4642      	mov	r2, r8
    1994:	9b07      	ldr	r3, [sp, #28]
    1996:	3501      	adds	r5, #1
    1998:	5d1b      	ldrb	r3, [r3, r4]
    199a:	0006      	movs	r6, r0
    199c:	7013      	strb	r3, [r2, #0]
    199e:	9b17      	ldr	r3, [sp, #92]	; 0x5c
    19a0:	000f      	movs	r7, r1
    19a2:	1a9b      	subs	r3, r3, r2
    19a4:	9311      	str	r3, [sp, #68]	; 0x44
    19a6:	9b16      	ldr	r3, [sp, #88]	; 0x58
    19a8:	9512      	str	r5, [sp, #72]	; 0x48
    19aa:	4543      	cmp	r3, r8
    19ac:	d1d5      	bne.n	195a <_vfprintf_r+0x1156>
    19ae:	9b1a      	ldr	r3, [sp, #104]	; 0x68
    19b0:	46d0      	mov	r8, sl
    19b2:	469a      	mov	sl, r3
    19b4:	464b      	mov	r3, r9
    19b6:	46a9      	mov	r9, r5
    19b8:	001d      	movs	r5, r3
    19ba:	2301      	movs	r3, #1
    19bc:	9416      	str	r4, [sp, #88]	; 0x58
    19be:	425b      	negs	r3, r3
    19c0:	9c23      	ldr	r4, [sp, #140]	; 0x8c
    19c2:	9217      	str	r2, [sp, #92]	; 0x5c
    19c4:	9311      	str	r3, [sp, #68]	; 0x44
    19c6:	2200      	movs	r2, #0
    19c8:	0030      	movs	r0, r6
    19ca:	0039      	movs	r1, r7
    19cc:	4b73      	ldr	r3, [pc, #460]	; (1b9c <_vfprintf_r+0x1398>)
    19ce:	f007 fc23 	bl	9218 <__aeabi_dcmpgt>
    19d2:	2800      	cmp	r0, #0
    19d4:	d001      	beq.n	19da <_vfprintf_r+0x11d6>
    19d6:	f000 fcf9 	bl	23cc <_vfprintf_r+0x1bc8>
    19da:	2200      	movs	r2, #0
    19dc:	0030      	movs	r0, r6
    19de:	0039      	movs	r1, r7
    19e0:	4b6e      	ldr	r3, [pc, #440]	; (1b9c <_vfprintf_r+0x1398>)
    19e2:	f007 fbff 	bl	91e4 <__aeabi_dcmpeq>
    19e6:	2800      	cmp	r0, #0
    19e8:	d004      	beq.n	19f4 <_vfprintf_r+0x11f0>
    19ea:	9b16      	ldr	r3, [sp, #88]	; 0x58
    19ec:	07db      	lsls	r3, r3, #31
    19ee:	d501      	bpl.n	19f4 <_vfprintf_r+0x11f0>
    19f0:	f000 fcec 	bl	23cc <_vfprintf_r+0x1bc8>
    19f4:	9b11      	ldr	r3, [sp, #68]	; 0x44
    19f6:	2230      	movs	r2, #48	; 0x30
    19f8:	0019      	movs	r1, r3
    19fa:	4449      	add	r1, r9
    19fc:	2b00      	cmp	r3, #0
    19fe:	db0c      	blt.n	1a1a <_vfprintf_r+0x1216>
    1a00:	464b      	mov	r3, r9
    1a02:	0018      	movs	r0, r3
    1a04:	701a      	strb	r2, [r3, #0]
    1a06:	3301      	adds	r3, #1
    1a08:	4281      	cmp	r1, r0
    1a0a:	d1fa      	bne.n	1a02 <_vfprintf_r+0x11fe>
    1a0c:	9a12      	ldr	r2, [sp, #72]	; 0x48
    1a0e:	9b11      	ldr	r3, [sp, #68]	; 0x44
    1a10:	4694      	mov	ip, r2
    1a12:	3301      	adds	r3, #1
    1a14:	449c      	add	ip, r3
    1a16:	4663      	mov	r3, ip
    1a18:	9312      	str	r3, [sp, #72]	; 0x48
    1a1a:	9b12      	ldr	r3, [sp, #72]	; 0x48
    1a1c:	1b5b      	subs	r3, r3, r5
    1a1e:	9317      	str	r3, [sp, #92]	; 0x5c
    1a20:	e18d      	b.n	1d3e <_vfprintf_r+0x153a>
    1a22:	4653      	mov	r3, sl
    1a24:	06db      	lsls	r3, r3, #27
    1a26:	d429      	bmi.n	1a7c <_vfprintf_r+0x1278>
    1a28:	4653      	mov	r3, sl
    1a2a:	065b      	lsls	r3, r3, #25
    1a2c:	d522      	bpl.n	1a74 <_vfprintf_r+0x1270>
    1a2e:	9b0f      	ldr	r3, [sp, #60]	; 0x3c
    1a30:	cb04      	ldmia	r3!, {r2}
    1a32:	b292      	uxth	r2, r2
    1a34:	920c      	str	r2, [sp, #48]	; 0x30
    1a36:	2200      	movs	r2, #0
    1a38:	930f      	str	r3, [sp, #60]	; 0x3c
    1a3a:	920d      	str	r2, [sp, #52]	; 0x34
    1a3c:	e690      	b.n	1760 <_vfprintf_r+0xf5c>
    1a3e:	4659      	mov	r1, fp
    1a40:	4640      	mov	r0, r8
    1a42:	aa30      	add	r2, sp, #192	; 0xc0
    1a44:	f000 fe62 	bl	270c <__sprint_r>
    1a48:	2800      	cmp	r0, #0
    1a4a:	d000      	beq.n	1a4e <_vfprintf_r+0x124a>
    1a4c:	e42a      	b.n	12a4 <_vfprintf_r+0xaa0>
    1a4e:	9e32      	ldr	r6, [sp, #200]	; 0xc8
    1a50:	9f31      	ldr	r7, [sp, #196]	; 0xc4
    1a52:	ac33      	add	r4, sp, #204	; 0xcc
    1a54:	f7ff f92d 	bl	cb2 <_vfprintf_r+0x4ae>
    1a58:	4659      	mov	r1, fp
    1a5a:	4640      	mov	r0, r8
    1a5c:	aa30      	add	r2, sp, #192	; 0xc0
    1a5e:	f000 fe55 	bl	270c <__sprint_r>
    1a62:	2800      	cmp	r0, #0
    1a64:	d001      	beq.n	1a6a <_vfprintf_r+0x1266>
    1a66:	f7ff fc1d 	bl	12a4 <_vfprintf_r+0xaa0>
    1a6a:	9e32      	ldr	r6, [sp, #200]	; 0xc8
    1a6c:	9f31      	ldr	r7, [sp, #196]	; 0xc4
    1a6e:	ac33      	add	r4, sp, #204	; 0xcc
    1a70:	f7ff f92d 	bl	cce <_vfprintf_r+0x4ca>
    1a74:	4653      	mov	r3, sl
    1a76:	059b      	lsls	r3, r3, #22
    1a78:	d500      	bpl.n	1a7c <_vfprintf_r+0x1278>
    1a7a:	e1fe      	b.n	1e7a <_vfprintf_r+0x1676>
    1a7c:	9b0f      	ldr	r3, [sp, #60]	; 0x3c
    1a7e:	cb04      	ldmia	r3!, {r2}
    1a80:	920c      	str	r2, [sp, #48]	; 0x30
    1a82:	2200      	movs	r2, #0
    1a84:	930f      	str	r3, [sp, #60]	; 0x3c
    1a86:	920d      	str	r2, [sp, #52]	; 0x34
    1a88:	e66a      	b.n	1760 <_vfprintf_r+0xf5c>
    1a8a:	4659      	mov	r1, fp
    1a8c:	4640      	mov	r0, r8
    1a8e:	aa30      	add	r2, sp, #192	; 0xc0
    1a90:	f000 fe3c 	bl	270c <__sprint_r>
    1a94:	2800      	cmp	r0, #0
    1a96:	d001      	beq.n	1a9c <_vfprintf_r+0x1298>
    1a98:	f7ff fc04 	bl	12a4 <_vfprintf_r+0xaa0>
    1a9c:	ab1e      	add	r3, sp, #120	; 0x78
    1a9e:	7fdb      	ldrb	r3, [r3, #31]
    1aa0:	9e32      	ldr	r6, [sp, #200]	; 0xc8
    1aa2:	ac33      	add	r4, sp, #204	; 0xcc
    1aa4:	f7fe fff5 	bl	a92 <_vfprintf_r+0x28e>
    1aa8:	0027      	movs	r7, r4
    1aaa:	46a8      	mov	r8, r5
    1aac:	f7ff fbfc 	bl	12a8 <_vfprintf_r+0xaa4>
    1ab0:	0038      	movs	r0, r7
    1ab2:	f004 fb67 	bl	6184 <__sinit>
    1ab6:	f7fe fec5 	bl	844 <_vfprintf_r+0x40>
    1aba:	4659      	mov	r1, fp
    1abc:	4640      	mov	r0, r8
    1abe:	aa30      	add	r2, sp, #192	; 0xc0
    1ac0:	f000 fe24 	bl	270c <__sprint_r>
    1ac4:	2800      	cmp	r0, #0
    1ac6:	d001      	beq.n	1acc <_vfprintf_r+0x12c8>
    1ac8:	f7ff fbec 	bl	12a4 <_vfprintf_r+0xaa0>
    1acc:	9e32      	ldr	r6, [sp, #200]	; 0xc8
    1ace:	ac33      	add	r4, sp, #204	; 0xcc
    1ad0:	f7ff fb2e 	bl	1130 <_vfprintf_r+0x92c>
    1ad4:	af2e      	add	r7, sp, #184	; 0xb8
    1ad6:	2208      	movs	r2, #8
    1ad8:	2100      	movs	r1, #0
    1ada:	0038      	movs	r0, r7
    1adc:	9529      	str	r5, [sp, #164]	; 0xa4
    1ade:	f002 f913 	bl	3d08 <memset>
    1ae2:	9a08      	ldr	r2, [sp, #32]
    1ae4:	1c53      	adds	r3, r2, #1
    1ae6:	d100      	bne.n	1aea <_vfprintf_r+0x12e6>
    1ae8:	e297      	b.n	201a <_vfprintf_r+0x1816>
    1aea:	4651      	mov	r1, sl
    1aec:	2300      	movs	r3, #0
    1aee:	46aa      	mov	sl, r5
    1af0:	940e      	str	r4, [sp, #56]	; 0x38
    1af2:	2600      	movs	r6, #0
    1af4:	001c      	movs	r4, r3
    1af6:	0015      	movs	r5, r2
    1af8:	9107      	str	r1, [sp, #28]
    1afa:	e011      	b.n	1b20 <_vfprintf_r+0x131c>
    1afc:	003b      	movs	r3, r7
    1afe:	4640      	mov	r0, r8
    1b00:	a943      	add	r1, sp, #268	; 0x10c
    1b02:	f002 f955 	bl	3db0 <_wcrtomb_r>
    1b06:	1c43      	adds	r3, r0, #1
    1b08:	d101      	bne.n	1b0e <_vfprintf_r+0x130a>
    1b0a:	f000 fca0 	bl	244e <_vfprintf_r+0x1c4a>
    1b0e:	1820      	adds	r0, r4, r0
    1b10:	42a8      	cmp	r0, r5
    1b12:	dc09      	bgt.n	1b28 <_vfprintf_r+0x1324>
    1b14:	3604      	adds	r6, #4
    1b16:	42a8      	cmp	r0, r5
    1b18:	d101      	bne.n	1b1e <_vfprintf_r+0x131a>
    1b1a:	f000 fcc1 	bl	24a0 <_vfprintf_r+0x1c9c>
    1b1e:	0004      	movs	r4, r0
    1b20:	9b29      	ldr	r3, [sp, #164]	; 0xa4
    1b22:	599a      	ldr	r2, [r3, r6]
    1b24:	2a00      	cmp	r2, #0
    1b26:	d1e9      	bne.n	1afc <_vfprintf_r+0x12f8>
    1b28:	9b07      	ldr	r3, [sp, #28]
    1b2a:	4655      	mov	r5, sl
    1b2c:	469a      	mov	sl, r3
    1b2e:	940a      	str	r4, [sp, #40]	; 0x28
    1b30:	9c0e      	ldr	r4, [sp, #56]	; 0x38
    1b32:	9b0a      	ldr	r3, [sp, #40]	; 0x28
    1b34:	2b00      	cmp	r3, #0
    1b36:	d100      	bne.n	1b3a <_vfprintf_r+0x1336>
    1b38:	e336      	b.n	21a8 <_vfprintf_r+0x19a4>
    1b3a:	2b63      	cmp	r3, #99	; 0x63
    1b3c:	dc00      	bgt.n	1b40 <_vfprintf_r+0x133c>
    1b3e:	e3c9      	b.n	22d4 <_vfprintf_r+0x1ad0>
    1b40:	4640      	mov	r0, r8
    1b42:	1c59      	adds	r1, r3, #1
    1b44:	f001 fe22 	bl	378c <_malloc_r>
    1b48:	1e05      	subs	r5, r0, #0
    1b4a:	d101      	bne.n	1b50 <_vfprintf_r+0x134c>
    1b4c:	f000 fd30 	bl	25b0 <_vfprintf_r+0x1dac>
    1b50:	900e      	str	r0, [sp, #56]	; 0x38
    1b52:	2208      	movs	r2, #8
    1b54:	2100      	movs	r1, #0
    1b56:	0038      	movs	r0, r7
    1b58:	f002 f8d6 	bl	3d08 <memset>
    1b5c:	9e0a      	ldr	r6, [sp, #40]	; 0x28
    1b5e:	0029      	movs	r1, r5
    1b60:	0033      	movs	r3, r6
    1b62:	4640      	mov	r0, r8
    1b64:	9700      	str	r7, [sp, #0]
    1b66:	aa29      	add	r2, sp, #164	; 0xa4
    1b68:	f003 f840 	bl	4bec <_wcsrtombs_r>
    1b6c:	4286      	cmp	r6, r0
    1b6e:	d001      	beq.n	1b74 <_vfprintf_r+0x1370>
    1b70:	f000 fd14 	bl	259c <_vfprintf_r+0x1d98>
    1b74:	990a      	ldr	r1, [sp, #40]	; 0x28
    1b76:	2300      	movs	r3, #0
    1b78:	43ca      	mvns	r2, r1
    1b7a:	17d2      	asrs	r2, r2, #31
    1b7c:	546b      	strb	r3, [r5, r1]
    1b7e:	4011      	ands	r1, r2
    1b80:	464a      	mov	r2, r9
    1b82:	ab1e      	add	r3, sp, #120	; 0x78
    1b84:	7fdb      	ldrb	r3, [r3, #31]
    1b86:	9107      	str	r1, [sp, #28]
    1b88:	920f      	str	r2, [sp, #60]	; 0x3c
    1b8a:	f7ff f840 	bl	c0e <_vfprintf_r+0x40a>
    1b8e:	46c0      	nop			; (mov r8, r8)
    1b90:	0000bdd4 	.word	0x0000bdd4
    1b94:	0000bdac 	.word	0x0000bdac
    1b98:	40300000 	.word	0x40300000
    1b9c:	3fe00000 	.word	0x3fe00000
    1ba0:	46b1      	mov	r9, r6
    1ba2:	0016      	movs	r6, r2
    1ba4:	464a      	mov	r2, r9
    1ba6:	1976      	adds	r6, r6, r5
    1ba8:	3301      	adds	r3, #1
    1baa:	6022      	str	r2, [r4, #0]
    1bac:	6065      	str	r5, [r4, #4]
    1bae:	9632      	str	r6, [sp, #200]	; 0xc8
    1bb0:	9331      	str	r3, [sp, #196]	; 0xc4
    1bb2:	2b07      	cmp	r3, #7
    1bb4:	dc01      	bgt.n	1bba <_vfprintf_r+0x13b6>
    1bb6:	f7fe ffaa 	bl	b0e <_vfprintf_r+0x30a>
    1bba:	f7ff f8ac 	bl	d16 <_vfprintf_r+0x512>
    1bbe:	4656      	mov	r6, sl
    1bc0:	2b01      	cmp	r3, #1
    1bc2:	d001      	beq.n	1bc8 <_vfprintf_r+0x13c4>
    1bc4:	f7ff fa52 	bl	106c <_vfprintf_r+0x868>
    1bc8:	f7ff f9ea 	bl	fa0 <_vfprintf_r+0x79c>
    1bcc:	9b0f      	ldr	r3, [sp, #60]	; 0x3c
    1bce:	9909      	ldr	r1, [sp, #36]	; 0x24
    1bd0:	cb04      	ldmia	r3!, {r2}
    1bd2:	6011      	str	r1, [r2, #0]
    1bd4:	9d06      	ldr	r5, [sp, #24]
    1bd6:	930f      	str	r3, [sp, #60]	; 0x3c
    1bd8:	f7fe fe73 	bl	8c2 <_vfprintf_r+0xbe>
    1bdc:	464b      	mov	r3, r9
    1bde:	1976      	adds	r6, r6, r5
    1be0:	3701      	adds	r7, #1
    1be2:	6023      	str	r3, [r4, #0]
    1be4:	6065      	str	r5, [r4, #4]
    1be6:	9632      	str	r6, [sp, #200]	; 0xc8
    1be8:	9731      	str	r7, [sp, #196]	; 0xc4
    1bea:	2f07      	cmp	r7, #7
    1bec:	dc01      	bgt.n	1bf2 <_vfprintf_r+0x13ee>
    1bee:	f7ff f885 	bl	cfc <_vfprintf_r+0x4f8>
    1bf2:	e470      	b.n	14d6 <_vfprintf_r+0xcd2>
    1bf4:	4add      	ldr	r2, [pc, #884]	; (1f6c <_vfprintf_r+0x1768>)
    1bf6:	9b31      	ldr	r3, [sp, #196]	; 0xc4
    1bf8:	4691      	mov	r9, r2
    1bfa:	2f10      	cmp	r7, #16
    1bfc:	dd5b      	ble.n	1cb6 <_vfprintf_r+0x14b2>
    1bfe:	0032      	movs	r2, r6
    1c00:	4646      	mov	r6, r8
    1c02:	46a8      	mov	r8, r5
    1c04:	464d      	mov	r5, r9
    1c06:	e003      	b.n	1c10 <_vfprintf_r+0x140c>
    1c08:	3408      	adds	r4, #8
    1c0a:	3f10      	subs	r7, #16
    1c0c:	2f10      	cmp	r7, #16
    1c0e:	dd4e      	ble.n	1cae <_vfprintf_r+0x14aa>
    1c10:	2110      	movs	r1, #16
    1c12:	3210      	adds	r2, #16
    1c14:	3301      	adds	r3, #1
    1c16:	6025      	str	r5, [r4, #0]
    1c18:	6061      	str	r1, [r4, #4]
    1c1a:	9232      	str	r2, [sp, #200]	; 0xc8
    1c1c:	9331      	str	r3, [sp, #196]	; 0xc4
    1c1e:	2b07      	cmp	r3, #7
    1c20:	ddf2      	ble.n	1c08 <_vfprintf_r+0x1404>
    1c22:	4659      	mov	r1, fp
    1c24:	0030      	movs	r0, r6
    1c26:	aa30      	add	r2, sp, #192	; 0xc0
    1c28:	f000 fd70 	bl	270c <__sprint_r>
    1c2c:	2800      	cmp	r0, #0
    1c2e:	d001      	beq.n	1c34 <_vfprintf_r+0x1430>
    1c30:	f7ff fbb7 	bl	13a2 <_vfprintf_r+0xb9e>
    1c34:	9a32      	ldr	r2, [sp, #200]	; 0xc8
    1c36:	9b31      	ldr	r3, [sp, #196]	; 0xc4
    1c38:	ac33      	add	r4, sp, #204	; 0xcc
    1c3a:	e7e6      	b.n	1c0a <_vfprintf_r+0x1406>
    1c3c:	9b1d      	ldr	r3, [sp, #116]	; 0x74
    1c3e:	6023      	str	r3, [r4, #0]
    1c40:	9b1c      	ldr	r3, [sp, #112]	; 0x70
    1c42:	469c      	mov	ip, r3
    1c44:	6063      	str	r3, [r4, #4]
    1c46:	9b31      	ldr	r3, [sp, #196]	; 0xc4
    1c48:	4466      	add	r6, ip
    1c4a:	3301      	adds	r3, #1
    1c4c:	9632      	str	r6, [sp, #200]	; 0xc8
    1c4e:	9331      	str	r3, [sp, #196]	; 0xc4
    1c50:	2b07      	cmp	r3, #7
    1c52:	dd00      	ble.n	1c56 <_vfprintf_r+0x1452>
    1c54:	e13b      	b.n	1ece <_vfprintf_r+0x16ca>
    1c56:	0022      	movs	r2, r4
    1c58:	3208      	adds	r2, #8
    1c5a:	2900      	cmp	r1, #0
    1c5c:	da00      	bge.n	1c60 <_vfprintf_r+0x145c>
    1c5e:	e369      	b.n	2334 <_vfprintf_r+0x1b30>
    1c60:	9917      	ldr	r1, [sp, #92]	; 0x5c
    1c62:	3301      	adds	r3, #1
    1c64:	468c      	mov	ip, r1
    1c66:	4466      	add	r6, ip
    1c68:	6015      	str	r5, [r2, #0]
    1c6a:	6051      	str	r1, [r2, #4]
    1c6c:	9632      	str	r6, [sp, #200]	; 0xc8
    1c6e:	9331      	str	r3, [sp, #196]	; 0xc4
    1c70:	2b07      	cmp	r3, #7
    1c72:	dd01      	ble.n	1c78 <_vfprintf_r+0x1474>
    1c74:	f7ff f84f 	bl	d16 <_vfprintf_r+0x512>
    1c78:	3208      	adds	r2, #8
    1c7a:	0014      	movs	r4, r2
    1c7c:	f7fe ff48 	bl	b10 <_vfprintf_r+0x30c>
    1c80:	05b3      	lsls	r3, r6, #22
    1c82:	d400      	bmi.n	1c86 <_vfprintf_r+0x1482>
    1c84:	e48c      	b.n	15a0 <_vfprintf_r+0xd9c>
    1c86:	9b0f      	ldr	r3, [sp, #60]	; 0x3c
    1c88:	cb04      	ldmia	r3!, {r2}
    1c8a:	b2d2      	uxtb	r2, r2
    1c8c:	e48a      	b.n	15a4 <_vfprintf_r+0xda0>
    1c8e:	4653      	mov	r3, sl
    1c90:	9a0f      	ldr	r2, [sp, #60]	; 0x3c
    1c92:	059b      	lsls	r3, r3, #22
    1c94:	d400      	bmi.n	1c98 <_vfprintf_r+0x1494>
    1c96:	e46f      	b.n	1578 <_vfprintf_r+0xd74>
    1c98:	ca08      	ldmia	r2!, {r3}
    1c9a:	b25b      	sxtb	r3, r3
    1c9c:	930c      	str	r3, [sp, #48]	; 0x30
    1c9e:	17db      	asrs	r3, r3, #31
    1ca0:	930d      	str	r3, [sp, #52]	; 0x34
    1ca2:	920f      	str	r2, [sp, #60]	; 0x3c
    1ca4:	f7ff f95b 	bl	f5e <_vfprintf_r+0x75a>
    1ca8:	4db1      	ldr	r5, [pc, #708]	; (1f70 <_vfprintf_r+0x176c>)
    1caa:	f7fe ffa6 	bl	bfa <_vfprintf_r+0x3f6>
    1cae:	46a9      	mov	r9, r5
    1cb0:	4645      	mov	r5, r8
    1cb2:	46b0      	mov	r8, r6
    1cb4:	0016      	movs	r6, r2
    1cb6:	464a      	mov	r2, r9
    1cb8:	19f6      	adds	r6, r6, r7
    1cba:	3301      	adds	r3, #1
    1cbc:	6022      	str	r2, [r4, #0]
    1cbe:	6067      	str	r7, [r4, #4]
    1cc0:	9632      	str	r6, [sp, #200]	; 0xc8
    1cc2:	9331      	str	r3, [sp, #196]	; 0xc4
    1cc4:	2b07      	cmp	r3, #7
    1cc6:	dd00      	ble.n	1cca <_vfprintf_r+0x14c6>
    1cc8:	e11e      	b.n	1f08 <_vfprintf_r+0x1704>
    1cca:	3408      	adds	r4, #8
    1ccc:	f7ff fb8d 	bl	13ea <_vfprintf_r+0xbe6>
    1cd0:	0017      	movs	r7, r2
    1cd2:	f7ff fbb6 	bl	1442 <_vfprintf_r+0xc3e>
    1cd6:	9b08      	ldr	r3, [sp, #32]
    1cd8:	9307      	str	r3, [sp, #28]
    1cda:	2302      	movs	r3, #2
    1cdc:	aa2e      	add	r2, sp, #184	; 0xb8
    1cde:	9e07      	ldr	r6, [sp, #28]
    1ce0:	9204      	str	r2, [sp, #16]
    1ce2:	aa29      	add	r2, sp, #164	; 0xa4
    1ce4:	9203      	str	r2, [sp, #12]
    1ce6:	aa27      	add	r2, sp, #156	; 0x9c
    1ce8:	9202      	str	r2, [sp, #8]
    1cea:	9300      	str	r3, [sp, #0]
    1cec:	464a      	mov	r2, r9
    1cee:	003b      	movs	r3, r7
    1cf0:	4640      	mov	r0, r8
    1cf2:	9601      	str	r6, [sp, #4]
    1cf4:	f003 f83a 	bl	4d6c <_dtoa_r>
    1cf8:	9b0a      	ldr	r3, [sp, #40]	; 0x28
    1cfa:	0005      	movs	r5, r0
    1cfc:	2b47      	cmp	r3, #71	; 0x47
    1cfe:	d100      	bne.n	1d02 <_vfprintf_r+0x14fe>
    1d00:	e26e      	b.n	21e0 <_vfprintf_r+0x19dc>
    1d02:	1986      	adds	r6, r0, r6
    1d04:	2b46      	cmp	r3, #70	; 0x46
    1d06:	d105      	bne.n	1d14 <_vfprintf_r+0x1510>
    1d08:	7803      	ldrb	r3, [r0, #0]
    1d0a:	2b30      	cmp	r3, #48	; 0x30
    1d0c:	d100      	bne.n	1d10 <_vfprintf_r+0x150c>
    1d0e:	e11a      	b.n	1f46 <_vfprintf_r+0x1742>
    1d10:	9b27      	ldr	r3, [sp, #156]	; 0x9c
    1d12:	18f6      	adds	r6, r6, r3
    1d14:	2300      	movs	r3, #0
    1d16:	2200      	movs	r2, #0
    1d18:	4648      	mov	r0, r9
    1d1a:	0039      	movs	r1, r7
    1d1c:	f007 fa62 	bl	91e4 <__aeabi_dcmpeq>
    1d20:	0033      	movs	r3, r6
    1d22:	2800      	cmp	r0, #0
    1d24:	d109      	bne.n	1d3a <_vfprintf_r+0x1536>
    1d26:	9b2e      	ldr	r3, [sp, #184]	; 0xb8
    1d28:	42b3      	cmp	r3, r6
    1d2a:	d206      	bcs.n	1d3a <_vfprintf_r+0x1536>
    1d2c:	2130      	movs	r1, #48	; 0x30
    1d2e:	1c5a      	adds	r2, r3, #1
    1d30:	922e      	str	r2, [sp, #184]	; 0xb8
    1d32:	7019      	strb	r1, [r3, #0]
    1d34:	9b2e      	ldr	r3, [sp, #184]	; 0xb8
    1d36:	429e      	cmp	r6, r3
    1d38:	d8f9      	bhi.n	1d2e <_vfprintf_r+0x152a>
    1d3a:	1b5b      	subs	r3, r3, r5
    1d3c:	9317      	str	r3, [sp, #92]	; 0x5c
    1d3e:	9b0a      	ldr	r3, [sp, #40]	; 0x28
    1d40:	2b47      	cmp	r3, #71	; 0x47
    1d42:	d100      	bne.n	1d46 <_vfprintf_r+0x1542>
    1d44:	e133      	b.n	1fae <_vfprintf_r+0x17aa>
    1d46:	9b0a      	ldr	r3, [sp, #40]	; 0x28
    1d48:	2b46      	cmp	r3, #70	; 0x46
    1d4a:	d100      	bne.n	1d4e <_vfprintf_r+0x154a>
    1d4c:	e285      	b.n	225a <_vfprintf_r+0x1a56>
    1d4e:	9b27      	ldr	r3, [sp, #156]	; 0x9c
    1d50:	9316      	str	r3, [sp, #88]	; 0x58
    1d52:	9b16      	ldr	r3, [sp, #88]	; 0x58
    1d54:	1e5e      	subs	r6, r3, #1
    1d56:	9b0a      	ldr	r3, [sp, #40]	; 0x28
    1d58:	9627      	str	r6, [sp, #156]	; 0x9c
    1d5a:	2b41      	cmp	r3, #65	; 0x41
    1d5c:	d100      	bne.n	1d60 <_vfprintf_r+0x155c>
    1d5e:	e2bd      	b.n	22dc <_vfprintf_r+0x1ad8>
    1d60:	224c      	movs	r2, #76	; 0x4c
    1d62:	466b      	mov	r3, sp
    1d64:	189b      	adds	r3, r3, r2
    1d66:	2200      	movs	r2, #0
    1d68:	781b      	ldrb	r3, [r3, #0]
    1d6a:	2030      	movs	r0, #48	; 0x30
    1d6c:	a91e      	add	r1, sp, #120	; 0x78
    1d6e:	1809      	adds	r1, r1, r0
    1d70:	700b      	strb	r3, [r1, #0]
    1d72:	232b      	movs	r3, #43	; 0x2b
    1d74:	2e00      	cmp	r6, #0
    1d76:	da03      	bge.n	1d80 <_vfprintf_r+0x157c>
    1d78:	2601      	movs	r6, #1
    1d7a:	9b16      	ldr	r3, [sp, #88]	; 0x58
    1d7c:	1af6      	subs	r6, r6, r3
    1d7e:	232d      	movs	r3, #45	; 0x2d
    1d80:	2031      	movs	r0, #49	; 0x31
    1d82:	a91e      	add	r1, sp, #120	; 0x78
    1d84:	1809      	adds	r1, r1, r0
    1d86:	700b      	strb	r3, [r1, #0]
    1d88:	2e09      	cmp	r6, #9
    1d8a:	dc00      	bgt.n	1d8e <_vfprintf_r+0x158a>
    1d8c:	e337      	b.n	23fe <_vfprintf_r+0x1bfa>
    1d8e:	aa1e      	add	r2, sp, #120	; 0x78
    1d90:	2347      	movs	r3, #71	; 0x47
    1d92:	4694      	mov	ip, r2
    1d94:	4463      	add	r3, ip
    1d96:	001f      	movs	r7, r3
    1d98:	46a1      	mov	r9, r4
    1d9a:	46aa      	mov	sl, r5
    1d9c:	0030      	movs	r0, r6
    1d9e:	210a      	movs	r1, #10
    1da0:	f007 fa0a 	bl	91b8 <__aeabi_idivmod>
    1da4:	003c      	movs	r4, r7
    1da6:	3130      	adds	r1, #48	; 0x30
    1da8:	3f01      	subs	r7, #1
    1daa:	0030      	movs	r0, r6
    1dac:	7039      	strb	r1, [r7, #0]
    1dae:	210a      	movs	r1, #10
    1db0:	f007 f91c 	bl	8fec <__divsi3>
    1db4:	0035      	movs	r5, r6
    1db6:	0006      	movs	r6, r0
    1db8:	2d63      	cmp	r5, #99	; 0x63
    1dba:	dcef      	bgt.n	1d9c <_vfprintf_r+0x1598>
    1dbc:	4655      	mov	r5, sl
    1dbe:	46a2      	mov	sl, r4
    1dc0:	a91e      	add	r1, sp, #120	; 0x78
    1dc2:	4653      	mov	r3, sl
    1dc4:	2247      	movs	r2, #71	; 0x47
    1dc6:	468c      	mov	ip, r1
    1dc8:	3630      	adds	r6, #48	; 0x30
    1dca:	3b02      	subs	r3, #2
    1dcc:	b2f6      	uxtb	r6, r6
    1dce:	4462      	add	r2, ip
    1dd0:	464c      	mov	r4, r9
    1dd2:	701e      	strb	r6, [r3, #0]
    1dd4:	4293      	cmp	r3, r2
    1dd6:	d300      	bcc.n	1dda <_vfprintf_r+0x15d6>
    1dd8:	e3c4      	b.n	2564 <_vfprintf_r+0x1d60>
    1dda:	2232      	movs	r2, #50	; 0x32
    1ddc:	4462      	add	r2, ip
    1dde:	e000      	b.n	1de2 <_vfprintf_r+0x15de>
    1de0:	781e      	ldrb	r6, [r3, #0]
    1de2:	a81e      	add	r0, sp, #120	; 0x78
    1de4:	2147      	movs	r1, #71	; 0x47
    1de6:	4684      	mov	ip, r0
    1de8:	3301      	adds	r3, #1
    1dea:	4461      	add	r1, ip
    1dec:	7016      	strb	r6, [r2, #0]
    1dee:	3201      	adds	r2, #1
    1df0:	428b      	cmp	r3, r1
    1df2:	d1f5      	bne.n	1de0 <_vfprintf_r+0x15dc>
    1df4:	2349      	movs	r3, #73	; 0x49
    1df6:	4652      	mov	r2, sl
    1df8:	4463      	add	r3, ip
    1dfa:	1a9b      	subs	r3, r3, r2
    1dfc:	2232      	movs	r2, #50	; 0x32
    1dfe:	4462      	add	r2, ip
    1e00:	4694      	mov	ip, r2
    1e02:	aa2a      	add	r2, sp, #168	; 0xa8
    1e04:	4463      	add	r3, ip
    1e06:	1a9b      	subs	r3, r3, r2
    1e08:	931f      	str	r3, [sp, #124]	; 0x7c
    1e0a:	9a17      	ldr	r2, [sp, #92]	; 0x5c
    1e0c:	9b1f      	ldr	r3, [sp, #124]	; 0x7c
    1e0e:	4694      	mov	ip, r2
    1e10:	4463      	add	r3, ip
    1e12:	930a      	str	r3, [sp, #40]	; 0x28
    1e14:	2a01      	cmp	r2, #1
    1e16:	dc00      	bgt.n	1e1a <_vfprintf_r+0x1616>
    1e18:	e323      	b.n	2462 <_vfprintf_r+0x1c5e>
    1e1a:	9a1c      	ldr	r2, [sp, #112]	; 0x70
    1e1c:	9b0a      	ldr	r3, [sp, #40]	; 0x28
    1e1e:	4694      	mov	ip, r2
    1e20:	4463      	add	r3, ip
    1e22:	930a      	str	r3, [sp, #40]	; 0x28
    1e24:	4b53      	ldr	r3, [pc, #332]	; (1f74 <_vfprintf_r+0x1770>)
    1e26:	9a15      	ldr	r2, [sp, #84]	; 0x54
    1e28:	401a      	ands	r2, r3
    1e2a:	0013      	movs	r3, r2
    1e2c:	2280      	movs	r2, #128	; 0x80
    1e2e:	0052      	lsls	r2, r2, #1
    1e30:	431a      	orrs	r2, r3
    1e32:	4692      	mov	sl, r2
    1e34:	9a0a      	ldr	r2, [sp, #40]	; 0x28
    1e36:	43d3      	mvns	r3, r2
    1e38:	17db      	asrs	r3, r3, #31
    1e3a:	401a      	ands	r2, r3
    1e3c:	2300      	movs	r3, #0
    1e3e:	9207      	str	r2, [sp, #28]
    1e40:	931a      	str	r3, [sp, #104]	; 0x68
    1e42:	9315      	str	r3, [sp, #84]	; 0x54
    1e44:	9316      	str	r3, [sp, #88]	; 0x58
    1e46:	9b22      	ldr	r3, [sp, #136]	; 0x88
    1e48:	2b00      	cmp	r3, #0
    1e4a:	d000      	beq.n	1e4e <_vfprintf_r+0x164a>
    1e4c:	e0be      	b.n	1fcc <_vfprintf_r+0x17c8>
    1e4e:	2200      	movs	r2, #0
    1e50:	ab1e      	add	r3, sp, #120	; 0x78
    1e52:	7fdb      	ldrb	r3, [r3, #31]
    1e54:	9208      	str	r2, [sp, #32]
    1e56:	f7ff f85d 	bl	f14 <_vfprintf_r+0x710>
    1e5a:	2306      	movs	r3, #6
    1e5c:	9307      	str	r3, [sp, #28]
    1e5e:	e4ca      	b.n	17f6 <_vfprintf_r+0xff2>
    1e60:	9b17      	ldr	r3, [sp, #92]	; 0x5c
    1e62:	469c      	mov	ip, r3
    1e64:	1a9a      	subs	r2, r3, r2
    1e66:	9b0a      	ldr	r3, [sp, #40]	; 0x28
    1e68:	4465      	add	r5, ip
    1e6a:	1aef      	subs	r7, r5, r3
    1e6c:	4297      	cmp	r7, r2
    1e6e:	dc01      	bgt.n	1e74 <_vfprintf_r+0x1670>
    1e70:	f7ff faf6 	bl	1460 <_vfprintf_r+0xc5c>
    1e74:	0017      	movs	r7, r2
    1e76:	f7ff faf3 	bl	1460 <_vfprintf_r+0xc5c>
    1e7a:	9b0f      	ldr	r3, [sp, #60]	; 0x3c
    1e7c:	cb04      	ldmia	r3!, {r2}
    1e7e:	b2d2      	uxtb	r2, r2
    1e80:	920c      	str	r2, [sp, #48]	; 0x30
    1e82:	2200      	movs	r2, #0
    1e84:	930f      	str	r3, [sp, #60]	; 0x3c
    1e86:	920d      	str	r2, [sp, #52]	; 0x34
    1e88:	e46a      	b.n	1760 <_vfprintf_r+0xf5c>
    1e8a:	9b0f      	ldr	r3, [sp, #60]	; 0x3c
    1e8c:	cb04      	ldmia	r3!, {r2}
    1e8e:	b2d2      	uxtb	r2, r2
    1e90:	920c      	str	r2, [sp, #48]	; 0x30
    1e92:	2200      	movs	r2, #0
    1e94:	930f      	str	r3, [sp, #60]	; 0x3c
    1e96:	920d      	str	r2, [sp, #52]	; 0x34
    1e98:	f7ff f8a2 	bl	fe0 <_vfprintf_r+0x7dc>
    1e9c:	9b0f      	ldr	r3, [sp, #60]	; 0x3c
    1e9e:	9909      	ldr	r1, [sp, #36]	; 0x24
    1ea0:	cb04      	ldmia	r3!, {r2}
    1ea2:	9d06      	ldr	r5, [sp, #24]
    1ea4:	8011      	strh	r1, [r2, #0]
    1ea6:	930f      	str	r3, [sp, #60]	; 0x3c
    1ea8:	f7fe fd0b 	bl	8c2 <_vfprintf_r+0xbe>
    1eac:	0028      	movs	r0, r5
    1eae:	f004 fa41 	bl	6334 <strlen>
    1eb2:	0001      	movs	r1, r0
    1eb4:	f7fe ff69 	bl	d8a <_vfprintf_r+0x586>
    1eb8:	4659      	mov	r1, fp
    1eba:	0038      	movs	r0, r7
    1ebc:	aa30      	add	r2, sp, #192	; 0xc0
    1ebe:	f000 fc25 	bl	270c <__sprint_r>
    1ec2:	2800      	cmp	r0, #0
    1ec4:	d101      	bne.n	1eca <_vfprintf_r+0x16c6>
    1ec6:	f7fe fd9a 	bl	9fe <_vfprintf_r+0x1fa>
    1eca:	f7ff f9f4 	bl	12b6 <_vfprintf_r+0xab2>
    1ece:	4659      	mov	r1, fp
    1ed0:	4640      	mov	r0, r8
    1ed2:	aa30      	add	r2, sp, #192	; 0xc0
    1ed4:	f000 fc1a 	bl	270c <__sprint_r>
    1ed8:	2800      	cmp	r0, #0
    1eda:	d001      	beq.n	1ee0 <_vfprintf_r+0x16dc>
    1edc:	f7ff f9e2 	bl	12a4 <_vfprintf_r+0xaa0>
    1ee0:	9927      	ldr	r1, [sp, #156]	; 0x9c
    1ee2:	9e32      	ldr	r6, [sp, #200]	; 0xc8
    1ee4:	9b31      	ldr	r3, [sp, #196]	; 0xc4
    1ee6:	aa33      	add	r2, sp, #204	; 0xcc
    1ee8:	e6b7      	b.n	1c5a <_vfprintf_r+0x1456>
    1eea:	4643      	mov	r3, r8
    1eec:	6d98      	ldr	r0, [r3, #88]	; 0x58
    1eee:	f001 ffc5 	bl	3e7c <__retarget_lock_release_recursive>
    1ef2:	f7fe fd3c 	bl	96e <_vfprintf_r+0x16a>
    1ef6:	4640      	mov	r0, r8
    1ef8:	1c59      	adds	r1, r3, #1
    1efa:	f001 fc47 	bl	378c <_malloc_r>
    1efe:	1e05      	subs	r5, r0, #0
    1f00:	d100      	bne.n	1f04 <_vfprintf_r+0x1700>
    1f02:	e355      	b.n	25b0 <_vfprintf_r+0x1dac>
    1f04:	900e      	str	r0, [sp, #56]	; 0x38
    1f06:	e4ef      	b.n	18e8 <_vfprintf_r+0x10e4>
    1f08:	4659      	mov	r1, fp
    1f0a:	4640      	mov	r0, r8
    1f0c:	aa30      	add	r2, sp, #192	; 0xc0
    1f0e:	f000 fbfd 	bl	270c <__sprint_r>
    1f12:	2800      	cmp	r0, #0
    1f14:	d001      	beq.n	1f1a <_vfprintf_r+0x1716>
    1f16:	f7ff f9c5 	bl	12a4 <_vfprintf_r+0xaa0>
    1f1a:	9e32      	ldr	r6, [sp, #200]	; 0xc8
    1f1c:	ac33      	add	r4, sp, #204	; 0xcc
    1f1e:	f7ff fa64 	bl	13ea <_vfprintf_r+0xbe6>
    1f22:	9b20      	ldr	r3, [sp, #128]	; 0x80
    1f24:	9921      	ldr	r1, [sp, #132]	; 0x84
    1f26:	1aed      	subs	r5, r5, r3
    1f28:	001a      	movs	r2, r3
    1f2a:	0028      	movs	r0, r5
    1f2c:	f004 fcf8 	bl	6920 <strncpy>
    1f30:	991b      	ldr	r1, [sp, #108]	; 0x6c
    1f32:	784b      	ldrb	r3, [r1, #1]
    1f34:	468c      	mov	ip, r1
    1f36:	1e5a      	subs	r2, r3, #1
    1f38:	4193      	sbcs	r3, r2
    1f3a:	449c      	add	ip, r3
    1f3c:	4663      	mov	r3, ip
    1f3e:	931b      	str	r3, [sp, #108]	; 0x6c
    1f40:	2300      	movs	r3, #0
    1f42:	4699      	mov	r9, r3
    1f44:	e493      	b.n	186e <_vfprintf_r+0x106a>
    1f46:	2200      	movs	r2, #0
    1f48:	2300      	movs	r3, #0
    1f4a:	4648      	mov	r0, r9
    1f4c:	0039      	movs	r1, r7
    1f4e:	f007 f949 	bl	91e4 <__aeabi_dcmpeq>
    1f52:	2800      	cmp	r0, #0
    1f54:	d000      	beq.n	1f58 <_vfprintf_r+0x1754>
    1f56:	e6db      	b.n	1d10 <_vfprintf_r+0x150c>
    1f58:	2301      	movs	r3, #1
    1f5a:	9a07      	ldr	r2, [sp, #28]
    1f5c:	1a9b      	subs	r3, r3, r2
    1f5e:	9327      	str	r3, [sp, #156]	; 0x9c
    1f60:	e6d7      	b.n	1d12 <_vfprintf_r+0x150e>
    1f62:	9b08      	ldr	r3, [sp, #32]
    1f64:	3301      	adds	r3, #1
    1f66:	9307      	str	r3, [sp, #28]
    1f68:	2302      	movs	r3, #2
    1f6a:	e6b7      	b.n	1cdc <_vfprintf_r+0x14d8>
    1f6c:	0000c004 	.word	0x0000c004
    1f70:	0000bd9c 	.word	0x0000bd9c
    1f74:	fffffbff 	.word	0xfffffbff
    1f78:	0039      	movs	r1, r7
    1f7a:	aa27      	add	r2, sp, #156	; 0x9c
    1f7c:	4648      	mov	r0, r9
    1f7e:	f004 fa07 	bl	6390 <frexp>
    1f82:	23ff      	movs	r3, #255	; 0xff
    1f84:	2200      	movs	r2, #0
    1f86:	059b      	lsls	r3, r3, #22
    1f88:	f008 fea0 	bl	accc <__aeabi_dmul>
    1f8c:	2200      	movs	r2, #0
    1f8e:	2300      	movs	r3, #0
    1f90:	0006      	movs	r6, r0
    1f92:	000f      	movs	r7, r1
    1f94:	f007 f926 	bl	91e4 <__aeabi_dcmpeq>
    1f98:	2800      	cmp	r0, #0
    1f9a:	d001      	beq.n	1fa0 <_vfprintf_r+0x179c>
    1f9c:	2301      	movs	r3, #1
    1f9e:	9327      	str	r3, [sp, #156]	; 0x9c
    1fa0:	4bda      	ldr	r3, [pc, #872]	; (230c <_vfprintf_r+0x1b08>)
    1fa2:	9307      	str	r3, [sp, #28]
    1fa4:	e4cc      	b.n	1940 <_vfprintf_r+0x113c>
    1fa6:	9b08      	ldr	r3, [sp, #32]
    1fa8:	9307      	str	r3, [sp, #28]
    1faa:	2303      	movs	r3, #3
    1fac:	e696      	b.n	1cdc <_vfprintf_r+0x14d8>
    1fae:	9a27      	ldr	r2, [sp, #156]	; 0x9c
    1fb0:	9216      	str	r2, [sp, #88]	; 0x58
    1fb2:	1cd3      	adds	r3, r2, #3
    1fb4:	db02      	blt.n	1fbc <_vfprintf_r+0x17b8>
    1fb6:	9b08      	ldr	r3, [sp, #32]
    1fb8:	429a      	cmp	r2, r3
    1fba:	dd0e      	ble.n	1fda <_vfprintf_r+0x17d6>
    1fbc:	9b13      	ldr	r3, [sp, #76]	; 0x4c
    1fbe:	3b02      	subs	r3, #2
    1fc0:	001a      	movs	r2, r3
    1fc2:	9313      	str	r3, [sp, #76]	; 0x4c
    1fc4:	2320      	movs	r3, #32
    1fc6:	439a      	bics	r2, r3
    1fc8:	920a      	str	r2, [sp, #40]	; 0x28
    1fca:	e6c2      	b.n	1d52 <_vfprintf_r+0x154e>
    1fcc:	232d      	movs	r3, #45	; 0x2d
    1fce:	aa1e      	add	r2, sp, #120	; 0x78
    1fd0:	77d3      	strb	r3, [r2, #31]
    1fd2:	2200      	movs	r2, #0
    1fd4:	9208      	str	r2, [sp, #32]
    1fd6:	f7fe ffa0 	bl	f1a <_vfprintf_r+0x716>
    1fda:	9b16      	ldr	r3, [sp, #88]	; 0x58
    1fdc:	9a17      	ldr	r2, [sp, #92]	; 0x5c
    1fde:	4293      	cmp	r3, r2
    1fe0:	da00      	bge.n	1fe4 <_vfprintf_r+0x17e0>
    1fe2:	e180      	b.n	22e6 <_vfprintf_r+0x1ae2>
    1fe4:	9a16      	ldr	r2, [sp, #88]	; 0x58
    1fe6:	9b15      	ldr	r3, [sp, #84]	; 0x54
    1fe8:	920a      	str	r2, [sp, #40]	; 0x28
    1fea:	07db      	lsls	r3, r3, #31
    1fec:	d503      	bpl.n	1ff6 <_vfprintf_r+0x17f2>
    1fee:	9b1c      	ldr	r3, [sp, #112]	; 0x70
    1ff0:	469c      	mov	ip, r3
    1ff2:	4462      	add	r2, ip
    1ff4:	920a      	str	r2, [sp, #40]	; 0x28
    1ff6:	9b15      	ldr	r3, [sp, #84]	; 0x54
    1ff8:	055b      	lsls	r3, r3, #21
    1ffa:	d503      	bpl.n	2004 <_vfprintf_r+0x1800>
    1ffc:	9b16      	ldr	r3, [sp, #88]	; 0x58
    1ffe:	2b00      	cmp	r3, #0
    2000:	dd00      	ble.n	2004 <_vfprintf_r+0x1800>
    2002:	e255      	b.n	24b0 <_vfprintf_r+0x1cac>
    2004:	9a0a      	ldr	r2, [sp, #40]	; 0x28
    2006:	43d3      	mvns	r3, r2
    2008:	17db      	asrs	r3, r3, #31
    200a:	401a      	ands	r2, r3
    200c:	2367      	movs	r3, #103	; 0x67
    200e:	9207      	str	r2, [sp, #28]
    2010:	9313      	str	r3, [sp, #76]	; 0x4c
    2012:	2300      	movs	r3, #0
    2014:	931a      	str	r3, [sp, #104]	; 0x68
    2016:	9315      	str	r3, [sp, #84]	; 0x54
    2018:	e715      	b.n	1e46 <_vfprintf_r+0x1642>
    201a:	2300      	movs	r3, #0
    201c:	2100      	movs	r1, #0
    201e:	4640      	mov	r0, r8
    2020:	9700      	str	r7, [sp, #0]
    2022:	aa29      	add	r2, sp, #164	; 0xa4
    2024:	f002 fde2 	bl	4bec <_wcsrtombs_r>
    2028:	0003      	movs	r3, r0
    202a:	900a      	str	r0, [sp, #40]	; 0x28
    202c:	3301      	adds	r3, #1
    202e:	d100      	bne.n	2032 <_vfprintf_r+0x182e>
    2030:	e2be      	b.n	25b0 <_vfprintf_r+0x1dac>
    2032:	9529      	str	r5, [sp, #164]	; 0xa4
    2034:	e57d      	b.n	1b32 <_vfprintf_r+0x132e>
    2036:	232d      	movs	r3, #45	; 0x2d
    2038:	aa1e      	add	r2, sp, #120	; 0x78
    203a:	77d3      	strb	r3, [r2, #31]
    203c:	f7fe fdd7 	bl	bee <_vfprintf_r+0x3ea>
    2040:	9b17      	ldr	r3, [sp, #92]	; 0x5c
    2042:	991b      	ldr	r1, [sp, #108]	; 0x6c
    2044:	469c      	mov	ip, r3
    2046:	44ac      	add	ip, r5
    2048:	4663      	mov	r3, ip
    204a:	9308      	str	r3, [sp, #32]
    204c:	4bb0      	ldr	r3, [pc, #704]	; (2310 <_vfprintf_r+0x1b0c>)
    204e:	0032      	movs	r2, r6
    2050:	4699      	mov	r9, r3
    2052:	4653      	mov	r3, sl
    2054:	464f      	mov	r7, r9
    2056:	9311      	str	r3, [sp, #68]	; 0x44
    2058:	4689      	mov	r9, r1
    205a:	9b1a      	ldr	r3, [sp, #104]	; 0x68
    205c:	9915      	ldr	r1, [sp, #84]	; 0x54
    205e:	469a      	mov	sl, r3
    2060:	9e0a      	ldr	r6, [sp, #40]	; 0x28
    2062:	0023      	movs	r3, r4
    2064:	9512      	str	r5, [sp, #72]	; 0x48
    2066:	2900      	cmp	r1, #0
    2068:	d035      	beq.n	20d6 <_vfprintf_r+0x18d2>
    206a:	4651      	mov	r1, sl
    206c:	2900      	cmp	r1, #0
    206e:	d17c      	bne.n	216a <_vfprintf_r+0x1966>
    2070:	2101      	movs	r1, #1
    2072:	4249      	negs	r1, r1
    2074:	468c      	mov	ip, r1
    2076:	9915      	ldr	r1, [sp, #84]	; 0x54
    2078:	44e1      	add	r9, ip
    207a:	4461      	add	r1, ip
    207c:	9115      	str	r1, [sp, #84]	; 0x54
    207e:	9921      	ldr	r1, [sp, #132]	; 0x84
    2080:	6019      	str	r1, [r3, #0]
    2082:	9920      	ldr	r1, [sp, #128]	; 0x80
    2084:	468c      	mov	ip, r1
    2086:	6059      	str	r1, [r3, #4]
    2088:	9931      	ldr	r1, [sp, #196]	; 0xc4
    208a:	4462      	add	r2, ip
    208c:	3101      	adds	r1, #1
    208e:	9232      	str	r2, [sp, #200]	; 0xc8
    2090:	9131      	str	r1, [sp, #196]	; 0xc4
    2092:	2907      	cmp	r1, #7
    2094:	dc6e      	bgt.n	2174 <_vfprintf_r+0x1970>
    2096:	3308      	adds	r3, #8
    2098:	4649      	mov	r1, r9
    209a:	9808      	ldr	r0, [sp, #32]
    209c:	7809      	ldrb	r1, [r1, #0]
    209e:	1b85      	subs	r5, r0, r6
    20a0:	428d      	cmp	r5, r1
    20a2:	dd00      	ble.n	20a6 <_vfprintf_r+0x18a2>
    20a4:	000d      	movs	r5, r1
    20a6:	2d00      	cmp	r5, #0
    20a8:	dd0b      	ble.n	20c2 <_vfprintf_r+0x18be>
    20aa:	9931      	ldr	r1, [sp, #196]	; 0xc4
    20ac:	1952      	adds	r2, r2, r5
    20ae:	3101      	adds	r1, #1
    20b0:	601e      	str	r6, [r3, #0]
    20b2:	605d      	str	r5, [r3, #4]
    20b4:	9232      	str	r2, [sp, #200]	; 0xc8
    20b6:	9131      	str	r1, [sp, #196]	; 0xc4
    20b8:	2907      	cmp	r1, #7
    20ba:	dc67      	bgt.n	218c <_vfprintf_r+0x1988>
    20bc:	4649      	mov	r1, r9
    20be:	7809      	ldrb	r1, [r1, #0]
    20c0:	3308      	adds	r3, #8
    20c2:	43e8      	mvns	r0, r5
    20c4:	17c0      	asrs	r0, r0, #31
    20c6:	4005      	ands	r5, r0
    20c8:	1b4d      	subs	r5, r1, r5
    20ca:	2d00      	cmp	r5, #0
    20cc:	dc18      	bgt.n	2100 <_vfprintf_r+0x18fc>
    20ce:	1876      	adds	r6, r6, r1
    20d0:	9915      	ldr	r1, [sp, #84]	; 0x54
    20d2:	2900      	cmp	r1, #0
    20d4:	d1c9      	bne.n	206a <_vfprintf_r+0x1866>
    20d6:	4651      	mov	r1, sl
    20d8:	2900      	cmp	r1, #0
    20da:	d146      	bne.n	216a <_vfprintf_r+0x1966>
    20dc:	4649      	mov	r1, r9
    20de:	001c      	movs	r4, r3
    20e0:	9d12      	ldr	r5, [sp, #72]	; 0x48
    20e2:	9b17      	ldr	r3, [sp, #92]	; 0x5c
    20e4:	911b      	str	r1, [sp, #108]	; 0x6c
    20e6:	960a      	str	r6, [sp, #40]	; 0x28
    20e8:	0031      	movs	r1, r6
    20ea:	0016      	movs	r6, r2
    20ec:	9a11      	ldr	r2, [sp, #68]	; 0x44
    20ee:	18eb      	adds	r3, r5, r3
    20f0:	4692      	mov	sl, r2
    20f2:	4299      	cmp	r1, r3
    20f4:	d801      	bhi.n	20fa <_vfprintf_r+0x18f6>
    20f6:	f7ff f982 	bl	13fe <_vfprintf_r+0xbfa>
    20fa:	930a      	str	r3, [sp, #40]	; 0x28
    20fc:	f7ff f97f 	bl	13fe <_vfprintf_r+0xbfa>
    2100:	9931      	ldr	r1, [sp, #196]	; 0xc4
    2102:	970a      	str	r7, [sp, #40]	; 0x28
    2104:	2d10      	cmp	r5, #16
    2106:	dd22      	ble.n	214e <_vfprintf_r+0x194a>
    2108:	4640      	mov	r0, r8
    210a:	2410      	movs	r4, #16
    210c:	46b0      	mov	r8, r6
    210e:	0006      	movs	r6, r0
    2110:	e003      	b.n	211a <_vfprintf_r+0x1916>
    2112:	3d10      	subs	r5, #16
    2114:	3308      	adds	r3, #8
    2116:	2d10      	cmp	r5, #16
    2118:	dd16      	ble.n	2148 <_vfprintf_r+0x1944>
    211a:	3210      	adds	r2, #16
    211c:	3101      	adds	r1, #1
    211e:	601f      	str	r7, [r3, #0]
    2120:	605c      	str	r4, [r3, #4]
    2122:	9232      	str	r2, [sp, #200]	; 0xc8
    2124:	9131      	str	r1, [sp, #196]	; 0xc4
    2126:	2907      	cmp	r1, #7
    2128:	ddf3      	ble.n	2112 <_vfprintf_r+0x190e>
    212a:	4659      	mov	r1, fp
    212c:	0030      	movs	r0, r6
    212e:	aa30      	add	r2, sp, #192	; 0xc0
    2130:	f000 faec 	bl	270c <__sprint_r>
    2134:	2800      	cmp	r0, #0
    2136:	d001      	beq.n	213c <_vfprintf_r+0x1938>
    2138:	f7ff f933 	bl	13a2 <_vfprintf_r+0xb9e>
    213c:	3d10      	subs	r5, #16
    213e:	9a32      	ldr	r2, [sp, #200]	; 0xc8
    2140:	9931      	ldr	r1, [sp, #196]	; 0xc4
    2142:	ab33      	add	r3, sp, #204	; 0xcc
    2144:	2d10      	cmp	r5, #16
    2146:	dce8      	bgt.n	211a <_vfprintf_r+0x1916>
    2148:	0030      	movs	r0, r6
    214a:	4646      	mov	r6, r8
    214c:	4680      	mov	r8, r0
    214e:	980a      	ldr	r0, [sp, #40]	; 0x28
    2150:	1952      	adds	r2, r2, r5
    2152:	3101      	adds	r1, #1
    2154:	6018      	str	r0, [r3, #0]
    2156:	605d      	str	r5, [r3, #4]
    2158:	9232      	str	r2, [sp, #200]	; 0xc8
    215a:	9131      	str	r1, [sp, #196]	; 0xc4
    215c:	2907      	cmp	r1, #7
    215e:	dc52      	bgt.n	2206 <_vfprintf_r+0x1a02>
    2160:	4649      	mov	r1, r9
    2162:	7809      	ldrb	r1, [r1, #0]
    2164:	3308      	adds	r3, #8
    2166:	1876      	adds	r6, r6, r1
    2168:	e7b2      	b.n	20d0 <_vfprintf_r+0x18cc>
    216a:	2101      	movs	r1, #1
    216c:	4249      	negs	r1, r1
    216e:	468c      	mov	ip, r1
    2170:	44e2      	add	sl, ip
    2172:	e784      	b.n	207e <_vfprintf_r+0x187a>
    2174:	4659      	mov	r1, fp
    2176:	4640      	mov	r0, r8
    2178:	aa30      	add	r2, sp, #192	; 0xc0
    217a:	f000 fac7 	bl	270c <__sprint_r>
    217e:	2800      	cmp	r0, #0
    2180:	d001      	beq.n	2186 <_vfprintf_r+0x1982>
    2182:	f7ff f88f 	bl	12a4 <_vfprintf_r+0xaa0>
    2186:	9a32      	ldr	r2, [sp, #200]	; 0xc8
    2188:	ab33      	add	r3, sp, #204	; 0xcc
    218a:	e785      	b.n	2098 <_vfprintf_r+0x1894>
    218c:	4659      	mov	r1, fp
    218e:	4640      	mov	r0, r8
    2190:	aa30      	add	r2, sp, #192	; 0xc0
    2192:	f000 fabb 	bl	270c <__sprint_r>
    2196:	2800      	cmp	r0, #0
    2198:	d001      	beq.n	219e <_vfprintf_r+0x199a>
    219a:	f7ff f883 	bl	12a4 <_vfprintf_r+0xaa0>
    219e:	464b      	mov	r3, r9
    21a0:	9a32      	ldr	r2, [sp, #200]	; 0xc8
    21a2:	7819      	ldrb	r1, [r3, #0]
    21a4:	ab33      	add	r3, sp, #204	; 0xcc
    21a6:	e78c      	b.n	20c2 <_vfprintf_r+0x18be>
    21a8:	2200      	movs	r2, #0
    21aa:	9207      	str	r2, [sp, #28]
    21ac:	464a      	mov	r2, r9
    21ae:	920f      	str	r2, [sp, #60]	; 0x3c
    21b0:	2200      	movs	r2, #0
    21b2:	ab1e      	add	r3, sp, #120	; 0x78
    21b4:	7fdb      	ldrb	r3, [r3, #31]
    21b6:	9208      	str	r2, [sp, #32]
    21b8:	921a      	str	r2, [sp, #104]	; 0x68
    21ba:	9215      	str	r2, [sp, #84]	; 0x54
    21bc:	9216      	str	r2, [sp, #88]	; 0x58
    21be:	920e      	str	r2, [sp, #56]	; 0x38
    21c0:	f7fe fea8 	bl	f14 <_vfprintf_r+0x710>
    21c4:	4659      	mov	r1, fp
    21c6:	4640      	mov	r0, r8
    21c8:	aa30      	add	r2, sp, #192	; 0xc0
    21ca:	f000 fa9f 	bl	270c <__sprint_r>
    21ce:	2800      	cmp	r0, #0
    21d0:	d001      	beq.n	21d6 <_vfprintf_r+0x19d2>
    21d2:	f7ff f867 	bl	12a4 <_vfprintf_r+0xaa0>
    21d6:	9927      	ldr	r1, [sp, #156]	; 0x9c
    21d8:	9e32      	ldr	r6, [sp, #200]	; 0xc8
    21da:	ac33      	add	r4, sp, #204	; 0xcc
    21dc:	f7ff fa0e 	bl	15fc <_vfprintf_r+0xdf8>
    21e0:	9b07      	ldr	r3, [sp, #28]
    21e2:	18c6      	adds	r6, r0, r3
    21e4:	9b15      	ldr	r3, [sp, #84]	; 0x54
    21e6:	07db      	lsls	r3, r3, #31
    21e8:	d500      	bpl.n	21ec <_vfprintf_r+0x19e8>
    21ea:	e593      	b.n	1d14 <_vfprintf_r+0x1510>
    21ec:	9b2e      	ldr	r3, [sp, #184]	; 0xb8
    21ee:	e5a4      	b.n	1d3a <_vfprintf_r+0x1536>
    21f0:	2e09      	cmp	r6, #9
    21f2:	d901      	bls.n	21f8 <_vfprintf_r+0x19f4>
    21f4:	f7ff fb3b 	bl	186e <_vfprintf_r+0x106a>
    21f8:	960c      	str	r6, [sp, #48]	; 0x30
    21fa:	970d      	str	r7, [sp, #52]	; 0x34
    21fc:	464b      	mov	r3, r9
    21fe:	9e07      	ldr	r6, [sp, #28]
    2200:	9c0a      	ldr	r4, [sp, #40]	; 0x28
    2202:	f7ff fb58 	bl	18b6 <_vfprintf_r+0x10b2>
    2206:	4659      	mov	r1, fp
    2208:	4640      	mov	r0, r8
    220a:	aa30      	add	r2, sp, #192	; 0xc0
    220c:	f000 fa7e 	bl	270c <__sprint_r>
    2210:	2800      	cmp	r0, #0
    2212:	d001      	beq.n	2218 <_vfprintf_r+0x1a14>
    2214:	f7ff f846 	bl	12a4 <_vfprintf_r+0xaa0>
    2218:	464b      	mov	r3, r9
    221a:	7819      	ldrb	r1, [r3, #0]
    221c:	9a32      	ldr	r2, [sp, #200]	; 0xc8
    221e:	ab33      	add	r3, sp, #204	; 0xcc
    2220:	1876      	adds	r6, r6, r1
    2222:	e755      	b.n	20d0 <_vfprintf_r+0x18cc>
    2224:	4659      	mov	r1, fp
    2226:	4640      	mov	r0, r8
    2228:	aa30      	add	r2, sp, #192	; 0xc0
    222a:	f000 fa6f 	bl	270c <__sprint_r>
    222e:	2800      	cmp	r0, #0
    2230:	d001      	beq.n	2236 <_vfprintf_r+0x1a32>
    2232:	f7ff f837 	bl	12a4 <_vfprintf_r+0xaa0>
    2236:	9e32      	ldr	r6, [sp, #200]	; 0xc8
    2238:	ac33      	add	r4, sp, #204	; 0xcc
    223a:	f7ff f8cd 	bl	13d8 <_vfprintf_r+0xbd4>
    223e:	4659      	mov	r1, fp
    2240:	4640      	mov	r0, r8
    2242:	aa30      	add	r2, sp, #192	; 0xc0
    2244:	f000 fa62 	bl	270c <__sprint_r>
    2248:	2800      	cmp	r0, #0
    224a:	d001      	beq.n	2250 <_vfprintf_r+0x1a4c>
    224c:	f7ff f82a 	bl	12a4 <_vfprintf_r+0xaa0>
    2250:	9a27      	ldr	r2, [sp, #156]	; 0x9c
    2252:	9e32      	ldr	r6, [sp, #200]	; 0xc8
    2254:	ac33      	add	r4, sp, #204	; 0xcc
    2256:	f7ff f8ea 	bl	142e <_vfprintf_r+0xc2a>
    225a:	9a27      	ldr	r2, [sp, #156]	; 0x9c
    225c:	2301      	movs	r3, #1
    225e:	9216      	str	r2, [sp, #88]	; 0x58
    2260:	2a00      	cmp	r2, #0
    2262:	dc00      	bgt.n	2266 <_vfprintf_r+0x1a62>
    2264:	e181      	b.n	256a <_vfprintf_r+0x1d66>
    2266:	9915      	ldr	r1, [sp, #84]	; 0x54
    2268:	400b      	ands	r3, r1
    226a:	9908      	ldr	r1, [sp, #32]
    226c:	430b      	orrs	r3, r1
    226e:	d000      	beq.n	2272 <_vfprintf_r+0x1a6e>
    2270:	e10b      	b.n	248a <_vfprintf_r+0x1c86>
    2272:	9b16      	ldr	r3, [sp, #88]	; 0x58
    2274:	930a      	str	r3, [sp, #40]	; 0x28
    2276:	2366      	movs	r3, #102	; 0x66
    2278:	9313      	str	r3, [sp, #76]	; 0x4c
    227a:	9b15      	ldr	r3, [sp, #84]	; 0x54
    227c:	055b      	lsls	r3, r3, #21
    227e:	d500      	bpl.n	2282 <_vfprintf_r+0x1a7e>
    2280:	e118      	b.n	24b4 <_vfprintf_r+0x1cb0>
    2282:	9a0a      	ldr	r2, [sp, #40]	; 0x28
    2284:	43d3      	mvns	r3, r2
    2286:	17db      	asrs	r3, r3, #31
    2288:	401a      	ands	r2, r3
    228a:	9207      	str	r2, [sp, #28]
    228c:	e6c1      	b.n	2012 <_vfprintf_r+0x180e>
    228e:	4659      	mov	r1, fp
    2290:	4640      	mov	r0, r8
    2292:	aa30      	add	r2, sp, #192	; 0xc0
    2294:	f000 fa3a 	bl	270c <__sprint_r>
    2298:	2800      	cmp	r0, #0
    229a:	d001      	beq.n	22a0 <_vfprintf_r+0x1a9c>
    229c:	f7ff f802 	bl	12a4 <_vfprintf_r+0xaa0>
    22a0:	9a27      	ldr	r2, [sp, #156]	; 0x9c
    22a2:	9b17      	ldr	r3, [sp, #92]	; 0x5c
    22a4:	9e32      	ldr	r6, [sp, #200]	; 0xc8
    22a6:	1a9a      	subs	r2, r3, r2
    22a8:	ac33      	add	r4, sp, #204	; 0xcc
    22aa:	f7ff f8d9 	bl	1460 <_vfprintf_r+0xc5c>
    22ae:	2320      	movs	r3, #32
    22b0:	9a13      	ldr	r2, [sp, #76]	; 0x4c
    22b2:	439a      	bics	r2, r3
    22b4:	920a      	str	r2, [sp, #40]	; 0x28
    22b6:	9a18      	ldr	r2, [sp, #96]	; 0x60
    22b8:	9b19      	ldr	r3, [sp, #100]	; 0x64
    22ba:	001f      	movs	r7, r3
    22bc:	2380      	movs	r3, #128	; 0x80
    22be:	061b      	lsls	r3, r3, #24
    22c0:	469c      	mov	ip, r3
    22c2:	232d      	movs	r3, #45	; 0x2d
    22c4:	4691      	mov	r9, r2
    22c6:	4467      	add	r7, ip
    22c8:	9322      	str	r3, [sp, #136]	; 0x88
    22ca:	f7ff fb1f 	bl	190c <_vfprintf_r+0x1108>
    22ce:	9006      	str	r0, [sp, #24]
    22d0:	f7fe fb29 	bl	926 <_vfprintf_r+0x122>
    22d4:	2300      	movs	r3, #0
    22d6:	ad43      	add	r5, sp, #268	; 0x10c
    22d8:	930e      	str	r3, [sp, #56]	; 0x38
    22da:	e43a      	b.n	1b52 <_vfprintf_r+0x134e>
    22dc:	9b13      	ldr	r3, [sp, #76]	; 0x4c
    22de:	2201      	movs	r2, #1
    22e0:	330f      	adds	r3, #15
    22e2:	b2db      	uxtb	r3, r3
    22e4:	e541      	b.n	1d6a <_vfprintf_r+0x1566>
    22e6:	9a1c      	ldr	r2, [sp, #112]	; 0x70
    22e8:	9b17      	ldr	r3, [sp, #92]	; 0x5c
    22ea:	4694      	mov	ip, r2
    22ec:	2267      	movs	r2, #103	; 0x67
    22ee:	9213      	str	r2, [sp, #76]	; 0x4c
    22f0:	9a16      	ldr	r2, [sp, #88]	; 0x58
    22f2:	4463      	add	r3, ip
    22f4:	930a      	str	r3, [sp, #40]	; 0x28
    22f6:	2a00      	cmp	r2, #0
    22f8:	dcbf      	bgt.n	227a <_vfprintf_r+0x1a76>
    22fa:	1a9b      	subs	r3, r3, r2
    22fc:	1c5a      	adds	r2, r3, #1
    22fe:	43d3      	mvns	r3, r2
    2300:	17db      	asrs	r3, r3, #31
    2302:	920a      	str	r2, [sp, #40]	; 0x28
    2304:	401a      	ands	r2, r3
    2306:	9207      	str	r2, [sp, #28]
    2308:	e683      	b.n	2012 <_vfprintf_r+0x180e>
    230a:	46c0      	nop			; (mov r8, r8)
    230c:	0000bdc0 	.word	0x0000bdc0
    2310:	0000c004 	.word	0x0000c004
    2314:	6e5b      	ldr	r3, [r3, #100]	; 0x64
    2316:	07db      	lsls	r3, r3, #31
    2318:	d407      	bmi.n	232a <_vfprintf_r+0x1b26>
    231a:	4643      	mov	r3, r8
    231c:	899b      	ldrh	r3, [r3, #12]
    231e:	059b      	lsls	r3, r3, #22
    2320:	d403      	bmi.n	232a <_vfprintf_r+0x1b26>
    2322:	4643      	mov	r3, r8
    2324:	6d98      	ldr	r0, [r3, #88]	; 0x58
    2326:	f001 fda9 	bl	3e7c <__retarget_lock_release_recursive>
    232a:	2301      	movs	r3, #1
    232c:	425b      	negs	r3, r3
    232e:	9309      	str	r3, [sp, #36]	; 0x24
    2330:	f7fe ffcd 	bl	12ce <_vfprintf_r+0xaca>
    2334:	424f      	negs	r7, r1
    2336:	3110      	adds	r1, #16
    2338:	db00      	blt.n	233c <_vfprintf_r+0x1b38>
    233a:	e147      	b.n	25cc <_vfprintf_r+0x1dc8>
    233c:	49a5      	ldr	r1, [pc, #660]	; (25d4 <_vfprintf_r+0x1dd0>)
    233e:	46a9      	mov	r9, r5
    2340:	2410      	movs	r4, #16
    2342:	000d      	movs	r5, r1
    2344:	e003      	b.n	234e <_vfprintf_r+0x1b4a>
    2346:	3208      	adds	r2, #8
    2348:	3f10      	subs	r7, #16
    234a:	2f10      	cmp	r7, #16
    234c:	dd14      	ble.n	2378 <_vfprintf_r+0x1b74>
    234e:	3610      	adds	r6, #16
    2350:	3301      	adds	r3, #1
    2352:	6015      	str	r5, [r2, #0]
    2354:	6054      	str	r4, [r2, #4]
    2356:	9632      	str	r6, [sp, #200]	; 0xc8
    2358:	9331      	str	r3, [sp, #196]	; 0xc4
    235a:	2b07      	cmp	r3, #7
    235c:	ddf3      	ble.n	2346 <_vfprintf_r+0x1b42>
    235e:	4659      	mov	r1, fp
    2360:	4640      	mov	r0, r8
    2362:	aa30      	add	r2, sp, #192	; 0xc0
    2364:	f000 f9d2 	bl	270c <__sprint_r>
    2368:	2800      	cmp	r0, #0
    236a:	d001      	beq.n	2370 <_vfprintf_r+0x1b6c>
    236c:	f7fe ff9a 	bl	12a4 <_vfprintf_r+0xaa0>
    2370:	9e32      	ldr	r6, [sp, #200]	; 0xc8
    2372:	9b31      	ldr	r3, [sp, #196]	; 0xc4
    2374:	aa33      	add	r2, sp, #204	; 0xcc
    2376:	e7e7      	b.n	2348 <_vfprintf_r+0x1b44>
    2378:	0029      	movs	r1, r5
    237a:	464d      	mov	r5, r9
    237c:	4689      	mov	r9, r1
    237e:	4649      	mov	r1, r9
    2380:	19f6      	adds	r6, r6, r7
    2382:	3301      	adds	r3, #1
    2384:	6011      	str	r1, [r2, #0]
    2386:	6057      	str	r7, [r2, #4]
    2388:	9632      	str	r6, [sp, #200]	; 0xc8
    238a:	9331      	str	r3, [sp, #196]	; 0xc4
    238c:	2b07      	cmp	r3, #7
    238e:	dc01      	bgt.n	2394 <_vfprintf_r+0x1b90>
    2390:	f7ff f94e 	bl	1630 <_vfprintf_r+0xe2c>
    2394:	4659      	mov	r1, fp
    2396:	4640      	mov	r0, r8
    2398:	aa30      	add	r2, sp, #192	; 0xc0
    239a:	f000 f9b7 	bl	270c <__sprint_r>
    239e:	2800      	cmp	r0, #0
    23a0:	d001      	beq.n	23a6 <_vfprintf_r+0x1ba2>
    23a2:	f7fe ff7f 	bl	12a4 <_vfprintf_r+0xaa0>
    23a6:	9e32      	ldr	r6, [sp, #200]	; 0xc8
    23a8:	9b31      	ldr	r3, [sp, #196]	; 0xc4
    23aa:	aa33      	add	r2, sp, #204	; 0xcc
    23ac:	e458      	b.n	1c60 <_vfprintf_r+0x145c>
    23ae:	9b08      	ldr	r3, [sp, #32]
    23b0:	2b00      	cmp	r3, #0
    23b2:	d001      	beq.n	23b8 <_vfprintf_r+0x1bb4>
    23b4:	f7ff f998 	bl	16e8 <_vfprintf_r+0xee4>
    23b8:	3301      	adds	r3, #1
    23ba:	9308      	str	r3, [sp, #32]
    23bc:	f7ff f994 	bl	16e8 <_vfprintf_r+0xee4>
    23c0:	4652      	mov	r2, sl
    23c2:	469a      	mov	sl, r3
    23c4:	2300      	movs	r3, #0
    23c6:	9215      	str	r2, [sp, #84]	; 0x54
    23c8:	930e      	str	r3, [sp, #56]	; 0x38
    23ca:	e774      	b.n	22b6 <_vfprintf_r+0x1ab2>
    23cc:	9b17      	ldr	r3, [sp, #92]	; 0x5c
    23ce:	9907      	ldr	r1, [sp, #28]
    23d0:	932e      	str	r3, [sp, #184]	; 0xb8
    23d2:	464b      	mov	r3, r9
    23d4:	3b01      	subs	r3, #1
    23d6:	781a      	ldrb	r2, [r3, #0]
    23d8:	7bc9      	ldrb	r1, [r1, #15]
    23da:	4291      	cmp	r1, r2
    23dc:	d107      	bne.n	23ee <_vfprintf_r+0x1bea>
    23de:	2030      	movs	r0, #48	; 0x30
    23e0:	7018      	strb	r0, [r3, #0]
    23e2:	9b2e      	ldr	r3, [sp, #184]	; 0xb8
    23e4:	3b01      	subs	r3, #1
    23e6:	932e      	str	r3, [sp, #184]	; 0xb8
    23e8:	781a      	ldrb	r2, [r3, #0]
    23ea:	4291      	cmp	r1, r2
    23ec:	d0f8      	beq.n	23e0 <_vfprintf_r+0x1bdc>
    23ee:	2a39      	cmp	r2, #57	; 0x39
    23f0:	d100      	bne.n	23f4 <_vfprintf_r+0x1bf0>
    23f2:	e09d      	b.n	2530 <_vfprintf_r+0x1d2c>
    23f4:	3201      	adds	r2, #1
    23f6:	b2d2      	uxtb	r2, r2
    23f8:	701a      	strb	r2, [r3, #0]
    23fa:	f7ff fb0e 	bl	1a1a <_vfprintf_r+0x1216>
    23fe:	a91e      	add	r1, sp, #120	; 0x78
    2400:	2332      	movs	r3, #50	; 0x32
    2402:	468c      	mov	ip, r1
    2404:	4463      	add	r3, ip
    2406:	2a00      	cmp	r2, #0
    2408:	d106      	bne.n	2418 <_vfprintf_r+0x1c14>
    240a:	000a      	movs	r2, r1
    240c:	2132      	movs	r1, #50	; 0x32
    240e:	2330      	movs	r3, #48	; 0x30
    2410:	1852      	adds	r2, r2, r1
    2412:	7013      	strb	r3, [r2, #0]
    2414:	3303      	adds	r3, #3
    2416:	4463      	add	r3, ip
    2418:	3630      	adds	r6, #48	; 0x30
    241a:	701e      	strb	r6, [r3, #0]
    241c:	aa2a      	add	r2, sp, #168	; 0xa8
    241e:	3301      	adds	r3, #1
    2420:	1a9b      	subs	r3, r3, r2
    2422:	931f      	str	r3, [sp, #124]	; 0x7c
    2424:	e4f1      	b.n	1e0a <_vfprintf_r+0x1606>
    2426:	4643      	mov	r3, r8
    2428:	9317      	str	r3, [sp, #92]	; 0x5c
    242a:	9b1a      	ldr	r3, [sp, #104]	; 0x68
    242c:	46d0      	mov	r8, sl
    242e:	469a      	mov	sl, r3
    2430:	464b      	mov	r3, r9
    2432:	9416      	str	r4, [sp, #88]	; 0x58
    2434:	46a9      	mov	r9, r5
    2436:	9c23      	ldr	r4, [sp, #140]	; 0x8c
    2438:	001d      	movs	r5, r3
    243a:	f7ff fac4 	bl	19c6 <_vfprintf_r+0x11c2>
    243e:	2320      	movs	r3, #32
    2440:	9a13      	ldr	r2, [sp, #76]	; 0x4c
    2442:	439a      	bics	r2, r3
    2444:	3b1a      	subs	r3, #26
    2446:	920a      	str	r2, [sp, #40]	; 0x28
    2448:	9308      	str	r3, [sp, #32]
    244a:	f7ff f94d 	bl	16e8 <_vfprintf_r+0xee4>
    244e:	465b      	mov	r3, fp
    2450:	2240      	movs	r2, #64	; 0x40
    2452:	899b      	ldrh	r3, [r3, #12]
    2454:	46d8      	mov	r8, fp
    2456:	4313      	orrs	r3, r2
    2458:	465a      	mov	r2, fp
    245a:	b21b      	sxth	r3, r3
    245c:	8193      	strh	r3, [r2, #12]
    245e:	f7fe ff2d 	bl	12bc <_vfprintf_r+0xab8>
    2462:	9b15      	ldr	r3, [sp, #84]	; 0x54
    2464:	07db      	lsls	r3, r3, #31
    2466:	d400      	bmi.n	246a <_vfprintf_r+0x1c66>
    2468:	e4dc      	b.n	1e24 <_vfprintf_r+0x1620>
    246a:	e4d6      	b.n	1e1a <_vfprintf_r+0x1616>
    246c:	9a08      	ldr	r2, [sp, #32]
    246e:	4649      	mov	r1, r9
    2470:	9207      	str	r2, [sp, #28]
    2472:	920a      	str	r2, [sp, #40]	; 0x28
    2474:	2200      	movs	r2, #0
    2476:	ab1e      	add	r3, sp, #120	; 0x78
    2478:	9208      	str	r2, [sp, #32]
    247a:	921a      	str	r2, [sp, #104]	; 0x68
    247c:	9215      	str	r2, [sp, #84]	; 0x54
    247e:	3273      	adds	r2, #115	; 0x73
    2480:	7fdb      	ldrb	r3, [r3, #31]
    2482:	910f      	str	r1, [sp, #60]	; 0x3c
    2484:	9213      	str	r2, [sp, #76]	; 0x4c
    2486:	f7fe fd45 	bl	f14 <_vfprintf_r+0x710>
    248a:	0013      	movs	r3, r2
    248c:	9a1c      	ldr	r2, [sp, #112]	; 0x70
    248e:	4694      	mov	ip, r2
    2490:	4463      	add	r3, ip
    2492:	468c      	mov	ip, r1
    2494:	449c      	add	ip, r3
    2496:	4663      	mov	r3, ip
    2498:	930a      	str	r3, [sp, #40]	; 0x28
    249a:	2366      	movs	r3, #102	; 0x66
    249c:	9313      	str	r3, [sp, #76]	; 0x4c
    249e:	e6ec      	b.n	227a <_vfprintf_r+0x1a76>
    24a0:	9b07      	ldr	r3, [sp, #28]
    24a2:	4655      	mov	r5, sl
    24a4:	469a      	mov	sl, r3
    24a6:	9b08      	ldr	r3, [sp, #32]
    24a8:	9c0e      	ldr	r4, [sp, #56]	; 0x38
    24aa:	930a      	str	r3, [sp, #40]	; 0x28
    24ac:	f7ff fb41 	bl	1b32 <_vfprintf_r+0x132e>
    24b0:	2367      	movs	r3, #103	; 0x67
    24b2:	9313      	str	r3, [sp, #76]	; 0x4c
    24b4:	991b      	ldr	r1, [sp, #108]	; 0x6c
    24b6:	780b      	ldrb	r3, [r1, #0]
    24b8:	2bff      	cmp	r3, #255	; 0xff
    24ba:	d100      	bne.n	24be <_vfprintf_r+0x1cba>
    24bc:	e082      	b.n	25c4 <_vfprintf_r+0x1dc0>
    24be:	2200      	movs	r2, #0
    24c0:	921a      	str	r2, [sp, #104]	; 0x68
    24c2:	9215      	str	r2, [sp, #84]	; 0x54
    24c4:	9a16      	ldr	r2, [sp, #88]	; 0x58
    24c6:	e005      	b.n	24d4 <_vfprintf_r+0x1cd0>
    24c8:	9815      	ldr	r0, [sp, #84]	; 0x54
    24ca:	3101      	adds	r1, #1
    24cc:	3001      	adds	r0, #1
    24ce:	9015      	str	r0, [sp, #84]	; 0x54
    24d0:	2bff      	cmp	r3, #255	; 0xff
    24d2:	d00a      	beq.n	24ea <_vfprintf_r+0x1ce6>
    24d4:	4293      	cmp	r3, r2
    24d6:	da08      	bge.n	24ea <_vfprintf_r+0x1ce6>
    24d8:	1ad2      	subs	r2, r2, r3
    24da:	784b      	ldrb	r3, [r1, #1]
    24dc:	2b00      	cmp	r3, #0
    24de:	d1f3      	bne.n	24c8 <_vfprintf_r+0x1cc4>
    24e0:	9b1a      	ldr	r3, [sp, #104]	; 0x68
    24e2:	3301      	adds	r3, #1
    24e4:	931a      	str	r3, [sp, #104]	; 0x68
    24e6:	780b      	ldrb	r3, [r1, #0]
    24e8:	e7f2      	b.n	24d0 <_vfprintf_r+0x1ccc>
    24ea:	911b      	str	r1, [sp, #108]	; 0x6c
    24ec:	9216      	str	r2, [sp, #88]	; 0x58
    24ee:	9a1a      	ldr	r2, [sp, #104]	; 0x68
    24f0:	9b15      	ldr	r3, [sp, #84]	; 0x54
    24f2:	4694      	mov	ip, r2
    24f4:	9a20      	ldr	r2, [sp, #128]	; 0x80
    24f6:	4463      	add	r3, ip
    24f8:	4353      	muls	r3, r2
    24fa:	9a0a      	ldr	r2, [sp, #40]	; 0x28
    24fc:	4694      	mov	ip, r2
    24fe:	449c      	add	ip, r3
    2500:	4662      	mov	r2, ip
    2502:	43d3      	mvns	r3, r2
    2504:	17db      	asrs	r3, r3, #31
    2506:	920a      	str	r2, [sp, #40]	; 0x28
    2508:	401a      	ands	r2, r3
    250a:	9207      	str	r2, [sp, #28]
    250c:	e49b      	b.n	1e46 <_vfprintf_r+0x1642>
    250e:	9b19      	ldr	r3, [sp, #100]	; 0x64
    2510:	2b00      	cmp	r3, #0
    2512:	db15      	blt.n	2540 <_vfprintf_r+0x1d3c>
    2514:	ab1e      	add	r3, sp, #120	; 0x78
    2516:	7fdb      	ldrb	r3, [r3, #31]
    2518:	9a13      	ldr	r2, [sp, #76]	; 0x4c
    251a:	2a47      	cmp	r2, #71	; 0x47
    251c:	dd0d      	ble.n	253a <_vfprintf_r+0x1d36>
    251e:	4d2e      	ldr	r5, [pc, #184]	; (25d8 <_vfprintf_r+0x1dd4>)
    2520:	f7fe fb6b 	bl	bfa <_vfprintf_r+0x3f6>
    2524:	465b      	mov	r3, fp
    2526:	46d8      	mov	r8, fp
    2528:	220c      	movs	r2, #12
    252a:	5e9b      	ldrsh	r3, [r3, r2]
    252c:	f7fe fec6 	bl	12bc <_vfprintf_r+0xab8>
    2530:	9a07      	ldr	r2, [sp, #28]
    2532:	7a92      	ldrb	r2, [r2, #10]
    2534:	701a      	strb	r2, [r3, #0]
    2536:	f7ff fa70 	bl	1a1a <_vfprintf_r+0x1216>
    253a:	4d28      	ldr	r5, [pc, #160]	; (25dc <_vfprintf_r+0x1dd8>)
    253c:	f7fe fb5d 	bl	bfa <_vfprintf_r+0x3f6>
    2540:	232d      	movs	r3, #45	; 0x2d
    2542:	aa1e      	add	r2, sp, #120	; 0x78
    2544:	77d3      	strb	r3, [r2, #31]
    2546:	e7e7      	b.n	2518 <_vfprintf_r+0x1d14>
    2548:	9a0f      	ldr	r2, [sp, #60]	; 0x3c
    254a:	ca08      	ldmia	r2!, {r3}
    254c:	9308      	str	r3, [sp, #32]
    254e:	2b00      	cmp	r3, #0
    2550:	da02      	bge.n	2558 <_vfprintf_r+0x1d54>
    2552:	2301      	movs	r3, #1
    2554:	425b      	negs	r3, r3
    2556:	9308      	str	r3, [sp, #32]
    2558:	9b06      	ldr	r3, [sp, #24]
    255a:	920f      	str	r2, [sp, #60]	; 0x3c
    255c:	785b      	ldrb	r3, [r3, #1]
    255e:	9006      	str	r0, [sp, #24]
    2560:	f7fe f9de 	bl	920 <_vfprintf_r+0x11c>
    2564:	2302      	movs	r3, #2
    2566:	931f      	str	r3, [sp, #124]	; 0x7c
    2568:	e44f      	b.n	1e0a <_vfprintf_r+0x1606>
    256a:	9a15      	ldr	r2, [sp, #84]	; 0x54
    256c:	4013      	ands	r3, r2
    256e:	9a08      	ldr	r2, [sp, #32]
    2570:	4313      	orrs	r3, r2
    2572:	d106      	bne.n	2582 <_vfprintf_r+0x1d7e>
    2574:	2301      	movs	r3, #1
    2576:	9307      	str	r3, [sp, #28]
    2578:	3365      	adds	r3, #101	; 0x65
    257a:	9313      	str	r3, [sp, #76]	; 0x4c
    257c:	3b65      	subs	r3, #101	; 0x65
    257e:	930a      	str	r3, [sp, #40]	; 0x28
    2580:	e547      	b.n	2012 <_vfprintf_r+0x180e>
    2582:	4694      	mov	ip, r2
    2584:	9b1c      	ldr	r3, [sp, #112]	; 0x70
    2586:	3301      	adds	r3, #1
    2588:	449c      	add	ip, r3
    258a:	4662      	mov	r2, ip
    258c:	43d3      	mvns	r3, r2
    258e:	17db      	asrs	r3, r3, #31
    2590:	920a      	str	r2, [sp, #40]	; 0x28
    2592:	401a      	ands	r2, r3
    2594:	2366      	movs	r3, #102	; 0x66
    2596:	9207      	str	r2, [sp, #28]
    2598:	9313      	str	r3, [sp, #76]	; 0x4c
    259a:	e53a      	b.n	2012 <_vfprintf_r+0x180e>
    259c:	465b      	mov	r3, fp
    259e:	899a      	ldrh	r2, [r3, #12]
    25a0:	2340      	movs	r3, #64	; 0x40
    25a2:	4313      	orrs	r3, r2
    25a4:	465a      	mov	r2, fp
    25a6:	4647      	mov	r7, r8
    25a8:	8193      	strh	r3, [r2, #12]
    25aa:	46d8      	mov	r8, fp
    25ac:	f7fe fe7c 	bl	12a8 <_vfprintf_r+0xaa4>
    25b0:	465b      	mov	r3, fp
    25b2:	899a      	ldrh	r2, [r3, #12]
    25b4:	2340      	movs	r3, #64	; 0x40
    25b6:	4313      	orrs	r3, r2
    25b8:	465a      	mov	r2, fp
    25ba:	b21b      	sxth	r3, r3
    25bc:	46d8      	mov	r8, fp
    25be:	8193      	strh	r3, [r2, #12]
    25c0:	f7fe fe7c 	bl	12bc <_vfprintf_r+0xab8>
    25c4:	2300      	movs	r3, #0
    25c6:	931a      	str	r3, [sp, #104]	; 0x68
    25c8:	9315      	str	r3, [sp, #84]	; 0x54
    25ca:	e790      	b.n	24ee <_vfprintf_r+0x1cea>
    25cc:	4901      	ldr	r1, [pc, #4]	; (25d4 <_vfprintf_r+0x1dd0>)
    25ce:	4689      	mov	r9, r1
    25d0:	e6d5      	b.n	237e <_vfprintf_r+0x1b7a>
    25d2:	46c0      	nop			; (mov r8, r8)
    25d4:	0000c004 	.word	0x0000c004
    25d8:	0000bda8 	.word	0x0000bda8
    25dc:	0000bda4 	.word	0x0000bda4

000025e0 <vfprintf>:
    25e0:	b510      	push	{r4, lr}
    25e2:	0004      	movs	r4, r0
    25e4:	0013      	movs	r3, r2
    25e6:	4a03      	ldr	r2, [pc, #12]	; (25f4 <vfprintf+0x14>)
    25e8:	6810      	ldr	r0, [r2, #0]
    25ea:	000a      	movs	r2, r1
    25ec:	0021      	movs	r1, r4
    25ee:	f7fe f909 	bl	804 <_vfprintf_r>
    25f2:	bd10      	pop	{r4, pc}
    25f4:	0020d0e0 	.word	0x0020d0e0

000025f8 <__sbprintf>:
    25f8:	b5f0      	push	{r4, r5, r6, r7, lr}
    25fa:	001f      	movs	r7, r3
    25fc:	2302      	movs	r3, #2
    25fe:	4c1f      	ldr	r4, [pc, #124]	; (267c <__sbprintf+0x84>)
    2600:	0015      	movs	r5, r2
    2602:	44a5      	add	sp, r4
    2604:	000c      	movs	r4, r1
    2606:	8989      	ldrh	r1, [r1, #12]
    2608:	466a      	mov	r2, sp
    260a:	4399      	bics	r1, r3
    260c:	466b      	mov	r3, sp
    260e:	8199      	strh	r1, [r3, #12]
    2610:	6e63      	ldr	r3, [r4, #100]	; 0x64
    2612:	2180      	movs	r1, #128	; 0x80
    2614:	9319      	str	r3, [sp, #100]	; 0x64
    2616:	89e3      	ldrh	r3, [r4, #14]
    2618:	0006      	movs	r6, r0
    261a:	81d3      	strh	r3, [r2, #14]
    261c:	69e3      	ldr	r3, [r4, #28]
    261e:	00c9      	lsls	r1, r1, #3
    2620:	9307      	str	r3, [sp, #28]
    2622:	6a63      	ldr	r3, [r4, #36]	; 0x24
    2624:	a816      	add	r0, sp, #88	; 0x58
    2626:	9309      	str	r3, [sp, #36]	; 0x24
    2628:	ab1a      	add	r3, sp, #104	; 0x68
    262a:	9300      	str	r3, [sp, #0]
    262c:	9304      	str	r3, [sp, #16]
    262e:	2300      	movs	r3, #0
    2630:	9102      	str	r1, [sp, #8]
    2632:	9105      	str	r1, [sp, #20]
    2634:	9306      	str	r3, [sp, #24]
    2636:	f001 fc11 	bl	3e5c <__retarget_lock_init_recursive>
    263a:	002a      	movs	r2, r5
    263c:	003b      	movs	r3, r7
    263e:	4669      	mov	r1, sp
    2640:	0030      	movs	r0, r6
    2642:	f7fe f8df 	bl	804 <_vfprintf_r>
    2646:	1e05      	subs	r5, r0, #0
    2648:	da0e      	bge.n	2668 <__sbprintf+0x70>
    264a:	466b      	mov	r3, sp
    264c:	899b      	ldrh	r3, [r3, #12]
    264e:	065b      	lsls	r3, r3, #25
    2650:	d503      	bpl.n	265a <__sbprintf+0x62>
    2652:	2240      	movs	r2, #64	; 0x40
    2654:	89a3      	ldrh	r3, [r4, #12]
    2656:	4313      	orrs	r3, r2
    2658:	81a3      	strh	r3, [r4, #12]
    265a:	9816      	ldr	r0, [sp, #88]	; 0x58
    265c:	f001 fc02 	bl	3e64 <__retarget_lock_close_recursive>
    2660:	0028      	movs	r0, r5
    2662:	4b07      	ldr	r3, [pc, #28]	; (2680 <__sbprintf+0x88>)
    2664:	449d      	add	sp, r3
    2666:	bdf0      	pop	{r4, r5, r6, r7, pc}
    2668:	4669      	mov	r1, sp
    266a:	0030      	movs	r0, r6
    266c:	f003 fbea 	bl	5e44 <_fflush_r>
    2670:	2800      	cmp	r0, #0
    2672:	d0ea      	beq.n	264a <__sbprintf+0x52>
    2674:	2501      	movs	r5, #1
    2676:	426d      	negs	r5, r5
    2678:	e7e7      	b.n	264a <__sbprintf+0x52>
    267a:	46c0      	nop			; (mov r8, r8)
    267c:	fffffb94 	.word	0xfffffb94
    2680:	0000046c 	.word	0x0000046c

00002684 <__sprint_r.part.0>:
    2684:	b5f8      	push	{r3, r4, r5, r6, r7, lr}
    2686:	464e      	mov	r6, r9
    2688:	4645      	mov	r5, r8
    268a:	46de      	mov	lr, fp
    268c:	4657      	mov	r7, sl
    268e:	6e4b      	ldr	r3, [r1, #100]	; 0x64
    2690:	b5e0      	push	{r5, r6, r7, lr}
    2692:	4691      	mov	r9, r2
    2694:	0006      	movs	r6, r0
    2696:	000d      	movs	r5, r1
    2698:	049b      	lsls	r3, r3, #18
    269a:	d533      	bpl.n	2704 <__sprint_r.part.0+0x80>
    269c:	6813      	ldr	r3, [r2, #0]
    269e:	469a      	mov	sl, r3
    26a0:	6893      	ldr	r3, [r2, #8]
    26a2:	2b00      	cmp	r3, #0
    26a4:	d02c      	beq.n	2700 <__sprint_r.part.0+0x7c>
    26a6:	4652      	mov	r2, sl
    26a8:	6812      	ldr	r2, [r2, #0]
    26aa:	4690      	mov	r8, r2
    26ac:	4652      	mov	r2, sl
    26ae:	6852      	ldr	r2, [r2, #4]
    26b0:	4693      	mov	fp, r2
    26b2:	0897      	lsrs	r7, r2, #2
    26b4:	d019      	beq.n	26ea <__sprint_r.part.0+0x66>
    26b6:	2400      	movs	r4, #0
    26b8:	e002      	b.n	26c0 <__sprint_r.part.0+0x3c>
    26ba:	3401      	adds	r4, #1
    26bc:	42a7      	cmp	r7, r4
    26be:	d012      	beq.n	26e6 <__sprint_r.part.0+0x62>
    26c0:	4642      	mov	r2, r8
    26c2:	00a3      	lsls	r3, r4, #2
    26c4:	58d1      	ldr	r1, [r2, r3]
    26c6:	0030      	movs	r0, r6
    26c8:	002a      	movs	r2, r5
    26ca:	f004 fa23 	bl	6b14 <_fputwc_r>
    26ce:	1c43      	adds	r3, r0, #1
    26d0:	d1f3      	bne.n	26ba <__sprint_r.part.0+0x36>
    26d2:	464a      	mov	r2, r9
    26d4:	2300      	movs	r3, #0
    26d6:	6093      	str	r3, [r2, #8]
    26d8:	6053      	str	r3, [r2, #4]
    26da:	bcf0      	pop	{r4, r5, r6, r7}
    26dc:	46bb      	mov	fp, r7
    26de:	46b2      	mov	sl, r6
    26e0:	46a9      	mov	r9, r5
    26e2:	46a0      	mov	r8, r4
    26e4:	bdf8      	pop	{r3, r4, r5, r6, r7, pc}
    26e6:	464b      	mov	r3, r9
    26e8:	689b      	ldr	r3, [r3, #8]
    26ea:	465a      	mov	r2, fp
    26ec:	2103      	movs	r1, #3
    26ee:	438a      	bics	r2, r1
    26f0:	1a9b      	subs	r3, r3, r2
    26f2:	464a      	mov	r2, r9
    26f4:	6093      	str	r3, [r2, #8]
    26f6:	2208      	movs	r2, #8
    26f8:	4694      	mov	ip, r2
    26fa:	44e2      	add	sl, ip
    26fc:	2b00      	cmp	r3, #0
    26fe:	d1d2      	bne.n	26a6 <__sprint_r.part.0+0x22>
    2700:	2000      	movs	r0, #0
    2702:	e7e6      	b.n	26d2 <__sprint_r.part.0+0x4e>
    2704:	f004 fb86 	bl	6e14 <__sfvwrite_r>
    2708:	e7e3      	b.n	26d2 <__sprint_r.part.0+0x4e>
    270a:	46c0      	nop			; (mov r8, r8)

0000270c <__sprint_r>:
    270c:	6893      	ldr	r3, [r2, #8]
    270e:	b510      	push	{r4, lr}
    2710:	2b00      	cmp	r3, #0
    2712:	d002      	beq.n	271a <__sprint_r+0xe>
    2714:	f7ff ffb6 	bl	2684 <__sprint_r.part.0>
    2718:	bd10      	pop	{r4, pc}
    271a:	2000      	movs	r0, #0
    271c:	6053      	str	r3, [r2, #4]
    271e:	e7fb      	b.n	2718 <__sprint_r+0xc>

00002720 <_vfiprintf_r>:
    2720:	b5f0      	push	{r4, r5, r6, r7, lr}
    2722:	46de      	mov	lr, fp
    2724:	4657      	mov	r7, sl
    2726:	464e      	mov	r6, r9
    2728:	4645      	mov	r5, r8
    272a:	b5e0      	push	{r5, r6, r7, lr}
    272c:	b0c9      	sub	sp, #292	; 0x124
    272e:	0007      	movs	r7, r0
    2730:	468b      	mov	fp, r1
    2732:	9203      	str	r2, [sp, #12]
    2734:	2100      	movs	r1, #0
    2736:	2208      	movs	r2, #8
    2738:	a818      	add	r0, sp, #96	; 0x60
    273a:	001c      	movs	r4, r3
    273c:	930a      	str	r3, [sp, #40]	; 0x28
    273e:	f001 fae3 	bl	3d08 <memset>
    2742:	2f00      	cmp	r7, #0
    2744:	d004      	beq.n	2750 <_vfiprintf_r+0x30>
    2746:	6b7b      	ldr	r3, [r7, #52]	; 0x34
    2748:	2b00      	cmp	r3, #0
    274a:	d101      	bne.n	2750 <_vfiprintf_r+0x30>
    274c:	f000 fe99 	bl	3482 <_vfiprintf_r+0xd62>
    2750:	465b      	mov	r3, fp
    2752:	6e5b      	ldr	r3, [r3, #100]	; 0x64
    2754:	07db      	lsls	r3, r3, #31
    2756:	d500      	bpl.n	275a <_vfiprintf_r+0x3a>
    2758:	e101      	b.n	295e <_vfiprintf_r+0x23e>
    275a:	465b      	mov	r3, fp
    275c:	210c      	movs	r1, #12
    275e:	5e59      	ldrsh	r1, [r3, r1]
    2760:	465b      	mov	r3, fp
    2762:	899b      	ldrh	r3, [r3, #12]
    2764:	059a      	lsls	r2, r3, #22
    2766:	d400      	bmi.n	276a <_vfiprintf_r+0x4a>
    2768:	e0f5      	b.n	2956 <_vfiprintf_r+0x236>
    276a:	2280      	movs	r2, #128	; 0x80
    276c:	0192      	lsls	r2, r2, #6
    276e:	4213      	tst	r3, r2
    2770:	d108      	bne.n	2784 <_vfiprintf_r+0x64>
    2772:	465b      	mov	r3, fp
    2774:	430a      	orrs	r2, r1
    2776:	819a      	strh	r2, [r3, #12]
    2778:	49c9      	ldr	r1, [pc, #804]	; (2aa0 <_vfiprintf_r+0x380>)
    277a:	6e5b      	ldr	r3, [r3, #100]	; 0x64
    277c:	400b      	ands	r3, r1
    277e:	4659      	mov	r1, fp
    2780:	664b      	str	r3, [r1, #100]	; 0x64
    2782:	b293      	uxth	r3, r2
    2784:	071a      	lsls	r2, r3, #28
    2786:	d550      	bpl.n	282a <_vfiprintf_r+0x10a>
    2788:	465a      	mov	r2, fp
    278a:	6912      	ldr	r2, [r2, #16]
    278c:	2a00      	cmp	r2, #0
    278e:	d04c      	beq.n	282a <_vfiprintf_r+0x10a>
    2790:	221a      	movs	r2, #26
    2792:	401a      	ands	r2, r3
    2794:	2a0a      	cmp	r2, #10
    2796:	d056      	beq.n	2846 <_vfiprintf_r+0x126>
    2798:	ab1f      	add	r3, sp, #124	; 0x7c
    279a:	931c      	str	r3, [sp, #112]	; 0x70
    279c:	2300      	movs	r3, #0
    279e:	931e      	str	r3, [sp, #120]	; 0x78
    27a0:	931d      	str	r3, [sp, #116]	; 0x74
    27a2:	ab1f      	add	r3, sp, #124	; 0x7c
    27a4:	469a      	mov	sl, r3
    27a6:	2300      	movs	r3, #0
    27a8:	4654      	mov	r4, sl
    27aa:	9311      	str	r3, [sp, #68]	; 0x44
    27ac:	9310      	str	r3, [sp, #64]	; 0x40
    27ae:	9313      	str	r3, [sp, #76]	; 0x4c
    27b0:	9312      	str	r3, [sp, #72]	; 0x48
    27b2:	9306      	str	r3, [sp, #24]
    27b4:	4bbb      	ldr	r3, [pc, #748]	; (2aa4 <_vfiprintf_r+0x384>)
    27b6:	930f      	str	r3, [sp, #60]	; 0x3c
    27b8:	4bbb      	ldr	r3, [pc, #748]	; (2aa8 <_vfiprintf_r+0x388>)
    27ba:	930e      	str	r3, [sp, #56]	; 0x38
    27bc:	23e4      	movs	r3, #228	; 0xe4
    27be:	46a1      	mov	r9, r4
    27c0:	4698      	mov	r8, r3
    27c2:	9e03      	ldr	r6, [sp, #12]
    27c4:	9d0f      	ldr	r5, [sp, #60]	; 0x3c
    27c6:	4643      	mov	r3, r8
    27c8:	58ec      	ldr	r4, [r5, r3]
    27ca:	f001 ffc5 	bl	4758 <__locale_mb_cur_max>
    27ce:	aa18      	add	r2, sp, #96	; 0x60
    27d0:	0003      	movs	r3, r0
    27d2:	9200      	str	r2, [sp, #0]
    27d4:	0038      	movs	r0, r7
    27d6:	0032      	movs	r2, r6
    27d8:	a916      	add	r1, sp, #88	; 0x58
    27da:	47a0      	blx	r4
    27dc:	2800      	cmp	r0, #0
    27de:	d06b      	beq.n	28b8 <_vfiprintf_r+0x198>
    27e0:	db62      	blt.n	28a8 <_vfiprintf_r+0x188>
    27e2:	9b16      	ldr	r3, [sp, #88]	; 0x58
    27e4:	2b25      	cmp	r3, #37	; 0x25
    27e6:	d001      	beq.n	27ec <_vfiprintf_r+0xcc>
    27e8:	1836      	adds	r6, r6, r0
    27ea:	e7ec      	b.n	27c6 <_vfiprintf_r+0xa6>
    27ec:	9b03      	ldr	r3, [sp, #12]
    27ee:	464c      	mov	r4, r9
    27f0:	1af2      	subs	r2, r6, r3
    27f2:	0005      	movs	r5, r0
    27f4:	4690      	mov	r8, r2
    27f6:	429e      	cmp	r6, r3
    27f8:	d165      	bne.n	28c6 <_vfiprintf_r+0x1a6>
    27fa:	1c73      	adds	r3, r6, #1
    27fc:	9303      	str	r3, [sp, #12]
    27fe:	2300      	movs	r3, #0
    2800:	aa12      	add	r2, sp, #72	; 0x48
    2802:	72d3      	strb	r3, [r2, #11]
    2804:	3b01      	subs	r3, #1
    2806:	469a      	mov	sl, r3
    2808:	2300      	movs	r3, #0
    280a:	7872      	ldrb	r2, [r6, #1]
    280c:	001d      	movs	r5, r3
    280e:	4656      	mov	r6, sl
    2810:	9307      	str	r3, [sp, #28]
    2812:	9b03      	ldr	r3, [sp, #12]
    2814:	3301      	adds	r3, #1
    2816:	9303      	str	r3, [sp, #12]
    2818:	0013      	movs	r3, r2
    281a:	3b20      	subs	r3, #32
    281c:	2b5a      	cmp	r3, #90	; 0x5a
    281e:	d900      	bls.n	2822 <_vfiprintf_r+0x102>
    2820:	e0a3      	b.n	296a <_vfiprintf_r+0x24a>
    2822:	990e      	ldr	r1, [sp, #56]	; 0x38
    2824:	009b      	lsls	r3, r3, #2
    2826:	58cb      	ldr	r3, [r1, r3]
    2828:	469f      	mov	pc, r3
    282a:	4659      	mov	r1, fp
    282c:	0038      	movs	r0, r7
    282e:	f002 f807 	bl	4840 <__swsetup_r>
    2832:	465b      	mov	r3, fp
    2834:	2800      	cmp	r0, #0
    2836:	d001      	beq.n	283c <_vfiprintf_r+0x11c>
    2838:	f000 ff08 	bl	364c <_vfiprintf_r+0xf2c>
    283c:	221a      	movs	r2, #26
    283e:	899b      	ldrh	r3, [r3, #12]
    2840:	401a      	ands	r2, r3
    2842:	2a0a      	cmp	r2, #10
    2844:	d1a8      	bne.n	2798 <_vfiprintf_r+0x78>
    2846:	465a      	mov	r2, fp
    2848:	210e      	movs	r1, #14
    284a:	5e52      	ldrsh	r2, [r2, r1]
    284c:	2a00      	cmp	r2, #0
    284e:	dba3      	blt.n	2798 <_vfiprintf_r+0x78>
    2850:	465a      	mov	r2, fp
    2852:	6e52      	ldr	r2, [r2, #100]	; 0x64
    2854:	07d2      	lsls	r2, r2, #31
    2856:	d403      	bmi.n	2860 <_vfiprintf_r+0x140>
    2858:	059b      	lsls	r3, r3, #22
    285a:	d401      	bmi.n	2860 <_vfiprintf_r+0x140>
    285c:	f000 fec0 	bl	35e0 <_vfiprintf_r+0xec0>
    2860:	0023      	movs	r3, r4
    2862:	4659      	mov	r1, fp
    2864:	0038      	movs	r0, r7
    2866:	9a03      	ldr	r2, [sp, #12]
    2868:	f000 ff36 	bl	36d8 <__sbprintf>
    286c:	9006      	str	r0, [sp, #24]
    286e:	e06a      	b.n	2946 <_vfiprintf_r+0x226>
    2870:	0038      	movs	r0, r7
    2872:	f001 ff99 	bl	47a8 <_localeconv_r>
    2876:	6843      	ldr	r3, [r0, #4]
    2878:	0018      	movs	r0, r3
    287a:	9312      	str	r3, [sp, #72]	; 0x48
    287c:	f003 fd5a 	bl	6334 <strlen>
    2880:	4680      	mov	r8, r0
    2882:	9013      	str	r0, [sp, #76]	; 0x4c
    2884:	0038      	movs	r0, r7
    2886:	f001 ff8f 	bl	47a8 <_localeconv_r>
    288a:	6883      	ldr	r3, [r0, #8]
    288c:	9310      	str	r3, [sp, #64]	; 0x40
    288e:	4643      	mov	r3, r8
    2890:	2b00      	cmp	r3, #0
    2892:	d001      	beq.n	2898 <_vfiprintf_r+0x178>
    2894:	f000 fcf7 	bl	3286 <_vfiprintf_r+0xb66>
    2898:	9b03      	ldr	r3, [sp, #12]
    289a:	781a      	ldrb	r2, [r3, #0]
    289c:	e7b9      	b.n	2812 <_vfiprintf_r+0xf2>
    289e:	2320      	movs	r3, #32
    28a0:	431d      	orrs	r5, r3
    28a2:	9b03      	ldr	r3, [sp, #12]
    28a4:	781a      	ldrb	r2, [r3, #0]
    28a6:	e7b4      	b.n	2812 <_vfiprintf_r+0xf2>
    28a8:	2208      	movs	r2, #8
    28aa:	2100      	movs	r1, #0
    28ac:	a818      	add	r0, sp, #96	; 0x60
    28ae:	f001 fa2b 	bl	3d08 <memset>
    28b2:	2001      	movs	r0, #1
    28b4:	1836      	adds	r6, r6, r0
    28b6:	e786      	b.n	27c6 <_vfiprintf_r+0xa6>
    28b8:	9b03      	ldr	r3, [sp, #12]
    28ba:	464c      	mov	r4, r9
    28bc:	1af2      	subs	r2, r6, r3
    28be:	0005      	movs	r5, r0
    28c0:	4690      	mov	r8, r2
    28c2:	429e      	cmp	r6, r3
    28c4:	d01d      	beq.n	2902 <_vfiprintf_r+0x1e2>
    28c6:	9b03      	ldr	r3, [sp, #12]
    28c8:	9a1e      	ldr	r2, [sp, #120]	; 0x78
    28ca:	6023      	str	r3, [r4, #0]
    28cc:	4643      	mov	r3, r8
    28ce:	6063      	str	r3, [r4, #4]
    28d0:	9b1d      	ldr	r3, [sp, #116]	; 0x74
    28d2:	4442      	add	r2, r8
    28d4:	3301      	adds	r3, #1
    28d6:	921e      	str	r2, [sp, #120]	; 0x78
    28d8:	931d      	str	r3, [sp, #116]	; 0x74
    28da:	2b07      	cmp	r3, #7
    28dc:	dd1c      	ble.n	2918 <_vfiprintf_r+0x1f8>
    28de:	2a00      	cmp	r2, #0
    28e0:	d101      	bne.n	28e6 <_vfiprintf_r+0x1c6>
    28e2:	f000 fc3a 	bl	315a <_vfiprintf_r+0xa3a>
    28e6:	4659      	mov	r1, fp
    28e8:	0038      	movs	r0, r7
    28ea:	aa1c      	add	r2, sp, #112	; 0x70
    28ec:	f7ff feca 	bl	2684 <__sprint_r.part.0>
    28f0:	2800      	cmp	r0, #0
    28f2:	d11b      	bne.n	292c <_vfiprintf_r+0x20c>
    28f4:	ac1f      	add	r4, sp, #124	; 0x7c
    28f6:	9b06      	ldr	r3, [sp, #24]
    28f8:	4443      	add	r3, r8
    28fa:	9306      	str	r3, [sp, #24]
    28fc:	2d00      	cmp	r5, #0
    28fe:	d000      	beq.n	2902 <_vfiprintf_r+0x1e2>
    2900:	e77b      	b.n	27fa <_vfiprintf_r+0xda>
    2902:	9b1e      	ldr	r3, [sp, #120]	; 0x78
    2904:	2b00      	cmp	r3, #0
    2906:	d001      	beq.n	290c <_vfiprintf_r+0x1ec>
    2908:	f000 fe83 	bl	3612 <_vfiprintf_r+0xef2>
    290c:	2300      	movs	r3, #0
    290e:	931d      	str	r3, [sp, #116]	; 0x74
    2910:	465b      	mov	r3, fp
    2912:	220c      	movs	r2, #12
    2914:	5e9b      	ldrsh	r3, [r3, r2]
    2916:	e00c      	b.n	2932 <_vfiprintf_r+0x212>
    2918:	3408      	adds	r4, #8
    291a:	e7ec      	b.n	28f6 <_vfiprintf_r+0x1d6>
    291c:	46ab      	mov	fp, r5
    291e:	9b0b      	ldr	r3, [sp, #44]	; 0x2c
    2920:	2b00      	cmp	r3, #0
    2922:	d003      	beq.n	292c <_vfiprintf_r+0x20c>
    2924:	0038      	movs	r0, r7
    2926:	990b      	ldr	r1, [sp, #44]	; 0x2c
    2928:	f003 fdd2 	bl	64d0 <_free_r>
    292c:	465b      	mov	r3, fp
    292e:	220c      	movs	r2, #12
    2930:	5e9b      	ldrsh	r3, [r3, r2]
    2932:	465a      	mov	r2, fp
    2934:	6e52      	ldr	r2, [r2, #100]	; 0x64
    2936:	07d2      	lsls	r2, r2, #31
    2938:	d400      	bmi.n	293c <_vfiprintf_r+0x21c>
    293a:	e0c9      	b.n	2ad0 <_vfiprintf_r+0x3b0>
    293c:	b29a      	uxth	r2, r3
    293e:	0652      	lsls	r2, r2, #25
    2940:	d501      	bpl.n	2946 <_vfiprintf_r+0x226>
    2942:	f000 fe8e 	bl	3662 <_vfiprintf_r+0xf42>
    2946:	9806      	ldr	r0, [sp, #24]
    2948:	b049      	add	sp, #292	; 0x124
    294a:	bcf0      	pop	{r4, r5, r6, r7}
    294c:	46bb      	mov	fp, r7
    294e:	46b2      	mov	sl, r6
    2950:	46a9      	mov	r9, r5
    2952:	46a0      	mov	r8, r4
    2954:	bdf0      	pop	{r4, r5, r6, r7, pc}
    2956:	465b      	mov	r3, fp
    2958:	6d98      	ldr	r0, [r3, #88]	; 0x58
    295a:	f001 fa87 	bl	3e6c <__retarget_lock_acquire_recursive>
    295e:	465b      	mov	r3, fp
    2960:	210c      	movs	r1, #12
    2962:	5e59      	ldrsh	r1, [r3, r1]
    2964:	465b      	mov	r3, fp
    2966:	899b      	ldrh	r3, [r3, #12]
    2968:	e6ff      	b.n	276a <_vfiprintf_r+0x4a>
    296a:	46a8      	mov	r8, r5
    296c:	2a00      	cmp	r2, #0
    296e:	d0c8      	beq.n	2902 <_vfiprintf_r+0x1e2>
    2970:	2300      	movs	r3, #0
    2972:	ad2f      	add	r5, sp, #188	; 0xbc
    2974:	702a      	strb	r2, [r5, #0]
    2976:	aa12      	add	r2, sp, #72	; 0x48
    2978:	72d3      	strb	r3, [r2, #11]
    297a:	3301      	adds	r3, #1
    297c:	9304      	str	r3, [sp, #16]
    297e:	9305      	str	r3, [sp, #20]
    2980:	2300      	movs	r3, #0
    2982:	469a      	mov	sl, r3
    2984:	930b      	str	r3, [sp, #44]	; 0x2c
    2986:	2302      	movs	r3, #2
    2988:	4642      	mov	r2, r8
    298a:	401a      	ands	r2, r3
    298c:	920c      	str	r2, [sp, #48]	; 0x30
    298e:	4642      	mov	r2, r8
    2990:	4213      	tst	r3, r2
    2992:	d002      	beq.n	299a <_vfiprintf_r+0x27a>
    2994:	9b04      	ldr	r3, [sp, #16]
    2996:	3302      	adds	r3, #2
    2998:	9304      	str	r3, [sp, #16]
    299a:	2384      	movs	r3, #132	; 0x84
    299c:	4642      	mov	r2, r8
    299e:	401a      	ands	r2, r3
    29a0:	920d      	str	r2, [sp, #52]	; 0x34
    29a2:	4642      	mov	r2, r8
    29a4:	4213      	tst	r3, r2
    29a6:	d105      	bne.n	29b4 <_vfiprintf_r+0x294>
    29a8:	9b07      	ldr	r3, [sp, #28]
    29aa:	9a04      	ldr	r2, [sp, #16]
    29ac:	1a9e      	subs	r6, r3, r2
    29ae:	2e00      	cmp	r6, #0
    29b0:	dd00      	ble.n	29b4 <_vfiprintf_r+0x294>
    29b2:	e31c      	b.n	2fee <_vfiprintf_r+0x8ce>
    29b4:	991d      	ldr	r1, [sp, #116]	; 0x74
    29b6:	9b1e      	ldr	r3, [sp, #120]	; 0x78
    29b8:	1c48      	adds	r0, r1, #1
    29ba:	aa12      	add	r2, sp, #72	; 0x48
    29bc:	7ad2      	ldrb	r2, [r2, #11]
    29be:	2a00      	cmp	r2, #0
    29c0:	d00f      	beq.n	29e2 <_vfiprintf_r+0x2c2>
    29c2:	a912      	add	r1, sp, #72	; 0x48
    29c4:	220b      	movs	r2, #11
    29c6:	468c      	mov	ip, r1
    29c8:	4462      	add	r2, ip
    29ca:	6022      	str	r2, [r4, #0]
    29cc:	2201      	movs	r2, #1
    29ce:	3301      	adds	r3, #1
    29d0:	6062      	str	r2, [r4, #4]
    29d2:	931e      	str	r3, [sp, #120]	; 0x78
    29d4:	901d      	str	r0, [sp, #116]	; 0x74
    29d6:	2807      	cmp	r0, #7
    29d8:	dd00      	ble.n	29dc <_vfiprintf_r+0x2bc>
    29da:	e2ee      	b.n	2fba <_vfiprintf_r+0x89a>
    29dc:	0001      	movs	r1, r0
    29de:	3408      	adds	r4, #8
    29e0:	3001      	adds	r0, #1
    29e2:	9a0c      	ldr	r2, [sp, #48]	; 0x30
    29e4:	2a00      	cmp	r2, #0
    29e6:	d019      	beq.n	2a1c <_vfiprintf_r+0x2fc>
    29e8:	aa15      	add	r2, sp, #84	; 0x54
    29ea:	6022      	str	r2, [r4, #0]
    29ec:	2202      	movs	r2, #2
    29ee:	3302      	adds	r3, #2
    29f0:	6062      	str	r2, [r4, #4]
    29f2:	931e      	str	r3, [sp, #120]	; 0x78
    29f4:	901d      	str	r0, [sp, #116]	; 0x74
    29f6:	2807      	cmp	r0, #7
    29f8:	dc00      	bgt.n	29fc <_vfiprintf_r+0x2dc>
    29fa:	e2f4      	b.n	2fe6 <_vfiprintf_r+0x8c6>
    29fc:	2b00      	cmp	r3, #0
    29fe:	d101      	bne.n	2a04 <_vfiprintf_r+0x2e4>
    2a00:	f000 fbee 	bl	31e0 <_vfiprintf_r+0xac0>
    2a04:	4659      	mov	r1, fp
    2a06:	0038      	movs	r0, r7
    2a08:	aa1c      	add	r2, sp, #112	; 0x70
    2a0a:	f7ff fe3b 	bl	2684 <__sprint_r.part.0>
    2a0e:	2800      	cmp	r0, #0
    2a10:	d000      	beq.n	2a14 <_vfiprintf_r+0x2f4>
    2a12:	e784      	b.n	291e <_vfiprintf_r+0x1fe>
    2a14:	991d      	ldr	r1, [sp, #116]	; 0x74
    2a16:	9b1e      	ldr	r3, [sp, #120]	; 0x78
    2a18:	1c48      	adds	r0, r1, #1
    2a1a:	ac1f      	add	r4, sp, #124	; 0x7c
    2a1c:	9a0d      	ldr	r2, [sp, #52]	; 0x34
    2a1e:	2a80      	cmp	r2, #128	; 0x80
    2a20:	d100      	bne.n	2a24 <_vfiprintf_r+0x304>
    2a22:	e204      	b.n	2e2e <_vfiprintf_r+0x70e>
    2a24:	4652      	mov	r2, sl
    2a26:	9e05      	ldr	r6, [sp, #20]
    2a28:	1b96      	subs	r6, r2, r6
    2a2a:	2e00      	cmp	r6, #0
    2a2c:	dd00      	ble.n	2a30 <_vfiprintf_r+0x310>
    2a2e:	e254      	b.n	2eda <_vfiprintf_r+0x7ba>
    2a30:	9a05      	ldr	r2, [sp, #20]
    2a32:	6025      	str	r5, [r4, #0]
    2a34:	4694      	mov	ip, r2
    2a36:	4463      	add	r3, ip
    2a38:	6062      	str	r2, [r4, #4]
    2a3a:	931e      	str	r3, [sp, #120]	; 0x78
    2a3c:	901d      	str	r0, [sp, #116]	; 0x74
    2a3e:	2807      	cmp	r0, #7
    2a40:	dc00      	bgt.n	2a44 <_vfiprintf_r+0x324>
    2a42:	e1f2      	b.n	2e2a <_vfiprintf_r+0x70a>
    2a44:	2b00      	cmp	r3, #0
    2a46:	d100      	bne.n	2a4a <_vfiprintf_r+0x32a>
    2a48:	e31e      	b.n	3088 <_vfiprintf_r+0x968>
    2a4a:	4659      	mov	r1, fp
    2a4c:	0038      	movs	r0, r7
    2a4e:	aa1c      	add	r2, sp, #112	; 0x70
    2a50:	f7ff fe18 	bl	2684 <__sprint_r.part.0>
    2a54:	2800      	cmp	r0, #0
    2a56:	d000      	beq.n	2a5a <_vfiprintf_r+0x33a>
    2a58:	e761      	b.n	291e <_vfiprintf_r+0x1fe>
    2a5a:	9b1e      	ldr	r3, [sp, #120]	; 0x78
    2a5c:	ac1f      	add	r4, sp, #124	; 0x7c
    2a5e:	4642      	mov	r2, r8
    2a60:	0752      	lsls	r2, r2, #29
    2a62:	d505      	bpl.n	2a70 <_vfiprintf_r+0x350>
    2a64:	9a07      	ldr	r2, [sp, #28]
    2a66:	9904      	ldr	r1, [sp, #16]
    2a68:	1a55      	subs	r5, r2, r1
    2a6a:	2d00      	cmp	r5, #0
    2a6c:	dd00      	ble.n	2a70 <_vfiprintf_r+0x350>
    2a6e:	e315      	b.n	309c <_vfiprintf_r+0x97c>
    2a70:	9a07      	ldr	r2, [sp, #28]
    2a72:	9904      	ldr	r1, [sp, #16]
    2a74:	428a      	cmp	r2, r1
    2a76:	da00      	bge.n	2a7a <_vfiprintf_r+0x35a>
    2a78:	000a      	movs	r2, r1
    2a7a:	9906      	ldr	r1, [sp, #24]
    2a7c:	468c      	mov	ip, r1
    2a7e:	4494      	add	ip, r2
    2a80:	4662      	mov	r2, ip
    2a82:	9206      	str	r2, [sp, #24]
    2a84:	2b00      	cmp	r3, #0
    2a86:	d000      	beq.n	2a8a <_vfiprintf_r+0x36a>
    2a88:	e289      	b.n	2f9e <_vfiprintf_r+0x87e>
    2a8a:	2300      	movs	r3, #0
    2a8c:	990b      	ldr	r1, [sp, #44]	; 0x2c
    2a8e:	931d      	str	r3, [sp, #116]	; 0x74
    2a90:	ac1f      	add	r4, sp, #124	; 0x7c
    2a92:	2900      	cmp	r1, #0
    2a94:	d100      	bne.n	2a98 <_vfiprintf_r+0x378>
    2a96:	e691      	b.n	27bc <_vfiprintf_r+0x9c>
    2a98:	0038      	movs	r0, r7
    2a9a:	f003 fd19 	bl	64d0 <_free_r>
    2a9e:	e68d      	b.n	27bc <_vfiprintf_r+0x9c>
    2aa0:	ffffdfff 	.word	0xffffdfff
    2aa4:	0020ce50 	.word	0x0020ce50
    2aa8:	0000c054 	.word	0x0000c054
    2aac:	3a30      	subs	r2, #48	; 0x30
    2aae:	2300      	movs	r3, #0
    2ab0:	0011      	movs	r1, r2
    2ab2:	9803      	ldr	r0, [sp, #12]
    2ab4:	009a      	lsls	r2, r3, #2
    2ab6:	18d3      	adds	r3, r2, r3
    2ab8:	0002      	movs	r2, r0
    2aba:	7812      	ldrb	r2, [r2, #0]
    2abc:	005b      	lsls	r3, r3, #1
    2abe:	18cb      	adds	r3, r1, r3
    2ac0:	0011      	movs	r1, r2
    2ac2:	3930      	subs	r1, #48	; 0x30
    2ac4:	3001      	adds	r0, #1
    2ac6:	2909      	cmp	r1, #9
    2ac8:	d9f4      	bls.n	2ab4 <_vfiprintf_r+0x394>
    2aca:	9307      	str	r3, [sp, #28]
    2acc:	9003      	str	r0, [sp, #12]
    2ace:	e6a3      	b.n	2818 <_vfiprintf_r+0xf8>
    2ad0:	b29a      	uxth	r2, r3
    2ad2:	059b      	lsls	r3, r3, #22
    2ad4:	d500      	bpl.n	2ad8 <_vfiprintf_r+0x3b8>
    2ad6:	e732      	b.n	293e <_vfiprintf_r+0x21e>
    2ad8:	465b      	mov	r3, fp
    2ada:	6d98      	ldr	r0, [r3, #88]	; 0x58
    2adc:	f001 f9ce 	bl	3e7c <__retarget_lock_release_recursive>
    2ae0:	465b      	mov	r3, fp
    2ae2:	899a      	ldrh	r2, [r3, #12]
    2ae4:	e72b      	b.n	293e <_vfiprintf_r+0x21e>
    2ae6:	9b0a      	ldr	r3, [sp, #40]	; 0x28
    2ae8:	46a8      	mov	r8, r5
    2aea:	cb20      	ldmia	r3!, {r5}
    2aec:	a912      	add	r1, sp, #72	; 0x48
    2aee:	4699      	mov	r9, r3
    2af0:	2300      	movs	r3, #0
    2af2:	46b2      	mov	sl, r6
    2af4:	72cb      	strb	r3, [r1, #11]
    2af6:	2d00      	cmp	r5, #0
    2af8:	d101      	bne.n	2afe <_vfiprintf_r+0x3de>
    2afa:	f000 fcde 	bl	34ba <_vfiprintf_r+0xd9a>
    2afe:	2a53      	cmp	r2, #83	; 0x53
    2b00:	d101      	bne.n	2b06 <_vfiprintf_r+0x3e6>
    2b02:	f000 fc21 	bl	3348 <_vfiprintf_r+0xc28>
    2b06:	4643      	mov	r3, r8
    2b08:	06db      	lsls	r3, r3, #27
    2b0a:	d501      	bpl.n	2b10 <_vfiprintf_r+0x3f0>
    2b0c:	f000 fc1c 	bl	3348 <_vfiprintf_r+0xc28>
    2b10:	0033      	movs	r3, r6
    2b12:	3301      	adds	r3, #1
    2b14:	d101      	bne.n	2b1a <_vfiprintf_r+0x3fa>
    2b16:	f000 fd76 	bl	3606 <_vfiprintf_r+0xee6>
    2b1a:	0032      	movs	r2, r6
    2b1c:	2100      	movs	r1, #0
    2b1e:	0028      	movs	r0, r5
    2b20:	f003 fb7c 	bl	621c <memchr>
    2b24:	900b      	str	r0, [sp, #44]	; 0x2c
    2b26:	2800      	cmp	r0, #0
    2b28:	d101      	bne.n	2b2e <_vfiprintf_r+0x40e>
    2b2a:	f000 fd5f 	bl	35ec <_vfiprintf_r+0xecc>
    2b2e:	1b42      	subs	r2, r0, r5
    2b30:	43d3      	mvns	r3, r2
    2b32:	17db      	asrs	r3, r3, #31
    2b34:	9205      	str	r2, [sp, #20]
    2b36:	401a      	ands	r2, r3
    2b38:	9204      	str	r2, [sp, #16]
    2b3a:	f000 fd1b 	bl	3574 <_vfiprintf_r+0xe54>
    2b3e:	46a8      	mov	r8, r5
    2b40:	2a43      	cmp	r2, #67	; 0x43
    2b42:	d003      	beq.n	2b4c <_vfiprintf_r+0x42c>
    2b44:	002b      	movs	r3, r5
    2b46:	06db      	lsls	r3, r3, #27
    2b48:	d400      	bmi.n	2b4c <_vfiprintf_r+0x42c>
    2b4a:	e3b5      	b.n	32b8 <_vfiprintf_r+0xb98>
    2b4c:	2208      	movs	r2, #8
    2b4e:	2100      	movs	r1, #0
    2b50:	a81a      	add	r0, sp, #104	; 0x68
    2b52:	f001 f8d9 	bl	3d08 <memset>
    2b56:	9e0a      	ldr	r6, [sp, #40]	; 0x28
    2b58:	ad2f      	add	r5, sp, #188	; 0xbc
    2b5a:	ab1a      	add	r3, sp, #104	; 0x68
    2b5c:	0029      	movs	r1, r5
    2b5e:	0038      	movs	r0, r7
    2b60:	ce04      	ldmia	r6!, {r2}
    2b62:	f001 f925 	bl	3db0 <_wcrtomb_r>
    2b66:	0003      	movs	r3, r0
    2b68:	9005      	str	r0, [sp, #20]
    2b6a:	3301      	adds	r3, #1
    2b6c:	d101      	bne.n	2b72 <_vfiprintf_r+0x452>
    2b6e:	f000 fd64 	bl	363a <_vfiprintf_r+0xf1a>
    2b72:	9a05      	ldr	r2, [sp, #20]
    2b74:	960a      	str	r6, [sp, #40]	; 0x28
    2b76:	43d3      	mvns	r3, r2
    2b78:	17db      	asrs	r3, r3, #31
    2b7a:	401a      	ands	r2, r3
    2b7c:	9204      	str	r2, [sp, #16]
    2b7e:	2300      	movs	r3, #0
    2b80:	aa12      	add	r2, sp, #72	; 0x48
    2b82:	72d3      	strb	r3, [r2, #11]
    2b84:	e6fc      	b.n	2980 <_vfiprintf_r+0x260>
    2b86:	9b0a      	ldr	r3, [sp, #40]	; 0x28
    2b88:	cb04      	ldmia	r3!, {r2}
    2b8a:	9207      	str	r2, [sp, #28]
    2b8c:	2a00      	cmp	r2, #0
    2b8e:	db00      	blt.n	2b92 <_vfiprintf_r+0x472>
    2b90:	e33f      	b.n	3212 <_vfiprintf_r+0xaf2>
    2b92:	9a07      	ldr	r2, [sp, #28]
    2b94:	930a      	str	r3, [sp, #40]	; 0x28
    2b96:	4252      	negs	r2, r2
    2b98:	9207      	str	r2, [sp, #28]
    2b9a:	2304      	movs	r3, #4
    2b9c:	431d      	orrs	r5, r3
    2b9e:	9b03      	ldr	r3, [sp, #12]
    2ba0:	781a      	ldrb	r2, [r3, #0]
    2ba2:	e636      	b.n	2812 <_vfiprintf_r+0xf2>
    2ba4:	232b      	movs	r3, #43	; 0x2b
    2ba6:	aa12      	add	r2, sp, #72	; 0x48
    2ba8:	72d3      	strb	r3, [r2, #11]
    2baa:	9b03      	ldr	r3, [sp, #12]
    2bac:	781a      	ldrb	r2, [r3, #0]
    2bae:	e630      	b.n	2812 <_vfiprintf_r+0xf2>
    2bb0:	2380      	movs	r3, #128	; 0x80
    2bb2:	431d      	orrs	r5, r3
    2bb4:	9b03      	ldr	r3, [sp, #12]
    2bb6:	781a      	ldrb	r2, [r3, #0]
    2bb8:	e62b      	b.n	2812 <_vfiprintf_r+0xf2>
    2bba:	9a03      	ldr	r2, [sp, #12]
    2bbc:	1c53      	adds	r3, r2, #1
    2bbe:	7812      	ldrb	r2, [r2, #0]
    2bc0:	2a2a      	cmp	r2, #42	; 0x2a
    2bc2:	d101      	bne.n	2bc8 <_vfiprintf_r+0x4a8>
    2bc4:	f000 fd59 	bl	367a <_vfiprintf_r+0xf5a>
    2bc8:	0011      	movs	r1, r2
    2bca:	3930      	subs	r1, #48	; 0x30
    2bcc:	0018      	movs	r0, r3
    2bce:	2600      	movs	r6, #0
    2bd0:	2909      	cmp	r1, #9
    2bd2:	d900      	bls.n	2bd6 <_vfiprintf_r+0x4b6>
    2bd4:	e61f      	b.n	2816 <_vfiprintf_r+0xf6>
    2bd6:	46a4      	mov	ip, r4
    2bd8:	00b3      	lsls	r3, r6, #2
    2bda:	199e      	adds	r6, r3, r6
    2bdc:	0003      	movs	r3, r0
    2bde:	781a      	ldrb	r2, [r3, #0]
    2be0:	0076      	lsls	r6, r6, #1
    2be2:	1876      	adds	r6, r6, r1
    2be4:	0011      	movs	r1, r2
    2be6:	3930      	subs	r1, #48	; 0x30
    2be8:	3001      	adds	r0, #1
    2bea:	2909      	cmp	r1, #9
    2bec:	d9f4      	bls.n	2bd8 <_vfiprintf_r+0x4b8>
    2bee:	4664      	mov	r4, ip
    2bf0:	9003      	str	r0, [sp, #12]
    2bf2:	e611      	b.n	2818 <_vfiprintf_r+0xf8>
    2bf4:	2301      	movs	r3, #1
    2bf6:	431d      	orrs	r5, r3
    2bf8:	9b03      	ldr	r3, [sp, #12]
    2bfa:	781a      	ldrb	r2, [r3, #0]
    2bfc:	e609      	b.n	2812 <_vfiprintf_r+0xf2>
    2bfe:	ab12      	add	r3, sp, #72	; 0x48
    2c00:	7adb      	ldrb	r3, [r3, #11]
    2c02:	2b00      	cmp	r3, #0
    2c04:	d000      	beq.n	2c08 <_vfiprintf_r+0x4e8>
    2c06:	e647      	b.n	2898 <_vfiprintf_r+0x178>
    2c08:	2320      	movs	r3, #32
    2c0a:	aa12      	add	r2, sp, #72	; 0x48
    2c0c:	72d3      	strb	r3, [r2, #11]
    2c0e:	9b03      	ldr	r3, [sp, #12]
    2c10:	781a      	ldrb	r2, [r3, #0]
    2c12:	e5fe      	b.n	2812 <_vfiprintf_r+0xf2>
    2c14:	46b2      	mov	sl, r6
    2c16:	002b      	movs	r3, r5
    2c18:	2610      	movs	r6, #16
    2c1a:	4333      	orrs	r3, r6
    2c1c:	001e      	movs	r6, r3
    2c1e:	06b3      	lsls	r3, r6, #26
    2c20:	d400      	bmi.n	2c24 <_vfiprintf_r+0x504>
    2c22:	e2a8      	b.n	3176 <_vfiprintf_r+0xa56>
    2c24:	2207      	movs	r2, #7
    2c26:	9b0a      	ldr	r3, [sp, #40]	; 0x28
    2c28:	3307      	adds	r3, #7
    2c2a:	4393      	bics	r3, r2
    2c2c:	0019      	movs	r1, r3
    2c2e:	c90c      	ldmia	r1!, {r2, r3}
    2c30:	9208      	str	r2, [sp, #32]
    2c32:	9309      	str	r3, [sp, #36]	; 0x24
    2c34:	2301      	movs	r3, #1
    2c36:	910a      	str	r1, [sp, #40]	; 0x28
    2c38:	2200      	movs	r2, #0
    2c3a:	a912      	add	r1, sp, #72	; 0x48
    2c3c:	72ca      	strb	r2, [r1, #11]
    2c3e:	4652      	mov	r2, sl
    2c40:	3201      	adds	r2, #1
    2c42:	d100      	bne.n	2c46 <_vfiprintf_r+0x526>
    2c44:	e0b7      	b.n	2db6 <_vfiprintf_r+0x696>
    2c46:	2280      	movs	r2, #128	; 0x80
    2c48:	0031      	movs	r1, r6
    2c4a:	4391      	bics	r1, r2
    2c4c:	4688      	mov	r8, r1
    2c4e:	9908      	ldr	r1, [sp, #32]
    2c50:	9a09      	ldr	r2, [sp, #36]	; 0x24
    2c52:	0008      	movs	r0, r1
    2c54:	4310      	orrs	r0, r2
    2c56:	d000      	beq.n	2c5a <_vfiprintf_r+0x53a>
    2c58:	e0ac      	b.n	2db4 <_vfiprintf_r+0x694>
    2c5a:	4652      	mov	r2, sl
    2c5c:	2a00      	cmp	r2, #0
    2c5e:	d001      	beq.n	2c64 <_vfiprintf_r+0x544>
    2c60:	f000 fc14 	bl	348c <_vfiprintf_r+0xd6c>
    2c64:	2b00      	cmp	r3, #0
    2c66:	d000      	beq.n	2c6a <_vfiprintf_r+0x54a>
    2c68:	e280      	b.n	316c <_vfiprintf_r+0xa4c>
    2c6a:	3301      	adds	r3, #1
    2c6c:	001a      	movs	r2, r3
    2c6e:	4032      	ands	r2, r6
    2c70:	9205      	str	r2, [sp, #20]
    2c72:	ad48      	add	r5, sp, #288	; 0x120
    2c74:	4233      	tst	r3, r6
    2c76:	d000      	beq.n	2c7a <_vfiprintf_r+0x55a>
    2c78:	e2d0      	b.n	321c <_vfiprintf_r+0xafc>
    2c7a:	9b05      	ldr	r3, [sp, #20]
    2c7c:	9304      	str	r3, [sp, #16]
    2c7e:	4553      	cmp	r3, sl
    2c80:	da01      	bge.n	2c86 <_vfiprintf_r+0x566>
    2c82:	4653      	mov	r3, sl
    2c84:	9304      	str	r3, [sp, #16]
    2c86:	2300      	movs	r3, #0
    2c88:	930b      	str	r3, [sp, #44]	; 0x2c
    2c8a:	ab12      	add	r3, sp, #72	; 0x48
    2c8c:	7adb      	ldrb	r3, [r3, #11]
    2c8e:	1e5a      	subs	r2, r3, #1
    2c90:	4193      	sbcs	r3, r2
    2c92:	9a04      	ldr	r2, [sp, #16]
    2c94:	4694      	mov	ip, r2
    2c96:	449c      	add	ip, r3
    2c98:	4663      	mov	r3, ip
    2c9a:	9304      	str	r3, [sp, #16]
    2c9c:	e673      	b.n	2986 <_vfiprintf_r+0x266>
    2c9e:	2310      	movs	r3, #16
    2ca0:	002a      	movs	r2, r5
    2ca2:	431a      	orrs	r2, r3
    2ca4:	46b2      	mov	sl, r6
    2ca6:	4690      	mov	r8, r2
    2ca8:	4643      	mov	r3, r8
    2caa:	069b      	lsls	r3, r3, #26
    2cac:	d400      	bmi.n	2cb0 <_vfiprintf_r+0x590>
    2cae:	e282      	b.n	31b6 <_vfiprintf_r+0xa96>
    2cb0:	2207      	movs	r2, #7
    2cb2:	9b0a      	ldr	r3, [sp, #40]	; 0x28
    2cb4:	3307      	adds	r3, #7
    2cb6:	4393      	bics	r3, r2
    2cb8:	0019      	movs	r1, r3
    2cba:	c90c      	ldmia	r1!, {r2, r3}
    2cbc:	9208      	str	r2, [sp, #32]
    2cbe:	9309      	str	r3, [sp, #36]	; 0x24
    2cc0:	910a      	str	r1, [sp, #40]	; 0x28
    2cc2:	4643      	mov	r3, r8
    2cc4:	4ecf      	ldr	r6, [pc, #828]	; (3004 <_vfiprintf_r+0x8e4>)
    2cc6:	4033      	ands	r3, r6
    2cc8:	001e      	movs	r6, r3
    2cca:	2300      	movs	r3, #0
    2ccc:	e7b4      	b.n	2c38 <_vfiprintf_r+0x518>
    2cce:	2310      	movs	r3, #16
    2cd0:	002a      	movs	r2, r5
    2cd2:	431a      	orrs	r2, r3
    2cd4:	46b2      	mov	sl, r6
    2cd6:	4690      	mov	r8, r2
    2cd8:	4643      	mov	r3, r8
    2cda:	069b      	lsls	r3, r3, #26
    2cdc:	d400      	bmi.n	2ce0 <_vfiprintf_r+0x5c0>
    2cde:	e254      	b.n	318a <_vfiprintf_r+0xa6a>
    2ce0:	2307      	movs	r3, #7
    2ce2:	9a0a      	ldr	r2, [sp, #40]	; 0x28
    2ce4:	3207      	adds	r2, #7
    2ce6:	439a      	bics	r2, r3
    2ce8:	3301      	adds	r3, #1
    2cea:	469c      	mov	ip, r3
    2cec:	4494      	add	ip, r2
    2cee:	4663      	mov	r3, ip
    2cf0:	930a      	str	r3, [sp, #40]	; 0x28
    2cf2:	6853      	ldr	r3, [r2, #4]
    2cf4:	6812      	ldr	r2, [r2, #0]
    2cf6:	9309      	str	r3, [sp, #36]	; 0x24
    2cf8:	9208      	str	r2, [sp, #32]
    2cfa:	2b00      	cmp	r3, #0
    2cfc:	da00      	bge.n	2d00 <_vfiprintf_r+0x5e0>
    2cfe:	e24f      	b.n	31a0 <_vfiprintf_r+0xa80>
    2d00:	4653      	mov	r3, sl
    2d02:	4646      	mov	r6, r8
    2d04:	3301      	adds	r3, #1
    2d06:	d007      	beq.n	2d18 <_vfiprintf_r+0x5f8>
    2d08:	2380      	movs	r3, #128	; 0x80
    2d0a:	439e      	bics	r6, r3
    2d0c:	9a08      	ldr	r2, [sp, #32]
    2d0e:	9b09      	ldr	r3, [sp, #36]	; 0x24
    2d10:	0011      	movs	r1, r2
    2d12:	4319      	orrs	r1, r3
    2d14:	d100      	bne.n	2d18 <_vfiprintf_r+0x5f8>
    2d16:	e224      	b.n	3162 <_vfiprintf_r+0xa42>
    2d18:	9a08      	ldr	r2, [sp, #32]
    2d1a:	9b09      	ldr	r3, [sp, #36]	; 0x24
    2d1c:	2b00      	cmp	r3, #0
    2d1e:	d000      	beq.n	2d22 <_vfiprintf_r+0x602>
    2d20:	e33c      	b.n	339c <_vfiprintf_r+0xc7c>
    2d22:	2a09      	cmp	r2, #9
    2d24:	d900      	bls.n	2d28 <_vfiprintf_r+0x608>
    2d26:	e339      	b.n	339c <_vfiprintf_r+0xc7c>
    2d28:	2263      	movs	r2, #99	; 0x63
    2d2a:	9b08      	ldr	r3, [sp, #32]
    2d2c:	a92f      	add	r1, sp, #188	; 0xbc
    2d2e:	3330      	adds	r3, #48	; 0x30
    2d30:	548b      	strb	r3, [r1, r2]
    2d32:	2301      	movs	r3, #1
    2d34:	9305      	str	r3, [sp, #20]
    2d36:	ab12      	add	r3, sp, #72	; 0x48
    2d38:	25d7      	movs	r5, #215	; 0xd7
    2d3a:	469c      	mov	ip, r3
    2d3c:	46b0      	mov	r8, r6
    2d3e:	4465      	add	r5, ip
    2d40:	e79b      	b.n	2c7a <_vfiprintf_r+0x55a>
    2d42:	9b0a      	ldr	r3, [sp, #40]	; 0x28
    2d44:	46b2      	mov	sl, r6
    2d46:	cb04      	ldmia	r3!, {r2}
    2d48:	2602      	movs	r6, #2
    2d4a:	9208      	str	r2, [sp, #32]
    2d4c:	2200      	movs	r2, #0
    2d4e:	9209      	str	r2, [sp, #36]	; 0x24
    2d50:	002a      	movs	r2, r5
    2d52:	49ad      	ldr	r1, [pc, #692]	; (3008 <_vfiprintf_r+0x8e8>)
    2d54:	4332      	orrs	r2, r6
    2d56:	930a      	str	r3, [sp, #40]	; 0x28
    2d58:	4bac      	ldr	r3, [pc, #688]	; (300c <_vfiprintf_r+0x8ec>)
    2d5a:	0016      	movs	r6, r2
    2d5c:	aa15      	add	r2, sp, #84	; 0x54
    2d5e:	9311      	str	r3, [sp, #68]	; 0x44
    2d60:	8011      	strh	r1, [r2, #0]
    2d62:	2302      	movs	r3, #2
    2d64:	e768      	b.n	2c38 <_vfiprintf_r+0x518>
    2d66:	002b      	movs	r3, r5
    2d68:	069b      	lsls	r3, r3, #26
    2d6a:	d500      	bpl.n	2d6e <_vfiprintf_r+0x64e>
    2d6c:	e26f      	b.n	324e <_vfiprintf_r+0xb2e>
    2d6e:	002b      	movs	r3, r5
    2d70:	06db      	lsls	r3, r3, #27
    2d72:	d500      	bpl.n	2d76 <_vfiprintf_r+0x656>
    2d74:	e39a      	b.n	34ac <_vfiprintf_r+0xd8c>
    2d76:	002b      	movs	r3, r5
    2d78:	065b      	lsls	r3, r3, #25
    2d7a:	d501      	bpl.n	2d80 <_vfiprintf_r+0x660>
    2d7c:	f000 fc14 	bl	35a8 <_vfiprintf_r+0xe88>
    2d80:	002b      	movs	r3, r5
    2d82:	059b      	lsls	r3, r3, #22
    2d84:	d400      	bmi.n	2d88 <_vfiprintf_r+0x668>
    2d86:	e391      	b.n	34ac <_vfiprintf_r+0xd8c>
    2d88:	9b0a      	ldr	r3, [sp, #40]	; 0x28
    2d8a:	9906      	ldr	r1, [sp, #24]
    2d8c:	cb04      	ldmia	r3!, {r2}
    2d8e:	7011      	strb	r1, [r2, #0]
    2d90:	930a      	str	r3, [sp, #40]	; 0x28
    2d92:	e513      	b.n	27bc <_vfiprintf_r+0x9c>
    2d94:	9b03      	ldr	r3, [sp, #12]
    2d96:	781a      	ldrb	r2, [r3, #0]
    2d98:	2a6c      	cmp	r2, #108	; 0x6c
    2d9a:	d100      	bne.n	2d9e <_vfiprintf_r+0x67e>
    2d9c:	e384      	b.n	34a8 <_vfiprintf_r+0xd88>
    2d9e:	2310      	movs	r3, #16
    2da0:	431d      	orrs	r5, r3
    2da2:	e536      	b.n	2812 <_vfiprintf_r+0xf2>
    2da4:	9b03      	ldr	r3, [sp, #12]
    2da6:	781a      	ldrb	r2, [r3, #0]
    2da8:	2a68      	cmp	r2, #104	; 0x68
    2daa:	d100      	bne.n	2dae <_vfiprintf_r+0x68e>
    2dac:	e373      	b.n	3496 <_vfiprintf_r+0xd76>
    2dae:	2340      	movs	r3, #64	; 0x40
    2db0:	431d      	orrs	r5, r3
    2db2:	e52e      	b.n	2812 <_vfiprintf_r+0xf2>
    2db4:	4646      	mov	r6, r8
    2db6:	2b01      	cmp	r3, #1
    2db8:	d0ae      	beq.n	2d18 <_vfiprintf_r+0x5f8>
    2dba:	ad48      	add	r5, sp, #288	; 0x120
    2dbc:	2b02      	cmp	r3, #2
    2dbe:	d100      	bne.n	2dc2 <_vfiprintf_r+0x6a2>
    2dc0:	e0ce      	b.n	2f60 <_vfiprintf_r+0x840>
    2dc2:	2307      	movs	r3, #7
    2dc4:	46a4      	mov	ip, r4
    2dc6:	46b9      	mov	r9, r7
    2dc8:	9604      	str	r6, [sp, #16]
    2dca:	4698      	mov	r8, r3
    2dcc:	9a08      	ldr	r2, [sp, #32]
    2dce:	9b09      	ldr	r3, [sp, #36]	; 0x24
    2dd0:	075c      	lsls	r4, r3, #29
    2dd2:	08d6      	lsrs	r6, r2, #3
    2dd4:	4641      	mov	r1, r8
    2dd6:	08d8      	lsrs	r0, r3, #3
    2dd8:	4334      	orrs	r4, r6
    2dda:	0003      	movs	r3, r0
    2ddc:	0020      	movs	r0, r4
    2dde:	4011      	ands	r1, r2
    2de0:	002f      	movs	r7, r5
    2de2:	3130      	adds	r1, #48	; 0x30
    2de4:	3d01      	subs	r5, #1
    2de6:	0022      	movs	r2, r4
    2de8:	7029      	strb	r1, [r5, #0]
    2dea:	4318      	orrs	r0, r3
    2dec:	d1f0      	bne.n	2dd0 <_vfiprintf_r+0x6b0>
    2dee:	9e04      	ldr	r6, [sp, #16]
    2df0:	4664      	mov	r4, ip
    2df2:	9208      	str	r2, [sp, #32]
    2df4:	9309      	str	r3, [sp, #36]	; 0x24
    2df6:	46bc      	mov	ip, r7
    2df8:	464f      	mov	r7, r9
    2dfa:	07f2      	lsls	r2, r6, #31
    2dfc:	d400      	bmi.n	2e00 <_vfiprintf_r+0x6e0>
    2dfe:	e0c9      	b.n	2f94 <_vfiprintf_r+0x874>
    2e00:	2930      	cmp	r1, #48	; 0x30
    2e02:	d100      	bne.n	2e06 <_vfiprintf_r+0x6e6>
    2e04:	e0c6      	b.n	2f94 <_vfiprintf_r+0x874>
    2e06:	2230      	movs	r2, #48	; 0x30
    2e08:	4663      	mov	r3, ip
    2e0a:	3d01      	subs	r5, #1
    2e0c:	3b02      	subs	r3, #2
    2e0e:	702a      	strb	r2, [r5, #0]
    2e10:	aa48      	add	r2, sp, #288	; 0x120
    2e12:	1ad2      	subs	r2, r2, r3
    2e14:	46b0      	mov	r8, r6
    2e16:	001d      	movs	r5, r3
    2e18:	9205      	str	r2, [sp, #20]
    2e1a:	e72e      	b.n	2c7a <_vfiprintf_r+0x55a>
    2e1c:	2201      	movs	r2, #1
    2e1e:	9b05      	ldr	r3, [sp, #20]
    2e20:	951f      	str	r5, [sp, #124]	; 0x7c
    2e22:	9320      	str	r3, [sp, #128]	; 0x80
    2e24:	931e      	str	r3, [sp, #120]	; 0x78
    2e26:	921d      	str	r2, [sp, #116]	; 0x74
    2e28:	ac1f      	add	r4, sp, #124	; 0x7c
    2e2a:	3408      	adds	r4, #8
    2e2c:	e617      	b.n	2a5e <_vfiprintf_r+0x33e>
    2e2e:	9a07      	ldr	r2, [sp, #28]
    2e30:	9e04      	ldr	r6, [sp, #16]
    2e32:	1b96      	subs	r6, r2, r6
    2e34:	2e00      	cmp	r6, #0
    2e36:	dc00      	bgt.n	2e3a <_vfiprintf_r+0x71a>
    2e38:	e5f4      	b.n	2a24 <_vfiprintf_r+0x304>
    2e3a:	2e10      	cmp	r6, #16
    2e3c:	dc01      	bgt.n	2e42 <_vfiprintf_r+0x722>
    2e3e:	f000 fbf8 	bl	3632 <_vfiprintf_r+0xf12>
    2e42:	4a73      	ldr	r2, [pc, #460]	; (3010 <_vfiprintf_r+0x8f0>)
    2e44:	0020      	movs	r0, r4
    2e46:	46a9      	mov	r9, r5
    2e48:	0014      	movs	r4, r2
    2e4a:	465d      	mov	r5, fp
    2e4c:	e006      	b.n	2e5c <_vfiprintf_r+0x73c>
    2e4e:	3102      	adds	r1, #2
    2e50:	468c      	mov	ip, r1
    2e52:	0011      	movs	r1, r2
    2e54:	3008      	adds	r0, #8
    2e56:	3e10      	subs	r6, #16
    2e58:	2e10      	cmp	r6, #16
    2e5a:	dd1b      	ble.n	2e94 <_vfiprintf_r+0x774>
    2e5c:	2210      	movs	r2, #16
    2e5e:	3310      	adds	r3, #16
    2e60:	6042      	str	r2, [r0, #4]
    2e62:	1c4a      	adds	r2, r1, #1
    2e64:	6004      	str	r4, [r0, #0]
    2e66:	931e      	str	r3, [sp, #120]	; 0x78
    2e68:	921d      	str	r2, [sp, #116]	; 0x74
    2e6a:	2a07      	cmp	r2, #7
    2e6c:	ddef      	ble.n	2e4e <_vfiprintf_r+0x72e>
    2e6e:	2b00      	cmp	r3, #0
    2e70:	d100      	bne.n	2e74 <_vfiprintf_r+0x754>
    2e72:	e09d      	b.n	2fb0 <_vfiprintf_r+0x890>
    2e74:	0029      	movs	r1, r5
    2e76:	0038      	movs	r0, r7
    2e78:	aa1c      	add	r2, sp, #112	; 0x70
    2e7a:	f7ff fc03 	bl	2684 <__sprint_r.part.0>
    2e7e:	2800      	cmp	r0, #0
    2e80:	d000      	beq.n	2e84 <_vfiprintf_r+0x764>
    2e82:	e54b      	b.n	291c <_vfiprintf_r+0x1fc>
    2e84:	991d      	ldr	r1, [sp, #116]	; 0x74
    2e86:	3e10      	subs	r6, #16
    2e88:	1c4a      	adds	r2, r1, #1
    2e8a:	4694      	mov	ip, r2
    2e8c:	9b1e      	ldr	r3, [sp, #120]	; 0x78
    2e8e:	a81f      	add	r0, sp, #124	; 0x7c
    2e90:	2e10      	cmp	r6, #16
    2e92:	dce3      	bgt.n	2e5c <_vfiprintf_r+0x73c>
    2e94:	46ab      	mov	fp, r5
    2e96:	464d      	mov	r5, r9
    2e98:	46a1      	mov	r9, r4
    2e9a:	0004      	movs	r4, r0
    2e9c:	464a      	mov	r2, r9
    2e9e:	6022      	str	r2, [r4, #0]
    2ea0:	4662      	mov	r2, ip
    2ea2:	199b      	adds	r3, r3, r6
    2ea4:	6066      	str	r6, [r4, #4]
    2ea6:	931e      	str	r3, [sp, #120]	; 0x78
    2ea8:	921d      	str	r2, [sp, #116]	; 0x74
    2eaa:	2a07      	cmp	r2, #7
    2eac:	dc00      	bgt.n	2eb0 <_vfiprintf_r+0x790>
    2eae:	e1be      	b.n	322e <_vfiprintf_r+0xb0e>
    2eb0:	2b00      	cmp	r3, #0
    2eb2:	d100      	bne.n	2eb6 <_vfiprintf_r+0x796>
    2eb4:	e365      	b.n	3582 <_vfiprintf_r+0xe62>
    2eb6:	4659      	mov	r1, fp
    2eb8:	0038      	movs	r0, r7
    2eba:	aa1c      	add	r2, sp, #112	; 0x70
    2ebc:	f7ff fbe2 	bl	2684 <__sprint_r.part.0>
    2ec0:	2800      	cmp	r0, #0
    2ec2:	d000      	beq.n	2ec6 <_vfiprintf_r+0x7a6>
    2ec4:	e52b      	b.n	291e <_vfiprintf_r+0x1fe>
    2ec6:	4652      	mov	r2, sl
    2ec8:	991d      	ldr	r1, [sp, #116]	; 0x74
    2eca:	9e05      	ldr	r6, [sp, #20]
    2ecc:	9b1e      	ldr	r3, [sp, #120]	; 0x78
    2ece:	1c48      	adds	r0, r1, #1
    2ed0:	ac1f      	add	r4, sp, #124	; 0x7c
    2ed2:	1b96      	subs	r6, r2, r6
    2ed4:	2e00      	cmp	r6, #0
    2ed6:	dc00      	bgt.n	2eda <_vfiprintf_r+0x7ba>
    2ed8:	e5aa      	b.n	2a30 <_vfiprintf_r+0x310>
    2eda:	4a4d      	ldr	r2, [pc, #308]	; (3010 <_vfiprintf_r+0x8f0>)
    2edc:	4691      	mov	r9, r2
    2ede:	2e10      	cmp	r6, #16
    2ee0:	dd2d      	ble.n	2f3e <_vfiprintf_r+0x81e>
    2ee2:	2210      	movs	r2, #16
    2ee4:	0020      	movs	r0, r4
    2ee6:	4692      	mov	sl, r2
    2ee8:	464c      	mov	r4, r9
    2eea:	46a9      	mov	r9, r5
    2eec:	465d      	mov	r5, fp
    2eee:	e006      	b.n	2efe <_vfiprintf_r+0x7de>
    2ef0:	3102      	adds	r1, #2
    2ef2:	468c      	mov	ip, r1
    2ef4:	0011      	movs	r1, r2
    2ef6:	3008      	adds	r0, #8
    2ef8:	3e10      	subs	r6, #16
    2efa:	2e10      	cmp	r6, #16
    2efc:	dd1a      	ble.n	2f34 <_vfiprintf_r+0x814>
    2efe:	4652      	mov	r2, sl
    2f00:	3310      	adds	r3, #16
    2f02:	6042      	str	r2, [r0, #4]
    2f04:	1c4a      	adds	r2, r1, #1
    2f06:	6004      	str	r4, [r0, #0]
    2f08:	931e      	str	r3, [sp, #120]	; 0x78
    2f0a:	921d      	str	r2, [sp, #116]	; 0x74
    2f0c:	2a07      	cmp	r2, #7
    2f0e:	ddef      	ble.n	2ef0 <_vfiprintf_r+0x7d0>
    2f10:	2b00      	cmp	r3, #0
    2f12:	d020      	beq.n	2f56 <_vfiprintf_r+0x836>
    2f14:	0029      	movs	r1, r5
    2f16:	0038      	movs	r0, r7
    2f18:	aa1c      	add	r2, sp, #112	; 0x70
    2f1a:	f7ff fbb3 	bl	2684 <__sprint_r.part.0>
    2f1e:	2800      	cmp	r0, #0
    2f20:	d000      	beq.n	2f24 <_vfiprintf_r+0x804>
    2f22:	e4fb      	b.n	291c <_vfiprintf_r+0x1fc>
    2f24:	991d      	ldr	r1, [sp, #116]	; 0x74
    2f26:	3e10      	subs	r6, #16
    2f28:	1c4a      	adds	r2, r1, #1
    2f2a:	4694      	mov	ip, r2
    2f2c:	9b1e      	ldr	r3, [sp, #120]	; 0x78
    2f2e:	a81f      	add	r0, sp, #124	; 0x7c
    2f30:	2e10      	cmp	r6, #16
    2f32:	dce4      	bgt.n	2efe <_vfiprintf_r+0x7de>
    2f34:	46ab      	mov	fp, r5
    2f36:	464d      	mov	r5, r9
    2f38:	46a1      	mov	r9, r4
    2f3a:	0004      	movs	r4, r0
    2f3c:	4660      	mov	r0, ip
    2f3e:	464a      	mov	r2, r9
    2f40:	199b      	adds	r3, r3, r6
    2f42:	6022      	str	r2, [r4, #0]
    2f44:	6066      	str	r6, [r4, #4]
    2f46:	931e      	str	r3, [sp, #120]	; 0x78
    2f48:	901d      	str	r0, [sp, #116]	; 0x74
    2f4a:	2807      	cmp	r0, #7
    2f4c:	dd00      	ble.n	2f50 <_vfiprintf_r+0x830>
    2f4e:	e0f3      	b.n	3138 <_vfiprintf_r+0xa18>
    2f50:	3408      	adds	r4, #8
    2f52:	3001      	adds	r0, #1
    2f54:	e56c      	b.n	2a30 <_vfiprintf_r+0x310>
    2f56:	2201      	movs	r2, #1
    2f58:	2100      	movs	r1, #0
    2f5a:	4694      	mov	ip, r2
    2f5c:	a81f      	add	r0, sp, #124	; 0x7c
    2f5e:	e7cb      	b.n	2ef8 <_vfiprintf_r+0x7d8>
    2f60:	200f      	movs	r0, #15
    2f62:	9a08      	ldr	r2, [sp, #32]
    2f64:	9b09      	ldr	r3, [sp, #36]	; 0x24
    2f66:	46a0      	mov	r8, r4
    2f68:	46b9      	mov	r9, r7
    2f6a:	46b4      	mov	ip, r6
    2f6c:	9e11      	ldr	r6, [sp, #68]	; 0x44
    2f6e:	0001      	movs	r1, r0
    2f70:	4011      	ands	r1, r2
    2f72:	5c71      	ldrb	r1, [r6, r1]
    2f74:	071f      	lsls	r7, r3, #28
    2f76:	0914      	lsrs	r4, r2, #4
    2f78:	3d01      	subs	r5, #1
    2f7a:	4327      	orrs	r7, r4
    2f7c:	7029      	strb	r1, [r5, #0]
    2f7e:	0919      	lsrs	r1, r3, #4
    2f80:	000b      	movs	r3, r1
    2f82:	0039      	movs	r1, r7
    2f84:	003a      	movs	r2, r7
    2f86:	4319      	orrs	r1, r3
    2f88:	d1f1      	bne.n	2f6e <_vfiprintf_r+0x84e>
    2f8a:	4666      	mov	r6, ip
    2f8c:	4644      	mov	r4, r8
    2f8e:	464f      	mov	r7, r9
    2f90:	9208      	str	r2, [sp, #32]
    2f92:	9309      	str	r3, [sp, #36]	; 0x24
    2f94:	ab48      	add	r3, sp, #288	; 0x120
    2f96:	1b5b      	subs	r3, r3, r5
    2f98:	46b0      	mov	r8, r6
    2f9a:	9305      	str	r3, [sp, #20]
    2f9c:	e66d      	b.n	2c7a <_vfiprintf_r+0x55a>
    2f9e:	4659      	mov	r1, fp
    2fa0:	0038      	movs	r0, r7
    2fa2:	aa1c      	add	r2, sp, #112	; 0x70
    2fa4:	f7ff fb6e 	bl	2684 <__sprint_r.part.0>
    2fa8:	2800      	cmp	r0, #0
    2faa:	d100      	bne.n	2fae <_vfiprintf_r+0x88e>
    2fac:	e56d      	b.n	2a8a <_vfiprintf_r+0x36a>
    2fae:	e4b6      	b.n	291e <_vfiprintf_r+0x1fe>
    2fb0:	2201      	movs	r2, #1
    2fb2:	2100      	movs	r1, #0
    2fb4:	4694      	mov	ip, r2
    2fb6:	a81f      	add	r0, sp, #124	; 0x7c
    2fb8:	e74d      	b.n	2e56 <_vfiprintf_r+0x736>
    2fba:	2b00      	cmp	r3, #0
    2fbc:	d100      	bne.n	2fc0 <_vfiprintf_r+0x8a0>
    2fbe:	e108      	b.n	31d2 <_vfiprintf_r+0xab2>
    2fc0:	4659      	mov	r1, fp
    2fc2:	0038      	movs	r0, r7
    2fc4:	aa1c      	add	r2, sp, #112	; 0x70
    2fc6:	f7ff fb5d 	bl	2684 <__sprint_r.part.0>
    2fca:	2800      	cmp	r0, #0
    2fcc:	d000      	beq.n	2fd0 <_vfiprintf_r+0x8b0>
    2fce:	e4a6      	b.n	291e <_vfiprintf_r+0x1fe>
    2fd0:	991d      	ldr	r1, [sp, #116]	; 0x74
    2fd2:	9b1e      	ldr	r3, [sp, #120]	; 0x78
    2fd4:	1c48      	adds	r0, r1, #1
    2fd6:	ac1f      	add	r4, sp, #124	; 0x7c
    2fd8:	e503      	b.n	29e2 <_vfiprintf_r+0x2c2>
    2fda:	ab15      	add	r3, sp, #84	; 0x54
    2fdc:	931f      	str	r3, [sp, #124]	; 0x7c
    2fde:	2302      	movs	r3, #2
    2fe0:	2001      	movs	r0, #1
    2fe2:	9320      	str	r3, [sp, #128]	; 0x80
    2fe4:	ac1f      	add	r4, sp, #124	; 0x7c
    2fe6:	0001      	movs	r1, r0
    2fe8:	3408      	adds	r4, #8
    2fea:	1c48      	adds	r0, r1, #1
    2fec:	e516      	b.n	2a1c <_vfiprintf_r+0x2fc>
    2fee:	9b1e      	ldr	r3, [sp, #120]	; 0x78
    2ff0:	2e10      	cmp	r6, #16
    2ff2:	dc00      	bgt.n	2ff6 <_vfiprintf_r+0x8d6>
    2ff4:	e302      	b.n	35fc <_vfiprintf_r+0xedc>
    2ff6:	4a07      	ldr	r2, [pc, #28]	; (3014 <_vfiprintf_r+0x8f4>)
    2ff8:	0021      	movs	r1, r4
    2ffa:	46a9      	mov	r9, r5
    2ffc:	0014      	movs	r4, r2
    2ffe:	465d      	mov	r5, fp
    3000:	981d      	ldr	r0, [sp, #116]	; 0x74
    3002:	e010      	b.n	3026 <_vfiprintf_r+0x906>
    3004:	fffffbff 	.word	0xfffffbff
    3008:	00007830 	.word	0x00007830
    300c:	0000c038 	.word	0x0000c038
    3010:	0000c014 	.word	0x0000c014
    3014:	0000bff4 	.word	0x0000bff4
    3018:	3002      	adds	r0, #2
    301a:	4684      	mov	ip, r0
    301c:	0010      	movs	r0, r2
    301e:	3108      	adds	r1, #8
    3020:	3e10      	subs	r6, #16
    3022:	2e10      	cmp	r6, #16
    3024:	dd1a      	ble.n	305c <_vfiprintf_r+0x93c>
    3026:	2210      	movs	r2, #16
    3028:	3310      	adds	r3, #16
    302a:	604a      	str	r2, [r1, #4]
    302c:	1c42      	adds	r2, r0, #1
    302e:	600c      	str	r4, [r1, #0]
    3030:	931e      	str	r3, [sp, #120]	; 0x78
    3032:	921d      	str	r2, [sp, #116]	; 0x74
    3034:	2a07      	cmp	r2, #7
    3036:	ddef      	ble.n	3018 <_vfiprintf_r+0x8f8>
    3038:	2b00      	cmp	r3, #0
    303a:	d020      	beq.n	307e <_vfiprintf_r+0x95e>
    303c:	0029      	movs	r1, r5
    303e:	0038      	movs	r0, r7
    3040:	aa1c      	add	r2, sp, #112	; 0x70
    3042:	f7ff fb1f 	bl	2684 <__sprint_r.part.0>
    3046:	2800      	cmp	r0, #0
    3048:	d000      	beq.n	304c <_vfiprintf_r+0x92c>
    304a:	e467      	b.n	291c <_vfiprintf_r+0x1fc>
    304c:	981d      	ldr	r0, [sp, #116]	; 0x74
    304e:	3e10      	subs	r6, #16
    3050:	1c42      	adds	r2, r0, #1
    3052:	4694      	mov	ip, r2
    3054:	9b1e      	ldr	r3, [sp, #120]	; 0x78
    3056:	a91f      	add	r1, sp, #124	; 0x7c
    3058:	2e10      	cmp	r6, #16
    305a:	dce4      	bgt.n	3026 <_vfiprintf_r+0x906>
    305c:	46ab      	mov	fp, r5
    305e:	464d      	mov	r5, r9
    3060:	46a1      	mov	r9, r4
    3062:	000c      	movs	r4, r1
    3064:	4661      	mov	r1, ip
    3066:	464a      	mov	r2, r9
    3068:	18f3      	adds	r3, r6, r3
    306a:	6022      	str	r2, [r4, #0]
    306c:	6066      	str	r6, [r4, #4]
    306e:	931e      	str	r3, [sp, #120]	; 0x78
    3070:	911d      	str	r1, [sp, #116]	; 0x74
    3072:	2907      	cmp	r1, #7
    3074:	dd00      	ble.n	3078 <_vfiprintf_r+0x958>
    3076:	e0b7      	b.n	31e8 <_vfiprintf_r+0xac8>
    3078:	3408      	adds	r4, #8
    307a:	1c48      	adds	r0, r1, #1
    307c:	e49d      	b.n	29ba <_vfiprintf_r+0x29a>
    307e:	2201      	movs	r2, #1
    3080:	2000      	movs	r0, #0
    3082:	4694      	mov	ip, r2
    3084:	a91f      	add	r1, sp, #124	; 0x7c
    3086:	e7cb      	b.n	3020 <_vfiprintf_r+0x900>
    3088:	4642      	mov	r2, r8
    308a:	931d      	str	r3, [sp, #116]	; 0x74
    308c:	0752      	lsls	r2, r2, #29
    308e:	d548      	bpl.n	3122 <_vfiprintf_r+0xa02>
    3090:	9a07      	ldr	r2, [sp, #28]
    3092:	9904      	ldr	r1, [sp, #16]
    3094:	1a55      	subs	r5, r2, r1
    3096:	2d00      	cmp	r5, #0
    3098:	dd43      	ble.n	3122 <_vfiprintf_r+0xa02>
    309a:	ac1f      	add	r4, sp, #124	; 0x7c
    309c:	2d10      	cmp	r5, #16
    309e:	dc00      	bgt.n	30a2 <_vfiprintf_r+0x982>
    30a0:	e2c2      	b.n	3628 <_vfiprintf_r+0xf08>
    30a2:	4ac6      	ldr	r2, [pc, #792]	; (33bc <_vfiprintf_r+0xc9c>)
    30a4:	46b8      	mov	r8, r7
    30a6:	2610      	movs	r6, #16
    30a8:	0017      	movs	r7, r2
    30aa:	991d      	ldr	r1, [sp, #116]	; 0x74
    30ac:	e005      	b.n	30ba <_vfiprintf_r+0x99a>
    30ae:	1c88      	adds	r0, r1, #2
    30b0:	0011      	movs	r1, r2
    30b2:	3408      	adds	r4, #8
    30b4:	3d10      	subs	r5, #16
    30b6:	2d10      	cmp	r5, #16
    30b8:	dd18      	ble.n	30ec <_vfiprintf_r+0x9cc>
    30ba:	3310      	adds	r3, #16
    30bc:	1c4a      	adds	r2, r1, #1
    30be:	6027      	str	r7, [r4, #0]
    30c0:	6066      	str	r6, [r4, #4]
    30c2:	931e      	str	r3, [sp, #120]	; 0x78
    30c4:	921d      	str	r2, [sp, #116]	; 0x74
    30c6:	2a07      	cmp	r2, #7
    30c8:	ddf1      	ble.n	30ae <_vfiprintf_r+0x98e>
    30ca:	2b00      	cmp	r3, #0
    30cc:	d025      	beq.n	311a <_vfiprintf_r+0x9fa>
    30ce:	4659      	mov	r1, fp
    30d0:	4640      	mov	r0, r8
    30d2:	aa1c      	add	r2, sp, #112	; 0x70
    30d4:	f7ff fad6 	bl	2684 <__sprint_r.part.0>
    30d8:	2800      	cmp	r0, #0
    30da:	d000      	beq.n	30de <_vfiprintf_r+0x9be>
    30dc:	e1ce      	b.n	347c <_vfiprintf_r+0xd5c>
    30de:	991d      	ldr	r1, [sp, #116]	; 0x74
    30e0:	3d10      	subs	r5, #16
    30e2:	9b1e      	ldr	r3, [sp, #120]	; 0x78
    30e4:	1c48      	adds	r0, r1, #1
    30e6:	ac1f      	add	r4, sp, #124	; 0x7c
    30e8:	2d10      	cmp	r5, #16
    30ea:	dce6      	bgt.n	30ba <_vfiprintf_r+0x99a>
    30ec:	46b9      	mov	r9, r7
    30ee:	4647      	mov	r7, r8
    30f0:	464a      	mov	r2, r9
    30f2:	195b      	adds	r3, r3, r5
    30f4:	c424      	stmia	r4!, {r2, r5}
    30f6:	931e      	str	r3, [sp, #120]	; 0x78
    30f8:	901d      	str	r0, [sp, #116]	; 0x74
    30fa:	2807      	cmp	r0, #7
    30fc:	dc00      	bgt.n	3100 <_vfiprintf_r+0x9e0>
    30fe:	e4b7      	b.n	2a70 <_vfiprintf_r+0x350>
    3100:	2b00      	cmp	r3, #0
    3102:	d00e      	beq.n	3122 <_vfiprintf_r+0xa02>
    3104:	4659      	mov	r1, fp
    3106:	0038      	movs	r0, r7
    3108:	aa1c      	add	r2, sp, #112	; 0x70
    310a:	f7ff fabb 	bl	2684 <__sprint_r.part.0>
    310e:	2800      	cmp	r0, #0
    3110:	d001      	beq.n	3116 <_vfiprintf_r+0x9f6>
    3112:	f7ff fc04 	bl	291e <_vfiprintf_r+0x1fe>
    3116:	9b1e      	ldr	r3, [sp, #120]	; 0x78
    3118:	e4aa      	b.n	2a70 <_vfiprintf_r+0x350>
    311a:	2001      	movs	r0, #1
    311c:	2100      	movs	r1, #0
    311e:	ac1f      	add	r4, sp, #124	; 0x7c
    3120:	e7c8      	b.n	30b4 <_vfiprintf_r+0x994>
    3122:	9b07      	ldr	r3, [sp, #28]
    3124:	9a04      	ldr	r2, [sp, #16]
    3126:	4293      	cmp	r3, r2
    3128:	da00      	bge.n	312c <_vfiprintf_r+0xa0c>
    312a:	0013      	movs	r3, r2
    312c:	9a06      	ldr	r2, [sp, #24]
    312e:	4694      	mov	ip, r2
    3130:	449c      	add	ip, r3
    3132:	4663      	mov	r3, ip
    3134:	9306      	str	r3, [sp, #24]
    3136:	e4a8      	b.n	2a8a <_vfiprintf_r+0x36a>
    3138:	2b00      	cmp	r3, #0
    313a:	d100      	bne.n	313e <_vfiprintf_r+0xa1e>
    313c:	e66e      	b.n	2e1c <_vfiprintf_r+0x6fc>
    313e:	4659      	mov	r1, fp
    3140:	0038      	movs	r0, r7
    3142:	aa1c      	add	r2, sp, #112	; 0x70
    3144:	f7ff fa9e 	bl	2684 <__sprint_r.part.0>
    3148:	2800      	cmp	r0, #0
    314a:	d001      	beq.n	3150 <_vfiprintf_r+0xa30>
    314c:	f7ff fbe7 	bl	291e <_vfiprintf_r+0x1fe>
    3150:	981d      	ldr	r0, [sp, #116]	; 0x74
    3152:	9b1e      	ldr	r3, [sp, #120]	; 0x78
    3154:	3001      	adds	r0, #1
    3156:	ac1f      	add	r4, sp, #124	; 0x7c
    3158:	e46a      	b.n	2a30 <_vfiprintf_r+0x310>
    315a:	921d      	str	r2, [sp, #116]	; 0x74
    315c:	ac1f      	add	r4, sp, #124	; 0x7c
    315e:	f7ff fbca 	bl	28f6 <_vfiprintf_r+0x1d6>
    3162:	4653      	mov	r3, sl
    3164:	2b00      	cmp	r3, #0
    3166:	d000      	beq.n	316a <_vfiprintf_r+0xa4a>
    3168:	e5de      	b.n	2d28 <_vfiprintf_r+0x608>
    316a:	46b0      	mov	r8, r6
    316c:	2300      	movs	r3, #0
    316e:	ad48      	add	r5, sp, #288	; 0x120
    3170:	469a      	mov	sl, r3
    3172:	9305      	str	r3, [sp, #20]
    3174:	e581      	b.n	2c7a <_vfiprintf_r+0x55a>
    3176:	06f3      	lsls	r3, r6, #27
    3178:	d572      	bpl.n	3260 <_vfiprintf_r+0xb40>
    317a:	9b0a      	ldr	r3, [sp, #40]	; 0x28
    317c:	cb04      	ldmia	r3!, {r2}
    317e:	9208      	str	r2, [sp, #32]
    3180:	2200      	movs	r2, #0
    3182:	930a      	str	r3, [sp, #40]	; 0x28
    3184:	9209      	str	r2, [sp, #36]	; 0x24
    3186:	2301      	movs	r3, #1
    3188:	e556      	b.n	2c38 <_vfiprintf_r+0x518>
    318a:	4643      	mov	r3, r8
    318c:	06db      	lsls	r3, r3, #27
    318e:	d56e      	bpl.n	326e <_vfiprintf_r+0xb4e>
    3190:	9a0a      	ldr	r2, [sp, #40]	; 0x28
    3192:	ca08      	ldmia	r2!, {r3}
    3194:	9308      	str	r3, [sp, #32]
    3196:	17db      	asrs	r3, r3, #31
    3198:	9309      	str	r3, [sp, #36]	; 0x24
    319a:	920a      	str	r2, [sp, #40]	; 0x28
    319c:	d400      	bmi.n	31a0 <_vfiprintf_r+0xa80>
    319e:	e5af      	b.n	2d00 <_vfiprintf_r+0x5e0>
    31a0:	9808      	ldr	r0, [sp, #32]
    31a2:	9909      	ldr	r1, [sp, #36]	; 0x24
    31a4:	2300      	movs	r3, #0
    31a6:	4242      	negs	r2, r0
    31a8:	418b      	sbcs	r3, r1
    31aa:	4646      	mov	r6, r8
    31ac:	9208      	str	r2, [sp, #32]
    31ae:	9309      	str	r3, [sp, #36]	; 0x24
    31b0:	222d      	movs	r2, #45	; 0x2d
    31b2:	2301      	movs	r3, #1
    31b4:	e541      	b.n	2c3a <_vfiprintf_r+0x51a>
    31b6:	4643      	mov	r3, r8
    31b8:	06db      	lsls	r3, r3, #27
    31ba:	d441      	bmi.n	3240 <_vfiprintf_r+0xb20>
    31bc:	4643      	mov	r3, r8
    31be:	065b      	lsls	r3, r3, #25
    31c0:	d53a      	bpl.n	3238 <_vfiprintf_r+0xb18>
    31c2:	9b0a      	ldr	r3, [sp, #40]	; 0x28
    31c4:	cb04      	ldmia	r3!, {r2}
    31c6:	b292      	uxth	r2, r2
    31c8:	9208      	str	r2, [sp, #32]
    31ca:	2200      	movs	r2, #0
    31cc:	930a      	str	r3, [sp, #40]	; 0x28
    31ce:	9209      	str	r2, [sp, #36]	; 0x24
    31d0:	e577      	b.n	2cc2 <_vfiprintf_r+0x5a2>
    31d2:	9a0c      	ldr	r2, [sp, #48]	; 0x30
    31d4:	2a00      	cmp	r2, #0
    31d6:	d168      	bne.n	32aa <_vfiprintf_r+0xb8a>
    31d8:	2100      	movs	r1, #0
    31da:	2001      	movs	r0, #1
    31dc:	ac1f      	add	r4, sp, #124	; 0x7c
    31de:	e41d      	b.n	2a1c <_vfiprintf_r+0x2fc>
    31e0:	2001      	movs	r0, #1
    31e2:	2100      	movs	r1, #0
    31e4:	ac1f      	add	r4, sp, #124	; 0x7c
    31e6:	e419      	b.n	2a1c <_vfiprintf_r+0x2fc>
    31e8:	2b00      	cmp	r3, #0
    31ea:	d100      	bne.n	31ee <_vfiprintf_r+0xace>
    31ec:	e09e      	b.n	332c <_vfiprintf_r+0xc0c>
    31ee:	4659      	mov	r1, fp
    31f0:	0038      	movs	r0, r7
    31f2:	aa1c      	add	r2, sp, #112	; 0x70
    31f4:	f7ff fa46 	bl	2684 <__sprint_r.part.0>
    31f8:	2800      	cmp	r0, #0
    31fa:	d001      	beq.n	3200 <_vfiprintf_r+0xae0>
    31fc:	f7ff fb8f 	bl	291e <_vfiprintf_r+0x1fe>
    3200:	991d      	ldr	r1, [sp, #116]	; 0x74
    3202:	9b1e      	ldr	r3, [sp, #120]	; 0x78
    3204:	1c48      	adds	r0, r1, #1
    3206:	ac1f      	add	r4, sp, #124	; 0x7c
    3208:	f7ff fbd7 	bl	29ba <_vfiprintf_r+0x29a>
    320c:	46a8      	mov	r8, r5
    320e:	46b2      	mov	sl, r6
    3210:	e562      	b.n	2cd8 <_vfiprintf_r+0x5b8>
    3212:	9a03      	ldr	r2, [sp, #12]
    3214:	930a      	str	r3, [sp, #40]	; 0x28
    3216:	7812      	ldrb	r2, [r2, #0]
    3218:	f7ff fafb 	bl	2812 <_vfiprintf_r+0xf2>
    321c:	2130      	movs	r1, #48	; 0x30
    321e:	3362      	adds	r3, #98	; 0x62
    3220:	aa2f      	add	r2, sp, #188	; 0xbc
    3222:	54d1      	strb	r1, [r2, r3]
    3224:	ab12      	add	r3, sp, #72	; 0x48
    3226:	25d7      	movs	r5, #215	; 0xd7
    3228:	469c      	mov	ip, r3
    322a:	4465      	add	r5, ip
    322c:	e525      	b.n	2c7a <_vfiprintf_r+0x55a>
    322e:	4661      	mov	r1, ip
    3230:	3408      	adds	r4, #8
    3232:	1c50      	adds	r0, r2, #1
    3234:	f7ff fbf6 	bl	2a24 <_vfiprintf_r+0x304>
    3238:	4643      	mov	r3, r8
    323a:	059b      	lsls	r3, r3, #22
    323c:	d500      	bpl.n	3240 <_vfiprintf_r+0xb20>
    323e:	e1c2      	b.n	35c6 <_vfiprintf_r+0xea6>
    3240:	9b0a      	ldr	r3, [sp, #40]	; 0x28
    3242:	cb04      	ldmia	r3!, {r2}
    3244:	9208      	str	r2, [sp, #32]
    3246:	2200      	movs	r2, #0
    3248:	930a      	str	r3, [sp, #40]	; 0x28
    324a:	9209      	str	r2, [sp, #36]	; 0x24
    324c:	e539      	b.n	2cc2 <_vfiprintf_r+0x5a2>
    324e:	9b0a      	ldr	r3, [sp, #40]	; 0x28
    3250:	9906      	ldr	r1, [sp, #24]
    3252:	cb04      	ldmia	r3!, {r2}
    3254:	6011      	str	r1, [r2, #0]
    3256:	17c9      	asrs	r1, r1, #31
    3258:	6051      	str	r1, [r2, #4]
    325a:	930a      	str	r3, [sp, #40]	; 0x28
    325c:	f7ff faae 	bl	27bc <_vfiprintf_r+0x9c>
    3260:	0673      	lsls	r3, r6, #25
    3262:	d400      	bmi.n	3266 <_vfiprintf_r+0xb46>
    3264:	e133      	b.n	34ce <_vfiprintf_r+0xdae>
    3266:	9b0a      	ldr	r3, [sp, #40]	; 0x28
    3268:	cb04      	ldmia	r3!, {r2}
    326a:	b292      	uxth	r2, r2
    326c:	e787      	b.n	317e <_vfiprintf_r+0xa5e>
    326e:	4643      	mov	r3, r8
    3270:	065b      	lsls	r3, r3, #25
    3272:	d400      	bmi.n	3276 <_vfiprintf_r+0xb56>
    3274:	e132      	b.n	34dc <_vfiprintf_r+0xdbc>
    3276:	9a0a      	ldr	r2, [sp, #40]	; 0x28
    3278:	ca08      	ldmia	r2!, {r3}
    327a:	b21b      	sxth	r3, r3
    327c:	9308      	str	r3, [sp, #32]
    327e:	17db      	asrs	r3, r3, #31
    3280:	9309      	str	r3, [sp, #36]	; 0x24
    3282:	920a      	str	r2, [sp, #40]	; 0x28
    3284:	e539      	b.n	2cfa <_vfiprintf_r+0x5da>
    3286:	9b10      	ldr	r3, [sp, #64]	; 0x40
    3288:	2b00      	cmp	r3, #0
    328a:	d101      	bne.n	3290 <_vfiprintf_r+0xb70>
    328c:	f7ff fb04 	bl	2898 <_vfiprintf_r+0x178>
    3290:	9b10      	ldr	r3, [sp, #64]	; 0x40
    3292:	781b      	ldrb	r3, [r3, #0]
    3294:	2b00      	cmp	r3, #0
    3296:	d101      	bne.n	329c <_vfiprintf_r+0xb7c>
    3298:	f7ff fafe 	bl	2898 <_vfiprintf_r+0x178>
    329c:	2380      	movs	r3, #128	; 0x80
    329e:	00db      	lsls	r3, r3, #3
    32a0:	431d      	orrs	r5, r3
    32a2:	9b03      	ldr	r3, [sp, #12]
    32a4:	781a      	ldrb	r2, [r3, #0]
    32a6:	f7ff fab4 	bl	2812 <_vfiprintf_r+0xf2>
    32aa:	ab15      	add	r3, sp, #84	; 0x54
    32ac:	931f      	str	r3, [sp, #124]	; 0x7c
    32ae:	2302      	movs	r3, #2
    32b0:	2101      	movs	r1, #1
    32b2:	9320      	str	r3, [sp, #128]	; 0x80
    32b4:	ac1f      	add	r4, sp, #124	; 0x7c
    32b6:	e697      	b.n	2fe8 <_vfiprintf_r+0x8c8>
    32b8:	9b0a      	ldr	r3, [sp, #40]	; 0x28
    32ba:	ad2f      	add	r5, sp, #188	; 0xbc
    32bc:	cb04      	ldmia	r3!, {r2}
    32be:	930a      	str	r3, [sp, #40]	; 0x28
    32c0:	2301      	movs	r3, #1
    32c2:	702a      	strb	r2, [r5, #0]
    32c4:	9304      	str	r3, [sp, #16]
    32c6:	9305      	str	r3, [sp, #20]
    32c8:	e459      	b.n	2b7e <_vfiprintf_r+0x45e>
    32ca:	46a8      	mov	r8, r5
    32cc:	46b2      	mov	sl, r6
    32ce:	4b3c      	ldr	r3, [pc, #240]	; (33c0 <_vfiprintf_r+0xca0>)
    32d0:	9311      	str	r3, [sp, #68]	; 0x44
    32d2:	4643      	mov	r3, r8
    32d4:	069b      	lsls	r3, r3, #26
    32d6:	d400      	bmi.n	32da <_vfiprintf_r+0xbba>
    32d8:	e0b7      	b.n	344a <_vfiprintf_r+0xd2a>
    32da:	2107      	movs	r1, #7
    32dc:	9b0a      	ldr	r3, [sp, #40]	; 0x28
    32de:	3307      	adds	r3, #7
    32e0:	438b      	bics	r3, r1
    32e2:	cb03      	ldmia	r3!, {r0, r1}
    32e4:	9008      	str	r0, [sp, #32]
    32e6:	9109      	str	r1, [sp, #36]	; 0x24
    32e8:	930a      	str	r3, [sp, #40]	; 0x28
    32ea:	4643      	mov	r3, r8
    32ec:	07db      	lsls	r3, r3, #31
    32ee:	d50c      	bpl.n	330a <_vfiprintf_r+0xbea>
    32f0:	9808      	ldr	r0, [sp, #32]
    32f2:	9909      	ldr	r1, [sp, #36]	; 0x24
    32f4:	0003      	movs	r3, r0
    32f6:	430b      	orrs	r3, r1
    32f8:	d007      	beq.n	330a <_vfiprintf_r+0xbea>
    32fa:	2130      	movs	r1, #48	; 0x30
    32fc:	ab15      	add	r3, sp, #84	; 0x54
    32fe:	705a      	strb	r2, [r3, #1]
    3300:	7019      	strb	r1, [r3, #0]
    3302:	4642      	mov	r2, r8
    3304:	2302      	movs	r3, #2
    3306:	431a      	orrs	r2, r3
    3308:	4690      	mov	r8, r2
    330a:	4643      	mov	r3, r8
    330c:	4e2d      	ldr	r6, [pc, #180]	; (33c4 <_vfiprintf_r+0xca4>)
    330e:	4033      	ands	r3, r6
    3310:	001e      	movs	r6, r3
    3312:	2302      	movs	r3, #2
    3314:	e490      	b.n	2c38 <_vfiprintf_r+0x518>
    3316:	46b2      	mov	sl, r6
    3318:	002e      	movs	r6, r5
    331a:	e480      	b.n	2c1e <_vfiprintf_r+0x4fe>
    331c:	46a8      	mov	r8, r5
    331e:	46b2      	mov	sl, r6
    3320:	e4c2      	b.n	2ca8 <_vfiprintf_r+0x588>
    3322:	4b29      	ldr	r3, [pc, #164]	; (33c8 <_vfiprintf_r+0xca8>)
    3324:	46a8      	mov	r8, r5
    3326:	46b2      	mov	sl, r6
    3328:	9311      	str	r3, [sp, #68]	; 0x44
    332a:	e7d2      	b.n	32d2 <_vfiprintf_r+0xbb2>
    332c:	aa12      	add	r2, sp, #72	; 0x48
    332e:	7ad2      	ldrb	r2, [r2, #11]
    3330:	2a00      	cmp	r2, #0
    3332:	d000      	beq.n	3336 <_vfiprintf_r+0xc16>
    3334:	e12d      	b.n	3592 <_vfiprintf_r+0xe72>
    3336:	9a0c      	ldr	r2, [sp, #48]	; 0x30
    3338:	2a00      	cmp	r2, #0
    333a:	d000      	beq.n	333e <_vfiprintf_r+0xc1e>
    333c:	e64d      	b.n	2fda <_vfiprintf_r+0x8ba>
    333e:	2100      	movs	r1, #0
    3340:	2001      	movs	r0, #1
    3342:	ac1f      	add	r4, sp, #124	; 0x7c
    3344:	f7ff fb6e 	bl	2a24 <_vfiprintf_r+0x304>
    3348:	2208      	movs	r2, #8
    334a:	2100      	movs	r1, #0
    334c:	a81a      	add	r0, sp, #104	; 0x68
    334e:	9517      	str	r5, [sp, #92]	; 0x5c
    3350:	f000 fcda 	bl	3d08 <memset>
    3354:	4653      	mov	r3, sl
    3356:	3301      	adds	r3, #1
    3358:	d100      	bne.n	335c <_vfiprintf_r+0xc3c>
    335a:	e0cc      	b.n	34f6 <_vfiprintf_r+0xdd6>
    335c:	2300      	movs	r3, #0
    335e:	9504      	str	r5, [sp, #16]
    3360:	001d      	movs	r5, r3
    3362:	0023      	movs	r3, r4
    3364:	2600      	movs	r6, #0
    3366:	4654      	mov	r4, sl
    3368:	469a      	mov	sl, r3
    336a:	e00f      	b.n	338c <_vfiprintf_r+0xc6c>
    336c:	ab1a      	add	r3, sp, #104	; 0x68
    336e:	0038      	movs	r0, r7
    3370:	a92f      	add	r1, sp, #188	; 0xbc
    3372:	f000 fd1d 	bl	3db0 <_wcrtomb_r>
    3376:	1c43      	adds	r3, r0, #1
    3378:	d100      	bne.n	337c <_vfiprintf_r+0xc5c>
    337a:	e15e      	b.n	363a <_vfiprintf_r+0xf1a>
    337c:	1828      	adds	r0, r5, r0
    337e:	42a0      	cmp	r0, r4
    3380:	dc08      	bgt.n	3394 <_vfiprintf_r+0xc74>
    3382:	3604      	adds	r6, #4
    3384:	42a0      	cmp	r0, r4
    3386:	d100      	bne.n	338a <_vfiprintf_r+0xc6a>
    3388:	e170      	b.n	366c <_vfiprintf_r+0xf4c>
    338a:	0005      	movs	r5, r0
    338c:	9b17      	ldr	r3, [sp, #92]	; 0x5c
    338e:	599a      	ldr	r2, [r3, r6]
    3390:	2a00      	cmp	r2, #0
    3392:	d1eb      	bne.n	336c <_vfiprintf_r+0xc4c>
    3394:	9505      	str	r5, [sp, #20]
    3396:	4654      	mov	r4, sl
    3398:	9d04      	ldr	r5, [sp, #16]
    339a:	e0ba      	b.n	3512 <_vfiprintf_r+0xdf2>
    339c:	2380      	movs	r3, #128	; 0x80
    339e:	00db      	lsls	r3, r3, #3
    33a0:	4033      	ands	r3, r6
    33a2:	9304      	str	r3, [sp, #16]
    33a4:	2300      	movs	r3, #0
    33a6:	4698      	mov	r8, r3
    33a8:	4653      	mov	r3, sl
    33aa:	9605      	str	r6, [sp, #20]
    33ac:	46ba      	mov	sl, r7
    33ae:	9e08      	ldr	r6, [sp, #32]
    33b0:	9f09      	ldr	r7, [sp, #36]	; 0x24
    33b2:	ad48      	add	r5, sp, #288	; 0x120
    33b4:	930b      	str	r3, [sp, #44]	; 0x2c
    33b6:	940c      	str	r4, [sp, #48]	; 0x30
    33b8:	e00d      	b.n	33d6 <_vfiprintf_r+0xcb6>
    33ba:	46c0      	nop			; (mov r8, r8)
    33bc:	0000bff4 	.word	0x0000bff4
    33c0:	0000c038 	.word	0x0000c038
    33c4:	fffffbff 	.word	0xfffffbff
    33c8:	0000c024 	.word	0x0000c024
    33cc:	2f00      	cmp	r7, #0
    33ce:	d100      	bne.n	33d2 <_vfiprintf_r+0xcb2>
    33d0:	e0ca      	b.n	3568 <_vfiprintf_r+0xe48>
    33d2:	0026      	movs	r6, r4
    33d4:	464f      	mov	r7, r9
    33d6:	220a      	movs	r2, #10
    33d8:	2300      	movs	r3, #0
    33da:	0030      	movs	r0, r6
    33dc:	0039      	movs	r1, r7
    33de:	f005 ff2f 	bl	9240 <__aeabi_uldivmod>
    33e2:	2301      	movs	r3, #1
    33e4:	469c      	mov	ip, r3
    33e6:	9b04      	ldr	r3, [sp, #16]
    33e8:	3d01      	subs	r5, #1
    33ea:	3230      	adds	r2, #48	; 0x30
    33ec:	0004      	movs	r4, r0
    33ee:	4689      	mov	r9, r1
    33f0:	702a      	strb	r2, [r5, #0]
    33f2:	44e0      	add	r8, ip
    33f4:	2b00      	cmp	r3, #0
    33f6:	d0e9      	beq.n	33cc <_vfiprintf_r+0xcac>
    33f8:	9b10      	ldr	r3, [sp, #64]	; 0x40
    33fa:	781b      	ldrb	r3, [r3, #0]
    33fc:	4543      	cmp	r3, r8
    33fe:	d1e5      	bne.n	33cc <_vfiprintf_r+0xcac>
    3400:	4643      	mov	r3, r8
    3402:	2bff      	cmp	r3, #255	; 0xff
    3404:	d0e2      	beq.n	33cc <_vfiprintf_r+0xcac>
    3406:	2f00      	cmp	r7, #0
    3408:	d10d      	bne.n	3426 <_vfiprintf_r+0xd06>
    340a:	2e09      	cmp	r6, #9
    340c:	d80b      	bhi.n	3426 <_vfiprintf_r+0xd06>
    340e:	9b0b      	ldr	r3, [sp, #44]	; 0x2c
    3410:	9608      	str	r6, [sp, #32]
    3412:	9709      	str	r7, [sp, #36]	; 0x24
    3414:	9e05      	ldr	r6, [sp, #20]
    3416:	4657      	mov	r7, sl
    3418:	469a      	mov	sl, r3
    341a:	ab48      	add	r3, sp, #288	; 0x120
    341c:	1b5b      	subs	r3, r3, r5
    341e:	46b0      	mov	r8, r6
    3420:	9c0c      	ldr	r4, [sp, #48]	; 0x30
    3422:	9305      	str	r3, [sp, #20]
    3424:	e429      	b.n	2c7a <_vfiprintf_r+0x55a>
    3426:	9b13      	ldr	r3, [sp, #76]	; 0x4c
    3428:	9912      	ldr	r1, [sp, #72]	; 0x48
    342a:	1aed      	subs	r5, r5, r3
    342c:	001a      	movs	r2, r3
    342e:	0028      	movs	r0, r5
    3430:	f003 fa76 	bl	6920 <strncpy>
    3434:	9910      	ldr	r1, [sp, #64]	; 0x40
    3436:	784b      	ldrb	r3, [r1, #1]
    3438:	468c      	mov	ip, r1
    343a:	1e5a      	subs	r2, r3, #1
    343c:	4193      	sbcs	r3, r2
    343e:	449c      	add	ip, r3
    3440:	4663      	mov	r3, ip
    3442:	9310      	str	r3, [sp, #64]	; 0x40
    3444:	2300      	movs	r3, #0
    3446:	4698      	mov	r8, r3
    3448:	e7c3      	b.n	33d2 <_vfiprintf_r+0xcb2>
    344a:	4643      	mov	r3, r8
    344c:	06db      	lsls	r3, r3, #27
    344e:	d40e      	bmi.n	346e <_vfiprintf_r+0xd4e>
    3450:	4643      	mov	r3, r8
    3452:	065b      	lsls	r3, r3, #25
    3454:	d507      	bpl.n	3466 <_vfiprintf_r+0xd46>
    3456:	9b0a      	ldr	r3, [sp, #40]	; 0x28
    3458:	cb02      	ldmia	r3!, {r1}
    345a:	b289      	uxth	r1, r1
    345c:	9108      	str	r1, [sp, #32]
    345e:	2100      	movs	r1, #0
    3460:	930a      	str	r3, [sp, #40]	; 0x28
    3462:	9109      	str	r1, [sp, #36]	; 0x24
    3464:	e741      	b.n	32ea <_vfiprintf_r+0xbca>
    3466:	4643      	mov	r3, r8
    3468:	059b      	lsls	r3, r3, #22
    346a:	d500      	bpl.n	346e <_vfiprintf_r+0xd4e>
    346c:	e0a3      	b.n	35b6 <_vfiprintf_r+0xe96>
    346e:	9b0a      	ldr	r3, [sp, #40]	; 0x28
    3470:	cb02      	ldmia	r3!, {r1}
    3472:	9108      	str	r1, [sp, #32]
    3474:	2100      	movs	r1, #0
    3476:	930a      	str	r3, [sp, #40]	; 0x28
    3478:	9109      	str	r1, [sp, #36]	; 0x24
    347a:	e736      	b.n	32ea <_vfiprintf_r+0xbca>
    347c:	4647      	mov	r7, r8
    347e:	f7ff fa4e 	bl	291e <_vfiprintf_r+0x1fe>
    3482:	0038      	movs	r0, r7
    3484:	f002 fe7e 	bl	6184 <__sinit>
    3488:	f7ff f962 	bl	2750 <_vfiprintf_r+0x30>
    348c:	4646      	mov	r6, r8
    348e:	2b01      	cmp	r3, #1
    3490:	d000      	beq.n	3494 <_vfiprintf_r+0xd74>
    3492:	e492      	b.n	2dba <_vfiprintf_r+0x69a>
    3494:	e448      	b.n	2d28 <_vfiprintf_r+0x608>
    3496:	2380      	movs	r3, #128	; 0x80
    3498:	009b      	lsls	r3, r3, #2
    349a:	431d      	orrs	r5, r3
    349c:	9b03      	ldr	r3, [sp, #12]
    349e:	785a      	ldrb	r2, [r3, #1]
    34a0:	3301      	adds	r3, #1
    34a2:	9303      	str	r3, [sp, #12]
    34a4:	f7ff f9b5 	bl	2812 <_vfiprintf_r+0xf2>
    34a8:	2320      	movs	r3, #32
    34aa:	e7f6      	b.n	349a <_vfiprintf_r+0xd7a>
    34ac:	9b0a      	ldr	r3, [sp, #40]	; 0x28
    34ae:	9906      	ldr	r1, [sp, #24]
    34b0:	cb04      	ldmia	r3!, {r2}
    34b2:	6011      	str	r1, [r2, #0]
    34b4:	930a      	str	r3, [sp, #40]	; 0x28
    34b6:	f7ff f981 	bl	27bc <_vfiprintf_r+0x9c>
    34ba:	9605      	str	r6, [sp, #20]
    34bc:	2e06      	cmp	r6, #6
    34be:	d865      	bhi.n	358c <_vfiprintf_r+0xe6c>
    34c0:	9b05      	ldr	r3, [sp, #20]
    34c2:	4d7c      	ldr	r5, [pc, #496]	; (36b4 <_vfiprintf_r+0xf94>)
    34c4:	9304      	str	r3, [sp, #16]
    34c6:	464b      	mov	r3, r9
    34c8:	930a      	str	r3, [sp, #40]	; 0x28
    34ca:	f7ff fa59 	bl	2980 <_vfiprintf_r+0x260>
    34ce:	05b3      	lsls	r3, r6, #22
    34d0:	d400      	bmi.n	34d4 <_vfiprintf_r+0xdb4>
    34d2:	e652      	b.n	317a <_vfiprintf_r+0xa5a>
    34d4:	9b0a      	ldr	r3, [sp, #40]	; 0x28
    34d6:	cb04      	ldmia	r3!, {r2}
    34d8:	b2d2      	uxtb	r2, r2
    34da:	e650      	b.n	317e <_vfiprintf_r+0xa5e>
    34dc:	4643      	mov	r3, r8
    34de:	9a0a      	ldr	r2, [sp, #40]	; 0x28
    34e0:	059b      	lsls	r3, r3, #22
    34e2:	d400      	bmi.n	34e6 <_vfiprintf_r+0xdc6>
    34e4:	e655      	b.n	3192 <_vfiprintf_r+0xa72>
    34e6:	ca08      	ldmia	r2!, {r3}
    34e8:	b25b      	sxtb	r3, r3
    34ea:	9308      	str	r3, [sp, #32]
    34ec:	17db      	asrs	r3, r3, #31
    34ee:	9309      	str	r3, [sp, #36]	; 0x24
    34f0:	920a      	str	r2, [sp, #40]	; 0x28
    34f2:	f7ff fc02 	bl	2cfa <_vfiprintf_r+0x5da>
    34f6:	ab1a      	add	r3, sp, #104	; 0x68
    34f8:	9300      	str	r3, [sp, #0]
    34fa:	2100      	movs	r1, #0
    34fc:	2300      	movs	r3, #0
    34fe:	0038      	movs	r0, r7
    3500:	aa17      	add	r2, sp, #92	; 0x5c
    3502:	f001 fb73 	bl	4bec <_wcsrtombs_r>
    3506:	0003      	movs	r3, r0
    3508:	9005      	str	r0, [sp, #20]
    350a:	3301      	adds	r3, #1
    350c:	d100      	bne.n	3510 <_vfiprintf_r+0xdf0>
    350e:	e094      	b.n	363a <_vfiprintf_r+0xf1a>
    3510:	9517      	str	r5, [sp, #92]	; 0x5c
    3512:	9b05      	ldr	r3, [sp, #20]
    3514:	2b00      	cmp	r3, #0
    3516:	d02b      	beq.n	3570 <_vfiprintf_r+0xe50>
    3518:	2b63      	cmp	r3, #99	; 0x63
    351a:	dd5d      	ble.n	35d8 <_vfiprintf_r+0xeb8>
    351c:	0038      	movs	r0, r7
    351e:	1c59      	adds	r1, r3, #1
    3520:	f000 f934 	bl	378c <_malloc_r>
    3524:	1e05      	subs	r5, r0, #0
    3526:	d100      	bne.n	352a <_vfiprintf_r+0xe0a>
    3528:	e0bb      	b.n	36a2 <_vfiprintf_r+0xf82>
    352a:	900b      	str	r0, [sp, #44]	; 0x2c
    352c:	2208      	movs	r2, #8
    352e:	2100      	movs	r1, #0
    3530:	a81a      	add	r0, sp, #104	; 0x68
    3532:	f000 fbe9 	bl	3d08 <memset>
    3536:	9e05      	ldr	r6, [sp, #20]
    3538:	ab1a      	add	r3, sp, #104	; 0x68
    353a:	9300      	str	r3, [sp, #0]
    353c:	0029      	movs	r1, r5
    353e:	0033      	movs	r3, r6
    3540:	0038      	movs	r0, r7
    3542:	aa17      	add	r2, sp, #92	; 0x5c
    3544:	f001 fb52 	bl	4bec <_wcsrtombs_r>
    3548:	4286      	cmp	r6, r0
    354a:	d000      	beq.n	354e <_vfiprintf_r+0xe2e>
    354c:	e0a1      	b.n	3692 <_vfiprintf_r+0xf72>
    354e:	2300      	movs	r3, #0
    3550:	9a05      	ldr	r2, [sp, #20]
    3552:	54ab      	strb	r3, [r5, r2]
    3554:	43d3      	mvns	r3, r2
    3556:	17db      	asrs	r3, r3, #31
    3558:	401a      	ands	r2, r3
    355a:	464b      	mov	r3, r9
    355c:	930a      	str	r3, [sp, #40]	; 0x28
    355e:	2300      	movs	r3, #0
    3560:	9204      	str	r2, [sp, #16]
    3562:	469a      	mov	sl, r3
    3564:	f7ff fb91 	bl	2c8a <_vfiprintf_r+0x56a>
    3568:	2e09      	cmp	r6, #9
    356a:	d900      	bls.n	356e <_vfiprintf_r+0xe4e>
    356c:	e731      	b.n	33d2 <_vfiprintf_r+0xcb2>
    356e:	e74e      	b.n	340e <_vfiprintf_r+0xcee>
    3570:	2300      	movs	r3, #0
    3572:	9304      	str	r3, [sp, #16]
    3574:	464b      	mov	r3, r9
    3576:	930a      	str	r3, [sp, #40]	; 0x28
    3578:	2300      	movs	r3, #0
    357a:	469a      	mov	sl, r3
    357c:	930b      	str	r3, [sp, #44]	; 0x2c
    357e:	f7ff fb84 	bl	2c8a <_vfiprintf_r+0x56a>
    3582:	2001      	movs	r0, #1
    3584:	2100      	movs	r1, #0
    3586:	ac1f      	add	r4, sp, #124	; 0x7c
    3588:	f7ff fa4c 	bl	2a24 <_vfiprintf_r+0x304>
    358c:	2306      	movs	r3, #6
    358e:	9305      	str	r3, [sp, #20]
    3590:	e796      	b.n	34c0 <_vfiprintf_r+0xda0>
    3592:	aa12      	add	r2, sp, #72	; 0x48
    3594:	230b      	movs	r3, #11
    3596:	4694      	mov	ip, r2
    3598:	4463      	add	r3, ip
    359a:	931f      	str	r3, [sp, #124]	; 0x7c
    359c:	2301      	movs	r3, #1
    359e:	2001      	movs	r0, #1
    35a0:	9320      	str	r3, [sp, #128]	; 0x80
    35a2:	ac1f      	add	r4, sp, #124	; 0x7c
    35a4:	f7ff fa1a 	bl	29dc <_vfiprintf_r+0x2bc>
    35a8:	9b0a      	ldr	r3, [sp, #40]	; 0x28
    35aa:	9906      	ldr	r1, [sp, #24]
    35ac:	cb04      	ldmia	r3!, {r2}
    35ae:	8011      	strh	r1, [r2, #0]
    35b0:	930a      	str	r3, [sp, #40]	; 0x28
    35b2:	f7ff f903 	bl	27bc <_vfiprintf_r+0x9c>
    35b6:	9b0a      	ldr	r3, [sp, #40]	; 0x28
    35b8:	cb02      	ldmia	r3!, {r1}
    35ba:	b2c9      	uxtb	r1, r1
    35bc:	9108      	str	r1, [sp, #32]
    35be:	2100      	movs	r1, #0
    35c0:	930a      	str	r3, [sp, #40]	; 0x28
    35c2:	9109      	str	r1, [sp, #36]	; 0x24
    35c4:	e691      	b.n	32ea <_vfiprintf_r+0xbca>
    35c6:	9b0a      	ldr	r3, [sp, #40]	; 0x28
    35c8:	cb04      	ldmia	r3!, {r2}
    35ca:	b2d2      	uxtb	r2, r2
    35cc:	9208      	str	r2, [sp, #32]
    35ce:	2200      	movs	r2, #0
    35d0:	930a      	str	r3, [sp, #40]	; 0x28
    35d2:	9209      	str	r2, [sp, #36]	; 0x24
    35d4:	f7ff fb75 	bl	2cc2 <_vfiprintf_r+0x5a2>
    35d8:	2300      	movs	r3, #0
    35da:	ad2f      	add	r5, sp, #188	; 0xbc
    35dc:	930b      	str	r3, [sp, #44]	; 0x2c
    35de:	e7a5      	b.n	352c <_vfiprintf_r+0xe0c>
    35e0:	465b      	mov	r3, fp
    35e2:	6d98      	ldr	r0, [r3, #88]	; 0x58
    35e4:	f000 fc4a 	bl	3e7c <__retarget_lock_release_recursive>
    35e8:	f7ff f93a 	bl	2860 <_vfiprintf_r+0x140>
    35ec:	464a      	mov	r2, r9
    35ee:	2300      	movs	r3, #0
    35f0:	9604      	str	r6, [sp, #16]
    35f2:	469a      	mov	sl, r3
    35f4:	920a      	str	r2, [sp, #40]	; 0x28
    35f6:	9605      	str	r6, [sp, #20]
    35f8:	f7ff fb47 	bl	2c8a <_vfiprintf_r+0x56a>
    35fc:	991d      	ldr	r1, [sp, #116]	; 0x74
    35fe:	4a2e      	ldr	r2, [pc, #184]	; (36b8 <_vfiprintf_r+0xf98>)
    3600:	3101      	adds	r1, #1
    3602:	4691      	mov	r9, r2
    3604:	e52f      	b.n	3066 <_vfiprintf_r+0x946>
    3606:	0028      	movs	r0, r5
    3608:	f002 fe94 	bl	6334 <strlen>
    360c:	0002      	movs	r2, r0
    360e:	f7ff fa8f 	bl	2b30 <_vfiprintf_r+0x410>
    3612:	4659      	mov	r1, fp
    3614:	0038      	movs	r0, r7
    3616:	aa1c      	add	r2, sp, #112	; 0x70
    3618:	f7ff f834 	bl	2684 <__sprint_r.part.0>
    361c:	2800      	cmp	r0, #0
    361e:	d101      	bne.n	3624 <_vfiprintf_r+0xf04>
    3620:	f7ff f974 	bl	290c <_vfiprintf_r+0x1ec>
    3624:	f7ff f982 	bl	292c <_vfiprintf_r+0x20c>
    3628:	981d      	ldr	r0, [sp, #116]	; 0x74
    362a:	4a23      	ldr	r2, [pc, #140]	; (36b8 <_vfiprintf_r+0xf98>)
    362c:	3001      	adds	r0, #1
    362e:	4691      	mov	r9, r2
    3630:	e55e      	b.n	30f0 <_vfiprintf_r+0x9d0>
    3632:	4a22      	ldr	r2, [pc, #136]	; (36bc <_vfiprintf_r+0xf9c>)
    3634:	4684      	mov	ip, r0
    3636:	4691      	mov	r9, r2
    3638:	e430      	b.n	2e9c <_vfiprintf_r+0x77c>
    363a:	465b      	mov	r3, fp
    363c:	2240      	movs	r2, #64	; 0x40
    363e:	899b      	ldrh	r3, [r3, #12]
    3640:	4313      	orrs	r3, r2
    3642:	465a      	mov	r2, fp
    3644:	b21b      	sxth	r3, r3
    3646:	8193      	strh	r3, [r2, #12]
    3648:	f7ff f973 	bl	2932 <_vfiprintf_r+0x212>
    364c:	6e5b      	ldr	r3, [r3, #100]	; 0x64
    364e:	07db      	lsls	r3, r3, #31
    3650:	d407      	bmi.n	3662 <_vfiprintf_r+0xf42>
    3652:	465b      	mov	r3, fp
    3654:	899b      	ldrh	r3, [r3, #12]
    3656:	059b      	lsls	r3, r3, #22
    3658:	d403      	bmi.n	3662 <_vfiprintf_r+0xf42>
    365a:	465b      	mov	r3, fp
    365c:	6d98      	ldr	r0, [r3, #88]	; 0x58
    365e:	f000 fc0d 	bl	3e7c <__retarget_lock_release_recursive>
    3662:	2301      	movs	r3, #1
    3664:	425b      	negs	r3, r3
    3666:	9306      	str	r3, [sp, #24]
    3668:	f7ff f96d 	bl	2946 <_vfiprintf_r+0x226>
    366c:	4653      	mov	r3, sl
    366e:	46a2      	mov	sl, r4
    3670:	001c      	movs	r4, r3
    3672:	4653      	mov	r3, sl
    3674:	9d04      	ldr	r5, [sp, #16]
    3676:	9305      	str	r3, [sp, #20]
    3678:	e74b      	b.n	3512 <_vfiprintf_r+0xdf2>
    367a:	990a      	ldr	r1, [sp, #40]	; 0x28
    367c:	c940      	ldmia	r1!, {r6}
    367e:	2e00      	cmp	r6, #0
    3680:	da01      	bge.n	3686 <_vfiprintf_r+0xf66>
    3682:	2601      	movs	r6, #1
    3684:	4276      	negs	r6, r6
    3686:	9a03      	ldr	r2, [sp, #12]
    3688:	910a      	str	r1, [sp, #40]	; 0x28
    368a:	7852      	ldrb	r2, [r2, #1]
    368c:	9303      	str	r3, [sp, #12]
    368e:	f7ff f8c0 	bl	2812 <_vfiprintf_r+0xf2>
    3692:	465b      	mov	r3, fp
    3694:	2240      	movs	r2, #64	; 0x40
    3696:	899b      	ldrh	r3, [r3, #12]
    3698:	4313      	orrs	r3, r2
    369a:	465a      	mov	r2, fp
    369c:	8193      	strh	r3, [r2, #12]
    369e:	f7ff f93e 	bl	291e <_vfiprintf_r+0x1fe>
    36a2:	465b      	mov	r3, fp
    36a4:	899a      	ldrh	r2, [r3, #12]
    36a6:	2340      	movs	r3, #64	; 0x40
    36a8:	4313      	orrs	r3, r2
    36aa:	465a      	mov	r2, fp
    36ac:	b21b      	sxth	r3, r3
    36ae:	8193      	strh	r3, [r2, #12]
    36b0:	f7ff f93f 	bl	2932 <_vfiprintf_r+0x212>
    36b4:	0000c04c 	.word	0x0000c04c
    36b8:	0000bff4 	.word	0x0000bff4
    36bc:	0000c014 	.word	0x0000c014

000036c0 <vfiprintf>:
    36c0:	b510      	push	{r4, lr}
    36c2:	0004      	movs	r4, r0
    36c4:	0013      	movs	r3, r2
    36c6:	4a03      	ldr	r2, [pc, #12]	; (36d4 <vfiprintf+0x14>)
    36c8:	6810      	ldr	r0, [r2, #0]
    36ca:	000a      	movs	r2, r1
    36cc:	0021      	movs	r1, r4
    36ce:	f7ff f827 	bl	2720 <_vfiprintf_r>
    36d2:	bd10      	pop	{r4, pc}
    36d4:	0020d0e0 	.word	0x0020d0e0

000036d8 <__sbprintf>:
    36d8:	b5f0      	push	{r4, r5, r6, r7, lr}
    36da:	001f      	movs	r7, r3
    36dc:	2302      	movs	r3, #2
    36de:	4c1f      	ldr	r4, [pc, #124]	; (375c <__sbprintf+0x84>)
    36e0:	0015      	movs	r5, r2
    36e2:	44a5      	add	sp, r4
    36e4:	000c      	movs	r4, r1
    36e6:	8989      	ldrh	r1, [r1, #12]
    36e8:	466a      	mov	r2, sp
    36ea:	4399      	bics	r1, r3
    36ec:	466b      	mov	r3, sp
    36ee:	8199      	strh	r1, [r3, #12]
    36f0:	6e63      	ldr	r3, [r4, #100]	; 0x64
    36f2:	2180      	movs	r1, #128	; 0x80
    36f4:	9319      	str	r3, [sp, #100]	; 0x64
    36f6:	89e3      	ldrh	r3, [r4, #14]
    36f8:	0006      	movs	r6, r0
    36fa:	81d3      	strh	r3, [r2, #14]
    36fc:	69e3      	ldr	r3, [r4, #28]
    36fe:	00c9      	lsls	r1, r1, #3
    3700:	9307      	str	r3, [sp, #28]
    3702:	6a63      	ldr	r3, [r4, #36]	; 0x24
    3704:	a816      	add	r0, sp, #88	; 0x58
    3706:	9309      	str	r3, [sp, #36]	; 0x24
    3708:	ab1a      	add	r3, sp, #104	; 0x68
    370a:	9300      	str	r3, [sp, #0]
    370c:	9304      	str	r3, [sp, #16]
    370e:	2300      	movs	r3, #0
    3710:	9102      	str	r1, [sp, #8]
    3712:	9105      	str	r1, [sp, #20]
    3714:	9306      	str	r3, [sp, #24]
    3716:	f000 fba1 	bl	3e5c <__retarget_lock_init_recursive>
    371a:	002a      	movs	r2, r5
    371c:	003b      	movs	r3, r7
    371e:	4669      	mov	r1, sp
    3720:	0030      	movs	r0, r6
    3722:	f7fe fffd 	bl	2720 <_vfiprintf_r>
    3726:	1e05      	subs	r5, r0, #0
    3728:	da0e      	bge.n	3748 <__sbprintf+0x70>
    372a:	466b      	mov	r3, sp
    372c:	899b      	ldrh	r3, [r3, #12]
    372e:	065b      	lsls	r3, r3, #25
    3730:	d503      	bpl.n	373a <__sbprintf+0x62>
    3732:	2240      	movs	r2, #64	; 0x40
    3734:	89a3      	ldrh	r3, [r4, #12]
    3736:	4313      	orrs	r3, r2
    3738:	81a3      	strh	r3, [r4, #12]
    373a:	9816      	ldr	r0, [sp, #88]	; 0x58
    373c:	f000 fb92 	bl	3e64 <__retarget_lock_close_recursive>
    3740:	0028      	movs	r0, r5
    3742:	4b07      	ldr	r3, [pc, #28]	; (3760 <__sbprintf+0x88>)
    3744:	449d      	add	sp, r3
    3746:	bdf0      	pop	{r4, r5, r6, r7, pc}
    3748:	4669      	mov	r1, sp
    374a:	0030      	movs	r0, r6
    374c:	f002 fb7a 	bl	5e44 <_fflush_r>
    3750:	2800      	cmp	r0, #0
    3752:	d0ea      	beq.n	372a <__sbprintf+0x52>
    3754:	2501      	movs	r5, #1
    3756:	426d      	negs	r5, r5
    3758:	e7e7      	b.n	372a <__sbprintf+0x52>
    375a:	46c0      	nop			; (mov r8, r8)
    375c:	fffffb94 	.word	0xfffffb94
    3760:	0000046c 	.word	0x0000046c

00003764 <malloc>:
    3764:	b510      	push	{r4, lr}
    3766:	4b03      	ldr	r3, [pc, #12]	; (3774 <malloc+0x10>)
    3768:	0001      	movs	r1, r0
    376a:	6818      	ldr	r0, [r3, #0]
    376c:	f000 f80e 	bl	378c <_malloc_r>
    3770:	bd10      	pop	{r4, pc}
    3772:	46c0      	nop			; (mov r8, r8)
    3774:	0020d0e0 	.word	0x0020d0e0

00003778 <free>:
    3778:	b510      	push	{r4, lr}
    377a:	4b03      	ldr	r3, [pc, #12]	; (3788 <free+0x10>)
    377c:	0001      	movs	r1, r0
    377e:	6818      	ldr	r0, [r3, #0]
    3780:	f002 fea6 	bl	64d0 <_free_r>
    3784:	bd10      	pop	{r4, pc}
    3786:	46c0      	nop			; (mov r8, r8)
    3788:	0020d0e0 	.word	0x0020d0e0

0000378c <_malloc_r>:
    378c:	b5f0      	push	{r4, r5, r6, r7, lr}
    378e:	464e      	mov	r6, r9
    3790:	4645      	mov	r5, r8
    3792:	46de      	mov	lr, fp
    3794:	4657      	mov	r7, sl
    3796:	b5e0      	push	{r5, r6, r7, lr}
    3798:	000d      	movs	r5, r1
    379a:	350b      	adds	r5, #11
    379c:	0006      	movs	r6, r0
    379e:	b083      	sub	sp, #12
    37a0:	2d16      	cmp	r5, #22
    37a2:	d821      	bhi.n	37e8 <_malloc_r+0x5c>
    37a4:	2910      	cmp	r1, #16
    37a6:	d900      	bls.n	37aa <_malloc_r+0x1e>
    37a8:	e0b0      	b.n	390c <_malloc_r+0x180>
    37aa:	f001 f955 	bl	4a58 <__malloc_lock>
    37ae:	2510      	movs	r5, #16
    37b0:	2318      	movs	r3, #24
    37b2:	2002      	movs	r0, #2
    37b4:	4fd0      	ldr	r7, [pc, #832]	; (3af8 <_malloc_r+0x36c>)
    37b6:	18fb      	adds	r3, r7, r3
    37b8:	001a      	movs	r2, r3
    37ba:	685c      	ldr	r4, [r3, #4]
    37bc:	3a08      	subs	r2, #8
    37be:	4294      	cmp	r4, r2
    37c0:	d100      	bne.n	37c4 <_malloc_r+0x38>
    37c2:	e0b3      	b.n	392c <_malloc_r+0x1a0>
    37c4:	2203      	movs	r2, #3
    37c6:	6863      	ldr	r3, [r4, #4]
    37c8:	4393      	bics	r3, r2
    37ca:	68e2      	ldr	r2, [r4, #12]
    37cc:	68a1      	ldr	r1, [r4, #8]
    37ce:	60ca      	str	r2, [r1, #12]
    37d0:	6091      	str	r1, [r2, #8]
    37d2:	2101      	movs	r1, #1
    37d4:	18e3      	adds	r3, r4, r3
    37d6:	685a      	ldr	r2, [r3, #4]
    37d8:	0030      	movs	r0, r6
    37da:	430a      	orrs	r2, r1
    37dc:	605a      	str	r2, [r3, #4]
    37de:	f001 f943 	bl	4a68 <__malloc_unlock>
    37e2:	0020      	movs	r0, r4
    37e4:	3008      	adds	r0, #8
    37e6:	e094      	b.n	3912 <_malloc_r+0x186>
    37e8:	2307      	movs	r3, #7
    37ea:	439d      	bics	r5, r3
    37ec:	d500      	bpl.n	37f0 <_malloc_r+0x64>
    37ee:	e08d      	b.n	390c <_malloc_r+0x180>
    37f0:	42a9      	cmp	r1, r5
    37f2:	d900      	bls.n	37f6 <_malloc_r+0x6a>
    37f4:	e08a      	b.n	390c <_malloc_r+0x180>
    37f6:	f001 f92f 	bl	4a58 <__malloc_lock>
    37fa:	23fc      	movs	r3, #252	; 0xfc
    37fc:	005b      	lsls	r3, r3, #1
    37fe:	429d      	cmp	r5, r3
    3800:	d200      	bcs.n	3804 <_malloc_r+0x78>
    3802:	e1a4      	b.n	3b4e <_malloc_r+0x3c2>
    3804:	0a68      	lsrs	r0, r5, #9
    3806:	d100      	bne.n	380a <_malloc_r+0x7e>
    3808:	e08a      	b.n	3920 <_malloc_r+0x194>
    380a:	2804      	cmp	r0, #4
    380c:	d900      	bls.n	3810 <_malloc_r+0x84>
    380e:	e166      	b.n	3ade <_malloc_r+0x352>
    3810:	2338      	movs	r3, #56	; 0x38
    3812:	4698      	mov	r8, r3
    3814:	09a8      	lsrs	r0, r5, #6
    3816:	4480      	add	r8, r0
    3818:	3039      	adds	r0, #57	; 0x39
    381a:	00c1      	lsls	r1, r0, #3
    381c:	4fb6      	ldr	r7, [pc, #728]	; (3af8 <_malloc_r+0x36c>)
    381e:	1879      	adds	r1, r7, r1
    3820:	684c      	ldr	r4, [r1, #4]
    3822:	3908      	subs	r1, #8
    3824:	42a1      	cmp	r1, r4
    3826:	d00e      	beq.n	3846 <_malloc_r+0xba>
    3828:	2303      	movs	r3, #3
    382a:	469c      	mov	ip, r3
    382c:	e004      	b.n	3838 <_malloc_r+0xac>
    382e:	2a00      	cmp	r2, #0
    3830:	dacb      	bge.n	37ca <_malloc_r+0x3e>
    3832:	68e4      	ldr	r4, [r4, #12]
    3834:	42a1      	cmp	r1, r4
    3836:	d006      	beq.n	3846 <_malloc_r+0xba>
    3838:	4662      	mov	r2, ip
    383a:	6863      	ldr	r3, [r4, #4]
    383c:	4393      	bics	r3, r2
    383e:	1b5a      	subs	r2, r3, r5
    3840:	2a0f      	cmp	r2, #15
    3842:	ddf4      	ble.n	382e <_malloc_r+0xa2>
    3844:	4640      	mov	r0, r8
    3846:	003a      	movs	r2, r7
    3848:	693c      	ldr	r4, [r7, #16]
    384a:	3208      	adds	r2, #8
    384c:	4294      	cmp	r4, r2
    384e:	d100      	bne.n	3852 <_malloc_r+0xc6>
    3850:	e077      	b.n	3942 <_malloc_r+0x1b6>
    3852:	2103      	movs	r1, #3
    3854:	6863      	ldr	r3, [r4, #4]
    3856:	438b      	bics	r3, r1
    3858:	4699      	mov	r9, r3
    385a:	1b59      	subs	r1, r3, r5
    385c:	290f      	cmp	r1, #15
    385e:	dd00      	ble.n	3862 <_malloc_r+0xd6>
    3860:	e179      	b.n	3b56 <_malloc_r+0x3ca>
    3862:	617a      	str	r2, [r7, #20]
    3864:	613a      	str	r2, [r7, #16]
    3866:	2900      	cmp	r1, #0
    3868:	dab3      	bge.n	37d2 <_malloc_r+0x46>
    386a:	2280      	movs	r2, #128	; 0x80
    386c:	0092      	lsls	r2, r2, #2
    386e:	4293      	cmp	r3, r2
    3870:	d300      	bcc.n	3874 <_malloc_r+0xe8>
    3872:	e10d      	b.n	3a90 <_malloc_r+0x304>
    3874:	0959      	lsrs	r1, r3, #5
    3876:	08da      	lsrs	r2, r3, #3
    3878:	2301      	movs	r3, #1
    387a:	408b      	lsls	r3, r1
    387c:	00d2      	lsls	r2, r2, #3
    387e:	6879      	ldr	r1, [r7, #4]
    3880:	19d2      	adds	r2, r2, r7
    3882:	430b      	orrs	r3, r1
    3884:	6891      	ldr	r1, [r2, #8]
    3886:	607b      	str	r3, [r7, #4]
    3888:	60e2      	str	r2, [r4, #12]
    388a:	60a1      	str	r1, [r4, #8]
    388c:	6094      	str	r4, [r2, #8]
    388e:	60cc      	str	r4, [r1, #12]
    3890:	2101      	movs	r1, #1
    3892:	1082      	asrs	r2, r0, #2
    3894:	4091      	lsls	r1, r2
    3896:	4299      	cmp	r1, r3
    3898:	d859      	bhi.n	394e <_malloc_r+0x1c2>
    389a:	420b      	tst	r3, r1
    389c:	d105      	bne.n	38aa <_malloc_r+0x11e>
    389e:	2203      	movs	r2, #3
    38a0:	4390      	bics	r0, r2
    38a2:	0049      	lsls	r1, r1, #1
    38a4:	3004      	adds	r0, #4
    38a6:	420b      	tst	r3, r1
    38a8:	d0fb      	beq.n	38a2 <_malloc_r+0x116>
    38aa:	2303      	movs	r3, #3
    38ac:	4698      	mov	r8, r3
    38ae:	00c3      	lsls	r3, r0, #3
    38b0:	4699      	mov	r9, r3
    38b2:	44b9      	add	r9, r7
    38b4:	46cc      	mov	ip, r9
    38b6:	4682      	mov	sl, r0
    38b8:	4663      	mov	r3, ip
    38ba:	68dc      	ldr	r4, [r3, #12]
    38bc:	45a4      	cmp	ip, r4
    38be:	d107      	bne.n	38d0 <_malloc_r+0x144>
    38c0:	e12a      	b.n	3b18 <_malloc_r+0x38c>
    38c2:	2a00      	cmp	r2, #0
    38c4:	db00      	blt.n	38c8 <_malloc_r+0x13c>
    38c6:	e133      	b.n	3b30 <_malloc_r+0x3a4>
    38c8:	68e4      	ldr	r4, [r4, #12]
    38ca:	45a4      	cmp	ip, r4
    38cc:	d100      	bne.n	38d0 <_malloc_r+0x144>
    38ce:	e123      	b.n	3b18 <_malloc_r+0x38c>
    38d0:	4642      	mov	r2, r8
    38d2:	6863      	ldr	r3, [r4, #4]
    38d4:	4393      	bics	r3, r2
    38d6:	1b5a      	subs	r2, r3, r5
    38d8:	2a0f      	cmp	r2, #15
    38da:	ddf2      	ble.n	38c2 <_malloc_r+0x136>
    38dc:	2001      	movs	r0, #1
    38de:	4680      	mov	r8, r0
    38e0:	1961      	adds	r1, r4, r5
    38e2:	4305      	orrs	r5, r0
    38e4:	6065      	str	r5, [r4, #4]
    38e6:	68a0      	ldr	r0, [r4, #8]
    38e8:	68e5      	ldr	r5, [r4, #12]
    38ea:	3708      	adds	r7, #8
    38ec:	60c5      	str	r5, [r0, #12]
    38ee:	60a8      	str	r0, [r5, #8]
    38f0:	4640      	mov	r0, r8
    38f2:	4310      	orrs	r0, r2
    38f4:	60f9      	str	r1, [r7, #12]
    38f6:	60b9      	str	r1, [r7, #8]
    38f8:	6048      	str	r0, [r1, #4]
    38fa:	60cf      	str	r7, [r1, #12]
    38fc:	0030      	movs	r0, r6
    38fe:	608f      	str	r7, [r1, #8]
    3900:	50e2      	str	r2, [r4, r3]
    3902:	f001 f8b1 	bl	4a68 <__malloc_unlock>
    3906:	0020      	movs	r0, r4
    3908:	3008      	adds	r0, #8
    390a:	e002      	b.n	3912 <_malloc_r+0x186>
    390c:	230c      	movs	r3, #12
    390e:	2000      	movs	r0, #0
    3910:	6033      	str	r3, [r6, #0]
    3912:	b003      	add	sp, #12
    3914:	bcf0      	pop	{r4, r5, r6, r7}
    3916:	46bb      	mov	fp, r7
    3918:	46b2      	mov	sl, r6
    391a:	46a9      	mov	r9, r5
    391c:	46a0      	mov	r8, r4
    391e:	bdf0      	pop	{r4, r5, r6, r7, pc}
    3920:	2180      	movs	r1, #128	; 0x80
    3922:	233f      	movs	r3, #63	; 0x3f
    3924:	2040      	movs	r0, #64	; 0x40
    3926:	4698      	mov	r8, r3
    3928:	0089      	lsls	r1, r1, #2
    392a:	e777      	b.n	381c <_malloc_r+0x90>
    392c:	68dc      	ldr	r4, [r3, #12]
    392e:	3002      	adds	r0, #2
    3930:	42a3      	cmp	r3, r4
    3932:	d000      	beq.n	3936 <_malloc_r+0x1aa>
    3934:	e746      	b.n	37c4 <_malloc_r+0x38>
    3936:	003a      	movs	r2, r7
    3938:	693c      	ldr	r4, [r7, #16]
    393a:	3208      	adds	r2, #8
    393c:	4294      	cmp	r4, r2
    393e:	d000      	beq.n	3942 <_malloc_r+0x1b6>
    3940:	e787      	b.n	3852 <_malloc_r+0xc6>
    3942:	2101      	movs	r1, #1
    3944:	687b      	ldr	r3, [r7, #4]
    3946:	1082      	asrs	r2, r0, #2
    3948:	4091      	lsls	r1, r2
    394a:	4299      	cmp	r1, r3
    394c:	d9a5      	bls.n	389a <_malloc_r+0x10e>
    394e:	2203      	movs	r2, #3
    3950:	68bc      	ldr	r4, [r7, #8]
    3952:	6863      	ldr	r3, [r4, #4]
    3954:	4393      	bics	r3, r2
    3956:	469a      	mov	sl, r3
    3958:	429d      	cmp	r5, r3
    395a:	d803      	bhi.n	3964 <_malloc_r+0x1d8>
    395c:	1b5b      	subs	r3, r3, r5
    395e:	2b0f      	cmp	r3, #15
    3960:	dd00      	ble.n	3964 <_malloc_r+0x1d8>
    3962:	e087      	b.n	3a74 <_malloc_r+0x2e8>
    3964:	0023      	movs	r3, r4
    3966:	4453      	add	r3, sl
    3968:	4a64      	ldr	r2, [pc, #400]	; (3afc <_malloc_r+0x370>)
    396a:	9301      	str	r3, [sp, #4]
    396c:	4b64      	ldr	r3, [pc, #400]	; (3b00 <_malloc_r+0x374>)
    396e:	4690      	mov	r8, r2
    3970:	681b      	ldr	r3, [r3, #0]
    3972:	6812      	ldr	r2, [r2, #0]
    3974:	18eb      	adds	r3, r5, r3
    3976:	3201      	adds	r2, #1
    3978:	d100      	bne.n	397c <_malloc_r+0x1f0>
    397a:	e13b      	b.n	3bf4 <_malloc_r+0x468>
    397c:	4a61      	ldr	r2, [pc, #388]	; (3b04 <_malloc_r+0x378>)
    397e:	4694      	mov	ip, r2
    3980:	4463      	add	r3, ip
    3982:	0b1b      	lsrs	r3, r3, #12
    3984:	031b      	lsls	r3, r3, #12
    3986:	9300      	str	r3, [sp, #0]
    3988:	0030      	movs	r0, r6
    398a:	9900      	ldr	r1, [sp, #0]
    398c:	f003 fa30 	bl	6df0 <_sbrk_r>
    3990:	0003      	movs	r3, r0
    3992:	4681      	mov	r9, r0
    3994:	3301      	adds	r3, #1
    3996:	d100      	bne.n	399a <_malloc_r+0x20e>
    3998:	e0f8      	b.n	3b8c <_malloc_r+0x400>
    399a:	9b01      	ldr	r3, [sp, #4]
    399c:	4283      	cmp	r3, r0
    399e:	d900      	bls.n	39a2 <_malloc_r+0x216>
    39a0:	e0f2      	b.n	3b88 <_malloc_r+0x3fc>
    39a2:	4b59      	ldr	r3, [pc, #356]	; (3b08 <_malloc_r+0x37c>)
    39a4:	9800      	ldr	r0, [sp, #0]
    39a6:	469b      	mov	fp, r3
    39a8:	4684      	mov	ip, r0
    39aa:	4659      	mov	r1, fp
    39ac:	681b      	ldr	r3, [r3, #0]
    39ae:	4463      	add	r3, ip
    39b0:	600b      	str	r3, [r1, #0]
    39b2:	9901      	ldr	r1, [sp, #4]
    39b4:	001a      	movs	r2, r3
    39b6:	4549      	cmp	r1, r9
    39b8:	d100      	bne.n	39bc <_malloc_r+0x230>
    39ba:	e151      	b.n	3c60 <_malloc_r+0x4d4>
    39bc:	4643      	mov	r3, r8
    39be:	681b      	ldr	r3, [r3, #0]
    39c0:	3301      	adds	r3, #1
    39c2:	d100      	bne.n	39c6 <_malloc_r+0x23a>
    39c4:	e156      	b.n	3c74 <_malloc_r+0x4e8>
    39c6:	464b      	mov	r3, r9
    39c8:	9901      	ldr	r1, [sp, #4]
    39ca:	1a5b      	subs	r3, r3, r1
    39cc:	189b      	adds	r3, r3, r2
    39ce:	465a      	mov	r2, fp
    39d0:	6013      	str	r3, [r2, #0]
    39d2:	2307      	movs	r3, #7
    39d4:	464a      	mov	r2, r9
    39d6:	4649      	mov	r1, r9
    39d8:	401a      	ands	r2, r3
    39da:	9201      	str	r2, [sp, #4]
    39dc:	4219      	tst	r1, r3
    39de:	d100      	bne.n	39e2 <_malloc_r+0x256>
    39e0:	e112      	b.n	3c08 <_malloc_r+0x47c>
    39e2:	1a8b      	subs	r3, r1, r2
    39e4:	2108      	movs	r1, #8
    39e6:	4689      	mov	r9, r1
    39e8:	9900      	ldr	r1, [sp, #0]
    39ea:	4499      	add	r9, r3
    39ec:	4b47      	ldr	r3, [pc, #284]	; (3b0c <_malloc_r+0x380>)
    39ee:	4449      	add	r1, r9
    39f0:	1a9b      	subs	r3, r3, r2
    39f2:	1a5b      	subs	r3, r3, r1
    39f4:	051b      	lsls	r3, r3, #20
    39f6:	0d1b      	lsrs	r3, r3, #20
    39f8:	9100      	str	r1, [sp, #0]
    39fa:	0030      	movs	r0, r6
    39fc:	0019      	movs	r1, r3
    39fe:	4698      	mov	r8, r3
    3a00:	f003 f9f6 	bl	6df0 <_sbrk_r>
    3a04:	1c43      	adds	r3, r0, #1
    3a06:	d100      	bne.n	3a0a <_malloc_r+0x27e>
    3a08:	e150      	b.n	3cac <_malloc_r+0x520>
    3a0a:	464b      	mov	r3, r9
    3a0c:	1ac0      	subs	r0, r0, r3
    3a0e:	0003      	movs	r3, r0
    3a10:	4443      	add	r3, r8
    3a12:	9300      	str	r3, [sp, #0]
    3a14:	465b      	mov	r3, fp
    3a16:	465a      	mov	r2, fp
    3a18:	681b      	ldr	r3, [r3, #0]
    3a1a:	2001      	movs	r0, #1
    3a1c:	4443      	add	r3, r8
    3a1e:	6013      	str	r3, [r2, #0]
    3a20:	464a      	mov	r2, r9
    3a22:	4649      	mov	r1, r9
    3a24:	60ba      	str	r2, [r7, #8]
    3a26:	9a00      	ldr	r2, [sp, #0]
    3a28:	4302      	orrs	r2, r0
    3a2a:	604a      	str	r2, [r1, #4]
    3a2c:	42bc      	cmp	r4, r7
    3a2e:	d100      	bne.n	3a32 <_malloc_r+0x2a6>
    3a30:	e124      	b.n	3c7c <_malloc_r+0x4f0>
    3a32:	4652      	mov	r2, sl
    3a34:	2a0f      	cmp	r2, #15
    3a36:	d800      	bhi.n	3a3a <_malloc_r+0x2ae>
    3a38:	e122      	b.n	3c80 <_malloc_r+0x4f4>
    3a3a:	2107      	movs	r1, #7
    3a3c:	3a0c      	subs	r2, #12
    3a3e:	438a      	bics	r2, r1
    3a40:	6861      	ldr	r1, [r4, #4]
    3a42:	4001      	ands	r1, r0
    3a44:	2005      	movs	r0, #5
    3a46:	4311      	orrs	r1, r2
    3a48:	6061      	str	r1, [r4, #4]
    3a4a:	18a1      	adds	r1, r4, r2
    3a4c:	6048      	str	r0, [r1, #4]
    3a4e:	6088      	str	r0, [r1, #8]
    3a50:	2a0f      	cmp	r2, #15
    3a52:	d900      	bls.n	3a56 <_malloc_r+0x2ca>
    3a54:	e135      	b.n	3cc2 <_malloc_r+0x536>
    3a56:	464a      	mov	r2, r9
    3a58:	464c      	mov	r4, r9
    3a5a:	6852      	ldr	r2, [r2, #4]
    3a5c:	492c      	ldr	r1, [pc, #176]	; (3b10 <_malloc_r+0x384>)
    3a5e:	6808      	ldr	r0, [r1, #0]
    3a60:	4298      	cmp	r0, r3
    3a62:	d200      	bcs.n	3a66 <_malloc_r+0x2da>
    3a64:	600b      	str	r3, [r1, #0]
    3a66:	492b      	ldr	r1, [pc, #172]	; (3b14 <_malloc_r+0x388>)
    3a68:	6808      	ldr	r0, [r1, #0]
    3a6a:	4298      	cmp	r0, r3
    3a6c:	d300      	bcc.n	3a70 <_malloc_r+0x2e4>
    3a6e:	e08f      	b.n	3b90 <_malloc_r+0x404>
    3a70:	600b      	str	r3, [r1, #0]
    3a72:	e08d      	b.n	3b90 <_malloc_r+0x404>
    3a74:	2201      	movs	r2, #1
    3a76:	0029      	movs	r1, r5
    3a78:	4313      	orrs	r3, r2
    3a7a:	4311      	orrs	r1, r2
    3a7c:	1965      	adds	r5, r4, r5
    3a7e:	6061      	str	r1, [r4, #4]
    3a80:	0030      	movs	r0, r6
    3a82:	60bd      	str	r5, [r7, #8]
    3a84:	606b      	str	r3, [r5, #4]
    3a86:	f000 ffef 	bl	4a68 <__malloc_unlock>
    3a8a:	0020      	movs	r0, r4
    3a8c:	3008      	adds	r0, #8
    3a8e:	e740      	b.n	3912 <_malloc_r+0x186>
    3a90:	0a5a      	lsrs	r2, r3, #9
    3a92:	2a04      	cmp	r2, #4
    3a94:	d972      	bls.n	3b7c <_malloc_r+0x3f0>
    3a96:	2a14      	cmp	r2, #20
    3a98:	d900      	bls.n	3a9c <_malloc_r+0x310>
    3a9a:	e0c5      	b.n	3c28 <_malloc_r+0x49c>
    3a9c:	0011      	movs	r1, r2
    3a9e:	325c      	adds	r2, #92	; 0x5c
    3aa0:	315b      	adds	r1, #91	; 0x5b
    3aa2:	00d2      	lsls	r2, r2, #3
    3aa4:	2308      	movs	r3, #8
    3aa6:	425b      	negs	r3, r3
    3aa8:	469c      	mov	ip, r3
    3aaa:	18ba      	adds	r2, r7, r2
    3aac:	4494      	add	ip, r2
    3aae:	4663      	mov	r3, ip
    3ab0:	689a      	ldr	r2, [r3, #8]
    3ab2:	2303      	movs	r3, #3
    3ab4:	4698      	mov	r8, r3
    3ab6:	4594      	cmp	ip, r2
    3ab8:	d100      	bne.n	3abc <_malloc_r+0x330>
    3aba:	e09e      	b.n	3bfa <_malloc_r+0x46e>
    3abc:	4643      	mov	r3, r8
    3abe:	6851      	ldr	r1, [r2, #4]
    3ac0:	4399      	bics	r1, r3
    3ac2:	4549      	cmp	r1, r9
    3ac4:	d902      	bls.n	3acc <_malloc_r+0x340>
    3ac6:	6892      	ldr	r2, [r2, #8]
    3ac8:	4594      	cmp	ip, r2
    3aca:	d1f7      	bne.n	3abc <_malloc_r+0x330>
    3acc:	68d3      	ldr	r3, [r2, #12]
    3ace:	469c      	mov	ip, r3
    3ad0:	687b      	ldr	r3, [r7, #4]
    3ad2:	4661      	mov	r1, ip
    3ad4:	60a2      	str	r2, [r4, #8]
    3ad6:	60e1      	str	r1, [r4, #12]
    3ad8:	608c      	str	r4, [r1, #8]
    3ada:	60d4      	str	r4, [r2, #12]
    3adc:	e6d8      	b.n	3890 <_malloc_r+0x104>
    3ade:	2814      	cmp	r0, #20
    3ae0:	d963      	bls.n	3baa <_malloc_r+0x41e>
    3ae2:	2854      	cmp	r0, #84	; 0x54
    3ae4:	d900      	bls.n	3ae8 <_malloc_r+0x35c>
    3ae6:	e0a7      	b.n	3c38 <_malloc_r+0x4ac>
    3ae8:	236e      	movs	r3, #110	; 0x6e
    3aea:	4698      	mov	r8, r3
    3aec:	0b28      	lsrs	r0, r5, #12
    3aee:	4480      	add	r8, r0
    3af0:	306f      	adds	r0, #111	; 0x6f
    3af2:	00c1      	lsls	r1, r0, #3
    3af4:	e692      	b.n	381c <_malloc_r+0x90>
    3af6:	46c0      	nop			; (mov r8, r8)
    3af8:	0020ca20 	.word	0x0020ca20
    3afc:	0020ce28 	.word	0x0020ce28
    3b00:	40000030 	.word	0x40000030
    3b04:	0000100f 	.word	0x0000100f
    3b08:	40000000 	.word	0x40000000
    3b0c:	00001008 	.word	0x00001008
    3b10:	40000028 	.word	0x40000028
    3b14:	4000002c 	.word	0x4000002c
    3b18:	2308      	movs	r3, #8
    3b1a:	469b      	mov	fp, r3
    3b1c:	3b07      	subs	r3, #7
    3b1e:	44dc      	add	ip, fp
    3b20:	469b      	mov	fp, r3
    3b22:	44da      	add	sl, fp
    3b24:	4643      	mov	r3, r8
    3b26:	4652      	mov	r2, sl
    3b28:	4213      	tst	r3, r2
    3b2a:	d000      	beq.n	3b2e <_malloc_r+0x3a2>
    3b2c:	e6c4      	b.n	38b8 <_malloc_r+0x12c>
    3b2e:	e04c      	b.n	3bca <_malloc_r+0x43e>
    3b30:	2101      	movs	r1, #1
    3b32:	18e3      	adds	r3, r4, r3
    3b34:	685a      	ldr	r2, [r3, #4]
    3b36:	0030      	movs	r0, r6
    3b38:	430a      	orrs	r2, r1
    3b3a:	605a      	str	r2, [r3, #4]
    3b3c:	68e3      	ldr	r3, [r4, #12]
    3b3e:	68a2      	ldr	r2, [r4, #8]
    3b40:	60d3      	str	r3, [r2, #12]
    3b42:	609a      	str	r2, [r3, #8]
    3b44:	f000 ff90 	bl	4a68 <__malloc_unlock>
    3b48:	0020      	movs	r0, r4
    3b4a:	3008      	adds	r0, #8
    3b4c:	e6e1      	b.n	3912 <_malloc_r+0x186>
    3b4e:	002b      	movs	r3, r5
    3b50:	08e8      	lsrs	r0, r5, #3
    3b52:	3308      	adds	r3, #8
    3b54:	e62e      	b.n	37b4 <_malloc_r+0x28>
    3b56:	2301      	movs	r3, #1
    3b58:	1960      	adds	r0, r4, r5
    3b5a:	431d      	orrs	r5, r3
    3b5c:	6065      	str	r5, [r4, #4]
    3b5e:	6178      	str	r0, [r7, #20]
    3b60:	6138      	str	r0, [r7, #16]
    3b62:	60c2      	str	r2, [r0, #12]
    3b64:	6082      	str	r2, [r0, #8]
    3b66:	001a      	movs	r2, r3
    3b68:	464b      	mov	r3, r9
    3b6a:	430a      	orrs	r2, r1
    3b6c:	6042      	str	r2, [r0, #4]
    3b6e:	0030      	movs	r0, r6
    3b70:	50e1      	str	r1, [r4, r3]
    3b72:	f000 ff79 	bl	4a68 <__malloc_unlock>
    3b76:	0020      	movs	r0, r4
    3b78:	3008      	adds	r0, #8
    3b7a:	e6ca      	b.n	3912 <_malloc_r+0x186>
    3b7c:	099a      	lsrs	r2, r3, #6
    3b7e:	0011      	movs	r1, r2
    3b80:	3239      	adds	r2, #57	; 0x39
    3b82:	3138      	adds	r1, #56	; 0x38
    3b84:	00d2      	lsls	r2, r2, #3
    3b86:	e78d      	b.n	3aa4 <_malloc_r+0x318>
    3b88:	42bc      	cmp	r4, r7
    3b8a:	d060      	beq.n	3c4e <_malloc_r+0x4c2>
    3b8c:	68bc      	ldr	r4, [r7, #8]
    3b8e:	6862      	ldr	r2, [r4, #4]
    3b90:	2303      	movs	r3, #3
    3b92:	439a      	bics	r2, r3
    3b94:	1b53      	subs	r3, r2, r5
    3b96:	4295      	cmp	r5, r2
    3b98:	d802      	bhi.n	3ba0 <_malloc_r+0x414>
    3b9a:	2b0f      	cmp	r3, #15
    3b9c:	dd00      	ble.n	3ba0 <_malloc_r+0x414>
    3b9e:	e769      	b.n	3a74 <_malloc_r+0x2e8>
    3ba0:	0030      	movs	r0, r6
    3ba2:	f000 ff61 	bl	4a68 <__malloc_unlock>
    3ba6:	2000      	movs	r0, #0
    3ba8:	e6b3      	b.n	3912 <_malloc_r+0x186>
    3baa:	235b      	movs	r3, #91	; 0x5b
    3bac:	4698      	mov	r8, r3
    3bae:	4480      	add	r8, r0
    3bb0:	305c      	adds	r0, #92	; 0x5c
    3bb2:	00c1      	lsls	r1, r0, #3
    3bb4:	e632      	b.n	381c <_malloc_r+0x90>
    3bb6:	2308      	movs	r3, #8
    3bb8:	425b      	negs	r3, r3
    3bba:	469c      	mov	ip, r3
    3bbc:	44e1      	add	r9, ip
    3bbe:	464b      	mov	r3, r9
    3bc0:	689b      	ldr	r3, [r3, #8]
    3bc2:	3801      	subs	r0, #1
    3bc4:	454b      	cmp	r3, r9
    3bc6:	d000      	beq.n	3bca <_malloc_r+0x43e>
    3bc8:	e098      	b.n	3cfc <_malloc_r+0x570>
    3bca:	4643      	mov	r3, r8
    3bcc:	4203      	tst	r3, r0
    3bce:	d1f2      	bne.n	3bb6 <_malloc_r+0x42a>
    3bd0:	687b      	ldr	r3, [r7, #4]
    3bd2:	438b      	bics	r3, r1
    3bd4:	607b      	str	r3, [r7, #4]
    3bd6:	0049      	lsls	r1, r1, #1
    3bd8:	4299      	cmp	r1, r3
    3bda:	d900      	bls.n	3bde <_malloc_r+0x452>
    3bdc:	e6b7      	b.n	394e <_malloc_r+0x1c2>
    3bde:	2900      	cmp	r1, #0
    3be0:	d104      	bne.n	3bec <_malloc_r+0x460>
    3be2:	e6b4      	b.n	394e <_malloc_r+0x1c2>
    3be4:	2204      	movs	r2, #4
    3be6:	4694      	mov	ip, r2
    3be8:	0049      	lsls	r1, r1, #1
    3bea:	44e2      	add	sl, ip
    3bec:	420b      	tst	r3, r1
    3bee:	d0f9      	beq.n	3be4 <_malloc_r+0x458>
    3bf0:	4650      	mov	r0, sl
    3bf2:	e65c      	b.n	38ae <_malloc_r+0x122>
    3bf4:	3310      	adds	r3, #16
    3bf6:	9300      	str	r3, [sp, #0]
    3bf8:	e6c6      	b.n	3988 <_malloc_r+0x1fc>
    3bfa:	1089      	asrs	r1, r1, #2
    3bfc:	3b02      	subs	r3, #2
    3bfe:	408b      	lsls	r3, r1
    3c00:	6879      	ldr	r1, [r7, #4]
    3c02:	430b      	orrs	r3, r1
    3c04:	607b      	str	r3, [r7, #4]
    3c06:	e764      	b.n	3ad2 <_malloc_r+0x346>
    3c08:	9b00      	ldr	r3, [sp, #0]
    3c0a:	0030      	movs	r0, r6
    3c0c:	444b      	add	r3, r9
    3c0e:	425b      	negs	r3, r3
    3c10:	051b      	lsls	r3, r3, #20
    3c12:	0d1b      	lsrs	r3, r3, #20
    3c14:	0019      	movs	r1, r3
    3c16:	4698      	mov	r8, r3
    3c18:	f003 f8ea 	bl	6df0 <_sbrk_r>
    3c1c:	1c43      	adds	r3, r0, #1
    3c1e:	d000      	beq.n	3c22 <_malloc_r+0x496>
    3c20:	e6f3      	b.n	3a0a <_malloc_r+0x27e>
    3c22:	2300      	movs	r3, #0
    3c24:	4698      	mov	r8, r3
    3c26:	e6f5      	b.n	3a14 <_malloc_r+0x288>
    3c28:	2a54      	cmp	r2, #84	; 0x54
    3c2a:	d82b      	bhi.n	3c84 <_malloc_r+0x4f8>
    3c2c:	0b1a      	lsrs	r2, r3, #12
    3c2e:	0011      	movs	r1, r2
    3c30:	326f      	adds	r2, #111	; 0x6f
    3c32:	316e      	adds	r1, #110	; 0x6e
    3c34:	00d2      	lsls	r2, r2, #3
    3c36:	e735      	b.n	3aa4 <_malloc_r+0x318>
    3c38:	23aa      	movs	r3, #170	; 0xaa
    3c3a:	005b      	lsls	r3, r3, #1
    3c3c:	4298      	cmp	r0, r3
    3c3e:	d82b      	bhi.n	3c98 <_malloc_r+0x50c>
    3c40:	3bdd      	subs	r3, #221	; 0xdd
    3c42:	4698      	mov	r8, r3
    3c44:	0be8      	lsrs	r0, r5, #15
    3c46:	4480      	add	r8, r0
    3c48:	3078      	adds	r0, #120	; 0x78
    3c4a:	00c1      	lsls	r1, r0, #3
    3c4c:	e5e6      	b.n	381c <_malloc_r+0x90>
    3c4e:	4b2c      	ldr	r3, [pc, #176]	; (3d00 <_malloc_r+0x574>)
    3c50:	469b      	mov	fp, r3
    3c52:	681a      	ldr	r2, [r3, #0]
    3c54:	9b00      	ldr	r3, [sp, #0]
    3c56:	469c      	mov	ip, r3
    3c58:	465b      	mov	r3, fp
    3c5a:	4462      	add	r2, ip
    3c5c:	601a      	str	r2, [r3, #0]
    3c5e:	e6ad      	b.n	39bc <_malloc_r+0x230>
    3c60:	0509      	lsls	r1, r1, #20
    3c62:	d000      	beq.n	3c66 <_malloc_r+0x4da>
    3c64:	e6aa      	b.n	39bc <_malloc_r+0x230>
    3c66:	0002      	movs	r2, r0
    3c68:	68bc      	ldr	r4, [r7, #8]
    3c6a:	4452      	add	r2, sl
    3c6c:	3101      	adds	r1, #1
    3c6e:	430a      	orrs	r2, r1
    3c70:	6062      	str	r2, [r4, #4]
    3c72:	e6f3      	b.n	3a5c <_malloc_r+0x2d0>
    3c74:	4643      	mov	r3, r8
    3c76:	464a      	mov	r2, r9
    3c78:	601a      	str	r2, [r3, #0]
    3c7a:	e6aa      	b.n	39d2 <_malloc_r+0x246>
    3c7c:	464c      	mov	r4, r9
    3c7e:	e6ed      	b.n	3a5c <_malloc_r+0x2d0>
    3c80:	6048      	str	r0, [r1, #4]
    3c82:	e78d      	b.n	3ba0 <_malloc_r+0x414>
    3c84:	21aa      	movs	r1, #170	; 0xaa
    3c86:	0049      	lsls	r1, r1, #1
    3c88:	428a      	cmp	r2, r1
    3c8a:	d824      	bhi.n	3cd6 <_malloc_r+0x54a>
    3c8c:	0bda      	lsrs	r2, r3, #15
    3c8e:	0011      	movs	r1, r2
    3c90:	3278      	adds	r2, #120	; 0x78
    3c92:	3177      	adds	r1, #119	; 0x77
    3c94:	00d2      	lsls	r2, r2, #3
    3c96:	e705      	b.n	3aa4 <_malloc_r+0x318>
    3c98:	4b1a      	ldr	r3, [pc, #104]	; (3d04 <_malloc_r+0x578>)
    3c9a:	4298      	cmp	r0, r3
    3c9c:	d824      	bhi.n	3ce8 <_malloc_r+0x55c>
    3c9e:	237c      	movs	r3, #124	; 0x7c
    3ca0:	4698      	mov	r8, r3
    3ca2:	0ca8      	lsrs	r0, r5, #18
    3ca4:	4480      	add	r8, r0
    3ca6:	307d      	adds	r0, #125	; 0x7d
    3ca8:	00c1      	lsls	r1, r0, #3
    3caa:	e5b7      	b.n	381c <_malloc_r+0x90>
    3cac:	9a00      	ldr	r2, [sp, #0]
    3cae:	9b01      	ldr	r3, [sp, #4]
    3cb0:	4694      	mov	ip, r2
    3cb2:	464a      	mov	r2, r9
    3cb4:	3b08      	subs	r3, #8
    3cb6:	4463      	add	r3, ip
    3cb8:	1a9b      	subs	r3, r3, r2
    3cba:	9300      	str	r3, [sp, #0]
    3cbc:	2300      	movs	r3, #0
    3cbe:	4698      	mov	r8, r3
    3cc0:	e6a8      	b.n	3a14 <_malloc_r+0x288>
    3cc2:	0021      	movs	r1, r4
    3cc4:	0030      	movs	r0, r6
    3cc6:	3108      	adds	r1, #8
    3cc8:	f002 fc02 	bl	64d0 <_free_r>
    3ccc:	465b      	mov	r3, fp
    3cce:	68bc      	ldr	r4, [r7, #8]
    3cd0:	681b      	ldr	r3, [r3, #0]
    3cd2:	6862      	ldr	r2, [r4, #4]
    3cd4:	e6c2      	b.n	3a5c <_malloc_r+0x2d0>
    3cd6:	490b      	ldr	r1, [pc, #44]	; (3d04 <_malloc_r+0x578>)
    3cd8:	428a      	cmp	r2, r1
    3cda:	d80b      	bhi.n	3cf4 <_malloc_r+0x568>
    3cdc:	0c9a      	lsrs	r2, r3, #18
    3cde:	0011      	movs	r1, r2
    3ce0:	327d      	adds	r2, #125	; 0x7d
    3ce2:	317c      	adds	r1, #124	; 0x7c
    3ce4:	00d2      	lsls	r2, r2, #3
    3ce6:	e6dd      	b.n	3aa4 <_malloc_r+0x318>
    3ce8:	21fe      	movs	r1, #254	; 0xfe
    3cea:	237e      	movs	r3, #126	; 0x7e
    3cec:	207f      	movs	r0, #127	; 0x7f
    3cee:	4698      	mov	r8, r3
    3cf0:	0089      	lsls	r1, r1, #2
    3cf2:	e593      	b.n	381c <_malloc_r+0x90>
    3cf4:	22fe      	movs	r2, #254	; 0xfe
    3cf6:	217e      	movs	r1, #126	; 0x7e
    3cf8:	0092      	lsls	r2, r2, #2
    3cfa:	e6d3      	b.n	3aa4 <_malloc_r+0x318>
    3cfc:	687b      	ldr	r3, [r7, #4]
    3cfe:	e76a      	b.n	3bd6 <_malloc_r+0x44a>
    3d00:	40000000 	.word	0x40000000
    3d04:	00000554 	.word	0x00000554

00003d08 <memset>:
    3d08:	b5f0      	push	{r4, r5, r6, r7, lr}
    3d0a:	0005      	movs	r5, r0
    3d0c:	0783      	lsls	r3, r0, #30
    3d0e:	d049      	beq.n	3da4 <memset+0x9c>
    3d10:	1e54      	subs	r4, r2, #1
    3d12:	2a00      	cmp	r2, #0
    3d14:	d045      	beq.n	3da2 <memset+0x9a>
    3d16:	0003      	movs	r3, r0
    3d18:	2603      	movs	r6, #3
    3d1a:	b2ca      	uxtb	r2, r1
    3d1c:	e002      	b.n	3d24 <memset+0x1c>
    3d1e:	3501      	adds	r5, #1
    3d20:	3c01      	subs	r4, #1
    3d22:	d33e      	bcc.n	3da2 <memset+0x9a>
    3d24:	3301      	adds	r3, #1
    3d26:	702a      	strb	r2, [r5, #0]
    3d28:	4233      	tst	r3, r6
    3d2a:	d1f8      	bne.n	3d1e <memset+0x16>
    3d2c:	2c03      	cmp	r4, #3
    3d2e:	d930      	bls.n	3d92 <memset+0x8a>
    3d30:	25ff      	movs	r5, #255	; 0xff
    3d32:	400d      	ands	r5, r1
    3d34:	022a      	lsls	r2, r5, #8
    3d36:	432a      	orrs	r2, r5
    3d38:	0415      	lsls	r5, r2, #16
    3d3a:	4315      	orrs	r5, r2
    3d3c:	2c0f      	cmp	r4, #15
    3d3e:	d934      	bls.n	3daa <memset+0xa2>
    3d40:	0027      	movs	r7, r4
    3d42:	3f10      	subs	r7, #16
    3d44:	093f      	lsrs	r7, r7, #4
    3d46:	013e      	lsls	r6, r7, #4
    3d48:	46b4      	mov	ip, r6
    3d4a:	001e      	movs	r6, r3
    3d4c:	001a      	movs	r2, r3
    3d4e:	3610      	adds	r6, #16
    3d50:	4466      	add	r6, ip
    3d52:	6015      	str	r5, [r2, #0]
    3d54:	6055      	str	r5, [r2, #4]
    3d56:	6095      	str	r5, [r2, #8]
    3d58:	60d5      	str	r5, [r2, #12]
    3d5a:	3210      	adds	r2, #16
    3d5c:	42b2      	cmp	r2, r6
    3d5e:	d1f8      	bne.n	3d52 <memset+0x4a>
    3d60:	3701      	adds	r7, #1
    3d62:	013f      	lsls	r7, r7, #4
    3d64:	19db      	adds	r3, r3, r7
    3d66:	270f      	movs	r7, #15
    3d68:	220c      	movs	r2, #12
    3d6a:	4027      	ands	r7, r4
    3d6c:	4022      	ands	r2, r4
    3d6e:	003c      	movs	r4, r7
    3d70:	2a00      	cmp	r2, #0
    3d72:	d00e      	beq.n	3d92 <memset+0x8a>
    3d74:	1f3e      	subs	r6, r7, #4
    3d76:	08b6      	lsrs	r6, r6, #2
    3d78:	00b4      	lsls	r4, r6, #2
    3d7a:	46a4      	mov	ip, r4
    3d7c:	001a      	movs	r2, r3
    3d7e:	1d1c      	adds	r4, r3, #4
    3d80:	4464      	add	r4, ip
    3d82:	c220      	stmia	r2!, {r5}
    3d84:	42a2      	cmp	r2, r4
    3d86:	d1fc      	bne.n	3d82 <memset+0x7a>
    3d88:	2403      	movs	r4, #3
    3d8a:	3601      	adds	r6, #1
    3d8c:	00b6      	lsls	r6, r6, #2
    3d8e:	199b      	adds	r3, r3, r6
    3d90:	403c      	ands	r4, r7
    3d92:	2c00      	cmp	r4, #0
    3d94:	d005      	beq.n	3da2 <memset+0x9a>
    3d96:	b2c9      	uxtb	r1, r1
    3d98:	191c      	adds	r4, r3, r4
    3d9a:	7019      	strb	r1, [r3, #0]
    3d9c:	3301      	adds	r3, #1
    3d9e:	429c      	cmp	r4, r3
    3da0:	d1fb      	bne.n	3d9a <memset+0x92>
    3da2:	bdf0      	pop	{r4, r5, r6, r7, pc}
    3da4:	0003      	movs	r3, r0
    3da6:	0014      	movs	r4, r2
    3da8:	e7c0      	b.n	3d2c <memset+0x24>
    3daa:	0027      	movs	r7, r4
    3dac:	e7e2      	b.n	3d74 <memset+0x6c>
    3dae:	46c0      	nop			; (mov r8, r8)

00003db0 <_wcrtomb_r>:
    3db0:	b570      	push	{r4, r5, r6, lr}
    3db2:	0005      	movs	r5, r0
    3db4:	001c      	movs	r4, r3
    3db6:	b084      	sub	sp, #16
    3db8:	2b00      	cmp	r3, #0
    3dba:	d00b      	beq.n	3dd4 <_wcrtomb_r+0x24>
    3dbc:	4b0f      	ldr	r3, [pc, #60]	; (3dfc <_wcrtomb_r+0x4c>)
    3dbe:	2900      	cmp	r1, #0
    3dc0:	d00d      	beq.n	3dde <_wcrtomb_r+0x2e>
    3dc2:	20e0      	movs	r0, #224	; 0xe0
    3dc4:	581e      	ldr	r6, [r3, r0]
    3dc6:	0023      	movs	r3, r4
    3dc8:	0028      	movs	r0, r5
    3dca:	47b0      	blx	r6
    3dcc:	1c43      	adds	r3, r0, #1
    3dce:	d00f      	beq.n	3df0 <_wcrtomb_r+0x40>
    3dd0:	b004      	add	sp, #16
    3dd2:	bd70      	pop	{r4, r5, r6, pc}
    3dd4:	1d44      	adds	r4, r0, #5
    3dd6:	4b09      	ldr	r3, [pc, #36]	; (3dfc <_wcrtomb_r+0x4c>)
    3dd8:	34ff      	adds	r4, #255	; 0xff
    3dda:	2900      	cmp	r1, #0
    3ddc:	d1f1      	bne.n	3dc2 <_wcrtomb_r+0x12>
    3dde:	22e0      	movs	r2, #224	; 0xe0
    3de0:	0028      	movs	r0, r5
    3de2:	589e      	ldr	r6, [r3, r2]
    3de4:	a901      	add	r1, sp, #4
    3de6:	0023      	movs	r3, r4
    3de8:	2200      	movs	r2, #0
    3dea:	47b0      	blx	r6
    3dec:	1c43      	adds	r3, r0, #1
    3dee:	d1ef      	bne.n	3dd0 <_wcrtomb_r+0x20>
    3df0:	2300      	movs	r3, #0
    3df2:	6023      	str	r3, [r4, #0]
    3df4:	338a      	adds	r3, #138	; 0x8a
    3df6:	602b      	str	r3, [r5, #0]
    3df8:	e7ea      	b.n	3dd0 <_wcrtomb_r+0x20>
    3dfa:	46c0      	nop			; (mov r8, r8)
    3dfc:	0020ce50 	.word	0x0020ce50

00003e00 <wcrtomb>:
    3e00:	b570      	push	{r4, r5, r6, lr}
    3e02:	4b13      	ldr	r3, [pc, #76]	; (3e50 <wcrtomb+0x50>)
    3e04:	0014      	movs	r4, r2
    3e06:	681d      	ldr	r5, [r3, #0]
    3e08:	b084      	sub	sp, #16
    3e0a:	2a00      	cmp	r2, #0
    3e0c:	d00d      	beq.n	3e2a <wcrtomb+0x2a>
    3e0e:	22e0      	movs	r2, #224	; 0xe0
    3e10:	4b10      	ldr	r3, [pc, #64]	; (3e54 <wcrtomb+0x54>)
    3e12:	589e      	ldr	r6, [r3, r2]
    3e14:	0023      	movs	r3, r4
    3e16:	2800      	cmp	r0, #0
    3e18:	d00f      	beq.n	3e3a <wcrtomb+0x3a>
    3e1a:	000a      	movs	r2, r1
    3e1c:	0001      	movs	r1, r0
    3e1e:	0028      	movs	r0, r5
    3e20:	47b0      	blx	r6
    3e22:	1c43      	adds	r3, r0, #1
    3e24:	d00f      	beq.n	3e46 <wcrtomb+0x46>
    3e26:	b004      	add	sp, #16
    3e28:	bd70      	pop	{r4, r5, r6, pc}
    3e2a:	22e0      	movs	r2, #224	; 0xe0
    3e2c:	4b09      	ldr	r3, [pc, #36]	; (3e54 <wcrtomb+0x54>)
    3e2e:	1d6c      	adds	r4, r5, #5
    3e30:	34ff      	adds	r4, #255	; 0xff
    3e32:	589e      	ldr	r6, [r3, r2]
    3e34:	0023      	movs	r3, r4
    3e36:	2800      	cmp	r0, #0
    3e38:	d1ef      	bne.n	3e1a <wcrtomb+0x1a>
    3e3a:	2200      	movs	r2, #0
    3e3c:	0028      	movs	r0, r5
    3e3e:	a901      	add	r1, sp, #4
    3e40:	47b0      	blx	r6
    3e42:	1c43      	adds	r3, r0, #1
    3e44:	d1ef      	bne.n	3e26 <wcrtomb+0x26>
    3e46:	2300      	movs	r3, #0
    3e48:	6023      	str	r3, [r4, #0]
    3e4a:	338a      	adds	r3, #138	; 0x8a
    3e4c:	602b      	str	r3, [r5, #0]
    3e4e:	e7ea      	b.n	3e26 <wcrtomb+0x26>
    3e50:	0020d0e0 	.word	0x0020d0e0
    3e54:	0020ce50 	.word	0x0020ce50

00003e58 <__retarget_lock_init>:
    3e58:	4770      	bx	lr
    3e5a:	46c0      	nop			; (mov r8, r8)

00003e5c <__retarget_lock_init_recursive>:
    3e5c:	4770      	bx	lr
    3e5e:	46c0      	nop			; (mov r8, r8)

00003e60 <__retarget_lock_close>:
    3e60:	4770      	bx	lr
    3e62:	46c0      	nop			; (mov r8, r8)

00003e64 <__retarget_lock_close_recursive>:
    3e64:	4770      	bx	lr
    3e66:	46c0      	nop			; (mov r8, r8)

00003e68 <__retarget_lock_acquire>:
    3e68:	4770      	bx	lr
    3e6a:	46c0      	nop			; (mov r8, r8)

00003e6c <__retarget_lock_acquire_recursive>:
    3e6c:	4770      	bx	lr
    3e6e:	46c0      	nop			; (mov r8, r8)

00003e70 <__retarget_lock_try_acquire>:
    3e70:	2001      	movs	r0, #1
    3e72:	4770      	bx	lr

00003e74 <__retarget_lock_try_acquire_recursive>:
    3e74:	2001      	movs	r0, #1
    3e76:	4770      	bx	lr

00003e78 <__retarget_lock_release>:
    3e78:	4770      	bx	lr
    3e7a:	46c0      	nop			; (mov r8, r8)

00003e7c <__retarget_lock_release_recursive>:
    3e7c:	4770      	bx	lr
    3e7e:	46c0      	nop			; (mov r8, r8)

00003e80 <currentlocale>:
    3e80:	b5f0      	push	{r4, r5, r6, r7, lr}
    3e82:	4d14      	ldr	r5, [pc, #80]	; (3ed4 <currentlocale+0x54>)
    3e84:	46c6      	mov	lr, r8
    3e86:	002e      	movs	r6, r5
    3e88:	4b13      	ldr	r3, [pc, #76]	; (3ed8 <currentlocale+0x58>)
    3e8a:	0029      	movs	r1, r5
    3e8c:	0018      	movs	r0, r3
    3e8e:	002f      	movs	r7, r5
    3e90:	b500      	push	{lr}
    3e92:	3620      	adds	r6, #32
    3e94:	4698      	mov	r8, r3
    3e96:	0034      	movs	r4, r6
    3e98:	f000 fdd6 	bl	4a48 <strcpy>
    3e9c:	37c0      	adds	r7, #192	; 0xc0
    3e9e:	0021      	movs	r1, r4
    3ea0:	0028      	movs	r0, r5
    3ea2:	f000 fc89 	bl	47b8 <strcmp>
    3ea6:	2800      	cmp	r0, #0
    3ea8:	d106      	bne.n	3eb8 <currentlocale+0x38>
    3eaa:	3420      	adds	r4, #32
    3eac:	42bc      	cmp	r4, r7
    3eae:	d1f6      	bne.n	3e9e <currentlocale+0x1e>
    3eb0:	4640      	mov	r0, r8
    3eb2:	bc80      	pop	{r7}
    3eb4:	46b8      	mov	r8, r7
    3eb6:	bdf0      	pop	{r4, r5, r6, r7, pc}
    3eb8:	4c08      	ldr	r4, [pc, #32]	; (3edc <currentlocale+0x5c>)
    3eba:	0021      	movs	r1, r4
    3ebc:	4640      	mov	r0, r8
    3ebe:	f003 fccb 	bl	7858 <strcat>
    3ec2:	0031      	movs	r1, r6
    3ec4:	4640      	mov	r0, r8
    3ec6:	3620      	adds	r6, #32
    3ec8:	f003 fcc6 	bl	7858 <strcat>
    3ecc:	42be      	cmp	r6, r7
    3ece:	d1f4      	bne.n	3eba <currentlocale+0x3a>
    3ed0:	e7ee      	b.n	3eb0 <currentlocale+0x30>
    3ed2:	46c0      	nop			; (mov r8, r8)
    3ed4:	0020ce70 	.word	0x0020ce70
    3ed8:	40000058 	.word	0x40000058
    3edc:	0000c1c0 	.word	0x0000c1c0

00003ee0 <__loadlocale>:
    3ee0:	b5f0      	push	{r4, r5, r6, r7, lr}
    3ee2:	4657      	mov	r7, sl
    3ee4:	464e      	mov	r6, r9
    3ee6:	4645      	mov	r5, r8
    3ee8:	46de      	mov	lr, fp
    3eea:	b5e0      	push	{r5, r6, r7, lr}
    3eec:	014d      	lsls	r5, r1, #5
    3eee:	1945      	adds	r5, r0, r5
    3ef0:	0006      	movs	r6, r0
    3ef2:	000f      	movs	r7, r1
    3ef4:	b08f      	sub	sp, #60	; 0x3c
    3ef6:	0029      	movs	r1, r5
    3ef8:	0010      	movs	r0, r2
    3efa:	0014      	movs	r4, r2
    3efc:	f000 fc5c 	bl	47b8 <strcmp>
    3f00:	2800      	cmp	r0, #0
    3f02:	d107      	bne.n	3f14 <__loadlocale+0x34>
    3f04:	0028      	movs	r0, r5
    3f06:	b00f      	add	sp, #60	; 0x3c
    3f08:	bcf0      	pop	{r4, r5, r6, r7}
    3f0a:	46bb      	mov	fp, r7
    3f0c:	46b2      	mov	sl, r6
    3f0e:	46a9      	mov	r9, r5
    3f10:	46a0      	mov	r8, r4
    3f12:	bdf0      	pop	{r4, r5, r6, r7, pc}
    3f14:	0020      	movs	r0, r4
    3f16:	49ce      	ldr	r1, [pc, #824]	; (4250 <__loadlocale+0x370>)
    3f18:	f000 fc4e 	bl	47b8 <strcmp>
    3f1c:	4bcd      	ldr	r3, [pc, #820]	; (4254 <__loadlocale+0x374>)
    3f1e:	4698      	mov	r8, r3
    3f20:	2800      	cmp	r0, #0
    3f22:	d048      	beq.n	3fb6 <__loadlocale+0xd6>
    3f24:	4641      	mov	r1, r8
    3f26:	0020      	movs	r0, r4
    3f28:	f000 fc46 	bl	47b8 <strcmp>
    3f2c:	4680      	mov	r8, r0
    3f2e:	2800      	cmp	r0, #0
    3f30:	d037      	beq.n	3fa2 <__loadlocale+0xc2>
    3f32:	7823      	ldrb	r3, [r4, #0]
    3f34:	2b43      	cmp	r3, #67	; 0x43
    3f36:	d043      	beq.n	3fc0 <__loadlocale+0xe0>
    3f38:	3b61      	subs	r3, #97	; 0x61
    3f3a:	2b19      	cmp	r3, #25
    3f3c:	d812      	bhi.n	3f64 <__loadlocale+0x84>
    3f3e:	7863      	ldrb	r3, [r4, #1]
    3f40:	3b61      	subs	r3, #97	; 0x61
    3f42:	2b19      	cmp	r3, #25
    3f44:	d80e      	bhi.n	3f64 <__loadlocale+0x84>
    3f46:	78a3      	ldrb	r3, [r4, #2]
    3f48:	001a      	movs	r2, r3
    3f4a:	3a61      	subs	r2, #97	; 0x61
    3f4c:	2a19      	cmp	r2, #25
    3f4e:	d90b      	bls.n	3f68 <__loadlocale+0x88>
    3f50:	1ca2      	adds	r2, r4, #2
    3f52:	4690      	mov	r8, r2
    3f54:	2b5f      	cmp	r3, #95	; 0x5f
    3f56:	d04c      	beq.n	3ff2 <__loadlocale+0x112>
    3f58:	2b2e      	cmp	r3, #46	; 0x2e
    3f5a:	d100      	bne.n	3f5e <__loadlocale+0x7e>
    3f5c:	e251      	b.n	4402 <__loadlocale+0x522>
    3f5e:	2240      	movs	r2, #64	; 0x40
    3f60:	4393      	bics	r3, r2
    3f62:	d005      	beq.n	3f70 <__loadlocale+0x90>
    3f64:	2500      	movs	r5, #0
    3f66:	e7cd      	b.n	3f04 <__loadlocale+0x24>
    3f68:	1ce3      	adds	r3, r4, #3
    3f6a:	4698      	mov	r8, r3
    3f6c:	78e3      	ldrb	r3, [r4, #3]
    3f6e:	e7f1      	b.n	3f54 <__loadlocale+0x74>
    3f70:	ab06      	add	r3, sp, #24
    3f72:	0018      	movs	r0, r3
    3f74:	49b8      	ldr	r1, [pc, #736]	; (4258 <__loadlocale+0x378>)
    3f76:	4699      	mov	r9, r3
    3f78:	f000 fd66 	bl	4a48 <strcpy>
    3f7c:	4643      	mov	r3, r8
    3f7e:	781b      	ldrb	r3, [r3, #0]
    3f80:	2b40      	cmp	r3, #64	; 0x40
    3f82:	d100      	bne.n	3f86 <__loadlocale+0xa6>
    3f84:	e229      	b.n	43da <__loadlocale+0x4fa>
    3f86:	2300      	movs	r3, #0
    3f88:	469a      	mov	sl, r3
    3f8a:	4698      	mov	r8, r3
    3f8c:	469b      	mov	fp, r3
    3f8e:	464b      	mov	r3, r9
    3f90:	781b      	ldrb	r3, [r3, #0]
    3f92:	3b41      	subs	r3, #65	; 0x41
    3f94:	b2db      	uxtb	r3, r3
    3f96:	2b34      	cmp	r3, #52	; 0x34
    3f98:	d8e4      	bhi.n	3f64 <__loadlocale+0x84>
    3f9a:	4ab0      	ldr	r2, [pc, #704]	; (425c <__loadlocale+0x37c>)
    3f9c:	009b      	lsls	r3, r3, #2
    3f9e:	58d3      	ldr	r3, [r2, r3]
    3fa0:	469f      	mov	pc, r3
    3fa2:	ab06      	add	r3, sp, #24
    3fa4:	0018      	movs	r0, r3
    3fa6:	49ae      	ldr	r1, [pc, #696]	; (4260 <__loadlocale+0x380>)
    3fa8:	4699      	mov	r9, r3
    3faa:	f000 fd4d 	bl	4a48 <strcpy>
    3fae:	2300      	movs	r3, #0
    3fb0:	469a      	mov	sl, r3
    3fb2:	469b      	mov	fp, r3
    3fb4:	e7eb      	b.n	3f8e <__loadlocale+0xae>
    3fb6:	0019      	movs	r1, r3
    3fb8:	0020      	movs	r0, r4
    3fba:	f000 fd45 	bl	4a48 <strcpy>
    3fbe:	e7b1      	b.n	3f24 <__loadlocale+0x44>
    3fc0:	7863      	ldrb	r3, [r4, #1]
    3fc2:	3b2d      	subs	r3, #45	; 0x2d
    3fc4:	2b01      	cmp	r3, #1
    3fc6:	d8cd      	bhi.n	3f64 <__loadlocale+0x84>
    3fc8:	1ca3      	adds	r3, r4, #2
    3fca:	4698      	mov	r8, r3
    3fcc:	ab06      	add	r3, sp, #24
    3fce:	4699      	mov	r9, r3
    3fd0:	4641      	mov	r1, r8
    3fd2:	0018      	movs	r0, r3
    3fd4:	f000 fd38 	bl	4a48 <strcpy>
    3fd8:	2140      	movs	r1, #64	; 0x40
    3fda:	4648      	mov	r0, r9
    3fdc:	f000 fd4c 	bl	4a78 <strchr>
    3fe0:	2800      	cmp	r0, #0
    3fe2:	d001      	beq.n	3fe8 <__loadlocale+0x108>
    3fe4:	2300      	movs	r3, #0
    3fe6:	7003      	strb	r3, [r0, #0]
    3fe8:	4648      	mov	r0, r9
    3fea:	f002 f9a3 	bl	6334 <strlen>
    3fee:	4480      	add	r8, r0
    3ff0:	e7c4      	b.n	3f7c <__loadlocale+0x9c>
    3ff2:	4643      	mov	r3, r8
    3ff4:	785b      	ldrb	r3, [r3, #1]
    3ff6:	3b41      	subs	r3, #65	; 0x41
    3ff8:	2b19      	cmp	r3, #25
    3ffa:	d8b3      	bhi.n	3f64 <__loadlocale+0x84>
    3ffc:	4643      	mov	r3, r8
    3ffe:	789b      	ldrb	r3, [r3, #2]
    4000:	3b41      	subs	r3, #65	; 0x41
    4002:	2b19      	cmp	r3, #25
    4004:	d8ae      	bhi.n	3f64 <__loadlocale+0x84>
    4006:	2203      	movs	r2, #3
    4008:	4643      	mov	r3, r8
    400a:	4694      	mov	ip, r2
    400c:	78db      	ldrb	r3, [r3, #3]
    400e:	44e0      	add	r8, ip
    4010:	e7a2      	b.n	3f58 <__loadlocale+0x78>
    4012:	4b94      	ldr	r3, [pc, #592]	; (4264 <__loadlocale+0x384>)
    4014:	4648      	mov	r0, r9
    4016:	0019      	movs	r1, r3
    4018:	9301      	str	r3, [sp, #4]
    401a:	f003 fbfb 	bl	7814 <strcasecmp>
    401e:	2800      	cmp	r0, #0
    4020:	d005      	beq.n	402e <__loadlocale+0x14e>
    4022:	4648      	mov	r0, r9
    4024:	4990      	ldr	r1, [pc, #576]	; (4268 <__loadlocale+0x388>)
    4026:	f003 fbf5 	bl	7814 <strcasecmp>
    402a:	2800      	cmp	r0, #0
    402c:	d19a      	bne.n	3f64 <__loadlocale+0x84>
    402e:	4648      	mov	r0, r9
    4030:	9901      	ldr	r1, [sp, #4]
    4032:	f000 fd09 	bl	4a48 <strcpy>
    4036:	4b8d      	ldr	r3, [pc, #564]	; (426c <__loadlocale+0x38c>)
    4038:	9303      	str	r3, [sp, #12]
    403a:	4b8d      	ldr	r3, [pc, #564]	; (4270 <__loadlocale+0x390>)
    403c:	9302      	str	r3, [sp, #8]
    403e:	2306      	movs	r3, #6
    4040:	9301      	str	r3, [sp, #4]
    4042:	2f02      	cmp	r7, #2
    4044:	d100      	bne.n	4048 <__loadlocale+0x168>
    4046:	e19e      	b.n	4386 <__loadlocale+0x4a6>
    4048:	2f06      	cmp	r7, #6
    404a:	d105      	bne.n	4058 <__loadlocale+0x178>
    404c:	0030      	movs	r0, r6
    404e:	304b      	adds	r0, #75	; 0x4b
    4050:	4649      	mov	r1, r9
    4052:	30ff      	adds	r0, #255	; 0xff
    4054:	f000 fcf8 	bl	4a48 <strcpy>
    4058:	0028      	movs	r0, r5
    405a:	0021      	movs	r1, r4
    405c:	f000 fcf4 	bl	4a48 <strcpy>
    4060:	0005      	movs	r5, r0
    4062:	e74f      	b.n	3f04 <__loadlocale+0x24>
    4064:	2203      	movs	r2, #3
    4066:	4648      	mov	r0, r9
    4068:	4982      	ldr	r1, [pc, #520]	; (4274 <__loadlocale+0x394>)
    406a:	f002 fbe1 	bl	6830 <strncasecmp>
    406e:	2800      	cmp	r0, #0
    4070:	d000      	beq.n	4074 <__loadlocale+0x194>
    4072:	e777      	b.n	3f64 <__loadlocale+0x84>
    4074:	464b      	mov	r3, r9
    4076:	78d8      	ldrb	r0, [r3, #3]
    4078:	497f      	ldr	r1, [pc, #508]	; (4278 <__loadlocale+0x398>)
    407a:	382d      	subs	r0, #45	; 0x2d
    407c:	4243      	negs	r3, r0
    407e:	4158      	adcs	r0, r3
    4080:	2328      	movs	r3, #40	; 0x28
    4082:	18c0      	adds	r0, r0, r3
    4084:	ab04      	add	r3, sp, #16
    4086:	469c      	mov	ip, r3
    4088:	4460      	add	r0, ip
    408a:	381d      	subs	r0, #29
    408c:	f000 fb94 	bl	47b8 <strcmp>
    4090:	2800      	cmp	r0, #0
    4092:	d000      	beq.n	4096 <__loadlocale+0x1b6>
    4094:	e766      	b.n	3f64 <__loadlocale+0x84>
    4096:	4648      	mov	r0, r9
    4098:	4978      	ldr	r1, [pc, #480]	; (427c <__loadlocale+0x39c>)
    409a:	f000 fcd5 	bl	4a48 <strcpy>
    409e:	4b78      	ldr	r3, [pc, #480]	; (4280 <__loadlocale+0x3a0>)
    40a0:	9303      	str	r3, [sp, #12]
    40a2:	4b78      	ldr	r3, [pc, #480]	; (4284 <__loadlocale+0x3a4>)
    40a4:	9302      	str	r3, [sp, #8]
    40a6:	2301      	movs	r3, #1
    40a8:	9301      	str	r3, [sp, #4]
    40aa:	e7ca      	b.n	4042 <__loadlocale+0x162>
    40ac:	4b76      	ldr	r3, [pc, #472]	; (4288 <__loadlocale+0x3a8>)
    40ae:	4648      	mov	r0, r9
    40b0:	0019      	movs	r1, r3
    40b2:	9301      	str	r3, [sp, #4]
    40b4:	f003 fbae 	bl	7814 <strcasecmp>
    40b8:	2800      	cmp	r0, #0
    40ba:	d000      	beq.n	40be <__loadlocale+0x1de>
    40bc:	e752      	b.n	3f64 <__loadlocale+0x84>
    40be:	4648      	mov	r0, r9
    40c0:	9901      	ldr	r1, [sp, #4]
    40c2:	f000 fcc1 	bl	4a48 <strcpy>
    40c6:	4b71      	ldr	r3, [pc, #452]	; (428c <__loadlocale+0x3ac>)
    40c8:	9303      	str	r3, [sp, #12]
    40ca:	4b71      	ldr	r3, [pc, #452]	; (4290 <__loadlocale+0x3b0>)
    40cc:	9302      	str	r3, [sp, #8]
    40ce:	2302      	movs	r3, #2
    40d0:	9301      	str	r3, [sp, #4]
    40d2:	e7b6      	b.n	4042 <__loadlocale+0x162>
    40d4:	4648      	mov	r0, r9
    40d6:	496f      	ldr	r1, [pc, #444]	; (4294 <__loadlocale+0x3b4>)
    40d8:	f003 fb9c 	bl	7814 <strcasecmp>
    40dc:	2800      	cmp	r0, #0
    40de:	d000      	beq.n	40e2 <__loadlocale+0x202>
    40e0:	e740      	b.n	3f64 <__loadlocale+0x84>
    40e2:	4648      	mov	r0, r9
    40e4:	496c      	ldr	r1, [pc, #432]	; (4298 <__loadlocale+0x3b8>)
    40e6:	f000 fcaf 	bl	4a48 <strcpy>
    40ea:	e7d8      	b.n	409e <__loadlocale+0x1be>
    40ec:	2204      	movs	r2, #4
    40ee:	4648      	mov	r0, r9
    40f0:	496a      	ldr	r1, [pc, #424]	; (429c <__loadlocale+0x3bc>)
    40f2:	f002 fb9d 	bl	6830 <strncasecmp>
    40f6:	2800      	cmp	r0, #0
    40f8:	d000      	beq.n	40fc <__loadlocale+0x21c>
    40fa:	e733      	b.n	3f64 <__loadlocale+0x84>
    40fc:	464b      	mov	r3, r9
    40fe:	791b      	ldrb	r3, [r3, #4]
    4100:	2b2d      	cmp	r3, #45	; 0x2d
    4102:	d101      	bne.n	4108 <__loadlocale+0x228>
    4104:	464b      	mov	r3, r9
    4106:	795b      	ldrb	r3, [r3, #5]
    4108:	2220      	movs	r2, #32
    410a:	4393      	bics	r3, r2
    410c:	2b52      	cmp	r3, #82	; 0x52
    410e:	d100      	bne.n	4112 <__loadlocale+0x232>
    4110:	e19d      	b.n	444e <__loadlocale+0x56e>
    4112:	2b55      	cmp	r3, #85	; 0x55
    4114:	d000      	beq.n	4118 <__loadlocale+0x238>
    4116:	e725      	b.n	3f64 <__loadlocale+0x84>
    4118:	4648      	mov	r0, r9
    411a:	4961      	ldr	r1, [pc, #388]	; (42a0 <__loadlocale+0x3c0>)
    411c:	f000 fc94 	bl	4a48 <strcpy>
    4120:	e7bd      	b.n	409e <__loadlocale+0x1be>
    4122:	4b60      	ldr	r3, [pc, #384]	; (42a4 <__loadlocale+0x3c4>)
    4124:	4648      	mov	r0, r9
    4126:	0019      	movs	r1, r3
    4128:	9301      	str	r3, [sp, #4]
    412a:	f003 fb73 	bl	7814 <strcasecmp>
    412e:	2800      	cmp	r0, #0
    4130:	d000      	beq.n	4134 <__loadlocale+0x254>
    4132:	e717      	b.n	3f64 <__loadlocale+0x84>
    4134:	4648      	mov	r0, r9
    4136:	9901      	ldr	r1, [sp, #4]
    4138:	f000 fc86 	bl	4a48 <strcpy>
    413c:	4b5a      	ldr	r3, [pc, #360]	; (42a8 <__loadlocale+0x3c8>)
    413e:	9303      	str	r3, [sp, #12]
    4140:	4b5a      	ldr	r3, [pc, #360]	; (42ac <__loadlocale+0x3cc>)
    4142:	9302      	str	r3, [sp, #8]
    4144:	2308      	movs	r3, #8
    4146:	9301      	str	r3, [sp, #4]
    4148:	e77b      	b.n	4042 <__loadlocale+0x162>
    414a:	464b      	mov	r3, r9
    414c:	2220      	movs	r2, #32
    414e:	785b      	ldrb	r3, [r3, #1]
    4150:	4393      	bics	r3, r2
    4152:	2b50      	cmp	r3, #80	; 0x50
    4154:	d000      	beq.n	4158 <__loadlocale+0x278>
    4156:	e705      	b.n	3f64 <__loadlocale+0x84>
    4158:	4955      	ldr	r1, [pc, #340]	; (42b0 <__loadlocale+0x3d0>)
    415a:	3a1e      	subs	r2, #30
    415c:	4648      	mov	r0, r9
    415e:	f002 fbdf 	bl	6920 <strncpy>
    4162:	ab04      	add	r3, sp, #16
    4164:	469c      	mov	ip, r3
    4166:	200a      	movs	r0, #10
    4168:	220a      	movs	r2, #10
    416a:	a905      	add	r1, sp, #20
    416c:	4460      	add	r0, ip
    416e:	f002 fb53 	bl	6818 <strtol>
    4172:	9b05      	ldr	r3, [sp, #20]
    4174:	781b      	ldrb	r3, [r3, #0]
    4176:	2b00      	cmp	r3, #0
    4178:	d000      	beq.n	417c <__loadlocale+0x29c>
    417a:	e6f3      	b.n	3f64 <__loadlocale+0x84>
    417c:	23e9      	movs	r3, #233	; 0xe9
    417e:	009b      	lsls	r3, r3, #2
    4180:	4298      	cmp	r0, r3
    4182:	d0a0      	beq.n	40c6 <__loadlocale+0x1e6>
    4184:	dd00      	ble.n	4188 <__loadlocale+0x2a8>
    4186:	e156      	b.n	4436 <__loadlocale+0x556>
    4188:	4b4a      	ldr	r3, [pc, #296]	; (42b4 <__loadlocale+0x3d4>)
    418a:	4298      	cmp	r0, r3
    418c:	dd00      	ble.n	4190 <__loadlocale+0x2b0>
    418e:	e6e9      	b.n	3f64 <__loadlocale+0x84>
    4190:	4b49      	ldr	r3, [pc, #292]	; (42b8 <__loadlocale+0x3d8>)
    4192:	4298      	cmp	r0, r3
    4194:	dd00      	ble.n	4198 <__loadlocale+0x2b8>
    4196:	e144      	b.n	4422 <__loadlocale+0x542>
    4198:	4b48      	ldr	r3, [pc, #288]	; (42bc <__loadlocale+0x3dc>)
    419a:	4298      	cmp	r0, r3
    419c:	d100      	bne.n	41a0 <__loadlocale+0x2c0>
    419e:	e77e      	b.n	409e <__loadlocale+0x1be>
    41a0:	dc00      	bgt.n	41a4 <__loadlocale+0x2c4>
    41a2:	e132      	b.n	440a <__loadlocale+0x52a>
    41a4:	4b46      	ldr	r3, [pc, #280]	; (42c0 <__loadlocale+0x3e0>)
    41a6:	4298      	cmp	r0, r3
    41a8:	d100      	bne.n	41ac <__loadlocale+0x2cc>
    41aa:	e778      	b.n	409e <__loadlocale+0x1be>
    41ac:	2500      	movs	r5, #0
    41ae:	e6a9      	b.n	3f04 <__loadlocale+0x24>
    41b0:	4b2b      	ldr	r3, [pc, #172]	; (4260 <__loadlocale+0x380>)
    41b2:	4648      	mov	r0, r9
    41b4:	0019      	movs	r1, r3
    41b6:	9301      	str	r3, [sp, #4]
    41b8:	f003 fb2c 	bl	7814 <strcasecmp>
    41bc:	2800      	cmp	r0, #0
    41be:	d000      	beq.n	41c2 <__loadlocale+0x2e2>
    41c0:	e6d0      	b.n	3f64 <__loadlocale+0x84>
    41c2:	4648      	mov	r0, r9
    41c4:	9901      	ldr	r1, [sp, #4]
    41c6:	f000 fc3f 	bl	4a48 <strcpy>
    41ca:	e768      	b.n	409e <__loadlocale+0x1be>
    41cc:	2208      	movs	r2, #8
    41ce:	4648      	mov	r0, r9
    41d0:	493c      	ldr	r1, [pc, #240]	; (42c4 <__loadlocale+0x3e4>)
    41d2:	f002 fb2d 	bl	6830 <strncasecmp>
    41d6:	2800      	cmp	r0, #0
    41d8:	d000      	beq.n	41dc <__loadlocale+0x2fc>
    41da:	e6c3      	b.n	3f64 <__loadlocale+0x84>
    41dc:	464b      	mov	r3, r9
    41de:	7a18      	ldrb	r0, [r3, #8]
    41e0:	4939      	ldr	r1, [pc, #228]	; (42c8 <__loadlocale+0x3e8>)
    41e2:	382d      	subs	r0, #45	; 0x2d
    41e4:	4243      	negs	r3, r0
    41e6:	4158      	adcs	r0, r3
    41e8:	2328      	movs	r3, #40	; 0x28
    41ea:	18c0      	adds	r0, r0, r3
    41ec:	ab04      	add	r3, sp, #16
    41ee:	469c      	mov	ip, r3
    41f0:	4460      	add	r0, ip
    41f2:	3818      	subs	r0, #24
    41f4:	f003 fb0e 	bl	7814 <strcasecmp>
    41f8:	2800      	cmp	r0, #0
    41fa:	d000      	beq.n	41fe <__loadlocale+0x31e>
    41fc:	e6b2      	b.n	3f64 <__loadlocale+0x84>
    41fe:	4648      	mov	r0, r9
    4200:	4932      	ldr	r1, [pc, #200]	; (42cc <__loadlocale+0x3ec>)
    4202:	f000 fc21 	bl	4a48 <strcpy>
    4206:	e74a      	b.n	409e <__loadlocale+0x1be>
    4208:	2203      	movs	r2, #3
    420a:	4648      	mov	r0, r9
    420c:	4930      	ldr	r1, [pc, #192]	; (42d0 <__loadlocale+0x3f0>)
    420e:	f002 fb0f 	bl	6830 <strncasecmp>
    4212:	2800      	cmp	r0, #0
    4214:	d000      	beq.n	4218 <__loadlocale+0x338>
    4216:	e6a5      	b.n	3f64 <__loadlocale+0x84>
    4218:	464b      	mov	r3, r9
    421a:	78d8      	ldrb	r0, [r3, #3]
    421c:	492d      	ldr	r1, [pc, #180]	; (42d4 <__loadlocale+0x3f4>)
    421e:	382d      	subs	r0, #45	; 0x2d
    4220:	4243      	negs	r3, r0
    4222:	4158      	adcs	r0, r3
    4224:	2328      	movs	r3, #40	; 0x28
    4226:	18c0      	adds	r0, r0, r3
    4228:	ab04      	add	r3, sp, #16
    422a:	469c      	mov	ip, r3
    422c:	4460      	add	r0, ip
    422e:	381d      	subs	r0, #29
    4230:	f003 faf0 	bl	7814 <strcasecmp>
    4234:	2800      	cmp	r0, #0
    4236:	d000      	beq.n	423a <__loadlocale+0x35a>
    4238:	e694      	b.n	3f64 <__loadlocale+0x84>
    423a:	4648      	mov	r0, r9
    423c:	4926      	ldr	r1, [pc, #152]	; (42d8 <__loadlocale+0x3f8>)
    423e:	f000 fc03 	bl	4a48 <strcpy>
    4242:	4b26      	ldr	r3, [pc, #152]	; (42dc <__loadlocale+0x3fc>)
    4244:	9303      	str	r3, [sp, #12]
    4246:	4b26      	ldr	r3, [pc, #152]	; (42e0 <__loadlocale+0x400>)
    4248:	9302      	str	r3, [sp, #8]
    424a:	2303      	movs	r3, #3
    424c:	9301      	str	r3, [sp, #4]
    424e:	e6f8      	b.n	4042 <__loadlocale+0x162>
    4250:	0000c1c4 	.word	0x0000c1c4
    4254:	0000c1cc 	.word	0x0000c1cc
    4258:	0000c1d8 	.word	0x0000c1d8
    425c:	0000c29c 	.word	0x0000c29c
    4260:	0000c1d0 	.word	0x0000c1d0
    4264:	0000c204 	.word	0x0000c204
    4268:	0000c20c 	.word	0x0000c20c
    426c:	00007299 	.word	0x00007299
    4270:	00006c11 	.word	0x00006c11
    4274:	0000c28c 	.word	0x0000c28c
    4278:	0000c290 	.word	0x0000c290
    427c:	0000c294 	.word	0x0000c294
    4280:	0000726d 	.word	0x0000726d
    4284:	00006bf5 	.word	0x00006bf5
    4288:	0000c228 	.word	0x0000c228
    428c:	000074b1 	.word	0x000074b1
    4290:	00006cc1 	.word	0x00006cc1
    4294:	0000c27c 	.word	0x0000c27c
    4298:	0000c284 	.word	0x0000c284
    429c:	0000c24c 	.word	0x0000c24c
    42a0:	0000c25c 	.word	0x0000c25c
    42a4:	0000c214 	.word	0x0000c214
    42a8:	000075e1 	.word	0x000075e1
    42ac:	00006d81 	.word	0x00006d81
    42b0:	0000c248 	.word	0x0000c248
    42b4:	0000036a 	.word	0x0000036a
    42b8:	00000351 	.word	0x00000351
    42bc:	000002e1 	.word	0x000002e1
    42c0:	00000307 	.word	0x00000307
    42c4:	0000c264 	.word	0x0000c264
    42c8:	0000c270 	.word	0x0000c270
    42cc:	0000c274 	.word	0x0000c274
    42d0:	0000c218 	.word	0x0000c218
    42d4:	0000c21c 	.word	0x0000c21c
    42d8:	0000c220 	.word	0x0000c220
    42dc:	00007531 	.word	0x00007531
    42e0:	00006d11 	.word	0x00006d11
    42e4:	2203      	movs	r2, #3
    42e6:	4648      	mov	r0, r9
    42e8:	4967      	ldr	r1, [pc, #412]	; (4488 <__loadlocale+0x5a8>)
    42ea:	f002 faa1 	bl	6830 <strncasecmp>
    42ee:	2800      	cmp	r0, #0
    42f0:	d000      	beq.n	42f4 <__loadlocale+0x414>
    42f2:	e637      	b.n	3f64 <__loadlocale+0x84>
    42f4:	464b      	mov	r3, r9
    42f6:	78db      	ldrb	r3, [r3, #3]
    42f8:	4964      	ldr	r1, [pc, #400]	; (448c <__loadlocale+0x5ac>)
    42fa:	3b2d      	subs	r3, #45	; 0x2d
    42fc:	425a      	negs	r2, r3
    42fe:	4153      	adcs	r3, r2
    4300:	2228      	movs	r2, #40	; 0x28
    4302:	189b      	adds	r3, r3, r2
    4304:	aa04      	add	r2, sp, #16
    4306:	4694      	mov	ip, r2
    4308:	4463      	add	r3, ip
    430a:	3b1d      	subs	r3, #29
    430c:	2204      	movs	r2, #4
    430e:	0018      	movs	r0, r3
    4310:	9301      	str	r3, [sp, #4]
    4312:	f002 fa8d 	bl	6830 <strncasecmp>
    4316:	2800      	cmp	r0, #0
    4318:	d000      	beq.n	431c <__loadlocale+0x43c>
    431a:	e623      	b.n	3f64 <__loadlocale+0x84>
    431c:	9a01      	ldr	r2, [sp, #4]
    431e:	a905      	add	r1, sp, #20
    4320:	7910      	ldrb	r0, [r2, #4]
    4322:	4694      	mov	ip, r2
    4324:	382d      	subs	r0, #45	; 0x2d
    4326:	4243      	negs	r3, r0
    4328:	4158      	adcs	r0, r3
    432a:	4460      	add	r0, ip
    432c:	220a      	movs	r2, #10
    432e:	3004      	adds	r0, #4
    4330:	f002 fa72 	bl	6818 <strtol>
    4334:	1e43      	subs	r3, r0, #1
    4336:	9001      	str	r0, [sp, #4]
    4338:	2b0f      	cmp	r3, #15
    433a:	d900      	bls.n	433e <__loadlocale+0x45e>
    433c:	e612      	b.n	3f64 <__loadlocale+0x84>
    433e:	280c      	cmp	r0, #12
    4340:	d100      	bne.n	4344 <__loadlocale+0x464>
    4342:	e60f      	b.n	3f64 <__loadlocale+0x84>
    4344:	9b05      	ldr	r3, [sp, #20]
    4346:	781b      	ldrb	r3, [r3, #0]
    4348:	2b00      	cmp	r3, #0
    434a:	d000      	beq.n	434e <__loadlocale+0x46e>
    434c:	e60a      	b.n	3f64 <__loadlocale+0x84>
    434e:	4648      	mov	r0, r9
    4350:	494f      	ldr	r1, [pc, #316]	; (4490 <__loadlocale+0x5b0>)
    4352:	f000 fb79 	bl	4a48 <strcpy>
    4356:	aa04      	add	r2, sp, #16
    4358:	4694      	mov	ip, r2
    435a:	2311      	movs	r3, #17
    435c:	9a01      	ldr	r2, [sp, #4]
    435e:	4463      	add	r3, ip
    4360:	9302      	str	r3, [sp, #8]
    4362:	2a0a      	cmp	r2, #10
    4364:	dd05      	ble.n	4372 <__loadlocale+0x492>
    4366:	2331      	movs	r3, #49	; 0x31
    4368:	464a      	mov	r2, r9
    436a:	7253      	strb	r3, [r2, #9]
    436c:	3b1f      	subs	r3, #31
    436e:	4463      	add	r3, ip
    4370:	9302      	str	r3, [sp, #8]
    4372:	210a      	movs	r1, #10
    4374:	9801      	ldr	r0, [sp, #4]
    4376:	f004 ff1f 	bl	91b8 <__aeabi_idivmod>
    437a:	2300      	movs	r3, #0
    437c:	9a02      	ldr	r2, [sp, #8]
    437e:	3130      	adds	r1, #48	; 0x30
    4380:	7011      	strb	r1, [r2, #0]
    4382:	7053      	strb	r3, [r2, #1]
    4384:	e68b      	b.n	409e <__loadlocale+0x1be>
    4386:	0030      	movs	r0, r6
    4388:	302b      	adds	r0, #43	; 0x2b
    438a:	4649      	mov	r1, r9
    438c:	30ff      	adds	r0, #255	; 0xff
    438e:	f000 fb5b 	bl	4a48 <strcpy>
    4392:	2394      	movs	r3, #148	; 0x94
    4394:	9f01      	ldr	r7, [sp, #4]
    4396:	9a02      	ldr	r2, [sp, #8]
    4398:	005b      	lsls	r3, r3, #1
    439a:	54f7      	strb	r7, [r6, r3]
    439c:	3b48      	subs	r3, #72	; 0x48
    439e:	50f2      	str	r2, [r6, r3]
    43a0:	9a03      	ldr	r2, [sp, #12]
    43a2:	3304      	adds	r3, #4
    43a4:	50f2      	str	r2, [r6, r3]
    43a6:	4649      	mov	r1, r9
    43a8:	0030      	movs	r0, r6
    43aa:	f001 fcab 	bl	5d04 <__set_ctype>
    43ae:	4653      	mov	r3, sl
    43b0:	2b00      	cmp	r3, #0
    43b2:	d10b      	bne.n	43cc <__loadlocale+0x4ec>
    43b4:	4643      	mov	r3, r8
    43b6:	2b00      	cmp	r3, #0
    43b8:	d108      	bne.n	43cc <__loadlocale+0x4ec>
    43ba:	2f01      	cmp	r7, #1
    43bc:	d006      	beq.n	43cc <__loadlocale+0x4ec>
    43be:	464b      	mov	r3, r9
    43c0:	781b      	ldrb	r3, [r3, #0]
    43c2:	3b55      	subs	r3, #85	; 0x55
    43c4:	001a      	movs	r2, r3
    43c6:	1e53      	subs	r3, r2, #1
    43c8:	419a      	sbcs	r2, r3
    43ca:	4692      	mov	sl, r2
    43cc:	465b      	mov	r3, fp
    43ce:	2b00      	cmp	r3, #0
    43d0:	d112      	bne.n	43f8 <__loadlocale+0x518>
    43d2:	4652      	mov	r2, sl
    43d4:	33e8      	adds	r3, #232	; 0xe8
    43d6:	50f2      	str	r2, [r6, r3]
    43d8:	e63e      	b.n	4058 <__loadlocale+0x178>
    43da:	3b3f      	subs	r3, #63	; 0x3f
    43dc:	4443      	add	r3, r8
    43de:	0018      	movs	r0, r3
    43e0:	492c      	ldr	r1, [pc, #176]	; (4494 <__loadlocale+0x5b4>)
    43e2:	469b      	mov	fp, r3
    43e4:	f000 f9e8 	bl	47b8 <strcmp>
    43e8:	4680      	mov	r8, r0
    43ea:	2800      	cmp	r0, #0
    43ec:	d134      	bne.n	4458 <__loadlocale+0x578>
    43ee:	2300      	movs	r3, #0
    43f0:	469a      	mov	sl, r3
    43f2:	3301      	adds	r3, #1
    43f4:	469b      	mov	fp, r3
    43f6:	e5ca      	b.n	3f8e <__loadlocale+0xae>
    43f8:	2201      	movs	r2, #1
    43fa:	23e8      	movs	r3, #232	; 0xe8
    43fc:	4252      	negs	r2, r2
    43fe:	50f2      	str	r2, [r6, r3]
    4400:	e62a      	b.n	4058 <__loadlocale+0x178>
    4402:	3b2d      	subs	r3, #45	; 0x2d
    4404:	469c      	mov	ip, r3
    4406:	44e0      	add	r8, ip
    4408:	e5e0      	b.n	3fcc <__loadlocale+0xec>
    440a:	23b6      	movs	r3, #182	; 0xb6
    440c:	33ff      	adds	r3, #255	; 0xff
    440e:	4298      	cmp	r0, r3
    4410:	d100      	bne.n	4414 <__loadlocale+0x534>
    4412:	e644      	b.n	409e <__loadlocale+0x1be>
    4414:	331c      	adds	r3, #28
    4416:	33ff      	adds	r3, #255	; 0xff
    4418:	4298      	cmp	r0, r3
    441a:	d100      	bne.n	441e <__loadlocale+0x53e>
    441c:	e63f      	b.n	409e <__loadlocale+0x1be>
    441e:	2500      	movs	r5, #0
    4420:	e570      	b.n	3f04 <__loadlocale+0x24>
    4422:	4b1d      	ldr	r3, [pc, #116]	; (4498 <__loadlocale+0x5b8>)
    4424:	469c      	mov	ip, r3
    4426:	4b1d      	ldr	r3, [pc, #116]	; (449c <__loadlocale+0x5bc>)
    4428:	4460      	add	r0, ip
    442a:	40c3      	lsrs	r3, r0
    442c:	07db      	lsls	r3, r3, #31
    442e:	d500      	bpl.n	4432 <__loadlocale+0x552>
    4430:	e635      	b.n	409e <__loadlocale+0x1be>
    4432:	2500      	movs	r5, #0
    4434:	e566      	b.n	3f04 <__loadlocale+0x24>
    4436:	4b1a      	ldr	r3, [pc, #104]	; (44a0 <__loadlocale+0x5c0>)
    4438:	4298      	cmp	r0, r3
    443a:	d100      	bne.n	443e <__loadlocale+0x55e>
    443c:	e62f      	b.n	409e <__loadlocale+0x1be>
    443e:	4b19      	ldr	r3, [pc, #100]	; (44a4 <__loadlocale+0x5c4>)
    4440:	469c      	mov	ip, r3
    4442:	4460      	add	r0, ip
    4444:	2808      	cmp	r0, #8
    4446:	d800      	bhi.n	444a <__loadlocale+0x56a>
    4448:	e629      	b.n	409e <__loadlocale+0x1be>
    444a:	2500      	movs	r5, #0
    444c:	e55a      	b.n	3f04 <__loadlocale+0x24>
    444e:	4648      	mov	r0, r9
    4450:	4915      	ldr	r1, [pc, #84]	; (44a8 <__loadlocale+0x5c8>)
    4452:	f000 faf9 	bl	4a48 <strcpy>
    4456:	e622      	b.n	409e <__loadlocale+0x1be>
    4458:	4658      	mov	r0, fp
    445a:	4914      	ldr	r1, [pc, #80]	; (44ac <__loadlocale+0x5cc>)
    445c:	f000 f9ac 	bl	47b8 <strcmp>
    4460:	4682      	mov	sl, r0
    4462:	2800      	cmp	r0, #0
    4464:	d104      	bne.n	4470 <__loadlocale+0x590>
    4466:	2300      	movs	r3, #0
    4468:	469b      	mov	fp, r3
    446a:	3301      	adds	r3, #1
    446c:	4698      	mov	r8, r3
    446e:	e58e      	b.n	3f8e <__loadlocale+0xae>
    4470:	4658      	mov	r0, fp
    4472:	490f      	ldr	r1, [pc, #60]	; (44b0 <__loadlocale+0x5d0>)
    4474:	f000 f9a0 	bl	47b8 <strcmp>
    4478:	4242      	negs	r2, r0
    447a:	4142      	adcs	r2, r0
    447c:	2300      	movs	r3, #0
    447e:	4692      	mov	sl, r2
    4480:	4698      	mov	r8, r3
    4482:	469b      	mov	fp, r3
    4484:	e583      	b.n	3f8e <__loadlocale+0xae>
    4486:	46c0      	nop			; (mov r8, r8)
    4488:	0000c230 	.word	0x0000c230
    448c:	0000c234 	.word	0x0000c234
    4490:	0000c23c 	.word	0x0000c23c
    4494:	0000c1e4 	.word	0x0000c1e4
    4498:	fffffcae 	.word	0xfffffcae
    449c:	010111a5 	.word	0x010111a5
    44a0:	00000465 	.word	0x00000465
    44a4:	fffffb1e 	.word	0xfffffb1e
    44a8:	0000c254 	.word	0x0000c254
    44ac:	0000c1f0 	.word	0x0000c1f0
    44b0:	0000c1fc 	.word	0x0000c1fc

000044b4 <__get_locale_env>:
    44b4:	b570      	push	{r4, r5, r6, lr}
    44b6:	000d      	movs	r5, r1
    44b8:	4910      	ldr	r1, [pc, #64]	; (44fc <__get_locale_env+0x48>)
    44ba:	0004      	movs	r4, r0
    44bc:	f002 fa28 	bl	6910 <_getenv_r>
    44c0:	2800      	cmp	r0, #0
    44c2:	d002      	beq.n	44ca <__get_locale_env+0x16>
    44c4:	7803      	ldrb	r3, [r0, #0]
    44c6:	2b00      	cmp	r3, #0
    44c8:	d111      	bne.n	44ee <__get_locale_env+0x3a>
    44ca:	4b0d      	ldr	r3, [pc, #52]	; (4500 <__get_locale_env+0x4c>)
    44cc:	00ad      	lsls	r5, r5, #2
    44ce:	0020      	movs	r0, r4
    44d0:	58e9      	ldr	r1, [r5, r3]
    44d2:	f002 fa1d 	bl	6910 <_getenv_r>
    44d6:	2800      	cmp	r0, #0
    44d8:	d002      	beq.n	44e0 <__get_locale_env+0x2c>
    44da:	7803      	ldrb	r3, [r0, #0]
    44dc:	2b00      	cmp	r3, #0
    44de:	d106      	bne.n	44ee <__get_locale_env+0x3a>
    44e0:	0020      	movs	r0, r4
    44e2:	4908      	ldr	r1, [pc, #32]	; (4504 <__get_locale_env+0x50>)
    44e4:	f002 fa14 	bl	6910 <_getenv_r>
    44e8:	2800      	cmp	r0, #0
    44ea:	d101      	bne.n	44f0 <__get_locale_env+0x3c>
    44ec:	4806      	ldr	r0, [pc, #24]	; (4508 <__get_locale_env+0x54>)
    44ee:	bd70      	pop	{r4, r5, r6, pc}
    44f0:	7803      	ldrb	r3, [r0, #0]
    44f2:	2b00      	cmp	r3, #0
    44f4:	d1fb      	bne.n	44ee <__get_locale_env+0x3a>
    44f6:	4804      	ldr	r0, [pc, #16]	; (4508 <__get_locale_env+0x54>)
    44f8:	e7f9      	b.n	44ee <__get_locale_env+0x3a>
    44fa:	46c0      	nop			; (mov r8, r8)
    44fc:	0000c370 	.word	0x0000c370
    4500:	0000c4ec 	.word	0x0000c4ec
    4504:	0000c378 	.word	0x0000c378
    4508:	0020ce30 	.word	0x0020ce30

0000450c <_setlocale_r.part.0>:
    450c:	b5f0      	push	{r4, r5, r6, r7, lr}
    450e:	4657      	mov	r7, sl
    4510:	464e      	mov	r6, r9
    4512:	4645      	mov	r5, r8
    4514:	46de      	mov	lr, fp
    4516:	4b7e      	ldr	r3, [pc, #504]	; (4710 <_setlocale_r.part.0+0x204>)
    4518:	b5e0      	push	{r5, r6, r7, lr}
    451a:	4e7e      	ldr	r6, [pc, #504]	; (4714 <_setlocale_r.part.0+0x208>)
    451c:	001f      	movs	r7, r3
    451e:	4682      	mov	sl, r0
    4520:	468b      	mov	fp, r1
    4522:	4690      	mov	r8, r2
    4524:	4699      	mov	r9, r3
    4526:	0035      	movs	r5, r6
    4528:	001c      	movs	r4, r3
    452a:	b083      	sub	sp, #12
    452c:	37c0      	adds	r7, #192	; 0xc0
    452e:	0029      	movs	r1, r5
    4530:	0020      	movs	r0, r4
    4532:	3420      	adds	r4, #32
    4534:	f000 fa88 	bl	4a48 <strcpy>
    4538:	3520      	adds	r5, #32
    453a:	42bc      	cmp	r4, r7
    453c:	d1f7      	bne.n	452e <_setlocale_r.part.0+0x22>
    453e:	4643      	mov	r3, r8
    4540:	781b      	ldrb	r3, [r3, #0]
    4542:	2b00      	cmp	r3, #0
    4544:	d13d      	bne.n	45c2 <_setlocale_r.part.0+0xb6>
    4546:	465b      	mov	r3, fp
    4548:	2b00      	cmp	r3, #0
    454a:	d000      	beq.n	454e <_setlocale_r.part.0+0x42>
    454c:	e086      	b.n	465c <_setlocale_r.part.0+0x150>
    454e:	464f      	mov	r7, r9
    4550:	2501      	movs	r5, #1
    4552:	0029      	movs	r1, r5
    4554:	4650      	mov	r0, sl
    4556:	f7ff ffad 	bl	44b4 <__get_locale_env>
    455a:	0004      	movs	r4, r0
    455c:	f001 feea 	bl	6334 <strlen>
    4560:	281f      	cmp	r0, #31
    4562:	d900      	bls.n	4566 <_setlocale_r.part.0+0x5a>
    4564:	e075      	b.n	4652 <_setlocale_r.part.0+0x146>
    4566:	0038      	movs	r0, r7
    4568:	0021      	movs	r1, r4
    456a:	3501      	adds	r5, #1
    456c:	f000 fa6c 	bl	4a48 <strcpy>
    4570:	3720      	adds	r7, #32
    4572:	2d07      	cmp	r5, #7
    4574:	d1ed      	bne.n	4552 <_setlocale_r.part.0+0x46>
    4576:	4b68      	ldr	r3, [pc, #416]	; (4718 <_setlocale_r.part.0+0x20c>)
    4578:	46c8      	mov	r8, r9
    457a:	001f      	movs	r7, r3
    457c:	9301      	str	r3, [sp, #4]
    457e:	4b67      	ldr	r3, [pc, #412]	; (471c <_setlocale_r.part.0+0x210>)
    4580:	2501      	movs	r5, #1
    4582:	469b      	mov	fp, r3
    4584:	0031      	movs	r1, r6
    4586:	0038      	movs	r0, r7
    4588:	f000 fa5e 	bl	4a48 <strcpy>
    458c:	4642      	mov	r2, r8
    458e:	0029      	movs	r1, r5
    4590:	4658      	mov	r0, fp
    4592:	f7ff fca5 	bl	3ee0 <__loadlocale>
    4596:	1e04      	subs	r4, r0, #0
    4598:	d100      	bne.n	459c <_setlocale_r.part.0+0x90>
    459a:	e071      	b.n	4680 <_setlocale_r.part.0+0x174>
    459c:	2320      	movs	r3, #32
    459e:	469c      	mov	ip, r3
    45a0:	3501      	adds	r5, #1
    45a2:	3720      	adds	r7, #32
    45a4:	3620      	adds	r6, #32
    45a6:	44e0      	add	r8, ip
    45a8:	2d07      	cmp	r5, #7
    45aa:	d1eb      	bne.n	4584 <_setlocale_r.part.0+0x78>
    45ac:	f7ff fc68 	bl	3e80 <currentlocale>
    45b0:	0004      	movs	r4, r0
    45b2:	0020      	movs	r0, r4
    45b4:	b003      	add	sp, #12
    45b6:	bcf0      	pop	{r4, r5, r6, r7}
    45b8:	46bb      	mov	fp, r7
    45ba:	46b2      	mov	sl, r6
    45bc:	46a9      	mov	r9, r5
    45be:	46a0      	mov	r8, r4
    45c0:	bdf0      	pop	{r4, r5, r6, r7, pc}
    45c2:	465b      	mov	r3, fp
    45c4:	2b00      	cmp	r3, #0
    45c6:	d130      	bne.n	462a <_setlocale_r.part.0+0x11e>
    45c8:	212f      	movs	r1, #47	; 0x2f
    45ca:	4640      	mov	r0, r8
    45cc:	f000 fa54 	bl	4a78 <strchr>
    45d0:	1e04      	subs	r4, r0, #0
    45d2:	d101      	bne.n	45d8 <_setlocale_r.part.0+0xcc>
    45d4:	e07e      	b.n	46d4 <_setlocale_r.part.0+0x1c8>
    45d6:	3401      	adds	r4, #1
    45d8:	7863      	ldrb	r3, [r4, #1]
    45da:	2b2f      	cmp	r3, #47	; 0x2f
    45dc:	d0fb      	beq.n	45d6 <_setlocale_r.part.0+0xca>
    45de:	2b00      	cmp	r3, #0
    45e0:	d037      	beq.n	4652 <_setlocale_r.part.0+0x146>
    45e2:	46cb      	mov	fp, r9
    45e4:	2501      	movs	r5, #1
    45e6:	4643      	mov	r3, r8
    45e8:	1ae2      	subs	r2, r4, r3
    45ea:	2a1f      	cmp	r2, #31
    45ec:	dc31      	bgt.n	4652 <_setlocale_r.part.0+0x146>
    45ee:	4641      	mov	r1, r8
    45f0:	4658      	mov	r0, fp
    45f2:	3201      	adds	r2, #1
    45f4:	f001 fefe 	bl	63f4 <strlcpy>
    45f8:	7823      	ldrb	r3, [r4, #0]
    45fa:	3501      	adds	r5, #1
    45fc:	2b2f      	cmp	r3, #47	; 0x2f
    45fe:	d103      	bne.n	4608 <_setlocale_r.part.0+0xfc>
    4600:	7863      	ldrb	r3, [r4, #1]
    4602:	3401      	adds	r4, #1
    4604:	2b2f      	cmp	r3, #47	; 0x2f
    4606:	d0fb      	beq.n	4600 <_setlocale_r.part.0+0xf4>
    4608:	2b00      	cmp	r3, #0
    460a:	d071      	beq.n	46f0 <_setlocale_r.part.0+0x1e4>
    460c:	0023      	movs	r3, r4
    460e:	785a      	ldrb	r2, [r3, #1]
    4610:	3301      	adds	r3, #1
    4612:	2a00      	cmp	r2, #0
    4614:	d001      	beq.n	461a <_setlocale_r.part.0+0x10e>
    4616:	2a2f      	cmp	r2, #47	; 0x2f
    4618:	d1f9      	bne.n	460e <_setlocale_r.part.0+0x102>
    461a:	2220      	movs	r2, #32
    461c:	4694      	mov	ip, r2
    461e:	44e3      	add	fp, ip
    4620:	2d07      	cmp	r5, #7
    4622:	d0a8      	beq.n	4576 <_setlocale_r.part.0+0x6a>
    4624:	46a0      	mov	r8, r4
    4626:	001c      	movs	r4, r3
    4628:	e7dd      	b.n	45e6 <_setlocale_r.part.0+0xda>
    462a:	4640      	mov	r0, r8
    462c:	f001 fe82 	bl	6334 <strlen>
    4630:	281f      	cmp	r0, #31
    4632:	d80e      	bhi.n	4652 <_setlocale_r.part.0+0x146>
    4634:	465b      	mov	r3, fp
    4636:	015c      	lsls	r4, r3, #5
    4638:	4b39      	ldr	r3, [pc, #228]	; (4720 <_setlocale_r.part.0+0x214>)
    463a:	4641      	mov	r1, r8
    463c:	18e4      	adds	r4, r4, r3
    463e:	0020      	movs	r0, r4
    4640:	f000 fa02 	bl	4a48 <strcpy>
    4644:	0022      	movs	r2, r4
    4646:	4659      	mov	r1, fp
    4648:	4834      	ldr	r0, [pc, #208]	; (471c <_setlocale_r.part.0+0x210>)
    464a:	f7ff fc49 	bl	3ee0 <__loadlocale>
    464e:	0004      	movs	r4, r0
    4650:	e7af      	b.n	45b2 <_setlocale_r.part.0+0xa6>
    4652:	2316      	movs	r3, #22
    4654:	4652      	mov	r2, sl
    4656:	2400      	movs	r4, #0
    4658:	6013      	str	r3, [r2, #0]
    465a:	e7aa      	b.n	45b2 <_setlocale_r.part.0+0xa6>
    465c:	4659      	mov	r1, fp
    465e:	4650      	mov	r0, sl
    4660:	f7ff ff28 	bl	44b4 <__get_locale_env>
    4664:	0005      	movs	r5, r0
    4666:	f001 fe65 	bl	6334 <strlen>
    466a:	281f      	cmp	r0, #31
    466c:	d8f1      	bhi.n	4652 <_setlocale_r.part.0+0x146>
    466e:	465b      	mov	r3, fp
    4670:	015c      	lsls	r4, r3, #5
    4672:	4b2b      	ldr	r3, [pc, #172]	; (4720 <_setlocale_r.part.0+0x214>)
    4674:	0029      	movs	r1, r5
    4676:	18e4      	adds	r4, r4, r3
    4678:	0020      	movs	r0, r4
    467a:	f000 f9e5 	bl	4a48 <strcpy>
    467e:	e7e1      	b.n	4644 <_setlocale_r.part.0+0x138>
    4680:	4653      	mov	r3, sl
    4682:	681b      	ldr	r3, [r3, #0]
    4684:	2601      	movs	r6, #1
    4686:	4698      	mov	r8, r3
    4688:	2d01      	cmp	r5, #1
    468a:	d01f      	beq.n	46cc <_setlocale_r.part.0+0x1c0>
    468c:	4f25      	ldr	r7, [pc, #148]	; (4724 <_setlocale_r.part.0+0x218>)
    468e:	e008      	b.n	46a2 <_setlocale_r.part.0+0x196>
    4690:	2320      	movs	r3, #32
    4692:	469c      	mov	ip, r3
    4694:	9b01      	ldr	r3, [sp, #4]
    4696:	3601      	adds	r6, #1
    4698:	3320      	adds	r3, #32
    469a:	44e1      	add	r9, ip
    469c:	9301      	str	r3, [sp, #4]
    469e:	42ae      	cmp	r6, r5
    46a0:	d014      	beq.n	46cc <_setlocale_r.part.0+0x1c0>
    46a2:	9901      	ldr	r1, [sp, #4]
    46a4:	4648      	mov	r0, r9
    46a6:	f000 f9cf 	bl	4a48 <strcpy>
    46aa:	464a      	mov	r2, r9
    46ac:	0031      	movs	r1, r6
    46ae:	4658      	mov	r0, fp
    46b0:	f7ff fc16 	bl	3ee0 <__loadlocale>
    46b4:	2800      	cmp	r0, #0
    46b6:	d1eb      	bne.n	4690 <_setlocale_r.part.0+0x184>
    46b8:	0039      	movs	r1, r7
    46ba:	4648      	mov	r0, r9
    46bc:	f000 f9c4 	bl	4a48 <strcpy>
    46c0:	464a      	mov	r2, r9
    46c2:	0031      	movs	r1, r6
    46c4:	4658      	mov	r0, fp
    46c6:	f7ff fc0b 	bl	3ee0 <__loadlocale>
    46ca:	e7e1      	b.n	4690 <_setlocale_r.part.0+0x184>
    46cc:	4653      	mov	r3, sl
    46ce:	4642      	mov	r2, r8
    46d0:	601a      	str	r2, [r3, #0]
    46d2:	e76e      	b.n	45b2 <_setlocale_r.part.0+0xa6>
    46d4:	4640      	mov	r0, r8
    46d6:	f001 fe2d 	bl	6334 <strlen>
    46da:	281f      	cmp	r0, #31
    46dc:	d8b9      	bhi.n	4652 <_setlocale_r.part.0+0x146>
    46de:	464c      	mov	r4, r9
    46e0:	0020      	movs	r0, r4
    46e2:	4641      	mov	r1, r8
    46e4:	3420      	adds	r4, #32
    46e6:	f000 f9af 	bl	4a48 <strcpy>
    46ea:	42bc      	cmp	r4, r7
    46ec:	d1f8      	bne.n	46e0 <_setlocale_r.part.0+0x1d4>
    46ee:	e742      	b.n	4576 <_setlocale_r.part.0+0x6a>
    46f0:	2d07      	cmp	r5, #7
    46f2:	d100      	bne.n	46f6 <_setlocale_r.part.0+0x1ea>
    46f4:	e73f      	b.n	4576 <_setlocale_r.part.0+0x6a>
    46f6:	4b0a      	ldr	r3, [pc, #40]	; (4720 <_setlocale_r.part.0+0x214>)
    46f8:	016d      	lsls	r5, r5, #5
    46fa:	18ed      	adds	r5, r5, r3
    46fc:	0029      	movs	r1, r5
    46fe:	0028      	movs	r0, r5
    4700:	3920      	subs	r1, #32
    4702:	3520      	adds	r5, #32
    4704:	f000 f9a0 	bl	4a48 <strcpy>
    4708:	42bd      	cmp	r5, r7
    470a:	d1f7      	bne.n	46fc <_setlocale_r.part.0+0x1f0>
    470c:	e733      	b.n	4576 <_setlocale_r.part.0+0x6a>
    470e:	46c0      	nop			; (mov r8, r8)
    4710:	40000160 	.word	0x40000160
    4714:	0020ce70 	.word	0x0020ce70
    4718:	40000240 	.word	0x40000240
    471c:	0020ce50 	.word	0x0020ce50
    4720:	40000140 	.word	0x40000140
    4724:	0000c1cc 	.word	0x0000c1cc

00004728 <_setlocale_r>:
    4728:	b510      	push	{r4, lr}
    472a:	2906      	cmp	r1, #6
    472c:	d804      	bhi.n	4738 <_setlocale_r+0x10>
    472e:	2a00      	cmp	r2, #0
    4730:	d006      	beq.n	4740 <_setlocale_r+0x18>
    4732:	f7ff feeb 	bl	450c <_setlocale_r.part.0>
    4736:	bd10      	pop	{r4, pc}
    4738:	2316      	movs	r3, #22
    473a:	6003      	str	r3, [r0, #0]
    473c:	2000      	movs	r0, #0
    473e:	e7fa      	b.n	4736 <_setlocale_r+0xe>
    4740:	2900      	cmp	r1, #0
    4742:	d003      	beq.n	474c <_setlocale_r+0x24>
    4744:	4b03      	ldr	r3, [pc, #12]	; (4754 <_setlocale_r+0x2c>)
    4746:	0148      	lsls	r0, r1, #5
    4748:	18c0      	adds	r0, r0, r3
    474a:	e7f4      	b.n	4736 <_setlocale_r+0xe>
    474c:	f7ff fb98 	bl	3e80 <currentlocale>
    4750:	e7f1      	b.n	4736 <_setlocale_r+0xe>
    4752:	46c0      	nop			; (mov r8, r8)
    4754:	0020ce50 	.word	0x0020ce50

00004758 <__locale_mb_cur_max>:
    4758:	2294      	movs	r2, #148	; 0x94
    475a:	4b02      	ldr	r3, [pc, #8]	; (4764 <__locale_mb_cur_max+0xc>)
    475c:	0052      	lsls	r2, r2, #1
    475e:	5c98      	ldrb	r0, [r3, r2]
    4760:	4770      	bx	lr
    4762:	46c0      	nop			; (mov r8, r8)
    4764:	0020ce50 	.word	0x0020ce50

00004768 <setlocale>:
    4768:	000a      	movs	r2, r1
    476a:	490c      	ldr	r1, [pc, #48]	; (479c <setlocale+0x34>)
    476c:	0003      	movs	r3, r0
    476e:	b510      	push	{r4, lr}
    4770:	6808      	ldr	r0, [r1, #0]
    4772:	2b06      	cmp	r3, #6
    4774:	d805      	bhi.n	4782 <setlocale+0x1a>
    4776:	2a00      	cmp	r2, #0
    4778:	d007      	beq.n	478a <setlocale+0x22>
    477a:	0019      	movs	r1, r3
    477c:	f7ff fec6 	bl	450c <_setlocale_r.part.0>
    4780:	bd10      	pop	{r4, pc}
    4782:	2316      	movs	r3, #22
    4784:	6003      	str	r3, [r0, #0]
    4786:	2000      	movs	r0, #0
    4788:	e7fa      	b.n	4780 <setlocale+0x18>
    478a:	2b00      	cmp	r3, #0
    478c:	d003      	beq.n	4796 <setlocale+0x2e>
    478e:	0158      	lsls	r0, r3, #5
    4790:	4b03      	ldr	r3, [pc, #12]	; (47a0 <setlocale+0x38>)
    4792:	18c0      	adds	r0, r0, r3
    4794:	e7f4      	b.n	4780 <setlocale+0x18>
    4796:	f7ff fb73 	bl	3e80 <currentlocale>
    479a:	e7f1      	b.n	4780 <setlocale+0x18>
    479c:	0020d0e0 	.word	0x0020d0e0
    47a0:	0020ce50 	.word	0x0020ce50

000047a4 <__localeconv_l>:
    47a4:	30f0      	adds	r0, #240	; 0xf0
    47a6:	4770      	bx	lr

000047a8 <_localeconv_r>:
    47a8:	4800      	ldr	r0, [pc, #0]	; (47ac <_localeconv_r+0x4>)
    47aa:	4770      	bx	lr
    47ac:	0020cf40 	.word	0x0020cf40

000047b0 <localeconv>:
    47b0:	4800      	ldr	r0, [pc, #0]	; (47b4 <localeconv+0x4>)
    47b2:	4770      	bx	lr
    47b4:	0020cf40 	.word	0x0020cf40

000047b8 <strcmp>:
    47b8:	4602      	mov	r2, r0
    47ba:	b570      	push	{r4, r5, r6, lr}
    47bc:	430a      	orrs	r2, r1
    47be:	0792      	lsls	r2, r2, #30
    47c0:	d12a      	bne.n	4818 <strcmp+0x60>
    47c2:	4d1e      	ldr	r5, [pc, #120]	; (483c <strcmp+0x84>)
    47c4:	01ee      	lsls	r6, r5, #7
    47c6:	c804      	ldmia	r0!, {r2}
    47c8:	c908      	ldmia	r1!, {r3}
    47ca:	1b54      	subs	r4, r2, r5
    47cc:	4394      	bics	r4, r2
    47ce:	4034      	ands	r4, r6
    47d0:	d017      	beq.n	4802 <strcmp+0x4a>
    47d2:	b2d0      	uxtb	r0, r2
    47d4:	b2d9      	uxtb	r1, r3
    47d6:	1a40      	subs	r0, r0, r1
    47d8:	0621      	lsls	r1, r4, #24
    47da:	4301      	orrs	r1, r0
    47dc:	d110      	bne.n	4800 <strcmp+0x48>
    47de:	b290      	uxth	r0, r2
    47e0:	b299      	uxth	r1, r3
    47e2:	1a40      	subs	r0, r0, r1
    47e4:	0421      	lsls	r1, r4, #16
    47e6:	4301      	orrs	r1, r0
    47e8:	d10a      	bne.n	4800 <strcmp+0x48>
    47ea:	0210      	lsls	r0, r2, #8
    47ec:	0219      	lsls	r1, r3, #8
    47ee:	0a00      	lsrs	r0, r0, #8
    47f0:	0a09      	lsrs	r1, r1, #8
    47f2:	1a40      	subs	r0, r0, r1
    47f4:	0221      	lsls	r1, r4, #8
    47f6:	4301      	orrs	r1, r0
    47f8:	d102      	bne.n	4800 <strcmp+0x48>
    47fa:	0e10      	lsrs	r0, r2, #24
    47fc:	0e19      	lsrs	r1, r3, #24
    47fe:	1a40      	subs	r0, r0, r1
    4800:	bd70      	pop	{r4, r5, r6, pc}
    4802:	429a      	cmp	r2, r3
    4804:	d0df      	beq.n	47c6 <strcmp+0xe>
    4806:	ba10      	rev	r0, r2
    4808:	ba19      	rev	r1, r3
    480a:	4288      	cmp	r0, r1
    480c:	d901      	bls.n	4812 <strcmp+0x5a>
    480e:	2001      	movs	r0, #1
    4810:	bd70      	pop	{r4, r5, r6, pc}
    4812:	2000      	movs	r0, #0
    4814:	43c0      	mvns	r0, r0
    4816:	bd70      	pop	{r4, r5, r6, pc}
    4818:	7802      	ldrb	r2, [r0, #0]
    481a:	780b      	ldrb	r3, [r1, #0]
    481c:	3001      	adds	r0, #1
    481e:	3101      	adds	r1, #1
    4820:	2a00      	cmp	r2, #0
    4822:	d009      	beq.n	4838 <strcmp+0x80>
    4824:	429a      	cmp	r2, r3
    4826:	d107      	bne.n	4838 <strcmp+0x80>
    4828:	7802      	ldrb	r2, [r0, #0]
    482a:	780b      	ldrb	r3, [r1, #0]
    482c:	3001      	adds	r0, #1
    482e:	3101      	adds	r1, #1
    4830:	2a00      	cmp	r2, #0
    4832:	d001      	beq.n	4838 <strcmp+0x80>
    4834:	429a      	cmp	r2, r3
    4836:	d0ef      	beq.n	4818 <strcmp+0x60>
    4838:	1ad0      	subs	r0, r2, r3
    483a:	bd70      	pop	{r4, r5, r6, pc}
    483c:	01010101 	.word	0x01010101

00004840 <__swsetup_r>:
    4840:	4b33      	ldr	r3, [pc, #204]	; (4910 <__swsetup_r+0xd0>)
    4842:	b570      	push	{r4, r5, r6, lr}
    4844:	0005      	movs	r5, r0
    4846:	6818      	ldr	r0, [r3, #0]
    4848:	000c      	movs	r4, r1
    484a:	2800      	cmp	r0, #0
    484c:	d002      	beq.n	4854 <__swsetup_r+0x14>
    484e:	6b42      	ldr	r2, [r0, #52]	; 0x34
    4850:	2a00      	cmp	r2, #0
    4852:	d051      	beq.n	48f8 <__swsetup_r+0xb8>
    4854:	230c      	movs	r3, #12
    4856:	5ee2      	ldrsh	r2, [r4, r3]
    4858:	89a3      	ldrh	r3, [r4, #12]
    485a:	0719      	lsls	r1, r3, #28
    485c:	d51c      	bpl.n	4898 <__swsetup_r+0x58>
    485e:	6921      	ldr	r1, [r4, #16]
    4860:	2900      	cmp	r1, #0
    4862:	d024      	beq.n	48ae <__swsetup_r+0x6e>
    4864:	07d8      	lsls	r0, r3, #31
    4866:	d508      	bpl.n	487a <__swsetup_r+0x3a>
    4868:	2000      	movs	r0, #0
    486a:	60a0      	str	r0, [r4, #8]
    486c:	6960      	ldr	r0, [r4, #20]
    486e:	4240      	negs	r0, r0
    4870:	61a0      	str	r0, [r4, #24]
    4872:	2000      	movs	r0, #0
    4874:	2900      	cmp	r1, #0
    4876:	d008      	beq.n	488a <__swsetup_r+0x4a>
    4878:	bd70      	pop	{r4, r5, r6, pc}
    487a:	2000      	movs	r0, #0
    487c:	079d      	lsls	r5, r3, #30
    487e:	d400      	bmi.n	4882 <__swsetup_r+0x42>
    4880:	6960      	ldr	r0, [r4, #20]
    4882:	60a0      	str	r0, [r4, #8]
    4884:	2000      	movs	r0, #0
    4886:	2900      	cmp	r1, #0
    4888:	d1f6      	bne.n	4878 <__swsetup_r+0x38>
    488a:	061b      	lsls	r3, r3, #24
    488c:	d5f4      	bpl.n	4878 <__swsetup_r+0x38>
    488e:	2340      	movs	r3, #64	; 0x40
    4890:	431a      	orrs	r2, r3
    4892:	81a2      	strh	r2, [r4, #12]
    4894:	3801      	subs	r0, #1
    4896:	e7ef      	b.n	4878 <__swsetup_r+0x38>
    4898:	06d9      	lsls	r1, r3, #27
    489a:	d530      	bpl.n	48fe <__swsetup_r+0xbe>
    489c:	075b      	lsls	r3, r3, #29
    489e:	d416      	bmi.n	48ce <__swsetup_r+0x8e>
    48a0:	6921      	ldr	r1, [r4, #16]
    48a2:	2308      	movs	r3, #8
    48a4:	431a      	orrs	r2, r3
    48a6:	81a2      	strh	r2, [r4, #12]
    48a8:	b293      	uxth	r3, r2
    48aa:	2900      	cmp	r1, #0
    48ac:	d1da      	bne.n	4864 <__swsetup_r+0x24>
    48ae:	20a0      	movs	r0, #160	; 0xa0
    48b0:	2680      	movs	r6, #128	; 0x80
    48b2:	0080      	lsls	r0, r0, #2
    48b4:	00b6      	lsls	r6, r6, #2
    48b6:	4018      	ands	r0, r3
    48b8:	42b0      	cmp	r0, r6
    48ba:	d0d3      	beq.n	4864 <__swsetup_r+0x24>
    48bc:	0021      	movs	r1, r4
    48be:	0028      	movs	r0, r5
    48c0:	f000 f828 	bl	4914 <__smakebuf_r>
    48c4:	230c      	movs	r3, #12
    48c6:	5ee2      	ldrsh	r2, [r4, r3]
    48c8:	6921      	ldr	r1, [r4, #16]
    48ca:	89a3      	ldrh	r3, [r4, #12]
    48cc:	e7ca      	b.n	4864 <__swsetup_r+0x24>
    48ce:	6b21      	ldr	r1, [r4, #48]	; 0x30
    48d0:	2900      	cmp	r1, #0
    48d2:	d00a      	beq.n	48ea <__swsetup_r+0xaa>
    48d4:	0023      	movs	r3, r4
    48d6:	3340      	adds	r3, #64	; 0x40
    48d8:	4299      	cmp	r1, r3
    48da:	d004      	beq.n	48e6 <__swsetup_r+0xa6>
    48dc:	0028      	movs	r0, r5
    48de:	f001 fdf7 	bl	64d0 <_free_r>
    48e2:	230c      	movs	r3, #12
    48e4:	5ee2      	ldrsh	r2, [r4, r3]
    48e6:	2300      	movs	r3, #0
    48e8:	6323      	str	r3, [r4, #48]	; 0x30
    48ea:	2324      	movs	r3, #36	; 0x24
    48ec:	439a      	bics	r2, r3
    48ee:	2300      	movs	r3, #0
    48f0:	6921      	ldr	r1, [r4, #16]
    48f2:	6063      	str	r3, [r4, #4]
    48f4:	6021      	str	r1, [r4, #0]
    48f6:	e7d4      	b.n	48a2 <__swsetup_r+0x62>
    48f8:	f001 fc44 	bl	6184 <__sinit>
    48fc:	e7aa      	b.n	4854 <__swsetup_r+0x14>
    48fe:	2309      	movs	r3, #9
    4900:	602b      	str	r3, [r5, #0]
    4902:	2340      	movs	r3, #64	; 0x40
    4904:	2001      	movs	r0, #1
    4906:	4313      	orrs	r3, r2
    4908:	81a3      	strh	r3, [r4, #12]
    490a:	4240      	negs	r0, r0
    490c:	e7b4      	b.n	4878 <__swsetup_r+0x38>
    490e:	46c0      	nop			; (mov r8, r8)
    4910:	0020d0e0 	.word	0x0020d0e0

00004914 <__smakebuf_r>:
    4914:	b5f0      	push	{r4, r5, r6, r7, lr}
    4916:	46c6      	mov	lr, r8
    4918:	b500      	push	{lr}
    491a:	898b      	ldrh	r3, [r1, #12]
    491c:	0005      	movs	r5, r0
    491e:	000c      	movs	r4, r1
    4920:	b096      	sub	sp, #88	; 0x58
    4922:	079a      	lsls	r2, r3, #30
    4924:	d509      	bpl.n	493a <__smakebuf_r+0x26>
    4926:	0023      	movs	r3, r4
    4928:	3343      	adds	r3, #67	; 0x43
    492a:	6023      	str	r3, [r4, #0]
    492c:	6123      	str	r3, [r4, #16]
    492e:	2301      	movs	r3, #1
    4930:	6163      	str	r3, [r4, #20]
    4932:	b016      	add	sp, #88	; 0x58
    4934:	bc80      	pop	{r7}
    4936:	46b8      	mov	r8, r7
    4938:	bdf0      	pop	{r4, r5, r6, r7, pc}
    493a:	220e      	movs	r2, #14
    493c:	5e89      	ldrsh	r1, [r1, r2]
    493e:	2900      	cmp	r1, #0
    4940:	db27      	blt.n	4992 <__smakebuf_r+0x7e>
    4942:	466a      	mov	r2, sp
    4944:	f002 f822 	bl	698c <_fstat_r>
    4948:	2800      	cmp	r0, #0
    494a:	db21      	blt.n	4990 <__smakebuf_r+0x7c>
    494c:	23f0      	movs	r3, #240	; 0xf0
    494e:	9f01      	ldr	r7, [sp, #4]
    4950:	021b      	lsls	r3, r3, #8
    4952:	401f      	ands	r7, r3
    4954:	4b25      	ldr	r3, [pc, #148]	; (49ec <__smakebuf_r+0xd8>)
    4956:	2680      	movs	r6, #128	; 0x80
    4958:	469c      	mov	ip, r3
    495a:	4467      	add	r7, ip
    495c:	427b      	negs	r3, r7
    495e:	415f      	adcs	r7, r3
    4960:	2380      	movs	r3, #128	; 0x80
    4962:	00db      	lsls	r3, r3, #3
    4964:	4698      	mov	r8, r3
    4966:	0136      	lsls	r6, r6, #4
    4968:	4641      	mov	r1, r8
    496a:	0028      	movs	r0, r5
    496c:	f7fe ff0e 	bl	378c <_malloc_r>
    4970:	2800      	cmp	r0, #0
    4972:	d01a      	beq.n	49aa <__smakebuf_r+0x96>
    4974:	2280      	movs	r2, #128	; 0x80
    4976:	89a3      	ldrh	r3, [r4, #12]
    4978:	6020      	str	r0, [r4, #0]
    497a:	4313      	orrs	r3, r2
    497c:	4642      	mov	r2, r8
    497e:	b21b      	sxth	r3, r3
    4980:	81a3      	strh	r3, [r4, #12]
    4982:	6120      	str	r0, [r4, #16]
    4984:	6162      	str	r2, [r4, #20]
    4986:	2f00      	cmp	r7, #0
    4988:	d11e      	bne.n	49c8 <__smakebuf_r+0xb4>
    498a:	4333      	orrs	r3, r6
    498c:	81a3      	strh	r3, [r4, #12]
    498e:	e7d0      	b.n	4932 <__smakebuf_r+0x1e>
    4990:	89a3      	ldrh	r3, [r4, #12]
    4992:	2700      	movs	r7, #0
    4994:	061b      	lsls	r3, r3, #24
    4996:	d512      	bpl.n	49be <__smakebuf_r+0xaa>
    4998:	2340      	movs	r3, #64	; 0x40
    499a:	4698      	mov	r8, r3
    499c:	0028      	movs	r0, r5
    499e:	4641      	mov	r1, r8
    49a0:	2600      	movs	r6, #0
    49a2:	f7fe fef3 	bl	378c <_malloc_r>
    49a6:	2800      	cmp	r0, #0
    49a8:	d1e4      	bne.n	4974 <__smakebuf_r+0x60>
    49aa:	220c      	movs	r2, #12
    49ac:	5ea3      	ldrsh	r3, [r4, r2]
    49ae:	059a      	lsls	r2, r3, #22
    49b0:	d4bf      	bmi.n	4932 <__smakebuf_r+0x1e>
    49b2:	2203      	movs	r2, #3
    49b4:	4393      	bics	r3, r2
    49b6:	2202      	movs	r2, #2
    49b8:	4313      	orrs	r3, r2
    49ba:	81a3      	strh	r3, [r4, #12]
    49bc:	e7b3      	b.n	4926 <__smakebuf_r+0x12>
    49be:	2380      	movs	r3, #128	; 0x80
    49c0:	00db      	lsls	r3, r3, #3
    49c2:	4698      	mov	r8, r3
    49c4:	2600      	movs	r6, #0
    49c6:	e7cf      	b.n	4968 <__smakebuf_r+0x54>
    49c8:	0028      	movs	r0, r5
    49ca:	230e      	movs	r3, #14
    49cc:	5ee1      	ldrsh	r1, [r4, r3]
    49ce:	f001 fff1 	bl	69b4 <_isatty_r>
    49d2:	2800      	cmp	r0, #0
    49d4:	d102      	bne.n	49dc <__smakebuf_r+0xc8>
    49d6:	220c      	movs	r2, #12
    49d8:	5ea3      	ldrsh	r3, [r4, r2]
    49da:	e7d6      	b.n	498a <__smakebuf_r+0x76>
    49dc:	2203      	movs	r2, #3
    49de:	89a3      	ldrh	r3, [r4, #12]
    49e0:	4393      	bics	r3, r2
    49e2:	2201      	movs	r2, #1
    49e4:	4313      	orrs	r3, r2
    49e6:	b21b      	sxth	r3, r3
    49e8:	e7cf      	b.n	498a <__smakebuf_r+0x76>
    49ea:	46c0      	nop			; (mov r8, r8)
    49ec:	ffffe000 	.word	0xffffe000

000049f0 <__swhatbuf_r>:
    49f0:	b570      	push	{r4, r5, r6, lr}
    49f2:	000c      	movs	r4, r1
    49f4:	001e      	movs	r6, r3
    49f6:	230e      	movs	r3, #14
    49f8:	5ec9      	ldrsh	r1, [r1, r3]
    49fa:	0015      	movs	r5, r2
    49fc:	b096      	sub	sp, #88	; 0x58
    49fe:	2900      	cmp	r1, #0
    4a00:	db15      	blt.n	4a2e <__swhatbuf_r+0x3e>
    4a02:	466a      	mov	r2, sp
    4a04:	f001 ffc2 	bl	698c <_fstat_r>
    4a08:	2800      	cmp	r0, #0
    4a0a:	db10      	blt.n	4a2e <__swhatbuf_r+0x3e>
    4a0c:	23f0      	movs	r3, #240	; 0xf0
    4a0e:	9901      	ldr	r1, [sp, #4]
    4a10:	021b      	lsls	r3, r3, #8
    4a12:	4019      	ands	r1, r3
    4a14:	4b0b      	ldr	r3, [pc, #44]	; (4a44 <__swhatbuf_r+0x54>)
    4a16:	2080      	movs	r0, #128	; 0x80
    4a18:	469c      	mov	ip, r3
    4a1a:	4461      	add	r1, ip
    4a1c:	424b      	negs	r3, r1
    4a1e:	4159      	adcs	r1, r3
    4a20:	2380      	movs	r3, #128	; 0x80
    4a22:	0100      	lsls	r0, r0, #4
    4a24:	00db      	lsls	r3, r3, #3
    4a26:	6031      	str	r1, [r6, #0]
    4a28:	602b      	str	r3, [r5, #0]
    4a2a:	b016      	add	sp, #88	; 0x58
    4a2c:	bd70      	pop	{r4, r5, r6, pc}
    4a2e:	89a3      	ldrh	r3, [r4, #12]
    4a30:	2100      	movs	r1, #0
    4a32:	061b      	lsls	r3, r3, #24
    4a34:	d502      	bpl.n	4a3c <__swhatbuf_r+0x4c>
    4a36:	2340      	movs	r3, #64	; 0x40
    4a38:	2000      	movs	r0, #0
    4a3a:	e7f4      	b.n	4a26 <__swhatbuf_r+0x36>
    4a3c:	2380      	movs	r3, #128	; 0x80
    4a3e:	2000      	movs	r0, #0
    4a40:	00db      	lsls	r3, r3, #3
    4a42:	e7f0      	b.n	4a26 <__swhatbuf_r+0x36>
    4a44:	ffffe000 	.word	0xffffe000

00004a48 <strcpy>:
    4a48:	0003      	movs	r3, r0
    4a4a:	780a      	ldrb	r2, [r1, #0]
    4a4c:	3101      	adds	r1, #1
    4a4e:	701a      	strb	r2, [r3, #0]
    4a50:	3301      	adds	r3, #1
    4a52:	2a00      	cmp	r2, #0
    4a54:	d1f9      	bne.n	4a4a <strcpy+0x2>
    4a56:	4770      	bx	lr

00004a58 <__malloc_lock>:
    4a58:	b510      	push	{r4, lr}
    4a5a:	4802      	ldr	r0, [pc, #8]	; (4a64 <__malloc_lock+0xc>)
    4a5c:	f7ff fa06 	bl	3e6c <__retarget_lock_acquire_recursive>
    4a60:	bd10      	pop	{r4, pc}
    4a62:	46c0      	nop			; (mov r8, r8)
    4a64:	40000048 	.word	0x40000048

00004a68 <__malloc_unlock>:
    4a68:	b510      	push	{r4, lr}
    4a6a:	4802      	ldr	r0, [pc, #8]	; (4a74 <__malloc_unlock+0xc>)
    4a6c:	f7ff fa06 	bl	3e7c <__retarget_lock_release_recursive>
    4a70:	bd10      	pop	{r4, pc}
    4a72:	46c0      	nop			; (mov r8, r8)
    4a74:	40000048 	.word	0x40000048

00004a78 <strchr>:
    4a78:	b2ca      	uxtb	r2, r1
    4a7a:	b5f0      	push	{r4, r5, r6, r7, lr}
    4a7c:	2a00      	cmp	r2, #0
    4a7e:	d035      	beq.n	4aec <strchr+0x74>
    4a80:	2403      	movs	r4, #3
    4a82:	0783      	lsls	r3, r0, #30
    4a84:	d12d      	bne.n	4ae2 <strchr+0x6a>
    4a86:	23ff      	movs	r3, #255	; 0xff
    4a88:	400b      	ands	r3, r1
    4a8a:	0219      	lsls	r1, r3, #8
    4a8c:	430b      	orrs	r3, r1
    4a8e:	041d      	lsls	r5, r3, #16
    4a90:	431d      	orrs	r5, r3
    4a92:	0029      	movs	r1, r5
    4a94:	6804      	ldr	r4, [r0, #0]
    4a96:	4e26      	ldr	r6, [pc, #152]	; (4b30 <strchr+0xb8>)
    4a98:	4061      	eors	r1, r4
    4a9a:	198b      	adds	r3, r1, r6
    4a9c:	438b      	bics	r3, r1
    4a9e:	19a1      	adds	r1, r4, r6
    4aa0:	43a1      	bics	r1, r4
    4aa2:	4e24      	ldr	r6, [pc, #144]	; (4b34 <strchr+0xbc>)
    4aa4:	430b      	orrs	r3, r1
    4aa6:	4233      	tst	r3, r6
    4aa8:	d111      	bne.n	4ace <strchr+0x56>
    4aaa:	6841      	ldr	r1, [r0, #4]
    4aac:	4f20      	ldr	r7, [pc, #128]	; (4b30 <strchr+0xb8>)
    4aae:	000c      	movs	r4, r1
    4ab0:	19cb      	adds	r3, r1, r7
    4ab2:	406c      	eors	r4, r5
    4ab4:	438b      	bics	r3, r1
    4ab6:	19e1      	adds	r1, r4, r7
    4ab8:	43a1      	bics	r1, r4
    4aba:	430b      	orrs	r3, r1
    4abc:	3004      	adds	r0, #4
    4abe:	4233      	tst	r3, r6
    4ac0:	d0f3      	beq.n	4aaa <strchr+0x32>
    4ac2:	7803      	ldrb	r3, [r0, #0]
    4ac4:	2b00      	cmp	r3, #0
    4ac6:	d005      	beq.n	4ad4 <strchr+0x5c>
    4ac8:	429a      	cmp	r2, r3
    4aca:	d004      	beq.n	4ad6 <strchr+0x5e>
    4acc:	3001      	adds	r0, #1
    4ace:	7803      	ldrb	r3, [r0, #0]
    4ad0:	2b00      	cmp	r3, #0
    4ad2:	d1f9      	bne.n	4ac8 <strchr+0x50>
    4ad4:	2000      	movs	r0, #0
    4ad6:	bdf0      	pop	{r4, r5, r6, r7, pc}
    4ad8:	4293      	cmp	r3, r2
    4ada:	d0fc      	beq.n	4ad6 <strchr+0x5e>
    4adc:	3001      	adds	r0, #1
    4ade:	4220      	tst	r0, r4
    4ae0:	d0d1      	beq.n	4a86 <strchr+0xe>
    4ae2:	7803      	ldrb	r3, [r0, #0]
    4ae4:	2b00      	cmp	r3, #0
    4ae6:	d1f7      	bne.n	4ad8 <strchr+0x60>
    4ae8:	2000      	movs	r0, #0
    4aea:	e7f4      	b.n	4ad6 <strchr+0x5e>
    4aec:	0783      	lsls	r3, r0, #30
    4aee:	d008      	beq.n	4b02 <strchr+0x8a>
    4af0:	2203      	movs	r2, #3
    4af2:	e002      	b.n	4afa <strchr+0x82>
    4af4:	3001      	adds	r0, #1
    4af6:	4210      	tst	r0, r2
    4af8:	d003      	beq.n	4b02 <strchr+0x8a>
    4afa:	7803      	ldrb	r3, [r0, #0]
    4afc:	2b00      	cmp	r3, #0
    4afe:	d1f9      	bne.n	4af4 <strchr+0x7c>
    4b00:	e7e9      	b.n	4ad6 <strchr+0x5e>
    4b02:	6802      	ldr	r2, [r0, #0]
    4b04:	4b0a      	ldr	r3, [pc, #40]	; (4b30 <strchr+0xb8>)
    4b06:	490b      	ldr	r1, [pc, #44]	; (4b34 <strchr+0xbc>)
    4b08:	18d3      	adds	r3, r2, r3
    4b0a:	4393      	bics	r3, r2
    4b0c:	420b      	tst	r3, r1
    4b0e:	d106      	bne.n	4b1e <strchr+0xa6>
    4b10:	6842      	ldr	r2, [r0, #4]
    4b12:	4b07      	ldr	r3, [pc, #28]	; (4b30 <strchr+0xb8>)
    4b14:	3004      	adds	r0, #4
    4b16:	18d3      	adds	r3, r2, r3
    4b18:	4393      	bics	r3, r2
    4b1a:	420b      	tst	r3, r1
    4b1c:	d0f8      	beq.n	4b10 <strchr+0x98>
    4b1e:	7803      	ldrb	r3, [r0, #0]
    4b20:	2b00      	cmp	r3, #0
    4b22:	d0d8      	beq.n	4ad6 <strchr+0x5e>
    4b24:	7843      	ldrb	r3, [r0, #1]
    4b26:	3001      	adds	r0, #1
    4b28:	2b00      	cmp	r3, #0
    4b2a:	d1fb      	bne.n	4b24 <strchr+0xac>
    4b2c:	e7d3      	b.n	4ad6 <strchr+0x5e>
    4b2e:	46c0      	nop			; (mov r8, r8)
    4b30:	fefefeff 	.word	0xfefefeff
    4b34:	80808080 	.word	0x80808080

00004b38 <calloc>:
    4b38:	0003      	movs	r3, r0
    4b3a:	b510      	push	{r4, lr}
    4b3c:	000a      	movs	r2, r1
    4b3e:	4903      	ldr	r1, [pc, #12]	; (4b4c <calloc+0x14>)
    4b40:	6808      	ldr	r0, [r1, #0]
    4b42:	0019      	movs	r1, r3
    4b44:	f000 f804 	bl	4b50 <_calloc_r>
    4b48:	bd10      	pop	{r4, pc}
    4b4a:	46c0      	nop			; (mov r8, r8)
    4b4c:	0020d0e0 	.word	0x0020d0e0

00004b50 <_calloc_r>:
    4b50:	b570      	push	{r4, r5, r6, lr}
    4b52:	0c0b      	lsrs	r3, r1, #16
    4b54:	2400      	movs	r4, #0
    4b56:	0c15      	lsrs	r5, r2, #16
    4b58:	2b00      	cmp	r3, #0
    4b5a:	d128      	bne.n	4bae <_calloc_r+0x5e>
    4b5c:	2d00      	cmp	r5, #0
    4b5e:	d137      	bne.n	4bd0 <_calloc_r+0x80>
    4b60:	b28b      	uxth	r3, r1
    4b62:	b291      	uxth	r1, r2
    4b64:	4359      	muls	r1, r3
    4b66:	f7fe fe11 	bl	378c <_malloc_r>
    4b6a:	1e05      	subs	r5, r0, #0
    4b6c:	d019      	beq.n	4ba2 <_calloc_r+0x52>
    4b6e:	0003      	movs	r3, r0
    4b70:	3b08      	subs	r3, #8
    4b72:	685a      	ldr	r2, [r3, #4]
    4b74:	2303      	movs	r3, #3
    4b76:	439a      	bics	r2, r3
    4b78:	3a04      	subs	r2, #4
    4b7a:	2a24      	cmp	r2, #36	; 0x24
    4b7c:	d813      	bhi.n	4ba6 <_calloc_r+0x56>
    4b7e:	0003      	movs	r3, r0
    4b80:	2a13      	cmp	r2, #19
    4b82:	d90a      	bls.n	4b9a <_calloc_r+0x4a>
    4b84:	6004      	str	r4, [r0, #0]
    4b86:	6044      	str	r4, [r0, #4]
    4b88:	3308      	adds	r3, #8
    4b8a:	2a1b      	cmp	r2, #27
    4b8c:	d905      	bls.n	4b9a <_calloc_r+0x4a>
    4b8e:	6084      	str	r4, [r0, #8]
    4b90:	60c4      	str	r4, [r0, #12]
    4b92:	2a24      	cmp	r2, #36	; 0x24
    4b94:	d025      	beq.n	4be2 <_calloc_r+0x92>
    4b96:	0003      	movs	r3, r0
    4b98:	3310      	adds	r3, #16
    4b9a:	2200      	movs	r2, #0
    4b9c:	601a      	str	r2, [r3, #0]
    4b9e:	605a      	str	r2, [r3, #4]
    4ba0:	609a      	str	r2, [r3, #8]
    4ba2:	0028      	movs	r0, r5
    4ba4:	bd70      	pop	{r4, r5, r6, pc}
    4ba6:	2100      	movs	r1, #0
    4ba8:	f7ff f8ae 	bl	3d08 <memset>
    4bac:	e7f9      	b.n	4ba2 <_calloc_r+0x52>
    4bae:	2d00      	cmp	r5, #0
    4bb0:	d111      	bne.n	4bd6 <_calloc_r+0x86>
    4bb2:	1c15      	adds	r5, r2, #0
    4bb4:	b289      	uxth	r1, r1
    4bb6:	b292      	uxth	r2, r2
    4bb8:	434a      	muls	r2, r1
    4bba:	b2ad      	uxth	r5, r5
    4bbc:	b29b      	uxth	r3, r3
    4bbe:	436b      	muls	r3, r5
    4bc0:	0c11      	lsrs	r1, r2, #16
    4bc2:	185b      	adds	r3, r3, r1
    4bc4:	0c19      	lsrs	r1, r3, #16
    4bc6:	d106      	bne.n	4bd6 <_calloc_r+0x86>
    4bc8:	0419      	lsls	r1, r3, #16
    4bca:	b292      	uxth	r2, r2
    4bcc:	4311      	orrs	r1, r2
    4bce:	e7ca      	b.n	4b66 <_calloc_r+0x16>
    4bd0:	1c2b      	adds	r3, r5, #0
    4bd2:	1c0d      	adds	r5, r1, #0
    4bd4:	e7ee      	b.n	4bb4 <_calloc_r+0x64>
    4bd6:	f7fb fa9b 	bl	110 <__errno>
    4bda:	230c      	movs	r3, #12
    4bdc:	2500      	movs	r5, #0
    4bde:	6003      	str	r3, [r0, #0]
    4be0:	e7df      	b.n	4ba2 <_calloc_r+0x52>
    4be2:	0003      	movs	r3, r0
    4be4:	6104      	str	r4, [r0, #16]
    4be6:	3318      	adds	r3, #24
    4be8:	6144      	str	r4, [r0, #20]
    4bea:	e7d6      	b.n	4b9a <_calloc_r+0x4a>

00004bec <_wcsrtombs_r>:
    4bec:	b530      	push	{r4, r5, lr}
    4bee:	2401      	movs	r4, #1
    4bf0:	b083      	sub	sp, #12
    4bf2:	9d06      	ldr	r5, [sp, #24]
    4bf4:	9300      	str	r3, [sp, #0]
    4bf6:	9501      	str	r5, [sp, #4]
    4bf8:	4263      	negs	r3, r4
    4bfa:	f003 fcbf 	bl	857c <_wcsnrtombs_r>
    4bfe:	b003      	add	sp, #12
    4c00:	bd30      	pop	{r4, r5, pc}
    4c02:	46c0      	nop			; (mov r8, r8)

00004c04 <wcsrtombs>:
    4c04:	b530      	push	{r4, r5, lr}
    4c06:	0004      	movs	r4, r0
    4c08:	2501      	movs	r5, #1
    4c0a:	4806      	ldr	r0, [pc, #24]	; (4c24 <wcsrtombs+0x20>)
    4c0c:	b083      	sub	sp, #12
    4c0e:	6800      	ldr	r0, [r0, #0]
    4c10:	9301      	str	r3, [sp, #4]
    4c12:	9200      	str	r2, [sp, #0]
    4c14:	426b      	negs	r3, r5
    4c16:	000a      	movs	r2, r1
    4c18:	0021      	movs	r1, r4
    4c1a:	f003 fcaf 	bl	857c <_wcsnrtombs_r>
    4c1e:	b003      	add	sp, #12
    4c20:	bd30      	pop	{r4, r5, pc}
    4c22:	46c0      	nop			; (mov r8, r8)
    4c24:	0020d0e0 	.word	0x0020d0e0

00004c28 <quorem>:
    4c28:	b5f0      	push	{r4, r5, r6, r7, lr}
    4c2a:	4645      	mov	r5, r8
    4c2c:	46de      	mov	lr, fp
    4c2e:	4657      	mov	r7, sl
    4c30:	464e      	mov	r6, r9
    4c32:	b5e0      	push	{r5, r6, r7, lr}
    4c34:	6903      	ldr	r3, [r0, #16]
    4c36:	690d      	ldr	r5, [r1, #16]
    4c38:	b085      	sub	sp, #20
    4c3a:	4680      	mov	r8, r0
    4c3c:	000a      	movs	r2, r1
    4c3e:	9101      	str	r1, [sp, #4]
    4c40:	42ab      	cmp	r3, r5
    4c42:	da00      	bge.n	4c46 <quorem+0x1e>
    4c44:	e090      	b.n	4d68 <quorem+0x140>
    4c46:	0007      	movs	r7, r0
    4c48:	3d01      	subs	r5, #1
    4c4a:	3214      	adds	r2, #20
    4c4c:	00ab      	lsls	r3, r5, #2
    4c4e:	3714      	adds	r7, #20
    4c50:	18d6      	adds	r6, r2, r3
    4c52:	18fb      	adds	r3, r7, r3
    4c54:	9303      	str	r3, [sp, #12]
    4c56:	681b      	ldr	r3, [r3, #0]
    4c58:	9202      	str	r2, [sp, #8]
    4c5a:	469a      	mov	sl, r3
    4c5c:	6833      	ldr	r3, [r6, #0]
    4c5e:	4650      	mov	r0, sl
    4c60:	3301      	adds	r3, #1
    4c62:	0019      	movs	r1, r3
    4c64:	4699      	mov	r9, r3
    4c66:	f004 f937 	bl	8ed8 <__udivsi3>
    4c6a:	0004      	movs	r4, r0
    4c6c:	45ca      	cmp	sl, r9
    4c6e:	d340      	bcc.n	4cf2 <quorem+0xca>
    4c70:	2300      	movs	r3, #0
    4c72:	46ac      	mov	ip, r5
    4c74:	2100      	movs	r1, #0
    4c76:	0005      	movs	r5, r0
    4c78:	001c      	movs	r4, r3
    4c7a:	0038      	movs	r0, r7
    4c7c:	46b2      	mov	sl, r6
    4c7e:	46b9      	mov	r9, r7
    4c80:	9a02      	ldr	r2, [sp, #8]
    4c82:	ca08      	ldmia	r2!, {r3}
    4c84:	041e      	lsls	r6, r3, #16
    4c86:	0c36      	lsrs	r6, r6, #16
    4c88:	436e      	muls	r6, r5
    4c8a:	46b3      	mov	fp, r6
    4c8c:	44a3      	add	fp, r4
    4c8e:	465c      	mov	r4, fp
    4c90:	0c1b      	lsrs	r3, r3, #16
    4c92:	436b      	muls	r3, r5
    4c94:	0c26      	lsrs	r6, r4, #16
    4c96:	199e      	adds	r6, r3, r6
    4c98:	6803      	ldr	r3, [r0, #0]
    4c9a:	0c34      	lsrs	r4, r6, #16
    4c9c:	041f      	lsls	r7, r3, #16
    4c9e:	0c3f      	lsrs	r7, r7, #16
    4ca0:	187f      	adds	r7, r7, r1
    4ca2:	4659      	mov	r1, fp
    4ca4:	0409      	lsls	r1, r1, #16
    4ca6:	0c09      	lsrs	r1, r1, #16
    4ca8:	1a7f      	subs	r7, r7, r1
    4caa:	0431      	lsls	r1, r6, #16
    4cac:	0c09      	lsrs	r1, r1, #16
    4cae:	0c1b      	lsrs	r3, r3, #16
    4cb0:	1a5b      	subs	r3, r3, r1
    4cb2:	1439      	asrs	r1, r7, #16
    4cb4:	185b      	adds	r3, r3, r1
    4cb6:	043f      	lsls	r7, r7, #16
    4cb8:	1419      	asrs	r1, r3, #16
    4cba:	0c3f      	lsrs	r7, r7, #16
    4cbc:	041b      	lsls	r3, r3, #16
    4cbe:	433b      	orrs	r3, r7
    4cc0:	c008      	stmia	r0!, {r3}
    4cc2:	4592      	cmp	sl, r2
    4cc4:	d2dd      	bcs.n	4c82 <quorem+0x5a>
    4cc6:	9a03      	ldr	r2, [sp, #12]
    4cc8:	002c      	movs	r4, r5
    4cca:	6813      	ldr	r3, [r2, #0]
    4ccc:	4665      	mov	r5, ip
    4cce:	4656      	mov	r6, sl
    4cd0:	464f      	mov	r7, r9
    4cd2:	2b00      	cmp	r3, #0
    4cd4:	d10d      	bne.n	4cf2 <quorem+0xca>
    4cd6:	0013      	movs	r3, r2
    4cd8:	3b04      	subs	r3, #4
    4cda:	454b      	cmp	r3, r9
    4cdc:	d804      	bhi.n	4ce8 <quorem+0xc0>
    4cde:	e006      	b.n	4cee <quorem+0xc6>
    4ce0:	3b04      	subs	r3, #4
    4ce2:	3d01      	subs	r5, #1
    4ce4:	42bb      	cmp	r3, r7
    4ce6:	d902      	bls.n	4cee <quorem+0xc6>
    4ce8:	681a      	ldr	r2, [r3, #0]
    4cea:	2a00      	cmp	r2, #0
    4cec:	d0f8      	beq.n	4ce0 <quorem+0xb8>
    4cee:	4643      	mov	r3, r8
    4cf0:	611d      	str	r5, [r3, #16]
    4cf2:	4640      	mov	r0, r8
    4cf4:	9901      	ldr	r1, [sp, #4]
    4cf6:	f003 f95d 	bl	7fb4 <__mcmp>
    4cfa:	2800      	cmp	r0, #0
    4cfc:	db22      	blt.n	4d44 <quorem+0x11c>
    4cfe:	2300      	movs	r3, #0
    4d00:	3401      	adds	r4, #1
    4d02:	46a1      	mov	r9, r4
    4d04:	0039      	movs	r1, r7
    4d06:	001c      	movs	r4, r3
    4d08:	46ac      	mov	ip, r5
    4d0a:	9802      	ldr	r0, [sp, #8]
    4d0c:	680b      	ldr	r3, [r1, #0]
    4d0e:	c820      	ldmia	r0!, {r5}
    4d10:	041a      	lsls	r2, r3, #16
    4d12:	0c12      	lsrs	r2, r2, #16
    4d14:	1912      	adds	r2, r2, r4
    4d16:	042c      	lsls	r4, r5, #16
    4d18:	0c24      	lsrs	r4, r4, #16
    4d1a:	1b12      	subs	r2, r2, r4
    4d1c:	0c1b      	lsrs	r3, r3, #16
    4d1e:	0c2c      	lsrs	r4, r5, #16
    4d20:	1b1b      	subs	r3, r3, r4
    4d22:	1414      	asrs	r4, r2, #16
    4d24:	191b      	adds	r3, r3, r4
    4d26:	0412      	lsls	r2, r2, #16
    4d28:	141c      	asrs	r4, r3, #16
    4d2a:	0c12      	lsrs	r2, r2, #16
    4d2c:	041b      	lsls	r3, r3, #16
    4d2e:	4313      	orrs	r3, r2
    4d30:	c108      	stmia	r1!, {r3}
    4d32:	4286      	cmp	r6, r0
    4d34:	d2ea      	bcs.n	4d0c <quorem+0xe4>
    4d36:	4665      	mov	r5, ip
    4d38:	00ab      	lsls	r3, r5, #2
    4d3a:	18fb      	adds	r3, r7, r3
    4d3c:	681a      	ldr	r2, [r3, #0]
    4d3e:	464c      	mov	r4, r9
    4d40:	2a00      	cmp	r2, #0
    4d42:	d00b      	beq.n	4d5c <quorem+0x134>
    4d44:	0020      	movs	r0, r4
    4d46:	b005      	add	sp, #20
    4d48:	bcf0      	pop	{r4, r5, r6, r7}
    4d4a:	46bb      	mov	fp, r7
    4d4c:	46b2      	mov	sl, r6
    4d4e:	46a9      	mov	r9, r5
    4d50:	46a0      	mov	r8, r4
    4d52:	bdf0      	pop	{r4, r5, r6, r7, pc}
    4d54:	681a      	ldr	r2, [r3, #0]
    4d56:	2a00      	cmp	r2, #0
    4d58:	d103      	bne.n	4d62 <quorem+0x13a>
    4d5a:	3d01      	subs	r5, #1
    4d5c:	3b04      	subs	r3, #4
    4d5e:	42bb      	cmp	r3, r7
    4d60:	d8f8      	bhi.n	4d54 <quorem+0x12c>
    4d62:	4643      	mov	r3, r8
    4d64:	611d      	str	r5, [r3, #16]
    4d66:	e7ed      	b.n	4d44 <quorem+0x11c>
    4d68:	2000      	movs	r0, #0
    4d6a:	e7ec      	b.n	4d46 <quorem+0x11e>

00004d6c <_dtoa_r>:
    4d6c:	b5f0      	push	{r4, r5, r6, r7, lr}
    4d6e:	4657      	mov	r7, sl
    4d70:	464e      	mov	r6, r9
    4d72:	4645      	mov	r5, r8
    4d74:	46de      	mov	lr, fp
    4d76:	0014      	movs	r4, r2
    4d78:	b5e0      	push	{r5, r6, r7, lr}
    4d7a:	001d      	movs	r5, r3
    4d7c:	6b81      	ldr	r1, [r0, #56]	; 0x38
    4d7e:	b09b      	sub	sp, #108	; 0x6c
    4d80:	4682      	mov	sl, r0
    4d82:	9404      	str	r4, [sp, #16]
    4d84:	9505      	str	r5, [sp, #20]
    4d86:	9e27      	ldr	r6, [sp, #156]	; 0x9c
    4d88:	2900      	cmp	r1, #0
    4d8a:	d009      	beq.n	4da0 <_dtoa_r+0x34>
    4d8c:	2301      	movs	r3, #1
    4d8e:	6bc2      	ldr	r2, [r0, #60]	; 0x3c
    4d90:	4093      	lsls	r3, r2
    4d92:	604a      	str	r2, [r1, #4]
    4d94:	608b      	str	r3, [r1, #8]
    4d96:	f002 fe21 	bl	79dc <_Bfree>
    4d9a:	2300      	movs	r3, #0
    4d9c:	4652      	mov	r2, sl
    4d9e:	6393      	str	r3, [r2, #56]	; 0x38
    4da0:	1e2f      	subs	r7, r5, #0
    4da2:	da00      	bge.n	4da6 <_dtoa_r+0x3a>
    4da4:	e16c      	b.n	5080 <_dtoa_r+0x314>
    4da6:	2300      	movs	r3, #0
    4da8:	003a      	movs	r2, r7
    4daa:	6033      	str	r3, [r6, #0]
    4dac:	4bce      	ldr	r3, [pc, #824]	; (50e8 <_dtoa_r+0x37c>)
    4dae:	401a      	ands	r2, r3
    4db0:	429a      	cmp	r2, r3
    4db2:	d100      	bne.n	4db6 <_dtoa_r+0x4a>
    4db4:	e16f      	b.n	5096 <_dtoa_r+0x32a>
    4db6:	9a04      	ldr	r2, [sp, #16]
    4db8:	9b05      	ldr	r3, [sp, #20]
    4dba:	0010      	movs	r0, r2
    4dbc:	0019      	movs	r1, r3
    4dbe:	2200      	movs	r2, #0
    4dc0:	2300      	movs	r3, #0
    4dc2:	900a      	str	r0, [sp, #40]	; 0x28
    4dc4:	910b      	str	r1, [sp, #44]	; 0x2c
    4dc6:	f004 fa0d 	bl	91e4 <__aeabi_dcmpeq>
    4dca:	2800      	cmp	r0, #0
    4dcc:	d013      	beq.n	4df6 <_dtoa_r+0x8a>
    4dce:	2301      	movs	r3, #1
    4dd0:	9a26      	ldr	r2, [sp, #152]	; 0x98
    4dd2:	6013      	str	r3, [r2, #0]
    4dd4:	9b28      	ldr	r3, [sp, #160]	; 0xa0
    4dd6:	2b00      	cmp	r3, #0
    4dd8:	d100      	bne.n	4ddc <_dtoa_r+0x70>
    4dda:	e2ae      	b.n	533a <_dtoa_r+0x5ce>
    4ddc:	4bc3      	ldr	r3, [pc, #780]	; (50ec <_dtoa_r+0x380>)
    4dde:	9a28      	ldr	r2, [sp, #160]	; 0xa0
    4de0:	6013      	str	r3, [r2, #0]
    4de2:	3b01      	subs	r3, #1
    4de4:	9303      	str	r3, [sp, #12]
    4de6:	9803      	ldr	r0, [sp, #12]
    4de8:	b01b      	add	sp, #108	; 0x6c
    4dea:	bcf0      	pop	{r4, r5, r6, r7}
    4dec:	46bb      	mov	fp, r7
    4dee:	46b2      	mov	sl, r6
    4df0:	46a9      	mov	r9, r5
    4df2:	46a0      	mov	r8, r4
    4df4:	bdf0      	pop	{r4, r5, r6, r7, pc}
    4df6:	ab18      	add	r3, sp, #96	; 0x60
    4df8:	9301      	str	r3, [sp, #4]
    4dfa:	ab19      	add	r3, sp, #100	; 0x64
    4dfc:	9300      	str	r3, [sp, #0]
    4dfe:	4650      	mov	r0, sl
    4e00:	9a0a      	ldr	r2, [sp, #40]	; 0x28
    4e02:	9b0b      	ldr	r3, [sp, #44]	; 0x2c
    4e04:	f003 fa38 	bl	8278 <__d2b>
    4e08:	0d3e      	lsrs	r6, r7, #20
    4e0a:	4683      	mov	fp, r0
    4e0c:	d000      	beq.n	4e10 <_dtoa_r+0xa4>
    4e0e:	e154      	b.n	50ba <_dtoa_r+0x34e>
    4e10:	9b18      	ldr	r3, [sp, #96]	; 0x60
    4e12:	9e19      	ldr	r6, [sp, #100]	; 0x64
    4e14:	4698      	mov	r8, r3
    4e16:	4bb6      	ldr	r3, [pc, #728]	; (50f0 <_dtoa_r+0x384>)
    4e18:	4446      	add	r6, r8
    4e1a:	18f3      	adds	r3, r6, r3
    4e1c:	2b20      	cmp	r3, #32
    4e1e:	dc00      	bgt.n	4e22 <_dtoa_r+0xb6>
    4e20:	e374      	b.n	550c <_dtoa_r+0x7a0>
    4e22:	2240      	movs	r2, #64	; 0x40
    4e24:	0038      	movs	r0, r7
    4e26:	1ad3      	subs	r3, r2, r3
    4e28:	4098      	lsls	r0, r3
    4e2a:	4bb2      	ldr	r3, [pc, #712]	; (50f4 <_dtoa_r+0x388>)
    4e2c:	18f2      	adds	r2, r6, r3
    4e2e:	40d4      	lsrs	r4, r2
    4e30:	4320      	orrs	r0, r4
    4e32:	f006 fe13 	bl	ba5c <__aeabi_ui2d>
    4e36:	2301      	movs	r3, #1
    4e38:	4caf      	ldr	r4, [pc, #700]	; (50f8 <_dtoa_r+0x38c>)
    4e3a:	3e01      	subs	r6, #1
    4e3c:	1909      	adds	r1, r1, r4
    4e3e:	930f      	str	r3, [sp, #60]	; 0x3c
    4e40:	2200      	movs	r2, #0
    4e42:	4bae      	ldr	r3, [pc, #696]	; (50fc <_dtoa_r+0x390>)
    4e44:	f006 fa04 	bl	b250 <__aeabi_dsub>
    4e48:	4aad      	ldr	r2, [pc, #692]	; (5100 <_dtoa_r+0x394>)
    4e4a:	4bae      	ldr	r3, [pc, #696]	; (5104 <_dtoa_r+0x398>)
    4e4c:	f005 ff3e 	bl	accc <__aeabi_dmul>
    4e50:	4aad      	ldr	r2, [pc, #692]	; (5108 <_dtoa_r+0x39c>)
    4e52:	4bae      	ldr	r3, [pc, #696]	; (510c <_dtoa_r+0x3a0>)
    4e54:	f004 ffe0 	bl	9e18 <__aeabi_dadd>
    4e58:	0004      	movs	r4, r0
    4e5a:	0030      	movs	r0, r6
    4e5c:	000d      	movs	r5, r1
    4e5e:	f006 fdcd 	bl	b9fc <__aeabi_i2d>
    4e62:	4aab      	ldr	r2, [pc, #684]	; (5110 <_dtoa_r+0x3a4>)
    4e64:	4bab      	ldr	r3, [pc, #684]	; (5114 <_dtoa_r+0x3a8>)
    4e66:	f005 ff31 	bl	accc <__aeabi_dmul>
    4e6a:	0002      	movs	r2, r0
    4e6c:	000b      	movs	r3, r1
    4e6e:	0020      	movs	r0, r4
    4e70:	0029      	movs	r1, r5
    4e72:	f004 ffd1 	bl	9e18 <__aeabi_dadd>
    4e76:	0004      	movs	r4, r0
    4e78:	000d      	movs	r5, r1
    4e7a:	f006 fd89 	bl	b990 <__aeabi_d2iz>
    4e7e:	2200      	movs	r2, #0
    4e80:	0007      	movs	r7, r0
    4e82:	9007      	str	r0, [sp, #28]
    4e84:	2300      	movs	r3, #0
    4e86:	0020      	movs	r0, r4
    4e88:	0029      	movs	r1, r5
    4e8a:	f004 f9b1 	bl	91f0 <__aeabi_dcmplt>
    4e8e:	2800      	cmp	r0, #0
    4e90:	d00a      	beq.n	4ea8 <_dtoa_r+0x13c>
    4e92:	0038      	movs	r0, r7
    4e94:	f006 fdb2 	bl	b9fc <__aeabi_i2d>
    4e98:	002b      	movs	r3, r5
    4e9a:	0022      	movs	r2, r4
    4e9c:	f004 f9a2 	bl	91e4 <__aeabi_dcmpeq>
    4ea0:	4243      	negs	r3, r0
    4ea2:	4158      	adcs	r0, r3
    4ea4:	1a3b      	subs	r3, r7, r0
    4ea6:	9307      	str	r3, [sp, #28]
    4ea8:	9c07      	ldr	r4, [sp, #28]
    4eaa:	2c16      	cmp	r4, #22
    4eac:	d900      	bls.n	4eb0 <_dtoa_r+0x144>
    4eae:	e226      	b.n	52fe <_dtoa_r+0x592>
    4eb0:	980a      	ldr	r0, [sp, #40]	; 0x28
    4eb2:	990b      	ldr	r1, [sp, #44]	; 0x2c
    4eb4:	4b98      	ldr	r3, [pc, #608]	; (5118 <_dtoa_r+0x3ac>)
    4eb6:	00e2      	lsls	r2, r4, #3
    4eb8:	189b      	adds	r3, r3, r2
    4eba:	681a      	ldr	r2, [r3, #0]
    4ebc:	685b      	ldr	r3, [r3, #4]
    4ebe:	f004 f997 	bl	91f0 <__aeabi_dcmplt>
    4ec2:	2800      	cmp	r0, #0
    4ec4:	d100      	bne.n	4ec8 <_dtoa_r+0x15c>
    4ec6:	e1f6      	b.n	52b6 <_dtoa_r+0x54a>
    4ec8:	2300      	movs	r3, #0
    4eca:	930e      	str	r3, [sp, #56]	; 0x38
    4ecc:	4643      	mov	r3, r8
    4ece:	1b9f      	subs	r7, r3, r6
    4ed0:	2300      	movs	r3, #0
    4ed2:	3c01      	subs	r4, #1
    4ed4:	9407      	str	r4, [sp, #28]
    4ed6:	930c      	str	r3, [sp, #48]	; 0x30
    4ed8:	1e7b      	subs	r3, r7, #1
    4eda:	d500      	bpl.n	4ede <_dtoa_r+0x172>
    4edc:	e218      	b.n	5310 <_dtoa_r+0x5a4>
    4ede:	9309      	str	r3, [sp, #36]	; 0x24
    4ee0:	9b07      	ldr	r3, [sp, #28]
    4ee2:	2b00      	cmp	r3, #0
    4ee4:	db00      	blt.n	4ee8 <_dtoa_r+0x17c>
    4ee6:	e1ef      	b.n	52c8 <_dtoa_r+0x55c>
    4ee8:	9b07      	ldr	r3, [sp, #28]
    4eea:	9a0c      	ldr	r2, [sp, #48]	; 0x30
    4eec:	9308      	str	r3, [sp, #32]
    4eee:	1ad2      	subs	r2, r2, r3
    4ef0:	920c      	str	r2, [sp, #48]	; 0x30
    4ef2:	425a      	negs	r2, r3
    4ef4:	2300      	movs	r3, #0
    4ef6:	9307      	str	r3, [sp, #28]
    4ef8:	9b24      	ldr	r3, [sp, #144]	; 0x90
    4efa:	4691      	mov	r9, r2
    4efc:	2401      	movs	r4, #1
    4efe:	2b09      	cmp	r3, #9
    4f00:	d900      	bls.n	4f04 <_dtoa_r+0x198>
    4f02:	e1ee      	b.n	52e2 <_dtoa_r+0x576>
    4f04:	2b05      	cmp	r3, #5
    4f06:	dd02      	ble.n	4f0e <_dtoa_r+0x1a2>
    4f08:	2400      	movs	r4, #0
    4f0a:	3b04      	subs	r3, #4
    4f0c:	9324      	str	r3, [sp, #144]	; 0x90
    4f0e:	9b24      	ldr	r3, [sp, #144]	; 0x90
    4f10:	2b03      	cmp	r3, #3
    4f12:	d101      	bne.n	4f18 <_dtoa_r+0x1ac>
    4f14:	f000 fc50 	bl	57b8 <_dtoa_r+0xa4c>
    4f18:	dc00      	bgt.n	4f1c <_dtoa_r+0x1b0>
    4f1a:	e1ff      	b.n	531c <_dtoa_r+0x5b0>
    4f1c:	9b24      	ldr	r3, [sp, #144]	; 0x90
    4f1e:	2b04      	cmp	r3, #4
    4f20:	d100      	bne.n	4f24 <_dtoa_r+0x1b8>
    4f22:	e2f8      	b.n	5516 <_dtoa_r+0x7aa>
    4f24:	2301      	movs	r3, #1
    4f26:	930d      	str	r3, [sp, #52]	; 0x34
    4f28:	9a08      	ldr	r2, [sp, #32]
    4f2a:	9b25      	ldr	r3, [sp, #148]	; 0x94
    4f2c:	4694      	mov	ip, r2
    4f2e:	4463      	add	r3, ip
    4f30:	9314      	str	r3, [sp, #80]	; 0x50
    4f32:	3301      	adds	r3, #1
    4f34:	1e1d      	subs	r5, r3, #0
    4f36:	9306      	str	r3, [sp, #24]
    4f38:	dc00      	bgt.n	4f3c <_dtoa_r+0x1d0>
    4f3a:	2501      	movs	r5, #1
    4f3c:	2300      	movs	r3, #0
    4f3e:	4652      	mov	r2, sl
    4f40:	63d3      	str	r3, [r2, #60]	; 0x3c
    4f42:	2d17      	cmp	r5, #23
    4f44:	dc01      	bgt.n	4f4a <_dtoa_r+0x1de>
    4f46:	f000 fec0 	bl	5cca <_dtoa_r+0xf5e>
    4f4a:	2201      	movs	r2, #1
    4f4c:	3304      	adds	r3, #4
    4f4e:	005b      	lsls	r3, r3, #1
    4f50:	0018      	movs	r0, r3
    4f52:	3014      	adds	r0, #20
    4f54:	0011      	movs	r1, r2
    4f56:	3201      	adds	r2, #1
    4f58:	42a8      	cmp	r0, r5
    4f5a:	d9f8      	bls.n	4f4e <_dtoa_r+0x1e2>
    4f5c:	4653      	mov	r3, sl
    4f5e:	63d9      	str	r1, [r3, #60]	; 0x3c
    4f60:	4650      	mov	r0, sl
    4f62:	f002 fd13 	bl	798c <_Balloc>
    4f66:	9003      	str	r0, [sp, #12]
    4f68:	2800      	cmp	r0, #0
    4f6a:	d101      	bne.n	4f70 <_dtoa_r+0x204>
    4f6c:	f000 feb0 	bl	5cd0 <_dtoa_r+0xf64>
    4f70:	4653      	mov	r3, sl
    4f72:	9a03      	ldr	r2, [sp, #12]
    4f74:	639a      	str	r2, [r3, #56]	; 0x38
    4f76:	9b06      	ldr	r3, [sp, #24]
    4f78:	2b0e      	cmp	r3, #14
    4f7a:	d900      	bls.n	4f7e <_dtoa_r+0x212>
    4f7c:	e0e4      	b.n	5148 <_dtoa_r+0x3dc>
    4f7e:	2c00      	cmp	r4, #0
    4f80:	d100      	bne.n	4f84 <_dtoa_r+0x218>
    4f82:	e0e1      	b.n	5148 <_dtoa_r+0x3dc>
    4f84:	9808      	ldr	r0, [sp, #32]
    4f86:	2800      	cmp	r0, #0
    4f88:	dc01      	bgt.n	4f8e <_dtoa_r+0x222>
    4f8a:	f000 fcfd 	bl	5988 <_dtoa_r+0xc1c>
    4f8e:	210f      	movs	r1, #15
    4f90:	0002      	movs	r2, r0
    4f92:	4b61      	ldr	r3, [pc, #388]	; (5118 <_dtoa_r+0x3ac>)
    4f94:	400a      	ands	r2, r1
    4f96:	00d2      	lsls	r2, r2, #3
    4f98:	189b      	adds	r3, r3, r2
    4f9a:	1106      	asrs	r6, r0, #4
    4f9c:	681c      	ldr	r4, [r3, #0]
    4f9e:	685d      	ldr	r5, [r3, #4]
    4fa0:	05c3      	lsls	r3, r0, #23
    4fa2:	d501      	bpl.n	4fa8 <_dtoa_r+0x23c>
    4fa4:	f000 fbf8 	bl	5798 <_dtoa_r+0xa2c>
    4fa8:	9a0a      	ldr	r2, [sp, #40]	; 0x28
    4faa:	9b0b      	ldr	r3, [sp, #44]	; 0x2c
    4fac:	9210      	str	r2, [sp, #64]	; 0x40
    4fae:	9311      	str	r3, [sp, #68]	; 0x44
    4fb0:	2302      	movs	r3, #2
    4fb2:	4698      	mov	r8, r3
    4fb4:	2e00      	cmp	r6, #0
    4fb6:	d011      	beq.n	4fdc <_dtoa_r+0x270>
    4fb8:	4f58      	ldr	r7, [pc, #352]	; (511c <_dtoa_r+0x3b0>)
    4fba:	2301      	movs	r3, #1
    4fbc:	4233      	tst	r3, r6
    4fbe:	d009      	beq.n	4fd4 <_dtoa_r+0x268>
    4fc0:	469c      	mov	ip, r3
    4fc2:	683a      	ldr	r2, [r7, #0]
    4fc4:	687b      	ldr	r3, [r7, #4]
    4fc6:	0020      	movs	r0, r4
    4fc8:	0029      	movs	r1, r5
    4fca:	44e0      	add	r8, ip
    4fcc:	f005 fe7e 	bl	accc <__aeabi_dmul>
    4fd0:	0004      	movs	r4, r0
    4fd2:	000d      	movs	r5, r1
    4fd4:	1076      	asrs	r6, r6, #1
    4fd6:	3708      	adds	r7, #8
    4fd8:	2e00      	cmp	r6, #0
    4fda:	d1ee      	bne.n	4fba <_dtoa_r+0x24e>
    4fdc:	9810      	ldr	r0, [sp, #64]	; 0x40
    4fde:	9911      	ldr	r1, [sp, #68]	; 0x44
    4fe0:	0022      	movs	r2, r4
    4fe2:	002b      	movs	r3, r5
    4fe4:	f005 fa78 	bl	a4d8 <__aeabi_ddiv>
    4fe8:	0006      	movs	r6, r0
    4fea:	000f      	movs	r7, r1
    4fec:	9b0e      	ldr	r3, [sp, #56]	; 0x38
    4fee:	2b00      	cmp	r3, #0
    4ff0:	d009      	beq.n	5006 <_dtoa_r+0x29a>
    4ff2:	2200      	movs	r2, #0
    4ff4:	0030      	movs	r0, r6
    4ff6:	0039      	movs	r1, r7
    4ff8:	4b49      	ldr	r3, [pc, #292]	; (5120 <_dtoa_r+0x3b4>)
    4ffa:	f004 f8f9 	bl	91f0 <__aeabi_dcmplt>
    4ffe:	2800      	cmp	r0, #0
    5000:	d001      	beq.n	5006 <_dtoa_r+0x29a>
    5002:	f000 fbf1 	bl	57e8 <_dtoa_r+0xa7c>
    5006:	4640      	mov	r0, r8
    5008:	f006 fcf8 	bl	b9fc <__aeabi_i2d>
    500c:	0032      	movs	r2, r6
    500e:	003b      	movs	r3, r7
    5010:	f005 fe5c 	bl	accc <__aeabi_dmul>
    5014:	2200      	movs	r2, #0
    5016:	4b43      	ldr	r3, [pc, #268]	; (5124 <_dtoa_r+0x3b8>)
    5018:	f004 fefe 	bl	9e18 <__aeabi_dadd>
    501c:	4a42      	ldr	r2, [pc, #264]	; (5128 <_dtoa_r+0x3bc>)
    501e:	000b      	movs	r3, r1
    5020:	4694      	mov	ip, r2
    5022:	4463      	add	r3, ip
    5024:	9012      	str	r0, [sp, #72]	; 0x48
    5026:	9113      	str	r1, [sp, #76]	; 0x4c
    5028:	9313      	str	r3, [sp, #76]	; 0x4c
    502a:	9b08      	ldr	r3, [sp, #32]
    502c:	9315      	str	r3, [sp, #84]	; 0x54
    502e:	9b06      	ldr	r3, [sp, #24]
    5030:	9310      	str	r3, [sp, #64]	; 0x40
    5032:	2b00      	cmp	r3, #0
    5034:	d001      	beq.n	503a <_dtoa_r+0x2ce>
    5036:	f000 fbfe 	bl	5836 <_dtoa_r+0xaca>
    503a:	2200      	movs	r2, #0
    503c:	0030      	movs	r0, r6
    503e:	0039      	movs	r1, r7
    5040:	4b3a      	ldr	r3, [pc, #232]	; (512c <_dtoa_r+0x3c0>)
    5042:	f006 f905 	bl	b250 <__aeabi_dsub>
    5046:	9e12      	ldr	r6, [sp, #72]	; 0x48
    5048:	9f13      	ldr	r7, [sp, #76]	; 0x4c
    504a:	0032      	movs	r2, r6
    504c:	003b      	movs	r3, r7
    504e:	0004      	movs	r4, r0
    5050:	000d      	movs	r5, r1
    5052:	f004 f8e1 	bl	9218 <__aeabi_dcmpgt>
    5056:	2800      	cmp	r0, #0
    5058:	d001      	beq.n	505e <_dtoa_r+0x2f2>
    505a:	f000 fdd4 	bl	5c06 <_dtoa_r+0xe9a>
    505e:	2080      	movs	r0, #128	; 0x80
    5060:	0600      	lsls	r0, r0, #24
    5062:	4684      	mov	ip, r0
    5064:	0039      	movs	r1, r7
    5066:	4461      	add	r1, ip
    5068:	000b      	movs	r3, r1
    506a:	0032      	movs	r2, r6
    506c:	0020      	movs	r0, r4
    506e:	0029      	movs	r1, r5
    5070:	f004 f8be 	bl	91f0 <__aeabi_dcmplt>
    5074:	2800      	cmp	r0, #0
    5076:	d067      	beq.n	5148 <_dtoa_r+0x3dc>
    5078:	2300      	movs	r3, #0
    507a:	2700      	movs	r7, #0
    507c:	4699      	mov	r9, r3
    507e:	e08c      	b.n	519a <_dtoa_r+0x42e>
    5080:	2301      	movs	r3, #1
    5082:	006f      	lsls	r7, r5, #1
    5084:	087f      	lsrs	r7, r7, #1
    5086:	003a      	movs	r2, r7
    5088:	6033      	str	r3, [r6, #0]
    508a:	4b17      	ldr	r3, [pc, #92]	; (50e8 <_dtoa_r+0x37c>)
    508c:	9705      	str	r7, [sp, #20]
    508e:	401a      	ands	r2, r3
    5090:	429a      	cmp	r2, r3
    5092:	d000      	beq.n	5096 <_dtoa_r+0x32a>
    5094:	e68f      	b.n	4db6 <_dtoa_r+0x4a>
    5096:	4b26      	ldr	r3, [pc, #152]	; (5130 <_dtoa_r+0x3c4>)
    5098:	9a26      	ldr	r2, [sp, #152]	; 0x98
    509a:	6013      	str	r3, [r2, #0]
    509c:	033b      	lsls	r3, r7, #12
    509e:	0b1b      	lsrs	r3, r3, #12
    50a0:	4323      	orrs	r3, r4
    50a2:	d11a      	bne.n	50da <_dtoa_r+0x36e>
    50a4:	9b28      	ldr	r3, [sp, #160]	; 0xa0
    50a6:	2b00      	cmp	r3, #0
    50a8:	d101      	bne.n	50ae <_dtoa_r+0x342>
    50aa:	f000 fe0a 	bl	5cc2 <_dtoa_r+0xf56>
    50ae:	4b21      	ldr	r3, [pc, #132]	; (5134 <_dtoa_r+0x3c8>)
    50b0:	9303      	str	r3, [sp, #12]
    50b2:	3308      	adds	r3, #8
    50b4:	9a28      	ldr	r2, [sp, #160]	; 0xa0
    50b6:	6013      	str	r3, [r2, #0]
    50b8:	e695      	b.n	4de6 <_dtoa_r+0x7a>
    50ba:	9b0a      	ldr	r3, [sp, #40]	; 0x28
    50bc:	9c0b      	ldr	r4, [sp, #44]	; 0x2c
    50be:	4a18      	ldr	r2, [pc, #96]	; (5120 <_dtoa_r+0x3b4>)
    50c0:	0018      	movs	r0, r3
    50c2:	0323      	lsls	r3, r4, #12
    50c4:	0b1b      	lsrs	r3, r3, #12
    50c6:	431a      	orrs	r2, r3
    50c8:	4b1b      	ldr	r3, [pc, #108]	; (5138 <_dtoa_r+0x3cc>)
    50ca:	0011      	movs	r1, r2
    50cc:	469c      	mov	ip, r3
    50ce:	9b18      	ldr	r3, [sp, #96]	; 0x60
    50d0:	4466      	add	r6, ip
    50d2:	4698      	mov	r8, r3
    50d4:	2300      	movs	r3, #0
    50d6:	930f      	str	r3, [sp, #60]	; 0x3c
    50d8:	e6b2      	b.n	4e40 <_dtoa_r+0xd4>
    50da:	9b28      	ldr	r3, [sp, #160]	; 0xa0
    50dc:	2b00      	cmp	r3, #0
    50de:	d000      	beq.n	50e2 <_dtoa_r+0x376>
    50e0:	e2e7      	b.n	56b2 <_dtoa_r+0x946>
    50e2:	4b16      	ldr	r3, [pc, #88]	; (513c <_dtoa_r+0x3d0>)
    50e4:	9303      	str	r3, [sp, #12]
    50e6:	e67e      	b.n	4de6 <_dtoa_r+0x7a>
    50e8:	7ff00000 	.word	0x7ff00000
    50ec:	0000c519 	.word	0x0000c519
    50f0:	00000432 	.word	0x00000432
    50f4:	00000412 	.word	0x00000412
    50f8:	fe100000 	.word	0xfe100000
    50fc:	3ff80000 	.word	0x3ff80000
    5100:	636f4361 	.word	0x636f4361
    5104:	3fd287a7 	.word	0x3fd287a7
    5108:	8b60c8b3 	.word	0x8b60c8b3
    510c:	3fc68a28 	.word	0x3fc68a28
    5110:	509f79fb 	.word	0x509f79fb
    5114:	3fd34413 	.word	0x3fd34413
    5118:	0000c8d0 	.word	0x0000c8d0
    511c:	0000c8a8 	.word	0x0000c8a8
    5120:	3ff00000 	.word	0x3ff00000
    5124:	401c0000 	.word	0x401c0000
    5128:	fcc00000 	.word	0xfcc00000
    512c:	40140000 	.word	0x40140000
    5130:	0000270f 	.word	0x0000270f
    5134:	0000c508 	.word	0x0000c508
    5138:	fffffc01 	.word	0xfffffc01
    513c:	0000c514 	.word	0x0000c514
    5140:	9b17      	ldr	r3, [sp, #92]	; 0x5c
    5142:	4699      	mov	r9, r3
    5144:	9b16      	ldr	r3, [sp, #88]	; 0x58
    5146:	469b      	mov	fp, r3
    5148:	9b19      	ldr	r3, [sp, #100]	; 0x64
    514a:	2b00      	cmp	r3, #0
    514c:	da00      	bge.n	5150 <_dtoa_r+0x3e4>
    514e:	e08b      	b.n	5268 <_dtoa_r+0x4fc>
    5150:	9a08      	ldr	r2, [sp, #32]
    5152:	2a0e      	cmp	r2, #14
    5154:	dd00      	ble.n	5158 <_dtoa_r+0x3ec>
    5156:	e087      	b.n	5268 <_dtoa_r+0x4fc>
    5158:	4bcb      	ldr	r3, [pc, #812]	; (5488 <_dtoa_r+0x71c>)
    515a:	00d2      	lsls	r2, r2, #3
    515c:	189b      	adds	r3, r3, r2
    515e:	681e      	ldr	r6, [r3, #0]
    5160:	685f      	ldr	r7, [r3, #4]
    5162:	9b25      	ldr	r3, [sp, #148]	; 0x94
    5164:	2b00      	cmp	r3, #0
    5166:	da1c      	bge.n	51a2 <_dtoa_r+0x436>
    5168:	9b06      	ldr	r3, [sp, #24]
    516a:	2b00      	cmp	r3, #0
    516c:	dc19      	bgt.n	51a2 <_dtoa_r+0x436>
    516e:	9b06      	ldr	r3, [sp, #24]
    5170:	2b00      	cmp	r3, #0
    5172:	d000      	beq.n	5176 <_dtoa_r+0x40a>
    5174:	e780      	b.n	5078 <_dtoa_r+0x30c>
    5176:	2200      	movs	r2, #0
    5178:	0039      	movs	r1, r7
    517a:	4bc4      	ldr	r3, [pc, #784]	; (548c <_dtoa_r+0x720>)
    517c:	0030      	movs	r0, r6
    517e:	f005 fda5 	bl	accc <__aeabi_dmul>
    5182:	000b      	movs	r3, r1
    5184:	0002      	movs	r2, r0
    5186:	980a      	ldr	r0, [sp, #40]	; 0x28
    5188:	990b      	ldr	r1, [sp, #44]	; 0x2c
    518a:	f004 f83b 	bl	9204 <__aeabi_dcmple>
    518e:	2300      	movs	r3, #0
    5190:	2700      	movs	r7, #0
    5192:	4699      	mov	r9, r3
    5194:	2800      	cmp	r0, #0
    5196:	d100      	bne.n	519a <_dtoa_r+0x42e>
    5198:	e2bd      	b.n	5716 <_dtoa_r+0x9aa>
    519a:	9b25      	ldr	r3, [sp, #148]	; 0x94
    519c:	9d03      	ldr	r5, [sp, #12]
    519e:	43dc      	mvns	r4, r3
    51a0:	e2c1      	b.n	5726 <_dtoa_r+0x9ba>
    51a2:	0032      	movs	r2, r6
    51a4:	9c0a      	ldr	r4, [sp, #40]	; 0x28
    51a6:	9d0b      	ldr	r5, [sp, #44]	; 0x2c
    51a8:	003b      	movs	r3, r7
    51aa:	0020      	movs	r0, r4
    51ac:	0029      	movs	r1, r5
    51ae:	f005 f993 	bl	a4d8 <__aeabi_ddiv>
    51b2:	f006 fbed 	bl	b990 <__aeabi_d2iz>
    51b6:	4681      	mov	r9, r0
    51b8:	f006 fc20 	bl	b9fc <__aeabi_i2d>
    51bc:	0032      	movs	r2, r6
    51be:	003b      	movs	r3, r7
    51c0:	f005 fd84 	bl	accc <__aeabi_dmul>
    51c4:	0002      	movs	r2, r0
    51c6:	000b      	movs	r3, r1
    51c8:	0020      	movs	r0, r4
    51ca:	0029      	movs	r1, r5
    51cc:	f006 f840 	bl	b250 <__aeabi_dsub>
    51d0:	9a03      	ldr	r2, [sp, #12]
    51d2:	1c53      	adds	r3, r2, #1
    51d4:	4698      	mov	r8, r3
    51d6:	464b      	mov	r3, r9
    51d8:	3330      	adds	r3, #48	; 0x30
    51da:	7013      	strb	r3, [r2, #0]
    51dc:	9b06      	ldr	r3, [sp, #24]
    51de:	2b01      	cmp	r3, #1
    51e0:	d101      	bne.n	51e6 <_dtoa_r+0x47a>
    51e2:	f000 fc42 	bl	5a6a <_dtoa_r+0xcfe>
    51e6:	3a01      	subs	r2, #1
    51e8:	2301      	movs	r3, #1
    51ea:	9204      	str	r2, [sp, #16]
    51ec:	4652      	mov	r2, sl
    51ee:	46c2      	mov	sl, r8
    51f0:	9207      	str	r2, [sp, #28]
    51f2:	4698      	mov	r8, r3
    51f4:	e024      	b.n	5240 <_dtoa_r+0x4d4>
    51f6:	2301      	movs	r3, #1
    51f8:	469c      	mov	ip, r3
    51fa:	0032      	movs	r2, r6
    51fc:	003b      	movs	r3, r7
    51fe:	0020      	movs	r0, r4
    5200:	0029      	movs	r1, r5
    5202:	44e0      	add	r8, ip
    5204:	f005 f968 	bl	a4d8 <__aeabi_ddiv>
    5208:	f006 fbc2 	bl	b990 <__aeabi_d2iz>
    520c:	4681      	mov	r9, r0
    520e:	f006 fbf5 	bl	b9fc <__aeabi_i2d>
    5212:	0032      	movs	r2, r6
    5214:	003b      	movs	r3, r7
    5216:	f005 fd59 	bl	accc <__aeabi_dmul>
    521a:	0002      	movs	r2, r0
    521c:	000b      	movs	r3, r1
    521e:	0020      	movs	r0, r4
    5220:	0029      	movs	r1, r5
    5222:	f006 f815 	bl	b250 <__aeabi_dsub>
    5226:	2301      	movs	r3, #1
    5228:	469c      	mov	ip, r3
    522a:	464b      	mov	r3, r9
    522c:	4644      	mov	r4, r8
    522e:	9a04      	ldr	r2, [sp, #16]
    5230:	3330      	adds	r3, #48	; 0x30
    5232:	5513      	strb	r3, [r2, r4]
    5234:	9b06      	ldr	r3, [sp, #24]
    5236:	44e2      	add	sl, ip
    5238:	4543      	cmp	r3, r8
    523a:	d101      	bne.n	5240 <_dtoa_r+0x4d4>
    523c:	f000 fc12 	bl	5a64 <_dtoa_r+0xcf8>
    5240:	2200      	movs	r2, #0
    5242:	4b93      	ldr	r3, [pc, #588]	; (5490 <_dtoa_r+0x724>)
    5244:	f005 fd42 	bl	accc <__aeabi_dmul>
    5248:	2200      	movs	r2, #0
    524a:	2300      	movs	r3, #0
    524c:	0004      	movs	r4, r0
    524e:	000d      	movs	r5, r1
    5250:	f003 ffc8 	bl	91e4 <__aeabi_dcmpeq>
    5254:	2800      	cmp	r0, #0
    5256:	d0ce      	beq.n	51f6 <_dtoa_r+0x48a>
    5258:	9b07      	ldr	r3, [sp, #28]
    525a:	46d0      	mov	r8, sl
    525c:	469a      	mov	sl, r3
    525e:	9b08      	ldr	r3, [sp, #32]
    5260:	4644      	mov	r4, r8
    5262:	3301      	adds	r3, #1
    5264:	9308      	str	r3, [sp, #32]
    5266:	e134      	b.n	54d2 <_dtoa_r+0x766>
    5268:	9a0d      	ldr	r2, [sp, #52]	; 0x34
    526a:	2a00      	cmp	r2, #0
    526c:	d068      	beq.n	5340 <_dtoa_r+0x5d4>
    526e:	9a24      	ldr	r2, [sp, #144]	; 0x90
    5270:	2a01      	cmp	r2, #1
    5272:	dc00      	bgt.n	5276 <_dtoa_r+0x50a>
    5274:	e2a4      	b.n	57c0 <_dtoa_r+0xa54>
    5276:	9b06      	ldr	r3, [sp, #24]
    5278:	1e5d      	subs	r5, r3, #1
    527a:	464b      	mov	r3, r9
    527c:	45a9      	cmp	r9, r5
    527e:	db00      	blt.n	5282 <_dtoa_r+0x516>
    5280:	e276      	b.n	5770 <_dtoa_r+0xa04>
    5282:	9a07      	ldr	r2, [sp, #28]
    5284:	1aeb      	subs	r3, r5, r3
    5286:	4694      	mov	ip, r2
    5288:	449c      	add	ip, r3
    528a:	4663      	mov	r3, ip
    528c:	46a9      	mov	r9, r5
    528e:	2500      	movs	r5, #0
    5290:	9307      	str	r3, [sp, #28]
    5292:	990c      	ldr	r1, [sp, #48]	; 0x30
    5294:	9b06      	ldr	r3, [sp, #24]
    5296:	1acc      	subs	r4, r1, r3
    5298:	2b00      	cmp	r3, #0
    529a:	db06      	blt.n	52aa <_dtoa_r+0x53e>
    529c:	469c      	mov	ip, r3
    529e:	9809      	ldr	r0, [sp, #36]	; 0x24
    52a0:	000c      	movs	r4, r1
    52a2:	4460      	add	r0, ip
    52a4:	4461      	add	r1, ip
    52a6:	9009      	str	r0, [sp, #36]	; 0x24
    52a8:	910c      	str	r1, [sp, #48]	; 0x30
    52aa:	2101      	movs	r1, #1
    52ac:	4650      	mov	r0, sl
    52ae:	f002 fc95 	bl	7bdc <__i2b>
    52b2:	0007      	movs	r7, r0
    52b4:	e047      	b.n	5346 <_dtoa_r+0x5da>
    52b6:	4643      	mov	r3, r8
    52b8:	1b9f      	subs	r7, r3, r6
    52ba:	1e7b      	subs	r3, r7, #1
    52bc:	d500      	bpl.n	52c0 <_dtoa_r+0x554>
    52be:	e397      	b.n	59f0 <_dtoa_r+0xc84>
    52c0:	9309      	str	r3, [sp, #36]	; 0x24
    52c2:	2300      	movs	r3, #0
    52c4:	930e      	str	r3, [sp, #56]	; 0x38
    52c6:	930c      	str	r3, [sp, #48]	; 0x30
    52c8:	9a07      	ldr	r2, [sp, #28]
    52ca:	9b09      	ldr	r3, [sp, #36]	; 0x24
    52cc:	4694      	mov	ip, r2
    52ce:	4463      	add	r3, ip
    52d0:	9309      	str	r3, [sp, #36]	; 0x24
    52d2:	2300      	movs	r3, #0
    52d4:	4699      	mov	r9, r3
    52d6:	9b24      	ldr	r3, [sp, #144]	; 0x90
    52d8:	2401      	movs	r4, #1
    52da:	9208      	str	r2, [sp, #32]
    52dc:	2b09      	cmp	r3, #9
    52de:	d800      	bhi.n	52e2 <_dtoa_r+0x576>
    52e0:	e610      	b.n	4f04 <_dtoa_r+0x198>
    52e2:	2201      	movs	r2, #1
    52e4:	2300      	movs	r3, #0
    52e6:	920d      	str	r2, [sp, #52]	; 0x34
    52e8:	3a02      	subs	r2, #2
    52ea:	9324      	str	r3, [sp, #144]	; 0x90
    52ec:	9206      	str	r2, [sp, #24]
    52ee:	9325      	str	r3, [sp, #148]	; 0x94
    52f0:	2300      	movs	r3, #0
    52f2:	4652      	mov	r2, sl
    52f4:	63d3      	str	r3, [r2, #60]	; 0x3c
    52f6:	9b06      	ldr	r3, [sp, #24]
    52f8:	2100      	movs	r1, #0
    52fa:	9314      	str	r3, [sp, #80]	; 0x50
    52fc:	e630      	b.n	4f60 <_dtoa_r+0x1f4>
    52fe:	2301      	movs	r3, #1
    5300:	930e      	str	r3, [sp, #56]	; 0x38
    5302:	4643      	mov	r3, r8
    5304:	1b9f      	subs	r7, r3, r6
    5306:	2300      	movs	r3, #0
    5308:	930c      	str	r3, [sp, #48]	; 0x30
    530a:	1e7b      	subs	r3, r7, #1
    530c:	d400      	bmi.n	5310 <_dtoa_r+0x5a4>
    530e:	e5e6      	b.n	4ede <_dtoa_r+0x172>
    5310:	2301      	movs	r3, #1
    5312:	1bdb      	subs	r3, r3, r7
    5314:	930c      	str	r3, [sp, #48]	; 0x30
    5316:	2300      	movs	r3, #0
    5318:	9309      	str	r3, [sp, #36]	; 0x24
    531a:	e5e1      	b.n	4ee0 <_dtoa_r+0x174>
    531c:	2300      	movs	r3, #0
    531e:	930d      	str	r3, [sp, #52]	; 0x34
    5320:	9b24      	ldr	r3, [sp, #144]	; 0x90
    5322:	2b02      	cmp	r3, #2
    5324:	d001      	beq.n	532a <_dtoa_r+0x5be>
    5326:	f000 fcb6 	bl	5c96 <_dtoa_r+0xf2a>
    532a:	9b25      	ldr	r3, [sp, #148]	; 0x94
    532c:	2b00      	cmp	r3, #0
    532e:	dc00      	bgt.n	5332 <_dtoa_r+0x5c6>
    5330:	e1c3      	b.n	56ba <_dtoa_r+0x94e>
    5332:	001d      	movs	r5, r3
    5334:	9314      	str	r3, [sp, #80]	; 0x50
    5336:	9306      	str	r3, [sp, #24]
    5338:	e600      	b.n	4f3c <_dtoa_r+0x1d0>
    533a:	4b56      	ldr	r3, [pc, #344]	; (5494 <_dtoa_r+0x728>)
    533c:	9303      	str	r3, [sp, #12]
    533e:	e552      	b.n	4de6 <_dtoa_r+0x7a>
    5340:	464d      	mov	r5, r9
    5342:	2700      	movs	r7, #0
    5344:	9c0c      	ldr	r4, [sp, #48]	; 0x30
    5346:	2c00      	cmp	r4, #0
    5348:	d00d      	beq.n	5366 <_dtoa_r+0x5fa>
    534a:	9a09      	ldr	r2, [sp, #36]	; 0x24
    534c:	2a00      	cmp	r2, #0
    534e:	dd0a      	ble.n	5366 <_dtoa_r+0x5fa>
    5350:	0023      	movs	r3, r4
    5352:	4294      	cmp	r4, r2
    5354:	dd00      	ble.n	5358 <_dtoa_r+0x5ec>
    5356:	e209      	b.n	576c <_dtoa_r+0xa00>
    5358:	9a0c      	ldr	r2, [sp, #48]	; 0x30
    535a:	1ae4      	subs	r4, r4, r3
    535c:	1ad2      	subs	r2, r2, r3
    535e:	920c      	str	r2, [sp, #48]	; 0x30
    5360:	9a09      	ldr	r2, [sp, #36]	; 0x24
    5362:	1ad3      	subs	r3, r2, r3
    5364:	9309      	str	r3, [sp, #36]	; 0x24
    5366:	464b      	mov	r3, r9
    5368:	2b00      	cmp	r3, #0
    536a:	d00b      	beq.n	5384 <_dtoa_r+0x618>
    536c:	9b0d      	ldr	r3, [sp, #52]	; 0x34
    536e:	2b00      	cmp	r3, #0
    5370:	d100      	bne.n	5374 <_dtoa_r+0x608>
    5372:	e1a6      	b.n	56c2 <_dtoa_r+0x956>
    5374:	2d00      	cmp	r5, #0
    5376:	dd00      	ble.n	537a <_dtoa_r+0x60e>
    5378:	e1fc      	b.n	5774 <_dtoa_r+0xa08>
    537a:	464b      	mov	r3, r9
    537c:	1b5a      	subs	r2, r3, r5
    537e:	45a9      	cmp	r9, r5
    5380:	d000      	beq.n	5384 <_dtoa_r+0x618>
    5382:	e19f      	b.n	56c4 <_dtoa_r+0x958>
    5384:	2101      	movs	r1, #1
    5386:	4650      	mov	r0, sl
    5388:	f002 fc28 	bl	7bdc <__i2b>
    538c:	9a07      	ldr	r2, [sp, #28]
    538e:	4681      	mov	r9, r0
    5390:	2a00      	cmp	r2, #0
    5392:	dd00      	ble.n	5396 <_dtoa_r+0x62a>
    5394:	e0c2      	b.n	551c <_dtoa_r+0x7b0>
    5396:	9b24      	ldr	r3, [sp, #144]	; 0x90
    5398:	2500      	movs	r5, #0
    539a:	2b01      	cmp	r3, #1
    539c:	dc00      	bgt.n	53a0 <_dtoa_r+0x634>
    539e:	e199      	b.n	56d4 <_dtoa_r+0x968>
    53a0:	9a07      	ldr	r2, [sp, #28]
    53a2:	2301      	movs	r3, #1
    53a4:	2a00      	cmp	r2, #0
    53a6:	d000      	beq.n	53aa <_dtoa_r+0x63e>
    53a8:	e0c2      	b.n	5530 <_dtoa_r+0x7c4>
    53aa:	9a09      	ldr	r2, [sp, #36]	; 0x24
    53ac:	4694      	mov	ip, r2
    53ae:	221f      	movs	r2, #31
    53b0:	0011      	movs	r1, r2
    53b2:	4463      	add	r3, ip
    53b4:	4019      	ands	r1, r3
    53b6:	421a      	tst	r2, r3
    53b8:	d100      	bne.n	53bc <_dtoa_r+0x650>
    53ba:	e189      	b.n	56d0 <_dtoa_r+0x964>
    53bc:	2320      	movs	r3, #32
    53be:	1a5b      	subs	r3, r3, r1
    53c0:	2b04      	cmp	r3, #4
    53c2:	dd00      	ble.n	53c6 <_dtoa_r+0x65a>
    53c4:	e094      	b.n	54f0 <_dtoa_r+0x784>
    53c6:	d000      	beq.n	53ca <_dtoa_r+0x65e>
    53c8:	e1f4      	b.n	57b4 <_dtoa_r+0xa48>
    53ca:	9b0c      	ldr	r3, [sp, #48]	; 0x30
    53cc:	2b00      	cmp	r3, #0
    53ce:	dd05      	ble.n	53dc <_dtoa_r+0x670>
    53d0:	4659      	mov	r1, fp
    53d2:	001a      	movs	r2, r3
    53d4:	4650      	mov	r0, sl
    53d6:	f002 fd6d 	bl	7eb4 <__lshift>
    53da:	4683      	mov	fp, r0
    53dc:	9b09      	ldr	r3, [sp, #36]	; 0x24
    53de:	2b00      	cmp	r3, #0
    53e0:	dd05      	ble.n	53ee <_dtoa_r+0x682>
    53e2:	4649      	mov	r1, r9
    53e4:	001a      	movs	r2, r3
    53e6:	4650      	mov	r0, sl
    53e8:	f002 fd64 	bl	7eb4 <__lshift>
    53ec:	4681      	mov	r9, r0
    53ee:	9b0e      	ldr	r3, [sp, #56]	; 0x38
    53f0:	2b00      	cmp	r3, #0
    53f2:	d000      	beq.n	53f6 <_dtoa_r+0x68a>
    53f4:	e144      	b.n	5680 <_dtoa_r+0x914>
    53f6:	9b06      	ldr	r3, [sp, #24]
    53f8:	2b00      	cmp	r3, #0
    53fa:	dc00      	bgt.n	53fe <_dtoa_r+0x692>
    53fc:	e12a      	b.n	5654 <_dtoa_r+0x8e8>
    53fe:	9b0d      	ldr	r3, [sp, #52]	; 0x34
    5400:	2b00      	cmp	r3, #0
    5402:	d000      	beq.n	5406 <_dtoa_r+0x69a>
    5404:	e0ac      	b.n	5560 <_dtoa_r+0x7f4>
    5406:	9b08      	ldr	r3, [sp, #32]
    5408:	3301      	adds	r3, #1
    540a:	9308      	str	r3, [sp, #32]
    540c:	9b03      	ldr	r3, [sp, #12]
    540e:	9a06      	ldr	r2, [sp, #24]
    5410:	1e5d      	subs	r5, r3, #1
    5412:	464b      	mov	r3, r9
    5414:	46a8      	mov	r8, r5
    5416:	46b9      	mov	r9, r7
    5418:	4655      	mov	r5, sl
    541a:	2401      	movs	r4, #1
    541c:	465e      	mov	r6, fp
    541e:	4692      	mov	sl, r2
    5420:	001f      	movs	r7, r3
    5422:	e007      	b.n	5434 <_dtoa_r+0x6c8>
    5424:	0031      	movs	r1, r6
    5426:	2300      	movs	r3, #0
    5428:	220a      	movs	r2, #10
    542a:	0028      	movs	r0, r5
    542c:	f002 fae0 	bl	79f0 <__multadd>
    5430:	0006      	movs	r6, r0
    5432:	3401      	adds	r4, #1
    5434:	0039      	movs	r1, r7
    5436:	0030      	movs	r0, r6
    5438:	f7ff fbf6 	bl	4c28 <quorem>
    543c:	4643      	mov	r3, r8
    543e:	3030      	adds	r0, #48	; 0x30
    5440:	5518      	strb	r0, [r3, r4]
    5442:	4554      	cmp	r4, sl
    5444:	dbee      	blt.n	5424 <_dtoa_r+0x6b8>
    5446:	003b      	movs	r3, r7
    5448:	464f      	mov	r7, r9
    544a:	4699      	mov	r9, r3
    544c:	9b06      	ldr	r3, [sp, #24]
    544e:	46b3      	mov	fp, r6
    5450:	46aa      	mov	sl, r5
    5452:	2401      	movs	r4, #1
    5454:	9007      	str	r0, [sp, #28]
    5456:	2b00      	cmp	r3, #0
    5458:	dd00      	ble.n	545c <_dtoa_r+0x6f0>
    545a:	001c      	movs	r4, r3
    545c:	9b03      	ldr	r3, [sp, #12]
    545e:	2600      	movs	r6, #0
    5460:	469c      	mov	ip, r3
    5462:	4464      	add	r4, ip
    5464:	4659      	mov	r1, fp
    5466:	2201      	movs	r2, #1
    5468:	4650      	mov	r0, sl
    546a:	f002 fd23 	bl	7eb4 <__lshift>
    546e:	4649      	mov	r1, r9
    5470:	4683      	mov	fp, r0
    5472:	f002 fd9f 	bl	7fb4 <__mcmp>
    5476:	2800      	cmp	r0, #0
    5478:	dc00      	bgt.n	547c <_dtoa_r+0x710>
    547a:	e278      	b.n	596e <_dtoa_r+0xc02>
    547c:	1e65      	subs	r5, r4, #1
    547e:	782a      	ldrb	r2, [r5, #0]
    5480:	002b      	movs	r3, r5
    5482:	9903      	ldr	r1, [sp, #12]
    5484:	e00f      	b.n	54a6 <_dtoa_r+0x73a>
    5486:	46c0      	nop			; (mov r8, r8)
    5488:	0000c8d0 	.word	0x0000c8d0
    548c:	40140000 	.word	0x40140000
    5490:	40240000 	.word	0x40240000
    5494:	0000c518 	.word	0x0000c518
    5498:	3b01      	subs	r3, #1
    549a:	42a9      	cmp	r1, r5
    549c:	d100      	bne.n	54a0 <_dtoa_r+0x734>
    549e:	e25f      	b.n	5960 <_dtoa_r+0xbf4>
    54a0:	781a      	ldrb	r2, [r3, #0]
    54a2:	002c      	movs	r4, r5
    54a4:	3d01      	subs	r5, #1
    54a6:	2a39      	cmp	r2, #57	; 0x39
    54a8:	d0f6      	beq.n	5498 <_dtoa_r+0x72c>
    54aa:	3201      	adds	r2, #1
    54ac:	702a      	strb	r2, [r5, #0]
    54ae:	4649      	mov	r1, r9
    54b0:	4650      	mov	r0, sl
    54b2:	f002 fa93 	bl	79dc <_Bfree>
    54b6:	2f00      	cmp	r7, #0
    54b8:	d00b      	beq.n	54d2 <_dtoa_r+0x766>
    54ba:	2e00      	cmp	r6, #0
    54bc:	d005      	beq.n	54ca <_dtoa_r+0x75e>
    54be:	42be      	cmp	r6, r7
    54c0:	d003      	beq.n	54ca <_dtoa_r+0x75e>
    54c2:	0031      	movs	r1, r6
    54c4:	4650      	mov	r0, sl
    54c6:	f002 fa89 	bl	79dc <_Bfree>
    54ca:	0039      	movs	r1, r7
    54cc:	4650      	mov	r0, sl
    54ce:	f002 fa85 	bl	79dc <_Bfree>
    54d2:	4659      	mov	r1, fp
    54d4:	4650      	mov	r0, sl
    54d6:	f002 fa81 	bl	79dc <_Bfree>
    54da:	2300      	movs	r3, #0
    54dc:	9a08      	ldr	r2, [sp, #32]
    54de:	7023      	strb	r3, [r4, #0]
    54e0:	9b26      	ldr	r3, [sp, #152]	; 0x98
    54e2:	601a      	str	r2, [r3, #0]
    54e4:	9b28      	ldr	r3, [sp, #160]	; 0xa0
    54e6:	2b00      	cmp	r3, #0
    54e8:	d100      	bne.n	54ec <_dtoa_r+0x780>
    54ea:	e47c      	b.n	4de6 <_dtoa_r+0x7a>
    54ec:	601c      	str	r4, [r3, #0]
    54ee:	e47a      	b.n	4de6 <_dtoa_r+0x7a>
    54f0:	231c      	movs	r3, #28
    54f2:	1a5b      	subs	r3, r3, r1
    54f4:	9a0c      	ldr	r2, [sp, #48]	; 0x30
    54f6:	18e4      	adds	r4, r4, r3
    54f8:	4694      	mov	ip, r2
    54fa:	449c      	add	ip, r3
    54fc:	4662      	mov	r2, ip
    54fe:	920c      	str	r2, [sp, #48]	; 0x30
    5500:	9a09      	ldr	r2, [sp, #36]	; 0x24
    5502:	4694      	mov	ip, r2
    5504:	449c      	add	ip, r3
    5506:	4663      	mov	r3, ip
    5508:	9309      	str	r3, [sp, #36]	; 0x24
    550a:	e75e      	b.n	53ca <_dtoa_r+0x65e>
    550c:	2220      	movs	r2, #32
    550e:	0020      	movs	r0, r4
    5510:	1ad3      	subs	r3, r2, r3
    5512:	4098      	lsls	r0, r3
    5514:	e48d      	b.n	4e32 <_dtoa_r+0xc6>
    5516:	2301      	movs	r3, #1
    5518:	930d      	str	r3, [sp, #52]	; 0x34
    551a:	e706      	b.n	532a <_dtoa_r+0x5be>
    551c:	0001      	movs	r1, r0
    551e:	4650      	mov	r0, sl
    5520:	f002 fc5e 	bl	7de0 <__pow5mult>
    5524:	9b24      	ldr	r3, [sp, #144]	; 0x90
    5526:	4681      	mov	r9, r0
    5528:	2b01      	cmp	r3, #1
    552a:	dc00      	bgt.n	552e <_dtoa_r+0x7c2>
    552c:	e107      	b.n	573e <_dtoa_r+0x9d2>
    552e:	2500      	movs	r5, #0
    5530:	464b      	mov	r3, r9
    5532:	691b      	ldr	r3, [r3, #16]
    5534:	3303      	adds	r3, #3
    5536:	009b      	lsls	r3, r3, #2
    5538:	444b      	add	r3, r9
    553a:	6858      	ldr	r0, [r3, #4]
    553c:	f002 fb04 	bl	7b48 <__hi0bits>
    5540:	2320      	movs	r3, #32
    5542:	1a1b      	subs	r3, r3, r0
    5544:	e731      	b.n	53aa <_dtoa_r+0x63e>
    5546:	2300      	movs	r3, #0
    5548:	0039      	movs	r1, r7
    554a:	220a      	movs	r2, #10
    554c:	4650      	mov	r0, sl
    554e:	f002 fa4f 	bl	79f0 <__multadd>
    5552:	9b14      	ldr	r3, [sp, #80]	; 0x50
    5554:	0007      	movs	r7, r0
    5556:	2b00      	cmp	r3, #0
    5558:	dc00      	bgt.n	555c <_dtoa_r+0x7f0>
    555a:	e38a      	b.n	5c72 <_dtoa_r+0xf06>
    555c:	9608      	str	r6, [sp, #32]
    555e:	9306      	str	r3, [sp, #24]
    5560:	2c00      	cmp	r4, #0
    5562:	dd05      	ble.n	5570 <_dtoa_r+0x804>
    5564:	0039      	movs	r1, r7
    5566:	0022      	movs	r2, r4
    5568:	4650      	mov	r0, sl
    556a:	f002 fca3 	bl	7eb4 <__lshift>
    556e:	0007      	movs	r7, r0
    5570:	46b8      	mov	r8, r7
    5572:	2d00      	cmp	r5, #0
    5574:	d000      	beq.n	5578 <_dtoa_r+0x80c>
    5576:	e296      	b.n	5aa6 <_dtoa_r+0xd3a>
    5578:	9a06      	ldr	r2, [sp, #24]
    557a:	9b03      	ldr	r3, [sp, #12]
    557c:	4694      	mov	ip, r2
    557e:	001d      	movs	r5, r3
    5580:	3b01      	subs	r3, #1
    5582:	449c      	add	ip, r3
    5584:	4663      	mov	r3, ip
    5586:	9309      	str	r3, [sp, #36]	; 0x24
    5588:	2301      	movs	r3, #1
    558a:	002e      	movs	r6, r5
    558c:	465d      	mov	r5, fp
    558e:	46cb      	mov	fp, r9
    5590:	9a04      	ldr	r2, [sp, #16]
    5592:	401a      	ands	r2, r3
    5594:	9206      	str	r2, [sp, #24]
    5596:	4659      	mov	r1, fp
    5598:	0028      	movs	r0, r5
    559a:	f7ff fb45 	bl	4c28 <quorem>
    559e:	0003      	movs	r3, r0
    55a0:	0039      	movs	r1, r7
    55a2:	3330      	adds	r3, #48	; 0x30
    55a4:	900c      	str	r0, [sp, #48]	; 0x30
    55a6:	0028      	movs	r0, r5
    55a8:	9307      	str	r3, [sp, #28]
    55aa:	f002 fd03 	bl	7fb4 <__mcmp>
    55ae:	4659      	mov	r1, fp
    55b0:	0004      	movs	r4, r0
    55b2:	4642      	mov	r2, r8
    55b4:	4650      	mov	r0, sl
    55b6:	f002 fd17 	bl	7fe8 <__mdiff>
    55ba:	68c3      	ldr	r3, [r0, #12]
    55bc:	4681      	mov	r9, r0
    55be:	0001      	movs	r1, r0
    55c0:	2b00      	cmp	r3, #0
    55c2:	d13b      	bne.n	563c <_dtoa_r+0x8d0>
    55c4:	0028      	movs	r0, r5
    55c6:	f002 fcf5 	bl	7fb4 <__mcmp>
    55ca:	4649      	mov	r1, r9
    55cc:	9004      	str	r0, [sp, #16]
    55ce:	4650      	mov	r0, sl
    55d0:	f002 fa04 	bl	79dc <_Bfree>
    55d4:	9a24      	ldr	r2, [sp, #144]	; 0x90
    55d6:	9b04      	ldr	r3, [sp, #16]
    55d8:	4313      	orrs	r3, r2
    55da:	9a06      	ldr	r2, [sp, #24]
    55dc:	4313      	orrs	r3, r2
    55de:	d100      	bne.n	55e2 <_dtoa_r+0x876>
    55e0:	e315      	b.n	5c0e <_dtoa_r+0xea2>
    55e2:	2c00      	cmp	r4, #0
    55e4:	da00      	bge.n	55e8 <_dtoa_r+0x87c>
    55e6:	e21b      	b.n	5a20 <_dtoa_r+0xcb4>
    55e8:	9b24      	ldr	r3, [sp, #144]	; 0x90
    55ea:	431c      	orrs	r4, r3
    55ec:	9b06      	ldr	r3, [sp, #24]
    55ee:	431c      	orrs	r4, r3
    55f0:	d100      	bne.n	55f4 <_dtoa_r+0x888>
    55f2:	e215      	b.n	5a20 <_dtoa_r+0xcb4>
    55f4:	9b04      	ldr	r3, [sp, #16]
    55f6:	2b00      	cmp	r3, #0
    55f8:	dd00      	ble.n	55fc <_dtoa_r+0x890>
    55fa:	e2dc      	b.n	5bb6 <_dtoa_r+0xe4a>
    55fc:	9a07      	ldr	r2, [sp, #28]
    55fe:	1c74      	adds	r4, r6, #1
    5600:	7032      	strb	r2, [r6, #0]
    5602:	9a09      	ldr	r2, [sp, #36]	; 0x24
    5604:	42b2      	cmp	r2, r6
    5606:	d100      	bne.n	560a <_dtoa_r+0x89e>
    5608:	e2df      	b.n	5bca <_dtoa_r+0xe5e>
    560a:	0029      	movs	r1, r5
    560c:	2300      	movs	r3, #0
    560e:	220a      	movs	r2, #10
    5610:	4650      	mov	r0, sl
    5612:	f002 f9ed 	bl	79f0 <__multadd>
    5616:	2300      	movs	r3, #0
    5618:	0005      	movs	r5, r0
    561a:	220a      	movs	r2, #10
    561c:	0039      	movs	r1, r7
    561e:	4650      	mov	r0, sl
    5620:	4547      	cmp	r7, r8
    5622:	d011      	beq.n	5648 <_dtoa_r+0x8dc>
    5624:	f002 f9e4 	bl	79f0 <__multadd>
    5628:	4641      	mov	r1, r8
    562a:	0007      	movs	r7, r0
    562c:	2300      	movs	r3, #0
    562e:	220a      	movs	r2, #10
    5630:	4650      	mov	r0, sl
    5632:	f002 f9dd 	bl	79f0 <__multadd>
    5636:	0026      	movs	r6, r4
    5638:	4680      	mov	r8, r0
    563a:	e7ac      	b.n	5596 <_dtoa_r+0x82a>
    563c:	4650      	mov	r0, sl
    563e:	f002 f9cd 	bl	79dc <_Bfree>
    5642:	2301      	movs	r3, #1
    5644:	9304      	str	r3, [sp, #16]
    5646:	e7cc      	b.n	55e2 <_dtoa_r+0x876>
    5648:	f002 f9d2 	bl	79f0 <__multadd>
    564c:	0026      	movs	r6, r4
    564e:	0007      	movs	r7, r0
    5650:	4680      	mov	r8, r0
    5652:	e7a0      	b.n	5596 <_dtoa_r+0x82a>
    5654:	9b24      	ldr	r3, [sp, #144]	; 0x90
    5656:	2b02      	cmp	r3, #2
    5658:	dc4c      	bgt.n	56f4 <_dtoa_r+0x988>
    565a:	9b0d      	ldr	r3, [sp, #52]	; 0x34
    565c:	2b00      	cmp	r3, #0
    565e:	d000      	beq.n	5662 <_dtoa_r+0x8f6>
    5660:	e77e      	b.n	5560 <_dtoa_r+0x7f4>
    5662:	4649      	mov	r1, r9
    5664:	4658      	mov	r0, fp
    5666:	f7ff fadf 	bl	4c28 <quorem>
    566a:	0003      	movs	r3, r0
    566c:	9a03      	ldr	r2, [sp, #12]
    566e:	3330      	adds	r3, #48	; 0x30
    5670:	9307      	str	r3, [sp, #28]
    5672:	7013      	strb	r3, [r2, #0]
    5674:	9b08      	ldr	r3, [sp, #32]
    5676:	2600      	movs	r6, #0
    5678:	3301      	adds	r3, #1
    567a:	1c54      	adds	r4, r2, #1
    567c:	9308      	str	r3, [sp, #32]
    567e:	e6f1      	b.n	5464 <_dtoa_r+0x6f8>
    5680:	4649      	mov	r1, r9
    5682:	4658      	mov	r0, fp
    5684:	f002 fc96 	bl	7fb4 <__mcmp>
    5688:	2800      	cmp	r0, #0
    568a:	db00      	blt.n	568e <_dtoa_r+0x922>
    568c:	e6b3      	b.n	53f6 <_dtoa_r+0x68a>
    568e:	9b08      	ldr	r3, [sp, #32]
    5690:	4659      	mov	r1, fp
    5692:	220a      	movs	r2, #10
    5694:	4650      	mov	r0, sl
    5696:	1e5e      	subs	r6, r3, #1
    5698:	2300      	movs	r3, #0
    569a:	f002 f9a9 	bl	79f0 <__multadd>
    569e:	9b0d      	ldr	r3, [sp, #52]	; 0x34
    56a0:	4683      	mov	fp, r0
    56a2:	2b00      	cmp	r3, #0
    56a4:	d000      	beq.n	56a8 <_dtoa_r+0x93c>
    56a6:	e74e      	b.n	5546 <_dtoa_r+0x7da>
    56a8:	9b14      	ldr	r3, [sp, #80]	; 0x50
    56aa:	2b00      	cmp	r3, #0
    56ac:	dd1c      	ble.n	56e8 <_dtoa_r+0x97c>
    56ae:	9306      	str	r3, [sp, #24]
    56b0:	e6ac      	b.n	540c <_dtoa_r+0x6a0>
    56b2:	4bd1      	ldr	r3, [pc, #836]	; (59f8 <_dtoa_r+0xc8c>)
    56b4:	9303      	str	r3, [sp, #12]
    56b6:	3303      	adds	r3, #3
    56b8:	e4fc      	b.n	50b4 <_dtoa_r+0x348>
    56ba:	2301      	movs	r3, #1
    56bc:	9306      	str	r3, [sp, #24]
    56be:	9325      	str	r3, [sp, #148]	; 0x94
    56c0:	e616      	b.n	52f0 <_dtoa_r+0x584>
    56c2:	464a      	mov	r2, r9
    56c4:	4659      	mov	r1, fp
    56c6:	4650      	mov	r0, sl
    56c8:	f002 fb8a 	bl	7de0 <__pow5mult>
    56cc:	4683      	mov	fp, r0
    56ce:	e659      	b.n	5384 <_dtoa_r+0x618>
    56d0:	231c      	movs	r3, #28
    56d2:	e70f      	b.n	54f4 <_dtoa_r+0x788>
    56d4:	9904      	ldr	r1, [sp, #16]
    56d6:	9a05      	ldr	r2, [sp, #20]
    56d8:	2900      	cmp	r1, #0
    56da:	d000      	beq.n	56de <_dtoa_r+0x972>
    56dc:	e660      	b.n	53a0 <_dtoa_r+0x634>
    56de:	0013      	movs	r3, r2
    56e0:	0312      	lsls	r2, r2, #12
    56e2:	d000      	beq.n	56e6 <_dtoa_r+0x97a>
    56e4:	e65c      	b.n	53a0 <_dtoa_r+0x634>
    56e6:	e034      	b.n	5752 <_dtoa_r+0x9e6>
    56e8:	9b14      	ldr	r3, [sp, #80]	; 0x50
    56ea:	9608      	str	r6, [sp, #32]
    56ec:	9306      	str	r3, [sp, #24]
    56ee:	9b24      	ldr	r3, [sp, #144]	; 0x90
    56f0:	2b02      	cmp	r3, #2
    56f2:	ddb6      	ble.n	5662 <_dtoa_r+0x8f6>
    56f4:	9b06      	ldr	r3, [sp, #24]
    56f6:	2b00      	cmp	r3, #0
    56f8:	d000      	beq.n	56fc <_dtoa_r+0x990>
    56fa:	e54e      	b.n	519a <_dtoa_r+0x42e>
    56fc:	4649      	mov	r1, r9
    56fe:	2205      	movs	r2, #5
    5700:	4650      	mov	r0, sl
    5702:	f002 f975 	bl	79f0 <__multadd>
    5706:	4681      	mov	r9, r0
    5708:	0001      	movs	r1, r0
    570a:	4658      	mov	r0, fp
    570c:	f002 fc52 	bl	7fb4 <__mcmp>
    5710:	2800      	cmp	r0, #0
    5712:	dc00      	bgt.n	5716 <_dtoa_r+0x9aa>
    5714:	e541      	b.n	519a <_dtoa_r+0x42e>
    5716:	9a03      	ldr	r2, [sp, #12]
    5718:	2331      	movs	r3, #49	; 0x31
    571a:	0015      	movs	r5, r2
    571c:	9c08      	ldr	r4, [sp, #32]
    571e:	7013      	strb	r3, [r2, #0]
    5720:	1c53      	adds	r3, r2, #1
    5722:	3401      	adds	r4, #1
    5724:	9303      	str	r3, [sp, #12]
    5726:	4649      	mov	r1, r9
    5728:	4650      	mov	r0, sl
    572a:	f002 f957 	bl	79dc <_Bfree>
    572e:	1c63      	adds	r3, r4, #1
    5730:	9308      	str	r3, [sp, #32]
    5732:	9c03      	ldr	r4, [sp, #12]
    5734:	9503      	str	r5, [sp, #12]
    5736:	2f00      	cmp	r7, #0
    5738:	d000      	beq.n	573c <_dtoa_r+0x9d0>
    573a:	e6c6      	b.n	54ca <_dtoa_r+0x75e>
    573c:	e6c9      	b.n	54d2 <_dtoa_r+0x766>
    573e:	9b04      	ldr	r3, [sp, #16]
    5740:	2b00      	cmp	r3, #0
    5742:	d000      	beq.n	5746 <_dtoa_r+0x9da>
    5744:	e6f3      	b.n	552e <_dtoa_r+0x7c2>
    5746:	9904      	ldr	r1, [sp, #16]
    5748:	9a05      	ldr	r2, [sp, #20]
    574a:	0013      	movs	r3, r2
    574c:	0312      	lsls	r2, r2, #12
    574e:	d000      	beq.n	5752 <_dtoa_r+0x9e6>
    5750:	e6ed      	b.n	552e <_dtoa_r+0x7c2>
    5752:	4aaa      	ldr	r2, [pc, #680]	; (59fc <_dtoa_r+0xc90>)
    5754:	2500      	movs	r5, #0
    5756:	4213      	tst	r3, r2
    5758:	d100      	bne.n	575c <_dtoa_r+0x9f0>
    575a:	e621      	b.n	53a0 <_dtoa_r+0x634>
    575c:	9b0c      	ldr	r3, [sp, #48]	; 0x30
    575e:	3501      	adds	r5, #1
    5760:	3301      	adds	r3, #1
    5762:	930c      	str	r3, [sp, #48]	; 0x30
    5764:	9b09      	ldr	r3, [sp, #36]	; 0x24
    5766:	3301      	adds	r3, #1
    5768:	9309      	str	r3, [sp, #36]	; 0x24
    576a:	e619      	b.n	53a0 <_dtoa_r+0x634>
    576c:	0013      	movs	r3, r2
    576e:	e5f3      	b.n	5358 <_dtoa_r+0x5ec>
    5770:	1b5d      	subs	r5, r3, r5
    5772:	e58e      	b.n	5292 <_dtoa_r+0x526>
    5774:	0039      	movs	r1, r7
    5776:	002a      	movs	r2, r5
    5778:	4650      	mov	r0, sl
    577a:	f002 fb31 	bl	7de0 <__pow5mult>
    577e:	465a      	mov	r2, fp
    5780:	0001      	movs	r1, r0
    5782:	0007      	movs	r7, r0
    5784:	4650      	mov	r0, sl
    5786:	f002 fa59 	bl	7c3c <__multiply>
    578a:	0006      	movs	r6, r0
    578c:	4659      	mov	r1, fp
    578e:	4650      	mov	r0, sl
    5790:	f002 f924 	bl	79dc <_Bfree>
    5794:	46b3      	mov	fp, r6
    5796:	e5f0      	b.n	537a <_dtoa_r+0x60e>
    5798:	4b99      	ldr	r3, [pc, #612]	; (5a00 <_dtoa_r+0xc94>)
    579a:	400e      	ands	r6, r1
    579c:	6a1a      	ldr	r2, [r3, #32]
    579e:	6a5b      	ldr	r3, [r3, #36]	; 0x24
    57a0:	980a      	ldr	r0, [sp, #40]	; 0x28
    57a2:	990b      	ldr	r1, [sp, #44]	; 0x2c
    57a4:	f004 fe98 	bl	a4d8 <__aeabi_ddiv>
    57a8:	2303      	movs	r3, #3
    57aa:	9010      	str	r0, [sp, #64]	; 0x40
    57ac:	9111      	str	r1, [sp, #68]	; 0x44
    57ae:	4698      	mov	r8, r3
    57b0:	f7ff fc00 	bl	4fb4 <_dtoa_r+0x248>
    57b4:	233c      	movs	r3, #60	; 0x3c
    57b6:	e69c      	b.n	54f2 <_dtoa_r+0x786>
    57b8:	2300      	movs	r3, #0
    57ba:	930d      	str	r3, [sp, #52]	; 0x34
    57bc:	f7ff fbb4 	bl	4f28 <_dtoa_r+0x1bc>
    57c0:	9a0f      	ldr	r2, [sp, #60]	; 0x3c
    57c2:	2a00      	cmp	r2, #0
    57c4:	d100      	bne.n	57c8 <_dtoa_r+0xa5c>
    57c6:	e184      	b.n	5ad2 <_dtoa_r+0xd66>
    57c8:	4a8e      	ldr	r2, [pc, #568]	; (5a04 <_dtoa_r+0xc98>)
    57ca:	4694      	mov	ip, r2
    57cc:	4463      	add	r3, ip
    57ce:	9a09      	ldr	r2, [sp, #36]	; 0x24
    57d0:	464d      	mov	r5, r9
    57d2:	4694      	mov	ip, r2
    57d4:	449c      	add	ip, r3
    57d6:	4662      	mov	r2, ip
    57d8:	9209      	str	r2, [sp, #36]	; 0x24
    57da:	9a0c      	ldr	r2, [sp, #48]	; 0x30
    57dc:	4694      	mov	ip, r2
    57de:	449c      	add	ip, r3
    57e0:	4663      	mov	r3, ip
    57e2:	0014      	movs	r4, r2
    57e4:	930c      	str	r3, [sp, #48]	; 0x30
    57e6:	e560      	b.n	52aa <_dtoa_r+0x53e>
    57e8:	9b06      	ldr	r3, [sp, #24]
    57ea:	2b00      	cmp	r3, #0
    57ec:	d100      	bne.n	57f0 <_dtoa_r+0xa84>
    57ee:	e218      	b.n	5c22 <_dtoa_r+0xeb6>
    57f0:	9c14      	ldr	r4, [sp, #80]	; 0x50
    57f2:	2c00      	cmp	r4, #0
    57f4:	dc00      	bgt.n	57f8 <_dtoa_r+0xa8c>
    57f6:	e4a7      	b.n	5148 <_dtoa_r+0x3dc>
    57f8:	9b08      	ldr	r3, [sp, #32]
    57fa:	2200      	movs	r2, #0
    57fc:	3b01      	subs	r3, #1
    57fe:	0030      	movs	r0, r6
    5800:	0039      	movs	r1, r7
    5802:	9315      	str	r3, [sp, #84]	; 0x54
    5804:	4b80      	ldr	r3, [pc, #512]	; (5a08 <_dtoa_r+0xc9c>)
    5806:	f005 fa61 	bl	accc <__aeabi_dmul>
    580a:	0006      	movs	r6, r0
    580c:	4640      	mov	r0, r8
    580e:	000f      	movs	r7, r1
    5810:	3001      	adds	r0, #1
    5812:	f006 f8f3 	bl	b9fc <__aeabi_i2d>
    5816:	0032      	movs	r2, r6
    5818:	003b      	movs	r3, r7
    581a:	f005 fa57 	bl	accc <__aeabi_dmul>
    581e:	2200      	movs	r2, #0
    5820:	4b7a      	ldr	r3, [pc, #488]	; (5a0c <_dtoa_r+0xca0>)
    5822:	f004 faf9 	bl	9e18 <__aeabi_dadd>
    5826:	4a7a      	ldr	r2, [pc, #488]	; (5a10 <_dtoa_r+0xca4>)
    5828:	000b      	movs	r3, r1
    582a:	4694      	mov	ip, r2
    582c:	4463      	add	r3, ip
    582e:	9012      	str	r0, [sp, #72]	; 0x48
    5830:	9113      	str	r1, [sp, #76]	; 0x4c
    5832:	9410      	str	r4, [sp, #64]	; 0x40
    5834:	9313      	str	r3, [sp, #76]	; 0x4c
    5836:	9b0d      	ldr	r3, [sp, #52]	; 0x34
    5838:	2b00      	cmp	r3, #0
    583a:	d100      	bne.n	583e <_dtoa_r+0xad2>
    583c:	e14d      	b.n	5ada <_dtoa_r+0xd6e>
    583e:	9a10      	ldr	r2, [sp, #64]	; 0x40
    5840:	4b74      	ldr	r3, [pc, #464]	; (5a14 <_dtoa_r+0xca8>)
    5842:	3a01      	subs	r2, #1
    5844:	00d2      	lsls	r2, r2, #3
    5846:	189b      	adds	r3, r3, r2
    5848:	681a      	ldr	r2, [r3, #0]
    584a:	685b      	ldr	r3, [r3, #4]
    584c:	2000      	movs	r0, #0
    584e:	4972      	ldr	r1, [pc, #456]	; (5a18 <_dtoa_r+0xcac>)
    5850:	f004 fe42 	bl	a4d8 <__aeabi_ddiv>
    5854:	9a12      	ldr	r2, [sp, #72]	; 0x48
    5856:	9b13      	ldr	r3, [sp, #76]	; 0x4c
    5858:	f005 fcfa 	bl	b250 <__aeabi_dsub>
    585c:	9012      	str	r0, [sp, #72]	; 0x48
    585e:	9113      	str	r1, [sp, #76]	; 0x4c
    5860:	0030      	movs	r0, r6
    5862:	0039      	movs	r1, r7
    5864:	f006 f894 	bl	b990 <__aeabi_d2iz>
    5868:	9016      	str	r0, [sp, #88]	; 0x58
    586a:	f006 f8c7 	bl	b9fc <__aeabi_i2d>
    586e:	0002      	movs	r2, r0
    5870:	000b      	movs	r3, r1
    5872:	0030      	movs	r0, r6
    5874:	0039      	movs	r1, r7
    5876:	f005 fceb 	bl	b250 <__aeabi_dsub>
    587a:	000d      	movs	r5, r1
    587c:	0004      	movs	r4, r0
    587e:	9b03      	ldr	r3, [sp, #12]
    5880:	9e16      	ldr	r6, [sp, #88]	; 0x58
    5882:	1c59      	adds	r1, r3, #1
    5884:	3630      	adds	r6, #48	; 0x30
    5886:	4688      	mov	r8, r1
    5888:	701e      	strb	r6, [r3, #0]
    588a:	0020      	movs	r0, r4
    588c:	9a12      	ldr	r2, [sp, #72]	; 0x48
    588e:	9b13      	ldr	r3, [sp, #76]	; 0x4c
    5890:	0029      	movs	r1, r5
    5892:	f003 fcad 	bl	91f0 <__aeabi_dcmplt>
    5896:	2800      	cmp	r0, #0
    5898:	d000      	beq.n	589c <_dtoa_r+0xb30>
    589a:	e1d8      	b.n	5c4e <_dtoa_r+0xee2>
    589c:	464b      	mov	r3, r9
    589e:	2700      	movs	r7, #0
    58a0:	9317      	str	r3, [sp, #92]	; 0x5c
    58a2:	465b      	mov	r3, fp
    58a4:	46bb      	mov	fp, r7
    58a6:	9e12      	ldr	r6, [sp, #72]	; 0x48
    58a8:	9f13      	ldr	r7, [sp, #76]	; 0x4c
    58aa:	9316      	str	r3, [sp, #88]	; 0x58
    58ac:	e034      	b.n	5918 <_dtoa_r+0xbac>
    58ae:	2301      	movs	r3, #1
    58b0:	469c      	mov	ip, r3
    58b2:	9b10      	ldr	r3, [sp, #64]	; 0x40
    58b4:	44e3      	add	fp, ip
    58b6:	459b      	cmp	fp, r3
    58b8:	db00      	blt.n	58bc <_dtoa_r+0xb50>
    58ba:	e441      	b.n	5140 <_dtoa_r+0x3d4>
    58bc:	2200      	movs	r2, #0
    58be:	0030      	movs	r0, r6
    58c0:	0039      	movs	r1, r7
    58c2:	4b51      	ldr	r3, [pc, #324]	; (5a08 <_dtoa_r+0xc9c>)
    58c4:	f005 fa02 	bl	accc <__aeabi_dmul>
    58c8:	2200      	movs	r2, #0
    58ca:	4b4f      	ldr	r3, [pc, #316]	; (5a08 <_dtoa_r+0xc9c>)
    58cc:	0006      	movs	r6, r0
    58ce:	000f      	movs	r7, r1
    58d0:	0020      	movs	r0, r4
    58d2:	0029      	movs	r1, r5
    58d4:	f005 f9fa 	bl	accc <__aeabi_dmul>
    58d8:	000d      	movs	r5, r1
    58da:	0004      	movs	r4, r0
    58dc:	f006 f858 	bl	b990 <__aeabi_d2iz>
    58e0:	4681      	mov	r9, r0
    58e2:	f006 f88b 	bl	b9fc <__aeabi_i2d>
    58e6:	0002      	movs	r2, r0
    58e8:	000b      	movs	r3, r1
    58ea:	0020      	movs	r0, r4
    58ec:	0029      	movs	r1, r5
    58ee:	f005 fcaf 	bl	b250 <__aeabi_dsub>
    58f2:	2301      	movs	r3, #1
    58f4:	469c      	mov	ip, r3
    58f6:	464b      	mov	r3, r9
    58f8:	000d      	movs	r5, r1
    58fa:	0004      	movs	r4, r0
    58fc:	4659      	mov	r1, fp
    58fe:	9a03      	ldr	r2, [sp, #12]
    5900:	3330      	adds	r3, #48	; 0x30
    5902:	5453      	strb	r3, [r2, r1]
    5904:	0020      	movs	r0, r4
    5906:	0032      	movs	r2, r6
    5908:	003b      	movs	r3, r7
    590a:	0029      	movs	r1, r5
    590c:	44e0      	add	r8, ip
    590e:	f003 fc6f 	bl	91f0 <__aeabi_dcmplt>
    5912:	2800      	cmp	r0, #0
    5914:	d000      	beq.n	5918 <_dtoa_r+0xbac>
    5916:	e198      	b.n	5c4a <_dtoa_r+0xede>
    5918:	0022      	movs	r2, r4
    591a:	002b      	movs	r3, r5
    591c:	2000      	movs	r0, #0
    591e:	493f      	ldr	r1, [pc, #252]	; (5a1c <_dtoa_r+0xcb0>)
    5920:	f005 fc96 	bl	b250 <__aeabi_dsub>
    5924:	0032      	movs	r2, r6
    5926:	003b      	movs	r3, r7
    5928:	f003 fc62 	bl	91f0 <__aeabi_dcmplt>
    592c:	2800      	cmp	r0, #0
    592e:	d0be      	beq.n	58ae <_dtoa_r+0xb42>
    5930:	9b16      	ldr	r3, [sp, #88]	; 0x58
    5932:	4642      	mov	r2, r8
    5934:	469b      	mov	fp, r3
    5936:	9b15      	ldr	r3, [sp, #84]	; 0x54
    5938:	9903      	ldr	r1, [sp, #12]
    593a:	9308      	str	r3, [sp, #32]
    593c:	e002      	b.n	5944 <_dtoa_r+0xbd8>
    593e:	4291      	cmp	r1, r2
    5940:	d100      	bne.n	5944 <_dtoa_r+0xbd8>
    5942:	e150      	b.n	5be6 <_dtoa_r+0xe7a>
    5944:	0014      	movs	r4, r2
    5946:	3a01      	subs	r2, #1
    5948:	7813      	ldrb	r3, [r2, #0]
    594a:	2b39      	cmp	r3, #57	; 0x39
    594c:	d0f7      	beq.n	593e <_dtoa_r+0xbd2>
    594e:	4690      	mov	r8, r2
    5950:	3301      	adds	r3, #1
    5952:	b2db      	uxtb	r3, r3
    5954:	4642      	mov	r2, r8
    5956:	7013      	strb	r3, [r2, #0]
    5958:	9b08      	ldr	r3, [sp, #32]
    595a:	3301      	adds	r3, #1
    595c:	9308      	str	r3, [sp, #32]
    595e:	e5b8      	b.n	54d2 <_dtoa_r+0x766>
    5960:	2331      	movs	r3, #49	; 0x31
    5962:	9a03      	ldr	r2, [sp, #12]
    5964:	7013      	strb	r3, [r2, #0]
    5966:	9b08      	ldr	r3, [sp, #32]
    5968:	3301      	adds	r3, #1
    596a:	9308      	str	r3, [sp, #32]
    596c:	e59f      	b.n	54ae <_dtoa_r+0x742>
    596e:	2800      	cmp	r0, #0
    5970:	d103      	bne.n	597a <_dtoa_r+0xc0e>
    5972:	9b07      	ldr	r3, [sp, #28]
    5974:	07db      	lsls	r3, r3, #31
    5976:	d500      	bpl.n	597a <_dtoa_r+0xc0e>
    5978:	e580      	b.n	547c <_dtoa_r+0x710>
    597a:	0023      	movs	r3, r4
    597c:	001c      	movs	r4, r3
    597e:	3b01      	subs	r3, #1
    5980:	781a      	ldrb	r2, [r3, #0]
    5982:	2a30      	cmp	r2, #48	; 0x30
    5984:	d0fa      	beq.n	597c <_dtoa_r+0xc10>
    5986:	e592      	b.n	54ae <_dtoa_r+0x742>
    5988:	9b08      	ldr	r3, [sp, #32]
    598a:	2b00      	cmp	r3, #0
    598c:	d100      	bne.n	5990 <_dtoa_r+0xc24>
    598e:	e124      	b.n	5bda <_dtoa_r+0xe6e>
    5990:	980a      	ldr	r0, [sp, #40]	; 0x28
    5992:	990b      	ldr	r1, [sp, #44]	; 0x2c
    5994:	220f      	movs	r2, #15
    5996:	425c      	negs	r4, r3
    5998:	4022      	ands	r2, r4
    599a:	4b1e      	ldr	r3, [pc, #120]	; (5a14 <_dtoa_r+0xca8>)
    599c:	00d2      	lsls	r2, r2, #3
    599e:	189b      	adds	r3, r3, r2
    59a0:	681a      	ldr	r2, [r3, #0]
    59a2:	685b      	ldr	r3, [r3, #4]
    59a4:	f005 f992 	bl	accc <__aeabi_dmul>
    59a8:	1124      	asrs	r4, r4, #4
    59aa:	0006      	movs	r6, r0
    59ac:	000f      	movs	r7, r1
    59ae:	2c00      	cmp	r4, #0
    59b0:	d100      	bne.n	59b4 <_dtoa_r+0xc48>
    59b2:	e166      	b.n	5c82 <_dtoa_r+0xf16>
    59b4:	2202      	movs	r2, #2
    59b6:	9610      	str	r6, [sp, #64]	; 0x40
    59b8:	9711      	str	r7, [sp, #68]	; 0x44
    59ba:	2300      	movs	r3, #0
    59bc:	0017      	movs	r7, r2
    59be:	4d10      	ldr	r5, [pc, #64]	; (5a00 <_dtoa_r+0xc94>)
    59c0:	2201      	movs	r2, #1
    59c2:	4222      	tst	r2, r4
    59c4:	d005      	beq.n	59d2 <_dtoa_r+0xc66>
    59c6:	682a      	ldr	r2, [r5, #0]
    59c8:	686b      	ldr	r3, [r5, #4]
    59ca:	f005 f97f 	bl	accc <__aeabi_dmul>
    59ce:	2301      	movs	r3, #1
    59d0:	3701      	adds	r7, #1
    59d2:	1064      	asrs	r4, r4, #1
    59d4:	3508      	adds	r5, #8
    59d6:	2c00      	cmp	r4, #0
    59d8:	d1f2      	bne.n	59c0 <_dtoa_r+0xc54>
    59da:	46b8      	mov	r8, r7
    59dc:	9e10      	ldr	r6, [sp, #64]	; 0x40
    59de:	9f11      	ldr	r7, [sp, #68]	; 0x44
    59e0:	2b00      	cmp	r3, #0
    59e2:	d101      	bne.n	59e8 <_dtoa_r+0xc7c>
    59e4:	f7ff fb02 	bl	4fec <_dtoa_r+0x280>
    59e8:	0006      	movs	r6, r0
    59ea:	000f      	movs	r7, r1
    59ec:	f7ff fafe 	bl	4fec <_dtoa_r+0x280>
    59f0:	2300      	movs	r3, #0
    59f2:	930e      	str	r3, [sp, #56]	; 0x38
    59f4:	e48c      	b.n	5310 <_dtoa_r+0x5a4>
    59f6:	46c0      	nop			; (mov r8, r8)
    59f8:	0000c514 	.word	0x0000c514
    59fc:	7ff00000 	.word	0x7ff00000
    5a00:	0000c8a8 	.word	0x0000c8a8
    5a04:	00000433 	.word	0x00000433
    5a08:	40240000 	.word	0x40240000
    5a0c:	401c0000 	.word	0x401c0000
    5a10:	fcc00000 	.word	0xfcc00000
    5a14:	0000c8d0 	.word	0x0000c8d0
    5a18:	3fe00000 	.word	0x3fe00000
    5a1c:	3ff00000 	.word	0x3ff00000
    5a20:	9b04      	ldr	r3, [sp, #16]
    5a22:	46d9      	mov	r9, fp
    5a24:	46ab      	mov	fp, r5
    5a26:	0035      	movs	r5, r6
    5a28:	2b00      	cmp	r3, #0
    5a2a:	dd12      	ble.n	5a52 <_dtoa_r+0xce6>
    5a2c:	4659      	mov	r1, fp
    5a2e:	2201      	movs	r2, #1
    5a30:	4650      	mov	r0, sl
    5a32:	f002 fa3f 	bl	7eb4 <__lshift>
    5a36:	4649      	mov	r1, r9
    5a38:	4683      	mov	fp, r0
    5a3a:	f002 fabb 	bl	7fb4 <__mcmp>
    5a3e:	2800      	cmp	r0, #0
    5a40:	dc00      	bgt.n	5a44 <_dtoa_r+0xcd8>
    5a42:	e10e      	b.n	5c62 <_dtoa_r+0xef6>
    5a44:	9b07      	ldr	r3, [sp, #28]
    5a46:	2b39      	cmp	r3, #57	; 0x39
    5a48:	d100      	bne.n	5a4c <_dtoa_r+0xce0>
    5a4a:	e0d2      	b.n	5bf2 <_dtoa_r+0xe86>
    5a4c:	9b0c      	ldr	r3, [sp, #48]	; 0x30
    5a4e:	3331      	adds	r3, #49	; 0x31
    5a50:	9307      	str	r3, [sp, #28]
    5a52:	9b07      	ldr	r3, [sp, #28]
    5a54:	1c6c      	adds	r4, r5, #1
    5a56:	702b      	strb	r3, [r5, #0]
    5a58:	9b08      	ldr	r3, [sp, #32]
    5a5a:	003e      	movs	r6, r7
    5a5c:	3301      	adds	r3, #1
    5a5e:	4647      	mov	r7, r8
    5a60:	9308      	str	r3, [sp, #32]
    5a62:	e524      	b.n	54ae <_dtoa_r+0x742>
    5a64:	9b07      	ldr	r3, [sp, #28]
    5a66:	46d0      	mov	r8, sl
    5a68:	469a      	mov	sl, r3
    5a6a:	0002      	movs	r2, r0
    5a6c:	000b      	movs	r3, r1
    5a6e:	f004 f9d3 	bl	9e18 <__aeabi_dadd>
    5a72:	0032      	movs	r2, r6
    5a74:	003b      	movs	r3, r7
    5a76:	0004      	movs	r4, r0
    5a78:	000d      	movs	r5, r1
    5a7a:	f003 fbcd 	bl	9218 <__aeabi_dcmpgt>
    5a7e:	2800      	cmp	r0, #0
    5a80:	d10e      	bne.n	5aa0 <_dtoa_r+0xd34>
    5a82:	0032      	movs	r2, r6
    5a84:	003b      	movs	r3, r7
    5a86:	0020      	movs	r0, r4
    5a88:	0029      	movs	r1, r5
    5a8a:	f003 fbab 	bl	91e4 <__aeabi_dcmpeq>
    5a8e:	2800      	cmp	r0, #0
    5a90:	d101      	bne.n	5a96 <_dtoa_r+0xd2a>
    5a92:	f7ff fbe4 	bl	525e <_dtoa_r+0x4f2>
    5a96:	464b      	mov	r3, r9
    5a98:	07db      	lsls	r3, r3, #31
    5a9a:	d401      	bmi.n	5aa0 <_dtoa_r+0xd34>
    5a9c:	f7ff fbdf 	bl	525e <_dtoa_r+0x4f2>
    5aa0:	4642      	mov	r2, r8
    5aa2:	9903      	ldr	r1, [sp, #12]
    5aa4:	e74e      	b.n	5944 <_dtoa_r+0xbd8>
    5aa6:	4650      	mov	r0, sl
    5aa8:	6879      	ldr	r1, [r7, #4]
    5aaa:	f001 ff6f 	bl	798c <_Balloc>
    5aae:	1e04      	subs	r4, r0, #0
    5ab0:	d100      	bne.n	5ab4 <_dtoa_r+0xd48>
    5ab2:	e0ea      	b.n	5c8a <_dtoa_r+0xf1e>
    5ab4:	0039      	movs	r1, r7
    5ab6:	693a      	ldr	r2, [r7, #16]
    5ab8:	310c      	adds	r1, #12
    5aba:	3202      	adds	r2, #2
    5abc:	0092      	lsls	r2, r2, #2
    5abe:	300c      	adds	r0, #12
    5ac0:	f000 fbe6 	bl	6290 <memcpy>
    5ac4:	2201      	movs	r2, #1
    5ac6:	0021      	movs	r1, r4
    5ac8:	4650      	mov	r0, sl
    5aca:	f002 f9f3 	bl	7eb4 <__lshift>
    5ace:	4680      	mov	r8, r0
    5ad0:	e552      	b.n	5578 <_dtoa_r+0x80c>
    5ad2:	2336      	movs	r3, #54	; 0x36
    5ad4:	9a18      	ldr	r2, [sp, #96]	; 0x60
    5ad6:	1a9b      	subs	r3, r3, r2
    5ad8:	e679      	b.n	57ce <_dtoa_r+0xa62>
    5ada:	9a10      	ldr	r2, [sp, #64]	; 0x40
    5adc:	4b80      	ldr	r3, [pc, #512]	; (5ce0 <_dtoa_r+0xf74>)
    5ade:	1e51      	subs	r1, r2, #1
    5ae0:	00c9      	lsls	r1, r1, #3
    5ae2:	1859      	adds	r1, r3, r1
    5ae4:	6808      	ldr	r0, [r1, #0]
    5ae6:	6849      	ldr	r1, [r1, #4]
    5ae8:	9a12      	ldr	r2, [sp, #72]	; 0x48
    5aea:	9b13      	ldr	r3, [sp, #76]	; 0x4c
    5aec:	f005 f8ee 	bl	accc <__aeabi_dmul>
    5af0:	9012      	str	r0, [sp, #72]	; 0x48
    5af2:	9113      	str	r1, [sp, #76]	; 0x4c
    5af4:	0039      	movs	r1, r7
    5af6:	0030      	movs	r0, r6
    5af8:	f005 ff4a 	bl	b990 <__aeabi_d2iz>
    5afc:	9016      	str	r0, [sp, #88]	; 0x58
    5afe:	f005 ff7d 	bl	b9fc <__aeabi_i2d>
    5b02:	0002      	movs	r2, r0
    5b04:	000b      	movs	r3, r1
    5b06:	0030      	movs	r0, r6
    5b08:	0039      	movs	r1, r7
    5b0a:	f005 fba1 	bl	b250 <__aeabi_dsub>
    5b0e:	9b10      	ldr	r3, [sp, #64]	; 0x40
    5b10:	000d      	movs	r5, r1
    5b12:	9903      	ldr	r1, [sp, #12]
    5b14:	001a      	movs	r2, r3
    5b16:	468c      	mov	ip, r1
    5b18:	9e16      	ldr	r6, [sp, #88]	; 0x58
    5b1a:	1c4f      	adds	r7, r1, #1
    5b1c:	3630      	adds	r6, #48	; 0x30
    5b1e:	4462      	add	r2, ip
    5b20:	700e      	strb	r6, [r1, #0]
    5b22:	0004      	movs	r4, r0
    5b24:	46b8      	mov	r8, r7
    5b26:	003e      	movs	r6, r7
    5b28:	9210      	str	r2, [sp, #64]	; 0x40
    5b2a:	2b01      	cmp	r3, #1
    5b2c:	d01d      	beq.n	5b6a <_dtoa_r+0xdfe>
    5b2e:	9b10      	ldr	r3, [sp, #64]	; 0x40
    5b30:	4698      	mov	r8, r3
    5b32:	2200      	movs	r2, #0
    5b34:	4b6b      	ldr	r3, [pc, #428]	; (5ce4 <_dtoa_r+0xf78>)
    5b36:	0020      	movs	r0, r4
    5b38:	0029      	movs	r1, r5
    5b3a:	f005 f8c7 	bl	accc <__aeabi_dmul>
    5b3e:	000d      	movs	r5, r1
    5b40:	0004      	movs	r4, r0
    5b42:	f005 ff25 	bl	b990 <__aeabi_d2iz>
    5b46:	0007      	movs	r7, r0
    5b48:	f005 ff58 	bl	b9fc <__aeabi_i2d>
    5b4c:	0002      	movs	r2, r0
    5b4e:	000b      	movs	r3, r1
    5b50:	0020      	movs	r0, r4
    5b52:	0029      	movs	r1, r5
    5b54:	f005 fb7c 	bl	b250 <__aeabi_dsub>
    5b58:	3730      	adds	r7, #48	; 0x30
    5b5a:	7037      	strb	r7, [r6, #0]
    5b5c:	3601      	adds	r6, #1
    5b5e:	0004      	movs	r4, r0
    5b60:	000d      	movs	r5, r1
    5b62:	45b0      	cmp	r8, r6
    5b64:	d1e5      	bne.n	5b32 <_dtoa_r+0xdc6>
    5b66:	9b10      	ldr	r3, [sp, #64]	; 0x40
    5b68:	4698      	mov	r8, r3
    5b6a:	9e12      	ldr	r6, [sp, #72]	; 0x48
    5b6c:	9f13      	ldr	r7, [sp, #76]	; 0x4c
    5b6e:	2200      	movs	r2, #0
    5b70:	4b5d      	ldr	r3, [pc, #372]	; (5ce8 <_dtoa_r+0xf7c>)
    5b72:	0030      	movs	r0, r6
    5b74:	0039      	movs	r1, r7
    5b76:	f004 f94f 	bl	9e18 <__aeabi_dadd>
    5b7a:	0022      	movs	r2, r4
    5b7c:	002b      	movs	r3, r5
    5b7e:	f003 fb37 	bl	91f0 <__aeabi_dcmplt>
    5b82:	2800      	cmp	r0, #0
    5b84:	d168      	bne.n	5c58 <_dtoa_r+0xeec>
    5b86:	0032      	movs	r2, r6
    5b88:	003b      	movs	r3, r7
    5b8a:	2000      	movs	r0, #0
    5b8c:	4956      	ldr	r1, [pc, #344]	; (5ce8 <_dtoa_r+0xf7c>)
    5b8e:	f005 fb5f 	bl	b250 <__aeabi_dsub>
    5b92:	0022      	movs	r2, r4
    5b94:	002b      	movs	r3, r5
    5b96:	f003 fb3f 	bl	9218 <__aeabi_dcmpgt>
    5b9a:	2800      	cmp	r0, #0
    5b9c:	d101      	bne.n	5ba2 <_dtoa_r+0xe36>
    5b9e:	f7ff fad3 	bl	5148 <_dtoa_r+0x3dc>
    5ba2:	4643      	mov	r3, r8
    5ba4:	001c      	movs	r4, r3
    5ba6:	3b01      	subs	r3, #1
    5ba8:	781a      	ldrb	r2, [r3, #0]
    5baa:	2a30      	cmp	r2, #48	; 0x30
    5bac:	d0fa      	beq.n	5ba4 <_dtoa_r+0xe38>
    5bae:	9b15      	ldr	r3, [sp, #84]	; 0x54
    5bb0:	3301      	adds	r3, #1
    5bb2:	9308      	str	r3, [sp, #32]
    5bb4:	e48d      	b.n	54d2 <_dtoa_r+0x766>
    5bb6:	9b07      	ldr	r3, [sp, #28]
    5bb8:	46d9      	mov	r9, fp
    5bba:	46ab      	mov	fp, r5
    5bbc:	0035      	movs	r5, r6
    5bbe:	2b39      	cmp	r3, #57	; 0x39
    5bc0:	d017      	beq.n	5bf2 <_dtoa_r+0xe86>
    5bc2:	9b07      	ldr	r3, [sp, #28]
    5bc4:	1c74      	adds	r4, r6, #1
    5bc6:	3301      	adds	r3, #1
    5bc8:	e745      	b.n	5a56 <_dtoa_r+0xcea>
    5bca:	9b08      	ldr	r3, [sp, #32]
    5bcc:	46d9      	mov	r9, fp
    5bce:	3301      	adds	r3, #1
    5bd0:	003e      	movs	r6, r7
    5bd2:	46ab      	mov	fp, r5
    5bd4:	4647      	mov	r7, r8
    5bd6:	9308      	str	r3, [sp, #32]
    5bd8:	e444      	b.n	5464 <_dtoa_r+0x6f8>
    5bda:	2302      	movs	r3, #2
    5bdc:	9e0a      	ldr	r6, [sp, #40]	; 0x28
    5bde:	9f0b      	ldr	r7, [sp, #44]	; 0x2c
    5be0:	4698      	mov	r8, r3
    5be2:	f7ff fa03 	bl	4fec <_dtoa_r+0x280>
    5be6:	9b08      	ldr	r3, [sp, #32]
    5be8:	4690      	mov	r8, r2
    5bea:	3301      	adds	r3, #1
    5bec:	9308      	str	r3, [sp, #32]
    5bee:	2331      	movs	r3, #49	; 0x31
    5bf0:	e6b0      	b.n	5954 <_dtoa_r+0xbe8>
    5bf2:	2339      	movs	r3, #57	; 0x39
    5bf4:	702b      	strb	r3, [r5, #0]
    5bf6:	9b08      	ldr	r3, [sp, #32]
    5bf8:	003e      	movs	r6, r7
    5bfa:	3301      	adds	r3, #1
    5bfc:	4647      	mov	r7, r8
    5bfe:	2239      	movs	r2, #57	; 0x39
    5c00:	1c6c      	adds	r4, r5, #1
    5c02:	9308      	str	r3, [sp, #32]
    5c04:	e43c      	b.n	5480 <_dtoa_r+0x714>
    5c06:	2300      	movs	r3, #0
    5c08:	2700      	movs	r7, #0
    5c0a:	4699      	mov	r9, r3
    5c0c:	e583      	b.n	5716 <_dtoa_r+0x9aa>
    5c0e:	9b07      	ldr	r3, [sp, #28]
    5c10:	46d9      	mov	r9, fp
    5c12:	46ab      	mov	fp, r5
    5c14:	0035      	movs	r5, r6
    5c16:	2b39      	cmp	r3, #57	; 0x39
    5c18:	d0eb      	beq.n	5bf2 <_dtoa_r+0xe86>
    5c1a:	2c00      	cmp	r4, #0
    5c1c:	dd00      	ble.n	5c20 <_dtoa_r+0xeb4>
    5c1e:	e715      	b.n	5a4c <_dtoa_r+0xce0>
    5c20:	e717      	b.n	5a52 <_dtoa_r+0xce6>
    5c22:	4640      	mov	r0, r8
    5c24:	f005 feea 	bl	b9fc <__aeabi_i2d>
    5c28:	0032      	movs	r2, r6
    5c2a:	003b      	movs	r3, r7
    5c2c:	f005 f84e 	bl	accc <__aeabi_dmul>
    5c30:	2200      	movs	r2, #0
    5c32:	4b2e      	ldr	r3, [pc, #184]	; (5cec <_dtoa_r+0xf80>)
    5c34:	f004 f8f0 	bl	9e18 <__aeabi_dadd>
    5c38:	4a2d      	ldr	r2, [pc, #180]	; (5cf0 <_dtoa_r+0xf84>)
    5c3a:	000b      	movs	r3, r1
    5c3c:	4694      	mov	ip, r2
    5c3e:	4463      	add	r3, ip
    5c40:	9012      	str	r0, [sp, #72]	; 0x48
    5c42:	9113      	str	r1, [sp, #76]	; 0x4c
    5c44:	9313      	str	r3, [sp, #76]	; 0x4c
    5c46:	f7ff f9f8 	bl	503a <_dtoa_r+0x2ce>
    5c4a:	9b16      	ldr	r3, [sp, #88]	; 0x58
    5c4c:	469b      	mov	fp, r3
    5c4e:	9b15      	ldr	r3, [sp, #84]	; 0x54
    5c50:	4644      	mov	r4, r8
    5c52:	3301      	adds	r3, #1
    5c54:	9308      	str	r3, [sp, #32]
    5c56:	e43c      	b.n	54d2 <_dtoa_r+0x766>
    5c58:	9b15      	ldr	r3, [sp, #84]	; 0x54
    5c5a:	4642      	mov	r2, r8
    5c5c:	9903      	ldr	r1, [sp, #12]
    5c5e:	9308      	str	r3, [sp, #32]
    5c60:	e670      	b.n	5944 <_dtoa_r+0xbd8>
    5c62:	2800      	cmp	r0, #0
    5c64:	d000      	beq.n	5c68 <_dtoa_r+0xefc>
    5c66:	e6f4      	b.n	5a52 <_dtoa_r+0xce6>
    5c68:	9b07      	ldr	r3, [sp, #28]
    5c6a:	07db      	lsls	r3, r3, #31
    5c6c:	d500      	bpl.n	5c70 <_dtoa_r+0xf04>
    5c6e:	e6e9      	b.n	5a44 <_dtoa_r+0xcd8>
    5c70:	e6ef      	b.n	5a52 <_dtoa_r+0xce6>
    5c72:	9b14      	ldr	r3, [sp, #80]	; 0x50
    5c74:	9608      	str	r6, [sp, #32]
    5c76:	9306      	str	r3, [sp, #24]
    5c78:	9b24      	ldr	r3, [sp, #144]	; 0x90
    5c7a:	2b02      	cmp	r3, #2
    5c7c:	dd00      	ble.n	5c80 <_dtoa_r+0xf14>
    5c7e:	e539      	b.n	56f4 <_dtoa_r+0x988>
    5c80:	e46e      	b.n	5560 <_dtoa_r+0x7f4>
    5c82:	2302      	movs	r3, #2
    5c84:	4698      	mov	r8, r3
    5c86:	f7ff f9b1 	bl	4fec <_dtoa_r+0x280>
    5c8a:	2200      	movs	r2, #0
    5c8c:	4b19      	ldr	r3, [pc, #100]	; (5cf4 <_dtoa_r+0xf88>)
    5c8e:	481a      	ldr	r0, [pc, #104]	; (5cf8 <_dtoa_r+0xf8c>)
    5c90:	491a      	ldr	r1, [pc, #104]	; (5cfc <_dtoa_r+0xf90>)
    5c92:	f001 fd99 	bl	77c8 <__assert_func>
    5c96:	4653      	mov	r3, sl
    5c98:	9a0d      	ldr	r2, [sp, #52]	; 0x34
    5c9a:	2100      	movs	r1, #0
    5c9c:	4650      	mov	r0, sl
    5c9e:	63da      	str	r2, [r3, #60]	; 0x3c
    5ca0:	f001 fe74 	bl	798c <_Balloc>
    5ca4:	9003      	str	r0, [sp, #12]
    5ca6:	2800      	cmp	r0, #0
    5ca8:	d012      	beq.n	5cd0 <_dtoa_r+0xf64>
    5caa:	4653      	mov	r3, sl
    5cac:	9a03      	ldr	r2, [sp, #12]
    5cae:	639a      	str	r2, [r3, #56]	; 0x38
    5cb0:	2300      	movs	r3, #0
    5cb2:	9325      	str	r3, [sp, #148]	; 0x94
    5cb4:	3301      	adds	r3, #1
    5cb6:	930d      	str	r3, [sp, #52]	; 0x34
    5cb8:	3b02      	subs	r3, #2
    5cba:	9314      	str	r3, [sp, #80]	; 0x50
    5cbc:	9306      	str	r3, [sp, #24]
    5cbe:	f7ff fa43 	bl	5148 <_dtoa_r+0x3dc>
    5cc2:	4b0f      	ldr	r3, [pc, #60]	; (5d00 <_dtoa_r+0xf94>)
    5cc4:	9303      	str	r3, [sp, #12]
    5cc6:	f7ff f88e 	bl	4de6 <_dtoa_r+0x7a>
    5cca:	2100      	movs	r1, #0
    5ccc:	f7ff f948 	bl	4f60 <_dtoa_r+0x1f4>
    5cd0:	21b0      	movs	r1, #176	; 0xb0
    5cd2:	2200      	movs	r2, #0
    5cd4:	4b07      	ldr	r3, [pc, #28]	; (5cf4 <_dtoa_r+0xf88>)
    5cd6:	4808      	ldr	r0, [pc, #32]	; (5cf8 <_dtoa_r+0xf8c>)
    5cd8:	31ff      	adds	r1, #255	; 0xff
    5cda:	f001 fd75 	bl	77c8 <__assert_func>
    5cde:	46c0      	nop			; (mov r8, r8)
    5ce0:	0000c8d0 	.word	0x0000c8d0
    5ce4:	40240000 	.word	0x40240000
    5ce8:	3fe00000 	.word	0x3fe00000
    5cec:	401c0000 	.word	0x401c0000
    5cf0:	fcc00000 	.word	0xfcc00000
    5cf4:	0000c51c 	.word	0x0000c51c
    5cf8:	0000c530 	.word	0x0000c530
    5cfc:	000002ef 	.word	0x000002ef
    5d00:	0000c508 	.word	0x0000c508

00005d04 <__set_ctype>:
    5d04:	22ec      	movs	r2, #236	; 0xec
    5d06:	4b01      	ldr	r3, [pc, #4]	; (5d0c <__set_ctype+0x8>)
    5d08:	5083      	str	r3, [r0, r2]
    5d0a:	4770      	bx	lr
    5d0c:	0000c58c 	.word	0x0000c58c

00005d10 <__sflush_r>:
    5d10:	b5f0      	push	{r4, r5, r6, r7, lr}
    5d12:	46c6      	mov	lr, r8
    5d14:	b500      	push	{lr}
    5d16:	230c      	movs	r3, #12
    5d18:	5eca      	ldrsh	r2, [r1, r3]
    5d1a:	898b      	ldrh	r3, [r1, #12]
    5d1c:	0007      	movs	r7, r0
    5d1e:	000c      	movs	r4, r1
    5d20:	0719      	lsls	r1, r3, #28
    5d22:	d448      	bmi.n	5db6 <__sflush_r+0xa6>
    5d24:	2380      	movs	r3, #128	; 0x80
    5d26:	011b      	lsls	r3, r3, #4
    5d28:	4313      	orrs	r3, r2
    5d2a:	6862      	ldr	r2, [r4, #4]
    5d2c:	81a3      	strh	r3, [r4, #12]
    5d2e:	2a00      	cmp	r2, #0
    5d30:	dd63      	ble.n	5dfa <__sflush_r+0xea>
    5d32:	6aa6      	ldr	r6, [r4, #40]	; 0x28
    5d34:	2e00      	cmp	r6, #0
    5d36:	d03a      	beq.n	5dae <__sflush_r+0x9e>
    5d38:	2200      	movs	r2, #0
    5d3a:	683d      	ldr	r5, [r7, #0]
    5d3c:	603a      	str	r2, [r7, #0]
    5d3e:	b29a      	uxth	r2, r3
    5d40:	04db      	lsls	r3, r3, #19
    5d42:	d45e      	bmi.n	5e02 <__sflush_r+0xf2>
    5d44:	2301      	movs	r3, #1
    5d46:	2200      	movs	r2, #0
    5d48:	0038      	movs	r0, r7
    5d4a:	69e1      	ldr	r1, [r4, #28]
    5d4c:	47b0      	blx	r6
    5d4e:	1c43      	adds	r3, r0, #1
    5d50:	d066      	beq.n	5e20 <__sflush_r+0x110>
    5d52:	89a2      	ldrh	r2, [r4, #12]
    5d54:	6aa6      	ldr	r6, [r4, #40]	; 0x28
    5d56:	0752      	lsls	r2, r2, #29
    5d58:	d506      	bpl.n	5d68 <__sflush_r+0x58>
    5d5a:	6863      	ldr	r3, [r4, #4]
    5d5c:	1ac0      	subs	r0, r0, r3
    5d5e:	6b23      	ldr	r3, [r4, #48]	; 0x30
    5d60:	2b00      	cmp	r3, #0
    5d62:	d001      	beq.n	5d68 <__sflush_r+0x58>
    5d64:	6be3      	ldr	r3, [r4, #60]	; 0x3c
    5d66:	1ac0      	subs	r0, r0, r3
    5d68:	2300      	movs	r3, #0
    5d6a:	0002      	movs	r2, r0
    5d6c:	69e1      	ldr	r1, [r4, #28]
    5d6e:	0038      	movs	r0, r7
    5d70:	47b0      	blx	r6
    5d72:	1c43      	adds	r3, r0, #1
    5d74:	d147      	bne.n	5e06 <__sflush_r+0xf6>
    5d76:	683b      	ldr	r3, [r7, #0]
    5d78:	2b00      	cmp	r3, #0
    5d7a:	d044      	beq.n	5e06 <__sflush_r+0xf6>
    5d7c:	2b1d      	cmp	r3, #29
    5d7e:	d001      	beq.n	5d84 <__sflush_r+0x74>
    5d80:	2b16      	cmp	r3, #22
    5d82:	d155      	bne.n	5e30 <__sflush_r+0x120>
    5d84:	89a3      	ldrh	r3, [r4, #12]
    5d86:	4a2e      	ldr	r2, [pc, #184]	; (5e40 <__sflush_r+0x130>)
    5d88:	4013      	ands	r3, r2
    5d8a:	81a3      	strh	r3, [r4, #12]
    5d8c:	2300      	movs	r3, #0
    5d8e:	6063      	str	r3, [r4, #4]
    5d90:	6923      	ldr	r3, [r4, #16]
    5d92:	6023      	str	r3, [r4, #0]
    5d94:	6b21      	ldr	r1, [r4, #48]	; 0x30
    5d96:	603d      	str	r5, [r7, #0]
    5d98:	2900      	cmp	r1, #0
    5d9a:	d008      	beq.n	5dae <__sflush_r+0x9e>
    5d9c:	0023      	movs	r3, r4
    5d9e:	3340      	adds	r3, #64	; 0x40
    5da0:	4299      	cmp	r1, r3
    5da2:	d002      	beq.n	5daa <__sflush_r+0x9a>
    5da4:	0038      	movs	r0, r7
    5da6:	f000 fb93 	bl	64d0 <_free_r>
    5daa:	2300      	movs	r3, #0
    5dac:	6323      	str	r3, [r4, #48]	; 0x30
    5dae:	2000      	movs	r0, #0
    5db0:	bc80      	pop	{r7}
    5db2:	46b8      	mov	r8, r7
    5db4:	bdf0      	pop	{r4, r5, r6, r7, pc}
    5db6:	6926      	ldr	r6, [r4, #16]
    5db8:	2e00      	cmp	r6, #0
    5dba:	d0f8      	beq.n	5dae <__sflush_r+0x9e>
    5dbc:	6825      	ldr	r5, [r4, #0]
    5dbe:	2200      	movs	r2, #0
    5dc0:	1bad      	subs	r5, r5, r6
    5dc2:	6026      	str	r6, [r4, #0]
    5dc4:	079b      	lsls	r3, r3, #30
    5dc6:	d100      	bne.n	5dca <__sflush_r+0xba>
    5dc8:	6962      	ldr	r2, [r4, #20]
    5dca:	60a2      	str	r2, [r4, #8]
    5dcc:	2d00      	cmp	r5, #0
    5dce:	dc04      	bgt.n	5dda <__sflush_r+0xca>
    5dd0:	e7ed      	b.n	5dae <__sflush_r+0x9e>
    5dd2:	1836      	adds	r6, r6, r0
    5dd4:	1a2d      	subs	r5, r5, r0
    5dd6:	2d00      	cmp	r5, #0
    5dd8:	dde9      	ble.n	5dae <__sflush_r+0x9e>
    5dda:	6a63      	ldr	r3, [r4, #36]	; 0x24
    5ddc:	0032      	movs	r2, r6
    5dde:	4698      	mov	r8, r3
    5de0:	0038      	movs	r0, r7
    5de2:	002b      	movs	r3, r5
    5de4:	69e1      	ldr	r1, [r4, #28]
    5de6:	47c0      	blx	r8
    5de8:	2800      	cmp	r0, #0
    5dea:	dcf2      	bgt.n	5dd2 <__sflush_r+0xc2>
    5dec:	2240      	movs	r2, #64	; 0x40
    5dee:	2001      	movs	r0, #1
    5df0:	89a3      	ldrh	r3, [r4, #12]
    5df2:	4240      	negs	r0, r0
    5df4:	4313      	orrs	r3, r2
    5df6:	81a3      	strh	r3, [r4, #12]
    5df8:	e7da      	b.n	5db0 <__sflush_r+0xa0>
    5dfa:	6be2      	ldr	r2, [r4, #60]	; 0x3c
    5dfc:	2a00      	cmp	r2, #0
    5dfe:	dc98      	bgt.n	5d32 <__sflush_r+0x22>
    5e00:	e7d5      	b.n	5dae <__sflush_r+0x9e>
    5e02:	6d20      	ldr	r0, [r4, #80]	; 0x50
    5e04:	e7a7      	b.n	5d56 <__sflush_r+0x46>
    5e06:	89a3      	ldrh	r3, [r4, #12]
    5e08:	4a0d      	ldr	r2, [pc, #52]	; (5e40 <__sflush_r+0x130>)
    5e0a:	4013      	ands	r3, r2
    5e0c:	2200      	movs	r2, #0
    5e0e:	6062      	str	r2, [r4, #4]
    5e10:	6922      	ldr	r2, [r4, #16]
    5e12:	b21b      	sxth	r3, r3
    5e14:	81a3      	strh	r3, [r4, #12]
    5e16:	6022      	str	r2, [r4, #0]
    5e18:	04db      	lsls	r3, r3, #19
    5e1a:	d5bb      	bpl.n	5d94 <__sflush_r+0x84>
    5e1c:	6520      	str	r0, [r4, #80]	; 0x50
    5e1e:	e7b9      	b.n	5d94 <__sflush_r+0x84>
    5e20:	683b      	ldr	r3, [r7, #0]
    5e22:	2b00      	cmp	r3, #0
    5e24:	d100      	bne.n	5e28 <__sflush_r+0x118>
    5e26:	e794      	b.n	5d52 <__sflush_r+0x42>
    5e28:	2b1d      	cmp	r3, #29
    5e2a:	d006      	beq.n	5e3a <__sflush_r+0x12a>
    5e2c:	2b16      	cmp	r3, #22
    5e2e:	d004      	beq.n	5e3a <__sflush_r+0x12a>
    5e30:	2240      	movs	r2, #64	; 0x40
    5e32:	89a3      	ldrh	r3, [r4, #12]
    5e34:	4313      	orrs	r3, r2
    5e36:	81a3      	strh	r3, [r4, #12]
    5e38:	e7ba      	b.n	5db0 <__sflush_r+0xa0>
    5e3a:	2000      	movs	r0, #0
    5e3c:	603d      	str	r5, [r7, #0]
    5e3e:	e7b7      	b.n	5db0 <__sflush_r+0xa0>
    5e40:	fffff7ff 	.word	0xfffff7ff

00005e44 <_fflush_r>:
    5e44:	b570      	push	{r4, r5, r6, lr}
    5e46:	0005      	movs	r5, r0
    5e48:	000c      	movs	r4, r1
    5e4a:	2800      	cmp	r0, #0
    5e4c:	d002      	beq.n	5e54 <_fflush_r+0x10>
    5e4e:	6b43      	ldr	r3, [r0, #52]	; 0x34
    5e50:	2b00      	cmp	r3, #0
    5e52:	d027      	beq.n	5ea4 <_fflush_r+0x60>
    5e54:	220c      	movs	r2, #12
    5e56:	5ea3      	ldrsh	r3, [r4, r2]
    5e58:	2b00      	cmp	r3, #0
    5e5a:	d011      	beq.n	5e80 <_fflush_r+0x3c>
    5e5c:	6e62      	ldr	r2, [r4, #100]	; 0x64
    5e5e:	07d2      	lsls	r2, r2, #31
    5e60:	d401      	bmi.n	5e66 <_fflush_r+0x22>
    5e62:	059b      	lsls	r3, r3, #22
    5e64:	d50e      	bpl.n	5e84 <_fflush_r+0x40>
    5e66:	0028      	movs	r0, r5
    5e68:	0021      	movs	r1, r4
    5e6a:	f7ff ff51 	bl	5d10 <__sflush_r>
    5e6e:	6e63      	ldr	r3, [r4, #100]	; 0x64
    5e70:	0005      	movs	r5, r0
    5e72:	07db      	lsls	r3, r3, #31
    5e74:	d402      	bmi.n	5e7c <_fflush_r+0x38>
    5e76:	89a3      	ldrh	r3, [r4, #12]
    5e78:	059b      	lsls	r3, r3, #22
    5e7a:	d50f      	bpl.n	5e9c <_fflush_r+0x58>
    5e7c:	0028      	movs	r0, r5
    5e7e:	bd70      	pop	{r4, r5, r6, pc}
    5e80:	2500      	movs	r5, #0
    5e82:	e7fb      	b.n	5e7c <_fflush_r+0x38>
    5e84:	6da0      	ldr	r0, [r4, #88]	; 0x58
    5e86:	f7fd fff1 	bl	3e6c <__retarget_lock_acquire_recursive>
    5e8a:	0028      	movs	r0, r5
    5e8c:	0021      	movs	r1, r4
    5e8e:	f7ff ff3f 	bl	5d10 <__sflush_r>
    5e92:	6e63      	ldr	r3, [r4, #100]	; 0x64
    5e94:	0005      	movs	r5, r0
    5e96:	07db      	lsls	r3, r3, #31
    5e98:	d4f0      	bmi.n	5e7c <_fflush_r+0x38>
    5e9a:	e7ec      	b.n	5e76 <_fflush_r+0x32>
    5e9c:	6da0      	ldr	r0, [r4, #88]	; 0x58
    5e9e:	f7fd ffed 	bl	3e7c <__retarget_lock_release_recursive>
    5ea2:	e7eb      	b.n	5e7c <_fflush_r+0x38>
    5ea4:	f000 f96e 	bl	6184 <__sinit>
    5ea8:	e7d4      	b.n	5e54 <_fflush_r+0x10>
    5eaa:	46c0      	nop			; (mov r8, r8)

00005eac <fflush>:
    5eac:	b570      	push	{r4, r5, r6, lr}
    5eae:	1e04      	subs	r4, r0, #0
    5eb0:	d02a      	beq.n	5f08 <fflush+0x5c>
    5eb2:	4b19      	ldr	r3, [pc, #100]	; (5f18 <fflush+0x6c>)
    5eb4:	681d      	ldr	r5, [r3, #0]
    5eb6:	2d00      	cmp	r5, #0
    5eb8:	d002      	beq.n	5ec0 <fflush+0x14>
    5eba:	6b6b      	ldr	r3, [r5, #52]	; 0x34
    5ebc:	2b00      	cmp	r3, #0
    5ebe:	d017      	beq.n	5ef0 <fflush+0x44>
    5ec0:	220c      	movs	r2, #12
    5ec2:	5ea3      	ldrsh	r3, [r4, r2]
    5ec4:	2b00      	cmp	r3, #0
    5ec6:	d011      	beq.n	5eec <fflush+0x40>
    5ec8:	6e62      	ldr	r2, [r4, #100]	; 0x64
    5eca:	07d2      	lsls	r2, r2, #31
    5ecc:	d401      	bmi.n	5ed2 <fflush+0x26>
    5ece:	059b      	lsls	r3, r3, #22
    5ed0:	d512      	bpl.n	5ef8 <fflush+0x4c>
    5ed2:	0028      	movs	r0, r5
    5ed4:	0021      	movs	r1, r4
    5ed6:	f7ff ff1b 	bl	5d10 <__sflush_r>
    5eda:	6e63      	ldr	r3, [r4, #100]	; 0x64
    5edc:	0005      	movs	r5, r0
    5ede:	07db      	lsls	r3, r3, #31
    5ee0:	d402      	bmi.n	5ee8 <fflush+0x3c>
    5ee2:	89a3      	ldrh	r3, [r4, #12]
    5ee4:	059b      	lsls	r3, r3, #22
    5ee6:	d50b      	bpl.n	5f00 <fflush+0x54>
    5ee8:	0028      	movs	r0, r5
    5eea:	bd70      	pop	{r4, r5, r6, pc}
    5eec:	2500      	movs	r5, #0
    5eee:	e7fb      	b.n	5ee8 <fflush+0x3c>
    5ef0:	0028      	movs	r0, r5
    5ef2:	f000 f947 	bl	6184 <__sinit>
    5ef6:	e7e3      	b.n	5ec0 <fflush+0x14>
    5ef8:	6da0      	ldr	r0, [r4, #88]	; 0x58
    5efa:	f7fd ffb7 	bl	3e6c <__retarget_lock_acquire_recursive>
    5efe:	e7e8      	b.n	5ed2 <fflush+0x26>
    5f00:	6da0      	ldr	r0, [r4, #88]	; 0x58
    5f02:	f7fd ffbb 	bl	3e7c <__retarget_lock_release_recursive>
    5f06:	e7ef      	b.n	5ee8 <fflush+0x3c>
    5f08:	4a04      	ldr	r2, [pc, #16]	; (5f1c <fflush+0x70>)
    5f0a:	4905      	ldr	r1, [pc, #20]	; (5f20 <fflush+0x74>)
    5f0c:	4805      	ldr	r0, [pc, #20]	; (5f24 <fflush+0x78>)
    5f0e:	f001 f8fb 	bl	7108 <_fwalk_sglue>
    5f12:	0005      	movs	r5, r0
    5f14:	e7e8      	b.n	5ee8 <fflush+0x3c>
    5f16:	46c0      	nop			; (mov r8, r8)
    5f18:	0020d0e0 	.word	0x0020d0e0
    5f1c:	0020d0e4 	.word	0x0020d0e4
    5f20:	00005e45 	.word	0x00005e45
    5f24:	0020cfc0 	.word	0x0020cfc0

00005f28 <stdio_exit_handler>:
    5f28:	b510      	push	{r4, lr}
    5f2a:	4a03      	ldr	r2, [pc, #12]	; (5f38 <stdio_exit_handler+0x10>)
    5f2c:	4903      	ldr	r1, [pc, #12]	; (5f3c <stdio_exit_handler+0x14>)
    5f2e:	4804      	ldr	r0, [pc, #16]	; (5f40 <stdio_exit_handler+0x18>)
    5f30:	f001 f8ea 	bl	7108 <_fwalk_sglue>
    5f34:	bd10      	pop	{r4, pc}
    5f36:	46c0      	nop			; (mov r8, r8)
    5f38:	0020d0e4 	.word	0x0020d0e4
    5f3c:	000078a5 	.word	0x000078a5
    5f40:	0020cfc0 	.word	0x0020cfc0

00005f44 <cleanup_stdio>:
    5f44:	6841      	ldr	r1, [r0, #4]
    5f46:	4b0b      	ldr	r3, [pc, #44]	; (5f74 <cleanup_stdio+0x30>)
    5f48:	b510      	push	{r4, lr}
    5f4a:	0004      	movs	r4, r0
    5f4c:	4299      	cmp	r1, r3
    5f4e:	d001      	beq.n	5f54 <cleanup_stdio+0x10>
    5f50:	f001 fca8 	bl	78a4 <_fclose_r>
    5f54:	68a1      	ldr	r1, [r4, #8]
    5f56:	4b08      	ldr	r3, [pc, #32]	; (5f78 <cleanup_stdio+0x34>)
    5f58:	4299      	cmp	r1, r3
    5f5a:	d002      	beq.n	5f62 <cleanup_stdio+0x1e>
    5f5c:	0020      	movs	r0, r4
    5f5e:	f001 fca1 	bl	78a4 <_fclose_r>
    5f62:	68e1      	ldr	r1, [r4, #12]
    5f64:	4b05      	ldr	r3, [pc, #20]	; (5f7c <cleanup_stdio+0x38>)
    5f66:	4299      	cmp	r1, r3
    5f68:	d002      	beq.n	5f70 <cleanup_stdio+0x2c>
    5f6a:	0020      	movs	r0, r4
    5f6c:	f001 fc9a 	bl	78a4 <_fclose_r>
    5f70:	bd10      	pop	{r4, pc}
    5f72:	46c0      	nop			; (mov r8, r8)
    5f74:	40000300 	.word	0x40000300
    5f78:	40000368 	.word	0x40000368
    5f7c:	400003d0 	.word	0x400003d0

00005f80 <__fp_lock>:
    5f80:	6e4b      	ldr	r3, [r1, #100]	; 0x64
    5f82:	b510      	push	{r4, lr}
    5f84:	07db      	lsls	r3, r3, #31
    5f86:	d402      	bmi.n	5f8e <__fp_lock+0xe>
    5f88:	898b      	ldrh	r3, [r1, #12]
    5f8a:	059b      	lsls	r3, r3, #22
    5f8c:	d501      	bpl.n	5f92 <__fp_lock+0x12>
    5f8e:	2000      	movs	r0, #0
    5f90:	bd10      	pop	{r4, pc}
    5f92:	6d88      	ldr	r0, [r1, #88]	; 0x58
    5f94:	f7fd ff6a 	bl	3e6c <__retarget_lock_acquire_recursive>
    5f98:	e7f9      	b.n	5f8e <__fp_lock+0xe>
    5f9a:	46c0      	nop			; (mov r8, r8)

00005f9c <__fp_unlock>:
    5f9c:	6e4b      	ldr	r3, [r1, #100]	; 0x64
    5f9e:	b510      	push	{r4, lr}
    5fa0:	07db      	lsls	r3, r3, #31
    5fa2:	d402      	bmi.n	5faa <__fp_unlock+0xe>
    5fa4:	898b      	ldrh	r3, [r1, #12]
    5fa6:	059b      	lsls	r3, r3, #22
    5fa8:	d501      	bpl.n	5fae <__fp_unlock+0x12>
    5faa:	2000      	movs	r0, #0
    5fac:	bd10      	pop	{r4, pc}
    5fae:	6d88      	ldr	r0, [r1, #88]	; 0x58
    5fb0:	f7fd ff64 	bl	3e7c <__retarget_lock_release_recursive>
    5fb4:	e7f9      	b.n	5faa <__fp_unlock+0xe>
    5fb6:	46c0      	nop			; (mov r8, r8)

00005fb8 <global_stdio_init.part.0>:
    5fb8:	b5f8      	push	{r3, r4, r5, r6, r7, lr}
    5fba:	46ce      	mov	lr, r9
    5fbc:	4647      	mov	r7, r8
    5fbe:	4c34      	ldr	r4, [pc, #208]	; (6090 <global_stdio_init.part.0+0xd8>)
    5fc0:	4b34      	ldr	r3, [pc, #208]	; (6094 <global_stdio_init.part.0+0xdc>)
    5fc2:	4a35      	ldr	r2, [pc, #212]	; (6098 <global_stdio_init.part.0+0xe0>)
    5fc4:	2500      	movs	r5, #0
    5fc6:	b580      	push	{r7, lr}
    5fc8:	0020      	movs	r0, r4
    5fca:	601a      	str	r2, [r3, #0]
    5fcc:	2304      	movs	r3, #4
    5fce:	6665      	str	r5, [r4, #100]	; 0x64
    5fd0:	6025      	str	r5, [r4, #0]
    5fd2:	6065      	str	r5, [r4, #4]
    5fd4:	60a5      	str	r5, [r4, #8]
    5fd6:	6125      	str	r5, [r4, #16]
    5fd8:	6165      	str	r5, [r4, #20]
    5fda:	61a5      	str	r5, [r4, #24]
    5fdc:	2208      	movs	r2, #8
    5fde:	2100      	movs	r1, #0
    5fe0:	60e3      	str	r3, [r4, #12]
    5fe2:	305c      	adds	r0, #92	; 0x5c
    5fe4:	f7fd fe90 	bl	3d08 <memset>
    5fe8:	4b2c      	ldr	r3, [pc, #176]	; (609c <global_stdio_init.part.0+0xe4>)
    5fea:	0020      	movs	r0, r4
    5fec:	4699      	mov	r9, r3
    5fee:	6223      	str	r3, [r4, #32]
    5ff0:	4b2b      	ldr	r3, [pc, #172]	; (60a0 <global_stdio_init.part.0+0xe8>)
    5ff2:	4f2c      	ldr	r7, [pc, #176]	; (60a4 <global_stdio_init.part.0+0xec>)
    5ff4:	4698      	mov	r8, r3
    5ff6:	6263      	str	r3, [r4, #36]	; 0x24
    5ff8:	23cc      	movs	r3, #204	; 0xcc
    5ffa:	50e5      	str	r5, [r4, r3]
    5ffc:	4b2a      	ldr	r3, [pc, #168]	; (60a8 <global_stdio_init.part.0+0xf0>)
    5ffe:	4e2b      	ldr	r6, [pc, #172]	; (60ac <global_stdio_init.part.0+0xf4>)
    6000:	6763      	str	r3, [r4, #116]	; 0x74
    6002:	2380      	movs	r3, #128	; 0x80
    6004:	62a7      	str	r7, [r4, #40]	; 0x28
    6006:	50e5      	str	r5, [r4, r3]
    6008:	62e6      	str	r6, [r4, #44]	; 0x2c
    600a:	66a5      	str	r5, [r4, #104]	; 0x68
    600c:	66e5      	str	r5, [r4, #108]	; 0x6c
    600e:	6725      	str	r5, [r4, #112]	; 0x70
    6010:	67a5      	str	r5, [r4, #120]	; 0x78
    6012:	67e5      	str	r5, [r4, #124]	; 0x7c
    6014:	2208      	movs	r2, #8
    6016:	2100      	movs	r1, #0
    6018:	61e4      	str	r4, [r4, #28]
    601a:	30c4      	adds	r0, #196	; 0xc4
    601c:	f7fd fe74 	bl	3d08 <memset>
    6020:	0022      	movs	r2, r4
    6022:	2384      	movs	r3, #132	; 0x84
    6024:	3268      	adds	r2, #104	; 0x68
    6026:	50e2      	str	r2, [r4, r3]
    6028:	464a      	mov	r2, r9
    602a:	3304      	adds	r3, #4
    602c:	50e2      	str	r2, [r4, r3]
    602e:	4642      	mov	r2, r8
    6030:	0020      	movs	r0, r4
    6032:	3304      	adds	r3, #4
    6034:	50e2      	str	r2, [r4, r3]
    6036:	3304      	adds	r3, #4
    6038:	50e7      	str	r7, [r4, r3]
    603a:	3304      	adds	r3, #4
    603c:	50e6      	str	r6, [r4, r3]
    603e:	33a0      	adds	r3, #160	; 0xa0
    6040:	50e5      	str	r5, [r4, r3]
    6042:	3b64      	subs	r3, #100	; 0x64
    6044:	50e5      	str	r5, [r4, r3]
    6046:	3304      	adds	r3, #4
    6048:	50e5      	str	r5, [r4, r3]
    604a:	4a19      	ldr	r2, [pc, #100]	; (60b0 <global_stdio_init.part.0+0xf8>)
    604c:	3304      	adds	r3, #4
    604e:	50e5      	str	r5, [r4, r3]
    6050:	3304      	adds	r3, #4
    6052:	50e2      	str	r2, [r4, r3]
    6054:	3304      	adds	r3, #4
    6056:	50e5      	str	r5, [r4, r3]
    6058:	3304      	adds	r3, #4
    605a:	50e5      	str	r5, [r4, r3]
    605c:	302d      	adds	r0, #45	; 0x2d
    605e:	3304      	adds	r3, #4
    6060:	50e5      	str	r5, [r4, r3]
    6062:	2208      	movs	r2, #8
    6064:	2100      	movs	r1, #0
    6066:	30ff      	adds	r0, #255	; 0xff
    6068:	f7fd fe4e 	bl	3d08 <memset>
    606c:	0022      	movs	r2, r4
    606e:	23ec      	movs	r3, #236	; 0xec
    6070:	32d0      	adds	r2, #208	; 0xd0
    6072:	50e2      	str	r2, [r4, r3]
    6074:	464a      	mov	r2, r9
    6076:	3304      	adds	r3, #4
    6078:	50e2      	str	r2, [r4, r3]
    607a:	4642      	mov	r2, r8
    607c:	3304      	adds	r3, #4
    607e:	50e2      	str	r2, [r4, r3]
    6080:	3304      	adds	r3, #4
    6082:	50e7      	str	r7, [r4, r3]
    6084:	3304      	adds	r3, #4
    6086:	50e6      	str	r6, [r4, r3]
    6088:	bcc0      	pop	{r6, r7}
    608a:	46b9      	mov	r9, r7
    608c:	46b0      	mov	r8, r6
    608e:	bdf8      	pop	{r3, r4, r5, r6, r7, pc}
    6090:	40000300 	.word	0x40000300
    6094:	40000438 	.word	0x40000438
    6098:	00005f29 	.word	0x00005f29
    609c:	000069d9 	.word	0x000069d9
    60a0:	00006a05 	.word	0x00006a05
    60a4:	00006a45 	.word	0x00006a45
    60a8:	00010009 	.word	0x00010009
    60ac:	00006a71 	.word	0x00006a71
    60b0:	00020012 	.word	0x00020012

000060b4 <__sfp>:
    60b4:	b5f8      	push	{r3, r4, r5, r6, r7, lr}
    60b6:	4647      	mov	r7, r8
    60b8:	46ce      	mov	lr, r9
    60ba:	b580      	push	{r7, lr}
    60bc:	4f2d      	ldr	r7, [pc, #180]	; (6174 <__sfp+0xc0>)
    60be:	4680      	mov	r8, r0
    60c0:	0038      	movs	r0, r7
    60c2:	f7fd fed3 	bl	3e6c <__retarget_lock_acquire_recursive>
    60c6:	4b2c      	ldr	r3, [pc, #176]	; (6178 <__sfp+0xc4>)
    60c8:	681b      	ldr	r3, [r3, #0]
    60ca:	2b00      	cmp	r3, #0
    60cc:	d047      	beq.n	615e <__sfp+0xaa>
    60ce:	2304      	movs	r3, #4
    60d0:	4699      	mov	r9, r3
    60d2:	4e2a      	ldr	r6, [pc, #168]	; (617c <__sfp+0xc8>)
    60d4:	6873      	ldr	r3, [r6, #4]
    60d6:	68b4      	ldr	r4, [r6, #8]
    60d8:	3b01      	subs	r3, #1
    60da:	d503      	bpl.n	60e4 <__sfp+0x30>
    60dc:	e025      	b.n	612a <__sfp+0x76>
    60de:	3468      	adds	r4, #104	; 0x68
    60e0:	3b01      	subs	r3, #1
    60e2:	d322      	bcc.n	612a <__sfp+0x76>
    60e4:	220c      	movs	r2, #12
    60e6:	5ea5      	ldrsh	r5, [r4, r2]
    60e8:	2d00      	cmp	r5, #0
    60ea:	d1f8      	bne.n	60de <__sfp+0x2a>
    60ec:	0020      	movs	r0, r4
    60ee:	4b24      	ldr	r3, [pc, #144]	; (6180 <__sfp+0xcc>)
    60f0:	3058      	adds	r0, #88	; 0x58
    60f2:	60e3      	str	r3, [r4, #12]
    60f4:	6665      	str	r5, [r4, #100]	; 0x64
    60f6:	f7fd feb1 	bl	3e5c <__retarget_lock_init_recursive>
    60fa:	0038      	movs	r0, r7
    60fc:	f7fd febe 	bl	3e7c <__retarget_lock_release_recursive>
    6100:	0020      	movs	r0, r4
    6102:	2208      	movs	r2, #8
    6104:	2100      	movs	r1, #0
    6106:	6025      	str	r5, [r4, #0]
    6108:	60a5      	str	r5, [r4, #8]
    610a:	6065      	str	r5, [r4, #4]
    610c:	6125      	str	r5, [r4, #16]
    610e:	6165      	str	r5, [r4, #20]
    6110:	61a5      	str	r5, [r4, #24]
    6112:	305c      	adds	r0, #92	; 0x5c
    6114:	f7fd fdf8 	bl	3d08 <memset>
    6118:	6325      	str	r5, [r4, #48]	; 0x30
    611a:	6365      	str	r5, [r4, #52]	; 0x34
    611c:	6465      	str	r5, [r4, #68]	; 0x44
    611e:	64a5      	str	r5, [r4, #72]	; 0x48
    6120:	0020      	movs	r0, r4
    6122:	bcc0      	pop	{r6, r7}
    6124:	46b9      	mov	r9, r7
    6126:	46b0      	mov	r8, r6
    6128:	bdf8      	pop	{r3, r4, r5, r6, r7, pc}
    612a:	6835      	ldr	r5, [r6, #0]
    612c:	2d00      	cmp	r5, #0
    612e:	d001      	beq.n	6134 <__sfp+0x80>
    6130:	002e      	movs	r6, r5
    6132:	e7cf      	b.n	60d4 <__sfp+0x20>
    6134:	21d6      	movs	r1, #214	; 0xd6
    6136:	4640      	mov	r0, r8
    6138:	0049      	lsls	r1, r1, #1
    613a:	f7fd fb27 	bl	378c <_malloc_r>
    613e:	1e04      	subs	r4, r0, #0
    6140:	d010      	beq.n	6164 <__sfp+0xb0>
    6142:	464b      	mov	r3, r9
    6144:	22d0      	movs	r2, #208	; 0xd0
    6146:	6005      	str	r5, [r0, #0]
    6148:	0025      	movs	r5, r4
    614a:	6043      	str	r3, [r0, #4]
    614c:	300c      	adds	r0, #12
    614e:	2100      	movs	r1, #0
    6150:	60a0      	str	r0, [r4, #8]
    6152:	0052      	lsls	r2, r2, #1
    6154:	f7fd fdd8 	bl	3d08 <memset>
    6158:	6034      	str	r4, [r6, #0]
    615a:	002e      	movs	r6, r5
    615c:	e7ba      	b.n	60d4 <__sfp+0x20>
    615e:	f7ff ff2b 	bl	5fb8 <global_stdio_init.part.0>
    6162:	e7b4      	b.n	60ce <__sfp+0x1a>
    6164:	6030      	str	r0, [r6, #0]
    6166:	0038      	movs	r0, r7
    6168:	f7fd fe88 	bl	3e7c <__retarget_lock_release_recursive>
    616c:	230c      	movs	r3, #12
    616e:	4642      	mov	r2, r8
    6170:	6013      	str	r3, [r2, #0]
    6172:	e7d5      	b.n	6120 <__sfp+0x6c>
    6174:	4000004c 	.word	0x4000004c
    6178:	40000438 	.word	0x40000438
    617c:	0020d0e4 	.word	0x0020d0e4
    6180:	ffff0001 	.word	0xffff0001

00006184 <__sinit>:
    6184:	b570      	push	{r4, r5, r6, lr}
    6186:	0004      	movs	r4, r0
    6188:	4d09      	ldr	r5, [pc, #36]	; (61b0 <__sinit+0x2c>)
    618a:	0028      	movs	r0, r5
    618c:	f7fd fe6e 	bl	3e6c <__retarget_lock_acquire_recursive>
    6190:	6b63      	ldr	r3, [r4, #52]	; 0x34
    6192:	2b00      	cmp	r3, #0
    6194:	d105      	bne.n	61a2 <__sinit+0x1e>
    6196:	4b07      	ldr	r3, [pc, #28]	; (61b4 <__sinit+0x30>)
    6198:	6363      	str	r3, [r4, #52]	; 0x34
    619a:	4b07      	ldr	r3, [pc, #28]	; (61b8 <__sinit+0x34>)
    619c:	681b      	ldr	r3, [r3, #0]
    619e:	2b00      	cmp	r3, #0
    61a0:	d003      	beq.n	61aa <__sinit+0x26>
    61a2:	0028      	movs	r0, r5
    61a4:	f7fd fe6a 	bl	3e7c <__retarget_lock_release_recursive>
    61a8:	bd70      	pop	{r4, r5, r6, pc}
    61aa:	f7ff ff05 	bl	5fb8 <global_stdio_init.part.0>
    61ae:	e7f8      	b.n	61a2 <__sinit+0x1e>
    61b0:	4000004c 	.word	0x4000004c
    61b4:	00005f45 	.word	0x00005f45
    61b8:	40000438 	.word	0x40000438

000061bc <__sfp_lock_acquire>:
    61bc:	b510      	push	{r4, lr}
    61be:	4802      	ldr	r0, [pc, #8]	; (61c8 <__sfp_lock_acquire+0xc>)
    61c0:	f7fd fe54 	bl	3e6c <__retarget_lock_acquire_recursive>
    61c4:	bd10      	pop	{r4, pc}
    61c6:	46c0      	nop			; (mov r8, r8)
    61c8:	4000004c 	.word	0x4000004c

000061cc <__sfp_lock_release>:
    61cc:	b510      	push	{r4, lr}
    61ce:	4802      	ldr	r0, [pc, #8]	; (61d8 <__sfp_lock_release+0xc>)
    61d0:	f7fd fe54 	bl	3e7c <__retarget_lock_release_recursive>
    61d4:	bd10      	pop	{r4, pc}
    61d6:	46c0      	nop			; (mov r8, r8)
    61d8:	4000004c 	.word	0x4000004c

000061dc <__fp_lock_all>:
    61dc:	b510      	push	{r4, lr}
    61de:	4804      	ldr	r0, [pc, #16]	; (61f0 <__fp_lock_all+0x14>)
    61e0:	f7fd fe44 	bl	3e6c <__retarget_lock_acquire_recursive>
    61e4:	2000      	movs	r0, #0
    61e6:	4a03      	ldr	r2, [pc, #12]	; (61f4 <__fp_lock_all+0x18>)
    61e8:	4903      	ldr	r1, [pc, #12]	; (61f8 <__fp_lock_all+0x1c>)
    61ea:	f000 ff8d 	bl	7108 <_fwalk_sglue>
    61ee:	bd10      	pop	{r4, pc}
    61f0:	4000004c 	.word	0x4000004c
    61f4:	0020d0e4 	.word	0x0020d0e4
    61f8:	00005f81 	.word	0x00005f81

000061fc <__fp_unlock_all>:
    61fc:	b510      	push	{r4, lr}
    61fe:	4a04      	ldr	r2, [pc, #16]	; (6210 <__fp_unlock_all+0x14>)
    6200:	4904      	ldr	r1, [pc, #16]	; (6214 <__fp_unlock_all+0x18>)
    6202:	2000      	movs	r0, #0
    6204:	f000 ff80 	bl	7108 <_fwalk_sglue>
    6208:	4803      	ldr	r0, [pc, #12]	; (6218 <__fp_unlock_all+0x1c>)
    620a:	f7fd fe37 	bl	3e7c <__retarget_lock_release_recursive>
    620e:	bd10      	pop	{r4, pc}
    6210:	0020d0e4 	.word	0x0020d0e4
    6214:	00005f9d 	.word	0x00005f9d
    6218:	4000004c 	.word	0x4000004c

0000621c <memchr>:
    621c:	b570      	push	{r4, r5, r6, lr}
    621e:	b2cc      	uxtb	r4, r1
    6220:	0783      	lsls	r3, r0, #30
    6222:	d00d      	beq.n	6240 <memchr+0x24>
    6224:	1e53      	subs	r3, r2, #1
    6226:	2a00      	cmp	r2, #0
    6228:	d00f      	beq.n	624a <memchr+0x2e>
    622a:	2503      	movs	r5, #3
    622c:	e004      	b.n	6238 <memchr+0x1c>
    622e:	3001      	adds	r0, #1
    6230:	4228      	tst	r0, r5
    6232:	d006      	beq.n	6242 <memchr+0x26>
    6234:	3b01      	subs	r3, #1
    6236:	d308      	bcc.n	624a <memchr+0x2e>
    6238:	7802      	ldrb	r2, [r0, #0]
    623a:	42a2      	cmp	r2, r4
    623c:	d1f7      	bne.n	622e <memchr+0x12>
    623e:	bd70      	pop	{r4, r5, r6, pc}
    6240:	0013      	movs	r3, r2
    6242:	2b03      	cmp	r3, #3
    6244:	d80c      	bhi.n	6260 <memchr+0x44>
    6246:	2b00      	cmp	r3, #0
    6248:	d101      	bne.n	624e <memchr+0x32>
    624a:	2000      	movs	r0, #0
    624c:	e7f7      	b.n	623e <memchr+0x22>
    624e:	18c3      	adds	r3, r0, r3
    6250:	e002      	b.n	6258 <memchr+0x3c>
    6252:	3001      	adds	r0, #1
    6254:	4283      	cmp	r3, r0
    6256:	d0f8      	beq.n	624a <memchr+0x2e>
    6258:	7802      	ldrb	r2, [r0, #0]
    625a:	42a2      	cmp	r2, r4
    625c:	d1f9      	bne.n	6252 <memchr+0x36>
    625e:	e7ee      	b.n	623e <memchr+0x22>
    6260:	22ff      	movs	r2, #255	; 0xff
    6262:	4011      	ands	r1, r2
    6264:	020a      	lsls	r2, r1, #8
    6266:	430a      	orrs	r2, r1
    6268:	0415      	lsls	r5, r2, #16
    626a:	4e07      	ldr	r6, [pc, #28]	; (6288 <memchr+0x6c>)
    626c:	4315      	orrs	r5, r2
    626e:	6802      	ldr	r2, [r0, #0]
    6270:	4906      	ldr	r1, [pc, #24]	; (628c <memchr+0x70>)
    6272:	406a      	eors	r2, r5
    6274:	1851      	adds	r1, r2, r1
    6276:	4391      	bics	r1, r2
    6278:	4231      	tst	r1, r6
    627a:	d1e8      	bne.n	624e <memchr+0x32>
    627c:	3b04      	subs	r3, #4
    627e:	3004      	adds	r0, #4
    6280:	2b03      	cmp	r3, #3
    6282:	d8f4      	bhi.n	626e <memchr+0x52>
    6284:	e7df      	b.n	6246 <memchr+0x2a>
    6286:	46c0      	nop			; (mov r8, r8)
    6288:	80808080 	.word	0x80808080
    628c:	fefefeff 	.word	0xfefefeff

00006290 <memcpy>:
    6290:	b5f0      	push	{r4, r5, r6, r7, lr}
    6292:	46c6      	mov	lr, r8
    6294:	b500      	push	{lr}
    6296:	2a0f      	cmp	r2, #15
    6298:	d941      	bls.n	631e <memcpy+0x8e>
    629a:	2403      	movs	r4, #3
    629c:	0003      	movs	r3, r0
    629e:	0026      	movs	r6, r4
    62a0:	430b      	orrs	r3, r1
    62a2:	401e      	ands	r6, r3
    62a4:	421c      	tst	r4, r3
    62a6:	d13f      	bne.n	6328 <memcpy+0x98>
    62a8:	0015      	movs	r5, r2
    62aa:	3d10      	subs	r5, #16
    62ac:	092d      	lsrs	r5, r5, #4
    62ae:	46a8      	mov	r8, r5
    62b0:	012d      	lsls	r5, r5, #4
    62b2:	46ac      	mov	ip, r5
    62b4:	0003      	movs	r3, r0
    62b6:	000c      	movs	r4, r1
    62b8:	4484      	add	ip, r0
    62ba:	6827      	ldr	r7, [r4, #0]
    62bc:	001d      	movs	r5, r3
    62be:	601f      	str	r7, [r3, #0]
    62c0:	6867      	ldr	r7, [r4, #4]
    62c2:	605f      	str	r7, [r3, #4]
    62c4:	68a7      	ldr	r7, [r4, #8]
    62c6:	609f      	str	r7, [r3, #8]
    62c8:	68e7      	ldr	r7, [r4, #12]
    62ca:	3410      	adds	r4, #16
    62cc:	60df      	str	r7, [r3, #12]
    62ce:	3310      	adds	r3, #16
    62d0:	4565      	cmp	r5, ip
    62d2:	d1f2      	bne.n	62ba <memcpy+0x2a>
    62d4:	4645      	mov	r5, r8
    62d6:	230f      	movs	r3, #15
    62d8:	240c      	movs	r4, #12
    62da:	3501      	adds	r5, #1
    62dc:	012d      	lsls	r5, r5, #4
    62de:	1949      	adds	r1, r1, r5
    62e0:	4013      	ands	r3, r2
    62e2:	1945      	adds	r5, r0, r5
    62e4:	4214      	tst	r4, r2
    62e6:	d022      	beq.n	632e <memcpy+0x9e>
    62e8:	598c      	ldr	r4, [r1, r6]
    62ea:	51ac      	str	r4, [r5, r6]
    62ec:	3604      	adds	r6, #4
    62ee:	1b9c      	subs	r4, r3, r6
    62f0:	2c03      	cmp	r4, #3
    62f2:	d8f9      	bhi.n	62e8 <memcpy+0x58>
    62f4:	3b04      	subs	r3, #4
    62f6:	089b      	lsrs	r3, r3, #2
    62f8:	3301      	adds	r3, #1
    62fa:	009b      	lsls	r3, r3, #2
    62fc:	18ed      	adds	r5, r5, r3
    62fe:	18c9      	adds	r1, r1, r3
    6300:	2303      	movs	r3, #3
    6302:	401a      	ands	r2, r3
    6304:	1e56      	subs	r6, r2, #1
    6306:	2a00      	cmp	r2, #0
    6308:	d006      	beq.n	6318 <memcpy+0x88>
    630a:	2300      	movs	r3, #0
    630c:	5ccc      	ldrb	r4, [r1, r3]
    630e:	001a      	movs	r2, r3
    6310:	54ec      	strb	r4, [r5, r3]
    6312:	3301      	adds	r3, #1
    6314:	4296      	cmp	r6, r2
    6316:	d1f9      	bne.n	630c <memcpy+0x7c>
    6318:	bc80      	pop	{r7}
    631a:	46b8      	mov	r8, r7
    631c:	bdf0      	pop	{r4, r5, r6, r7, pc}
    631e:	0005      	movs	r5, r0
    6320:	1e56      	subs	r6, r2, #1
    6322:	2a00      	cmp	r2, #0
    6324:	d1f1      	bne.n	630a <memcpy+0x7a>
    6326:	e7f7      	b.n	6318 <memcpy+0x88>
    6328:	0005      	movs	r5, r0
    632a:	1e56      	subs	r6, r2, #1
    632c:	e7ed      	b.n	630a <memcpy+0x7a>
    632e:	001a      	movs	r2, r3
    6330:	e7f6      	b.n	6320 <memcpy+0x90>
    6332:	46c0      	nop			; (mov r8, r8)

00006334 <strlen>:
    6334:	b510      	push	{r4, lr}
    6336:	0783      	lsls	r3, r0, #30
    6338:	d00a      	beq.n	6350 <strlen+0x1c>
    633a:	0003      	movs	r3, r0
    633c:	2103      	movs	r1, #3
    633e:	e002      	b.n	6346 <strlen+0x12>
    6340:	3301      	adds	r3, #1
    6342:	420b      	tst	r3, r1
    6344:	d005      	beq.n	6352 <strlen+0x1e>
    6346:	781a      	ldrb	r2, [r3, #0]
    6348:	2a00      	cmp	r2, #0
    634a:	d1f9      	bne.n	6340 <strlen+0xc>
    634c:	1a18      	subs	r0, r3, r0
    634e:	bd10      	pop	{r4, pc}
    6350:	0003      	movs	r3, r0
    6352:	6819      	ldr	r1, [r3, #0]
    6354:	4a0c      	ldr	r2, [pc, #48]	; (6388 <strlen+0x54>)
    6356:	4c0d      	ldr	r4, [pc, #52]	; (638c <strlen+0x58>)
    6358:	188a      	adds	r2, r1, r2
    635a:	438a      	bics	r2, r1
    635c:	4222      	tst	r2, r4
    635e:	d10f      	bne.n	6380 <strlen+0x4c>
    6360:	6859      	ldr	r1, [r3, #4]
    6362:	4a09      	ldr	r2, [pc, #36]	; (6388 <strlen+0x54>)
    6364:	3304      	adds	r3, #4
    6366:	188a      	adds	r2, r1, r2
    6368:	438a      	bics	r2, r1
    636a:	4222      	tst	r2, r4
    636c:	d108      	bne.n	6380 <strlen+0x4c>
    636e:	6859      	ldr	r1, [r3, #4]
    6370:	4a05      	ldr	r2, [pc, #20]	; (6388 <strlen+0x54>)
    6372:	3304      	adds	r3, #4
    6374:	188a      	adds	r2, r1, r2
    6376:	438a      	bics	r2, r1
    6378:	4222      	tst	r2, r4
    637a:	d0f1      	beq.n	6360 <strlen+0x2c>
    637c:	e000      	b.n	6380 <strlen+0x4c>
    637e:	3301      	adds	r3, #1
    6380:	781a      	ldrb	r2, [r3, #0]
    6382:	2a00      	cmp	r2, #0
    6384:	d1fb      	bne.n	637e <strlen+0x4a>
    6386:	e7e1      	b.n	634c <strlen+0x18>
    6388:	fefefeff 	.word	0xfefefeff
    638c:	80808080 	.word	0x80808080

00006390 <frexp>:
    6390:	b570      	push	{r4, r5, r6, lr}
    6392:	0014      	movs	r4, r2
    6394:	2500      	movs	r5, #0
    6396:	6025      	str	r5, [r4, #0]
    6398:	4d10      	ldr	r5, [pc, #64]	; (63dc <frexp+0x4c>)
    639a:	004b      	lsls	r3, r1, #1
    639c:	000a      	movs	r2, r1
    639e:	085b      	lsrs	r3, r3, #1
    63a0:	42ab      	cmp	r3, r5
    63a2:	dc19      	bgt.n	63d8 <frexp+0x48>
    63a4:	001d      	movs	r5, r3
    63a6:	4305      	orrs	r5, r0
    63a8:	d016      	beq.n	63d8 <frexp+0x48>
    63aa:	4e0d      	ldr	r6, [pc, #52]	; (63e0 <frexp+0x50>)
    63ac:	2500      	movs	r5, #0
    63ae:	4231      	tst	r1, r6
    63b0:	d107      	bne.n	63c2 <frexp+0x32>
    63b2:	2200      	movs	r2, #0
    63b4:	4b0b      	ldr	r3, [pc, #44]	; (63e4 <frexp+0x54>)
    63b6:	f004 fc89 	bl	accc <__aeabi_dmul>
    63ba:	000a      	movs	r2, r1
    63bc:	004b      	lsls	r3, r1, #1
    63be:	085b      	lsrs	r3, r3, #1
    63c0:	3d36      	subs	r5, #54	; 0x36
    63c2:	4e09      	ldr	r6, [pc, #36]	; (63e8 <frexp+0x58>)
    63c4:	151b      	asrs	r3, r3, #20
    63c6:	46b4      	mov	ip, r6
    63c8:	4463      	add	r3, ip
    63ca:	195b      	adds	r3, r3, r5
    63cc:	6023      	str	r3, [r4, #0]
    63ce:	4b07      	ldr	r3, [pc, #28]	; (63ec <frexp+0x5c>)
    63d0:	401a      	ands	r2, r3
    63d2:	4b07      	ldr	r3, [pc, #28]	; (63f0 <frexp+0x60>)
    63d4:	4313      	orrs	r3, r2
    63d6:	0019      	movs	r1, r3
    63d8:	bd70      	pop	{r4, r5, r6, pc}
    63da:	46c0      	nop			; (mov r8, r8)
    63dc:	7fefffff 	.word	0x7fefffff
    63e0:	7ff00000 	.word	0x7ff00000
    63e4:	43500000 	.word	0x43500000
    63e8:	fffffc02 	.word	0xfffffc02
    63ec:	800fffff 	.word	0x800fffff
    63f0:	3fe00000 	.word	0x3fe00000

000063f4 <strlcpy>:
    63f4:	b530      	push	{r4, r5, lr}
    63f6:	2a00      	cmp	r2, #0
    63f8:	d019      	beq.n	642e <strlcpy+0x3a>
    63fa:	3a01      	subs	r2, #1
    63fc:	000c      	movs	r4, r1
    63fe:	000b      	movs	r3, r1
    6400:	188a      	adds	r2, r1, r2
    6402:	e006      	b.n	6412 <strlcpy+0x1e>
    6404:	7825      	ldrb	r5, [r4, #0]
    6406:	3301      	adds	r3, #1
    6408:	7005      	strb	r5, [r0, #0]
    640a:	3401      	adds	r4, #1
    640c:	3001      	adds	r0, #1
    640e:	2d00      	cmp	r5, #0
    6410:	d00a      	beq.n	6428 <strlcpy+0x34>
    6412:	4293      	cmp	r3, r2
    6414:	d1f6      	bne.n	6404 <strlcpy+0x10>
    6416:	2200      	movs	r2, #0
    6418:	7002      	strb	r2, [r0, #0]
    641a:	001a      	movs	r2, r3
    641c:	3201      	adds	r2, #1
    641e:	1e50      	subs	r0, r2, #1
    6420:	7800      	ldrb	r0, [r0, #0]
    6422:	0013      	movs	r3, r2
    6424:	2800      	cmp	r0, #0
    6426:	d1f9      	bne.n	641c <strlcpy+0x28>
    6428:	1a58      	subs	r0, r3, r1
    642a:	3801      	subs	r0, #1
    642c:	bd30      	pop	{r4, r5, pc}
    642e:	000b      	movs	r3, r1
    6430:	e7f3      	b.n	641a <strlcpy+0x26>
    6432:	46c0      	nop			; (mov r8, r8)

00006434 <_malloc_trim_r>:
    6434:	b5f8      	push	{r3, r4, r5, r6, r7, lr}
    6436:	000c      	movs	r4, r1
    6438:	0005      	movs	r5, r0
    643a:	f7fe fb0d 	bl	4a58 <__malloc_lock>
    643e:	4f20      	ldr	r7, [pc, #128]	; (64c0 <_malloc_trim_r+0x8c>)
    6440:	68bb      	ldr	r3, [r7, #8]
    6442:	685e      	ldr	r6, [r3, #4]
    6444:	2303      	movs	r3, #3
    6446:	439e      	bics	r6, r3
    6448:	4b1e      	ldr	r3, [pc, #120]	; (64c4 <_malloc_trim_r+0x90>)
    644a:	1b34      	subs	r4, r6, r4
    644c:	469c      	mov	ip, r3
    644e:	4464      	add	r4, ip
    6450:	0b24      	lsrs	r4, r4, #12
    6452:	3c01      	subs	r4, #1
    6454:	3311      	adds	r3, #17
    6456:	0324      	lsls	r4, r4, #12
    6458:	429c      	cmp	r4, r3
    645a:	db07      	blt.n	646c <_malloc_trim_r+0x38>
    645c:	2100      	movs	r1, #0
    645e:	0028      	movs	r0, r5
    6460:	f000 fcc6 	bl	6df0 <_sbrk_r>
    6464:	68bb      	ldr	r3, [r7, #8]
    6466:	199b      	adds	r3, r3, r6
    6468:	4298      	cmp	r0, r3
    646a:	d004      	beq.n	6476 <_malloc_trim_r+0x42>
    646c:	0028      	movs	r0, r5
    646e:	f7fe fafb 	bl	4a68 <__malloc_unlock>
    6472:	2000      	movs	r0, #0
    6474:	bdf8      	pop	{r3, r4, r5, r6, r7, pc}
    6476:	0028      	movs	r0, r5
    6478:	4261      	negs	r1, r4
    647a:	f000 fcb9 	bl	6df0 <_sbrk_r>
    647e:	3001      	adds	r0, #1
    6480:	d00d      	beq.n	649e <_malloc_trim_r+0x6a>
    6482:	2201      	movs	r2, #1
    6484:	1b36      	subs	r6, r6, r4
    6486:	68bb      	ldr	r3, [r7, #8]
    6488:	4316      	orrs	r6, r2
    648a:	4a0f      	ldr	r2, [pc, #60]	; (64c8 <_malloc_trim_r+0x94>)
    648c:	605e      	str	r6, [r3, #4]
    648e:	6813      	ldr	r3, [r2, #0]
    6490:	0028      	movs	r0, r5
    6492:	1b1b      	subs	r3, r3, r4
    6494:	6013      	str	r3, [r2, #0]
    6496:	f7fe fae7 	bl	4a68 <__malloc_unlock>
    649a:	2001      	movs	r0, #1
    649c:	e7ea      	b.n	6474 <_malloc_trim_r+0x40>
    649e:	2100      	movs	r1, #0
    64a0:	0028      	movs	r0, r5
    64a2:	f000 fca5 	bl	6df0 <_sbrk_r>
    64a6:	68ba      	ldr	r2, [r7, #8]
    64a8:	1a83      	subs	r3, r0, r2
    64aa:	2b0f      	cmp	r3, #15
    64ac:	ddde      	ble.n	646c <_malloc_trim_r+0x38>
    64ae:	4c07      	ldr	r4, [pc, #28]	; (64cc <_malloc_trim_r+0x98>)
    64b0:	4905      	ldr	r1, [pc, #20]	; (64c8 <_malloc_trim_r+0x94>)
    64b2:	6824      	ldr	r4, [r4, #0]
    64b4:	1b00      	subs	r0, r0, r4
    64b6:	6008      	str	r0, [r1, #0]
    64b8:	2101      	movs	r1, #1
    64ba:	430b      	orrs	r3, r1
    64bc:	6053      	str	r3, [r2, #4]
    64be:	e7d5      	b.n	646c <_malloc_trim_r+0x38>
    64c0:	0020ca20 	.word	0x0020ca20
    64c4:	00000fef 	.word	0x00000fef
    64c8:	40000000 	.word	0x40000000
    64cc:	0020ce28 	.word	0x0020ce28

000064d0 <_free_r>:
    64d0:	b5f8      	push	{r3, r4, r5, r6, r7, lr}
    64d2:	0005      	movs	r5, r0
    64d4:	1e0c      	subs	r4, r1, #0
    64d6:	d04f      	beq.n	6578 <_free_r+0xa8>
    64d8:	f7fe fabe 	bl	4a58 <__malloc_lock>
    64dc:	0021      	movs	r1, r4
    64de:	3908      	subs	r1, #8
    64e0:	6848      	ldr	r0, [r1, #4]
    64e2:	2301      	movs	r3, #1
    64e4:	0002      	movs	r2, r0
    64e6:	2403      	movs	r4, #3
    64e8:	439a      	bics	r2, r3
    64ea:	188f      	adds	r7, r1, r2
    64ec:	469c      	mov	ip, r3
    64ee:	4e62      	ldr	r6, [pc, #392]	; (6678 <_free_r+0x1a8>)
    64f0:	687b      	ldr	r3, [r7, #4]
    64f2:	43a3      	bics	r3, r4
    64f4:	68b4      	ldr	r4, [r6, #8]
    64f6:	42bc      	cmp	r4, r7
    64f8:	d069      	beq.n	65ce <_free_r+0xfe>
    64fa:	4664      	mov	r4, ip
    64fc:	607b      	str	r3, [r7, #4]
    64fe:	4204      	tst	r4, r0
    6500:	d11d      	bne.n	653e <_free_r+0x6e>
    6502:	0034      	movs	r4, r6
    6504:	6808      	ldr	r0, [r1, #0]
    6506:	3408      	adds	r4, #8
    6508:	1a09      	subs	r1, r1, r0
    650a:	1812      	adds	r2, r2, r0
    650c:	6888      	ldr	r0, [r1, #8]
    650e:	42a0      	cmp	r0, r4
    6510:	d04e      	beq.n	65b0 <_free_r+0xe0>
    6512:	68cc      	ldr	r4, [r1, #12]
    6514:	60c4      	str	r4, [r0, #12]
    6516:	60a0      	str	r0, [r4, #8]
    6518:	4664      	mov	r4, ip
    651a:	18f8      	adds	r0, r7, r3
    651c:	6840      	ldr	r0, [r0, #4]
    651e:	4220      	tst	r0, r4
    6520:	d111      	bne.n	6546 <_free_r+0x76>
    6522:	18d2      	adds	r2, r2, r3
    6524:	4855      	ldr	r0, [pc, #340]	; (667c <_free_r+0x1ac>)
    6526:	68bb      	ldr	r3, [r7, #8]
    6528:	4283      	cmp	r3, r0
    652a:	d100      	bne.n	652e <_free_r+0x5e>
    652c:	e07e      	b.n	662c <_free_r+0x15c>
    652e:	68f8      	ldr	r0, [r7, #12]
    6530:	60d8      	str	r0, [r3, #12]
    6532:	6083      	str	r3, [r0, #8]
    6534:	2301      	movs	r3, #1
    6536:	4313      	orrs	r3, r2
    6538:	604b      	str	r3, [r1, #4]
    653a:	508a      	str	r2, [r1, r2]
    653c:	e007      	b.n	654e <_free_r+0x7e>
    653e:	18f8      	adds	r0, r7, r3
    6540:	6840      	ldr	r0, [r0, #4]
    6542:	4220      	tst	r0, r4
    6544:	d0ed      	beq.n	6522 <_free_r+0x52>
    6546:	4663      	mov	r3, ip
    6548:	4313      	orrs	r3, r2
    654a:	604b      	str	r3, [r1, #4]
    654c:	603a      	str	r2, [r7, #0]
    654e:	2380      	movs	r3, #128	; 0x80
    6550:	009b      	lsls	r3, r3, #2
    6552:	429a      	cmp	r2, r3
    6554:	d211      	bcs.n	657a <_free_r+0xaa>
    6556:	0950      	lsrs	r0, r2, #5
    6558:	08d3      	lsrs	r3, r2, #3
    655a:	2201      	movs	r2, #1
    655c:	4082      	lsls	r2, r0
    655e:	6870      	ldr	r0, [r6, #4]
    6560:	00db      	lsls	r3, r3, #3
    6562:	199b      	adds	r3, r3, r6
    6564:	4302      	orrs	r2, r0
    6566:	6072      	str	r2, [r6, #4]
    6568:	689a      	ldr	r2, [r3, #8]
    656a:	60cb      	str	r3, [r1, #12]
    656c:	608a      	str	r2, [r1, #8]
    656e:	6099      	str	r1, [r3, #8]
    6570:	60d1      	str	r1, [r2, #12]
    6572:	0028      	movs	r0, r5
    6574:	f7fe fa78 	bl	4a68 <__malloc_unlock>
    6578:	bdf8      	pop	{r3, r4, r5, r6, r7, pc}
    657a:	0a54      	lsrs	r4, r2, #9
    657c:	2c04      	cmp	r4, #4
    657e:	d83f      	bhi.n	6600 <_free_r+0x130>
    6580:	0994      	lsrs	r4, r2, #6
    6582:	0020      	movs	r0, r4
    6584:	3439      	adds	r4, #57	; 0x39
    6586:	3038      	adds	r0, #56	; 0x38
    6588:	00e4      	lsls	r4, r4, #3
    658a:	1934      	adds	r4, r6, r4
    658c:	6823      	ldr	r3, [r4, #0]
    658e:	3c08      	subs	r4, #8
    6590:	2703      	movs	r7, #3
    6592:	429c      	cmp	r4, r3
    6594:	d043      	beq.n	661e <_free_r+0x14e>
    6596:	6858      	ldr	r0, [r3, #4]
    6598:	43b8      	bics	r0, r7
    659a:	4290      	cmp	r0, r2
    659c:	d902      	bls.n	65a4 <_free_r+0xd4>
    659e:	689b      	ldr	r3, [r3, #8]
    65a0:	429c      	cmp	r4, r3
    65a2:	d1f8      	bne.n	6596 <_free_r+0xc6>
    65a4:	68dc      	ldr	r4, [r3, #12]
    65a6:	60cc      	str	r4, [r1, #12]
    65a8:	608b      	str	r3, [r1, #8]
    65aa:	60a1      	str	r1, [r4, #8]
    65ac:	60d9      	str	r1, [r3, #12]
    65ae:	e7e0      	b.n	6572 <_free_r+0xa2>
    65b0:	4664      	mov	r4, ip
    65b2:	18f8      	adds	r0, r7, r3
    65b4:	6840      	ldr	r0, [r0, #4]
    65b6:	4220      	tst	r0, r4
    65b8:	d158      	bne.n	666c <_free_r+0x19c>
    65ba:	68b8      	ldr	r0, [r7, #8]
    65bc:	189a      	adds	r2, r3, r2
    65be:	68fb      	ldr	r3, [r7, #12]
    65c0:	60c3      	str	r3, [r0, #12]
    65c2:	6098      	str	r0, [r3, #8]
    65c4:	4663      	mov	r3, ip
    65c6:	4313      	orrs	r3, r2
    65c8:	604b      	str	r3, [r1, #4]
    65ca:	508a      	str	r2, [r1, r2]
    65cc:	e7d1      	b.n	6572 <_free_r+0xa2>
    65ce:	18d3      	adds	r3, r2, r3
    65d0:	4662      	mov	r2, ip
    65d2:	4202      	tst	r2, r0
    65d4:	d106      	bne.n	65e4 <_free_r+0x114>
    65d6:	680a      	ldr	r2, [r1, #0]
    65d8:	1a89      	subs	r1, r1, r2
    65da:	6888      	ldr	r0, [r1, #8]
    65dc:	189b      	adds	r3, r3, r2
    65de:	68ca      	ldr	r2, [r1, #12]
    65e0:	60c2      	str	r2, [r0, #12]
    65e2:	6090      	str	r0, [r2, #8]
    65e4:	2201      	movs	r2, #1
    65e6:	431a      	orrs	r2, r3
    65e8:	604a      	str	r2, [r1, #4]
    65ea:	4a25      	ldr	r2, [pc, #148]	; (6680 <_free_r+0x1b0>)
    65ec:	60b1      	str	r1, [r6, #8]
    65ee:	6812      	ldr	r2, [r2, #0]
    65f0:	429a      	cmp	r2, r3
    65f2:	d8be      	bhi.n	6572 <_free_r+0xa2>
    65f4:	4b23      	ldr	r3, [pc, #140]	; (6684 <_free_r+0x1b4>)
    65f6:	0028      	movs	r0, r5
    65f8:	6819      	ldr	r1, [r3, #0]
    65fa:	f7ff ff1b 	bl	6434 <_malloc_trim_r>
    65fe:	e7b8      	b.n	6572 <_free_r+0xa2>
    6600:	2c14      	cmp	r4, #20
    6602:	d907      	bls.n	6614 <_free_r+0x144>
    6604:	2c54      	cmp	r4, #84	; 0x54
    6606:	d81a      	bhi.n	663e <_free_r+0x16e>
    6608:	0b14      	lsrs	r4, r2, #12
    660a:	0020      	movs	r0, r4
    660c:	346f      	adds	r4, #111	; 0x6f
    660e:	306e      	adds	r0, #110	; 0x6e
    6610:	00e4      	lsls	r4, r4, #3
    6612:	e7ba      	b.n	658a <_free_r+0xba>
    6614:	0020      	movs	r0, r4
    6616:	345c      	adds	r4, #92	; 0x5c
    6618:	305b      	adds	r0, #91	; 0x5b
    661a:	00e4      	lsls	r4, r4, #3
    661c:	e7b5      	b.n	658a <_free_r+0xba>
    661e:	2201      	movs	r2, #1
    6620:	1080      	asrs	r0, r0, #2
    6622:	4082      	lsls	r2, r0
    6624:	6870      	ldr	r0, [r6, #4]
    6626:	4302      	orrs	r2, r0
    6628:	6072      	str	r2, [r6, #4]
    662a:	e7bc      	b.n	65a6 <_free_r+0xd6>
    662c:	60d9      	str	r1, [r3, #12]
    662e:	6099      	str	r1, [r3, #8]
    6630:	60cb      	str	r3, [r1, #12]
    6632:	608b      	str	r3, [r1, #8]
    6634:	2301      	movs	r3, #1
    6636:	4313      	orrs	r3, r2
    6638:	604b      	str	r3, [r1, #4]
    663a:	508a      	str	r2, [r1, r2]
    663c:	e799      	b.n	6572 <_free_r+0xa2>
    663e:	20aa      	movs	r0, #170	; 0xaa
    6640:	0040      	lsls	r0, r0, #1
    6642:	4284      	cmp	r4, r0
    6644:	d805      	bhi.n	6652 <_free_r+0x182>
    6646:	0bd4      	lsrs	r4, r2, #15
    6648:	0020      	movs	r0, r4
    664a:	3478      	adds	r4, #120	; 0x78
    664c:	3077      	adds	r0, #119	; 0x77
    664e:	00e4      	lsls	r4, r4, #3
    6650:	e79b      	b.n	658a <_free_r+0xba>
    6652:	480d      	ldr	r0, [pc, #52]	; (6688 <_free_r+0x1b8>)
    6654:	4284      	cmp	r4, r0
    6656:	d805      	bhi.n	6664 <_free_r+0x194>
    6658:	0c94      	lsrs	r4, r2, #18
    665a:	0020      	movs	r0, r4
    665c:	347d      	adds	r4, #125	; 0x7d
    665e:	307c      	adds	r0, #124	; 0x7c
    6660:	00e4      	lsls	r4, r4, #3
    6662:	e792      	b.n	658a <_free_r+0xba>
    6664:	24fe      	movs	r4, #254	; 0xfe
    6666:	207e      	movs	r0, #126	; 0x7e
    6668:	00a4      	lsls	r4, r4, #2
    666a:	e78e      	b.n	658a <_free_r+0xba>
    666c:	4663      	mov	r3, ip
    666e:	4313      	orrs	r3, r2
    6670:	604b      	str	r3, [r1, #4]
    6672:	603a      	str	r2, [r7, #0]
    6674:	e77d      	b.n	6572 <_free_r+0xa2>
    6676:	46c0      	nop			; (mov r8, r8)
    6678:	0020ca20 	.word	0x0020ca20
    667c:	0020ca28 	.word	0x0020ca28
    6680:	0020ce2c 	.word	0x0020ce2c
    6684:	40000030 	.word	0x40000030
    6688:	00000554 	.word	0x00000554

0000668c <_strtol_l.constprop.0>:
    668c:	b5f0      	push	{r4, r5, r6, r7, lr}
    668e:	464e      	mov	r6, r9
    6690:	4645      	mov	r5, r8
    6692:	46de      	mov	lr, fp
    6694:	4657      	mov	r7, sl
    6696:	b5e0      	push	{r5, r6, r7, lr}
    6698:	b083      	sub	sp, #12
    669a:	4681      	mov	r9, r0
    669c:	4690      	mov	r8, r2
    669e:	001e      	movs	r6, r3
    66a0:	9100      	str	r1, [sp, #0]
    66a2:	2b01      	cmp	r3, #1
    66a4:	d03e      	beq.n	6724 <_strtol_l.constprop.0+0x98>
    66a6:	469a      	mov	sl, r3
    66a8:	2b24      	cmp	r3, #36	; 0x24
    66aa:	d83b      	bhi.n	6724 <_strtol_l.constprop.0+0x98>
    66ac:	2008      	movs	r0, #8
    66ae:	9a00      	ldr	r2, [sp, #0]
    66b0:	4f4f      	ldr	r7, [pc, #316]	; (67f0 <_strtol_l.constprop.0+0x164>)
    66b2:	0013      	movs	r3, r2
    66b4:	781c      	ldrb	r4, [r3, #0]
    66b6:	1c55      	adds	r5, r2, #1
    66b8:	5d39      	ldrb	r1, [r7, r4]
    66ba:	002a      	movs	r2, r5
    66bc:	4208      	tst	r0, r1
    66be:	d1f8      	bne.n	66b2 <_strtol_l.constprop.0+0x26>
    66c0:	2c2d      	cmp	r4, #45	; 0x2d
    66c2:	d06b      	beq.n	679c <_strtol_l.constprop.0+0x110>
    66c4:	2c2b      	cmp	r4, #43	; 0x2b
    66c6:	d039      	beq.n	673c <_strtol_l.constprop.0+0xb0>
    66c8:	4b4a      	ldr	r3, [pc, #296]	; (67f4 <_strtol_l.constprop.0+0x168>)
    66ca:	469b      	mov	fp, r3
    66cc:	2300      	movs	r3, #0
    66ce:	9301      	str	r3, [sp, #4]
    66d0:	2e00      	cmp	r6, #0
    66d2:	d056      	beq.n	6782 <_strtol_l.constprop.0+0xf6>
    66d4:	2e10      	cmp	r6, #16
    66d6:	d100      	bne.n	66da <_strtol_l.constprop.0+0x4e>
    66d8:	e077      	b.n	67ca <_strtol_l.constprop.0+0x13e>
    66da:	4651      	mov	r1, sl
    66dc:	4658      	mov	r0, fp
    66de:	f002 fc81 	bl	8fe4 <__aeabi_uidivmod>
    66e2:	000f      	movs	r7, r1
    66e4:	0002      	movs	r2, r0
    66e6:	46bc      	mov	ip, r7
    66e8:	002b      	movs	r3, r5
    66ea:	2100      	movs	r1, #0
    66ec:	2000      	movs	r0, #0
    66ee:	4657      	mov	r7, sl
    66f0:	e006      	b.n	6700 <_strtol_l.constprop.0+0x74>
    66f2:	4282      	cmp	r2, r0
    66f4:	d040      	beq.n	6778 <_strtol_l.constprop.0+0xec>
    66f6:	2101      	movs	r1, #1
    66f8:	4378      	muls	r0, r7
    66fa:	1828      	adds	r0, r5, r0
    66fc:	781c      	ldrb	r4, [r3, #0]
    66fe:	3301      	adds	r3, #1
    6700:	0025      	movs	r5, r4
    6702:	3d30      	subs	r5, #48	; 0x30
    6704:	2d09      	cmp	r5, #9
    6706:	d904      	bls.n	6712 <_strtol_l.constprop.0+0x86>
    6708:	3d11      	subs	r5, #17
    670a:	2d19      	cmp	r5, #25
    670c:	d81d      	bhi.n	674a <_strtol_l.constprop.0+0xbe>
    670e:	3c37      	subs	r4, #55	; 0x37
    6710:	0025      	movs	r5, r4
    6712:	42ae      	cmp	r6, r5
    6714:	dd21      	ble.n	675a <_strtol_l.constprop.0+0xce>
    6716:	1c4c      	adds	r4, r1, #1
    6718:	d0f0      	beq.n	66fc <_strtol_l.constprop.0+0x70>
    671a:	4282      	cmp	r2, r0
    671c:	d2e9      	bcs.n	66f2 <_strtol_l.constprop.0+0x66>
    671e:	2101      	movs	r1, #1
    6720:	4249      	negs	r1, r1
    6722:	e7eb      	b.n	66fc <_strtol_l.constprop.0+0x70>
    6724:	f7f9 fcf4 	bl	110 <__errno>
    6728:	2316      	movs	r3, #22
    672a:	6003      	str	r3, [r0, #0]
    672c:	2000      	movs	r0, #0
    672e:	b003      	add	sp, #12
    6730:	bcf0      	pop	{r4, r5, r6, r7}
    6732:	46bb      	mov	fp, r7
    6734:	46b2      	mov	sl, r6
    6736:	46a9      	mov	r9, r5
    6738:	46a0      	mov	r8, r4
    673a:	bdf0      	pop	{r4, r5, r6, r7, pc}
    673c:	782c      	ldrb	r4, [r5, #0]
    673e:	1c9d      	adds	r5, r3, #2
    6740:	4b2c      	ldr	r3, [pc, #176]	; (67f4 <_strtol_l.constprop.0+0x168>)
    6742:	469b      	mov	fp, r3
    6744:	2300      	movs	r3, #0
    6746:	9301      	str	r3, [sp, #4]
    6748:	e7c2      	b.n	66d0 <_strtol_l.constprop.0+0x44>
    674a:	0025      	movs	r5, r4
    674c:	3d61      	subs	r5, #97	; 0x61
    674e:	2d19      	cmp	r5, #25
    6750:	d803      	bhi.n	675a <_strtol_l.constprop.0+0xce>
    6752:	3c57      	subs	r4, #87	; 0x57
    6754:	0025      	movs	r5, r4
    6756:	42ae      	cmp	r6, r5
    6758:	dcdd      	bgt.n	6716 <_strtol_l.constprop.0+0x8a>
    675a:	1c4a      	adds	r2, r1, #1
    675c:	d026      	beq.n	67ac <_strtol_l.constprop.0+0x120>
    675e:	9a01      	ldr	r2, [sp, #4]
    6760:	2a00      	cmp	r2, #0
    6762:	d000      	beq.n	6766 <_strtol_l.constprop.0+0xda>
    6764:	4240      	negs	r0, r0
    6766:	4642      	mov	r2, r8
    6768:	2a00      	cmp	r2, #0
    676a:	d0e0      	beq.n	672e <_strtol_l.constprop.0+0xa2>
    676c:	2900      	cmp	r1, #0
    676e:	d138      	bne.n	67e2 <_strtol_l.constprop.0+0x156>
    6770:	4643      	mov	r3, r8
    6772:	9a00      	ldr	r2, [sp, #0]
    6774:	601a      	str	r2, [r3, #0]
    6776:	e7da      	b.n	672e <_strtol_l.constprop.0+0xa2>
    6778:	45ac      	cmp	ip, r5
    677a:	dabc      	bge.n	66f6 <_strtol_l.constprop.0+0x6a>
    677c:	2101      	movs	r1, #1
    677e:	4249      	negs	r1, r1
    6780:	e7bc      	b.n	66fc <_strtol_l.constprop.0+0x70>
    6782:	2c30      	cmp	r4, #48	; 0x30
    6784:	d11d      	bne.n	67c2 <_strtol_l.constprop.0+0x136>
    6786:	2220      	movs	r2, #32
    6788:	782b      	ldrb	r3, [r5, #0]
    678a:	4393      	bics	r3, r2
    678c:	2b58      	cmp	r3, #88	; 0x58
    678e:	d12a      	bne.n	67e6 <_strtol_l.constprop.0+0x15a>
    6790:	2310      	movs	r3, #16
    6792:	786c      	ldrb	r4, [r5, #1]
    6794:	469a      	mov	sl, r3
    6796:	2610      	movs	r6, #16
    6798:	3502      	adds	r5, #2
    679a:	e79e      	b.n	66da <_strtol_l.constprop.0+0x4e>
    679c:	782c      	ldrb	r4, [r5, #0]
    679e:	1c9d      	adds	r5, r3, #2
    67a0:	2380      	movs	r3, #128	; 0x80
    67a2:	061b      	lsls	r3, r3, #24
    67a4:	469b      	mov	fp, r3
    67a6:	2301      	movs	r3, #1
    67a8:	9301      	str	r3, [sp, #4]
    67aa:	e791      	b.n	66d0 <_strtol_l.constprop.0+0x44>
    67ac:	2222      	movs	r2, #34	; 0x22
    67ae:	4649      	mov	r1, r9
    67b0:	600a      	str	r2, [r1, #0]
    67b2:	4642      	mov	r2, r8
    67b4:	4658      	mov	r0, fp
    67b6:	2a00      	cmp	r2, #0
    67b8:	d0b9      	beq.n	672e <_strtol_l.constprop.0+0xa2>
    67ba:	3b01      	subs	r3, #1
    67bc:	4658      	mov	r0, fp
    67be:	9300      	str	r3, [sp, #0]
    67c0:	e7d6      	b.n	6770 <_strtol_l.constprop.0+0xe4>
    67c2:	230a      	movs	r3, #10
    67c4:	260a      	movs	r6, #10
    67c6:	469a      	mov	sl, r3
    67c8:	e787      	b.n	66da <_strtol_l.constprop.0+0x4e>
    67ca:	2310      	movs	r3, #16
    67cc:	469a      	mov	sl, r3
    67ce:	2c30      	cmp	r4, #48	; 0x30
    67d0:	d000      	beq.n	67d4 <_strtol_l.constprop.0+0x148>
    67d2:	e782      	b.n	66da <_strtol_l.constprop.0+0x4e>
    67d4:	2220      	movs	r2, #32
    67d6:	782b      	ldrb	r3, [r5, #0]
    67d8:	4393      	bics	r3, r2
    67da:	2b58      	cmp	r3, #88	; 0x58
    67dc:	d000      	beq.n	67e0 <_strtol_l.constprop.0+0x154>
    67de:	e77c      	b.n	66da <_strtol_l.constprop.0+0x4e>
    67e0:	e7d6      	b.n	6790 <_strtol_l.constprop.0+0x104>
    67e2:	4683      	mov	fp, r0
    67e4:	e7e9      	b.n	67ba <_strtol_l.constprop.0+0x12e>
    67e6:	2308      	movs	r3, #8
    67e8:	2608      	movs	r6, #8
    67ea:	469a      	mov	sl, r3
    67ec:	e775      	b.n	66da <_strtol_l.constprop.0+0x4e>
    67ee:	46c0      	nop			; (mov r8, r8)
    67f0:	0000c58d 	.word	0x0000c58d
    67f4:	7fffffff 	.word	0x7fffffff

000067f8 <_strtol_r>:
    67f8:	b510      	push	{r4, lr}
    67fa:	f7ff ff47 	bl	668c <_strtol_l.constprop.0>
    67fe:	bd10      	pop	{r4, pc}

00006800 <strtol_l>:
    6800:	b510      	push	{r4, lr}
    6802:	0004      	movs	r4, r0
    6804:	0013      	movs	r3, r2
    6806:	4a03      	ldr	r2, [pc, #12]	; (6814 <strtol_l+0x14>)
    6808:	6810      	ldr	r0, [r2, #0]
    680a:	000a      	movs	r2, r1
    680c:	0021      	movs	r1, r4
    680e:	f7ff ff3d 	bl	668c <_strtol_l.constprop.0>
    6812:	bd10      	pop	{r4, pc}
    6814:	0020d0e0 	.word	0x0020d0e0

00006818 <strtol>:
    6818:	b510      	push	{r4, lr}
    681a:	0004      	movs	r4, r0
    681c:	0013      	movs	r3, r2
    681e:	4a03      	ldr	r2, [pc, #12]	; (682c <strtol+0x14>)
    6820:	6810      	ldr	r0, [r2, #0]
    6822:	000a      	movs	r2, r1
    6824:	0021      	movs	r1, r4
    6826:	f7ff ff31 	bl	668c <_strtol_l.constprop.0>
    682a:	bd10      	pop	{r4, pc}
    682c:	0020d0e0 	.word	0x0020d0e0

00006830 <strncasecmp>:
    6830:	4684      	mov	ip, r0
    6832:	b5f0      	push	{r4, r5, r6, r7, lr}
    6834:	2a00      	cmp	r2, #0
    6836:	d01d      	beq.n	6874 <strncasecmp+0x44>
    6838:	2400      	movs	r4, #0
    683a:	2603      	movs	r6, #3
    683c:	4f0f      	ldr	r7, [pc, #60]	; (687c <strncasecmp+0x4c>)
    683e:	e007      	b.n	6850 <strncasecmp+0x20>
    6840:	1a1d      	subs	r5, r3, r0
    6842:	4283      	cmp	r3, r0
    6844:	d118      	bne.n	6878 <strncasecmp+0x48>
    6846:	2800      	cmp	r0, #0
    6848:	d013      	beq.n	6872 <strncasecmp+0x42>
    684a:	3401      	adds	r4, #1
    684c:	42a2      	cmp	r2, r4
    684e:	d011      	beq.n	6874 <strncasecmp+0x44>
    6850:	4663      	mov	r3, ip
    6852:	5d1b      	ldrb	r3, [r3, r4]
    6854:	5cfd      	ldrb	r5, [r7, r3]
    6856:	4035      	ands	r5, r6
    6858:	2d01      	cmp	r5, #1
    685a:	d100      	bne.n	685e <strncasecmp+0x2e>
    685c:	3320      	adds	r3, #32
    685e:	5d08      	ldrb	r0, [r1, r4]
    6860:	5c3d      	ldrb	r5, [r7, r0]
    6862:	4035      	ands	r5, r6
    6864:	2d01      	cmp	r5, #1
    6866:	d1eb      	bne.n	6840 <strncasecmp+0x10>
    6868:	3020      	adds	r0, #32
    686a:	0005      	movs	r5, r0
    686c:	1a18      	subs	r0, r3, r0
    686e:	42ab      	cmp	r3, r5
    6870:	d0eb      	beq.n	684a <strncasecmp+0x1a>
    6872:	bdf0      	pop	{r4, r5, r6, r7, pc}
    6874:	2000      	movs	r0, #0
    6876:	e7fc      	b.n	6872 <strncasecmp+0x42>
    6878:	0028      	movs	r0, r5
    687a:	e7fa      	b.n	6872 <strncasecmp+0x42>
    687c:	0000c58d 	.word	0x0000c58d

00006880 <_findenv_r>:
    6880:	b5f0      	push	{r4, r5, r6, r7, lr}
    6882:	464f      	mov	r7, r9
    6884:	4646      	mov	r6, r8
    6886:	46d6      	mov	lr, sl
    6888:	b5c0      	push	{r6, r7, lr}
    688a:	4690      	mov	r8, r2
    688c:	0007      	movs	r7, r0
    688e:	000e      	movs	r6, r1
    6890:	f002 f892 	bl	89b8 <__env_lock>
    6894:	4b1d      	ldr	r3, [pc, #116]	; (690c <_findenv_r+0x8c>)
    6896:	681d      	ldr	r5, [r3, #0]
    6898:	4699      	mov	r9, r3
    689a:	2d00      	cmp	r5, #0
    689c:	d00a      	beq.n	68b4 <_findenv_r+0x34>
    689e:	7833      	ldrb	r3, [r6, #0]
    68a0:	0034      	movs	r4, r6
    68a2:	2b00      	cmp	r3, #0
    68a4:	d104      	bne.n	68b0 <_findenv_r+0x30>
    68a6:	e02f      	b.n	6908 <_findenv_r+0x88>
    68a8:	7863      	ldrb	r3, [r4, #1]
    68aa:	3401      	adds	r4, #1
    68ac:	2b00      	cmp	r3, #0
    68ae:	d00a      	beq.n	68c6 <_findenv_r+0x46>
    68b0:	2b3d      	cmp	r3, #61	; 0x3d
    68b2:	d1f9      	bne.n	68a8 <_findenv_r+0x28>
    68b4:	0038      	movs	r0, r7
    68b6:	f002 f887 	bl	89c8 <__env_unlock>
    68ba:	2000      	movs	r0, #0
    68bc:	bce0      	pop	{r5, r6, r7}
    68be:	46ba      	mov	sl, r7
    68c0:	46b1      	mov	r9, r6
    68c2:	46a8      	mov	r8, r5
    68c4:	bdf0      	pop	{r4, r5, r6, r7, pc}
    68c6:	1ba4      	subs	r4, r4, r6
    68c8:	6828      	ldr	r0, [r5, #0]
    68ca:	2800      	cmp	r0, #0
    68cc:	d0f2      	beq.n	68b4 <_findenv_r+0x34>
    68ce:	0022      	movs	r2, r4
    68d0:	0031      	movs	r1, r6
    68d2:	f002 f881 	bl	89d8 <strncmp>
    68d6:	2800      	cmp	r0, #0
    68d8:	d105      	bne.n	68e6 <_findenv_r+0x66>
    68da:	682b      	ldr	r3, [r5, #0]
    68dc:	191a      	adds	r2, r3, r4
    68de:	5d1b      	ldrb	r3, [r3, r4]
    68e0:	4692      	mov	sl, r2
    68e2:	2b3d      	cmp	r3, #61	; 0x3d
    68e4:	d004      	beq.n	68f0 <_findenv_r+0x70>
    68e6:	6868      	ldr	r0, [r5, #4]
    68e8:	3504      	adds	r5, #4
    68ea:	2800      	cmp	r0, #0
    68ec:	d1ef      	bne.n	68ce <_findenv_r+0x4e>
    68ee:	e7e1      	b.n	68b4 <_findenv_r+0x34>
    68f0:	464b      	mov	r3, r9
    68f2:	4642      	mov	r2, r8
    68f4:	681b      	ldr	r3, [r3, #0]
    68f6:	0038      	movs	r0, r7
    68f8:	1aeb      	subs	r3, r5, r3
    68fa:	109b      	asrs	r3, r3, #2
    68fc:	6013      	str	r3, [r2, #0]
    68fe:	f002 f863 	bl	89c8 <__env_unlock>
    6902:	4650      	mov	r0, sl
    6904:	3001      	adds	r0, #1
    6906:	e7d9      	b.n	68bc <_findenv_r+0x3c>
    6908:	2400      	movs	r4, #0
    690a:	e7dd      	b.n	68c8 <_findenv_r+0x48>
    690c:	0020d0f0 	.word	0x0020d0f0

00006910 <_getenv_r>:
    6910:	b500      	push	{lr}
    6912:	b083      	sub	sp, #12
    6914:	aa01      	add	r2, sp, #4
    6916:	f7ff ffb3 	bl	6880 <_findenv_r>
    691a:	b003      	add	sp, #12
    691c:	bd00      	pop	{pc}
    691e:	46c0      	nop			; (mov r8, r8)

00006920 <strncpy>:
    6920:	0003      	movs	r3, r0
    6922:	430b      	orrs	r3, r1
    6924:	b5f0      	push	{r4, r5, r6, r7, lr}
    6926:	0007      	movs	r7, r0
    6928:	079b      	lsls	r3, r3, #30
    692a:	d113      	bne.n	6954 <strncpy+0x34>
    692c:	2a03      	cmp	r2, #3
    692e:	d911      	bls.n	6954 <strncpy+0x34>
    6930:	4c14      	ldr	r4, [pc, #80]	; (6984 <strncpy+0x64>)
    6932:	0003      	movs	r3, r0
    6934:	46a4      	mov	ip, r4
    6936:	4667      	mov	r7, ip
    6938:	680d      	ldr	r5, [r1, #0]
    693a:	4c13      	ldr	r4, [pc, #76]	; (6988 <strncpy+0x68>)
    693c:	001e      	movs	r6, r3
    693e:	192c      	adds	r4, r5, r4
    6940:	43ac      	bics	r4, r5
    6942:	423c      	tst	r4, r7
    6944:	d11b      	bne.n	697e <strncpy+0x5e>
    6946:	3304      	adds	r3, #4
    6948:	3a04      	subs	r2, #4
    694a:	001f      	movs	r7, r3
    694c:	3104      	adds	r1, #4
    694e:	6035      	str	r5, [r6, #0]
    6950:	2a03      	cmp	r2, #3
    6952:	d8f0      	bhi.n	6936 <strncpy+0x16>
    6954:	2400      	movs	r4, #0
    6956:	18be      	adds	r6, r7, r2
    6958:	e006      	b.n	6968 <strncpy+0x48>
    695a:	5d0d      	ldrb	r5, [r1, r4]
    695c:	3a01      	subs	r2, #1
    695e:	553d      	strb	r5, [r7, r4]
    6960:	1ab3      	subs	r3, r6, r2
    6962:	3401      	adds	r4, #1
    6964:	2d00      	cmp	r5, #0
    6966:	d002      	beq.n	696e <strncpy+0x4e>
    6968:	2a00      	cmp	r2, #0
    696a:	d1f6      	bne.n	695a <strncpy+0x3a>
    696c:	bdf0      	pop	{r4, r5, r6, r7, pc}
    696e:	2100      	movs	r1, #0
    6970:	2a00      	cmp	r2, #0
    6972:	d0fb      	beq.n	696c <strncpy+0x4c>
    6974:	7019      	strb	r1, [r3, #0]
    6976:	3301      	adds	r3, #1
    6978:	429e      	cmp	r6, r3
    697a:	d1fb      	bne.n	6974 <strncpy+0x54>
    697c:	e7f6      	b.n	696c <strncpy+0x4c>
    697e:	001f      	movs	r7, r3
    6980:	e7e8      	b.n	6954 <strncpy+0x34>
    6982:	46c0      	nop			; (mov r8, r8)
    6984:	80808080 	.word	0x80808080
    6988:	fefefeff 	.word	0xfefefeff

0000698c <_fstat_r>:
    698c:	2300      	movs	r3, #0
    698e:	b570      	push	{r4, r5, r6, lr}
    6990:	4d07      	ldr	r5, [pc, #28]	; (69b0 <_fstat_r+0x24>)
    6992:	0004      	movs	r4, r0
    6994:	0008      	movs	r0, r1
    6996:	0011      	movs	r1, r2
    6998:	602b      	str	r3, [r5, #0]
    699a:	f005 f985 	bl	bca8 <_fstat>
    699e:	1c43      	adds	r3, r0, #1
    69a0:	d000      	beq.n	69a4 <_fstat_r+0x18>
    69a2:	bd70      	pop	{r4, r5, r6, pc}
    69a4:	682b      	ldr	r3, [r5, #0]
    69a6:	2b00      	cmp	r3, #0
    69a8:	d0fb      	beq.n	69a2 <_fstat_r+0x16>
    69aa:	6023      	str	r3, [r4, #0]
    69ac:	e7f9      	b.n	69a2 <_fstat_r+0x16>
    69ae:	46c0      	nop			; (mov r8, r8)
    69b0:	4000043c 	.word	0x4000043c

000069b4 <_isatty_r>:
    69b4:	2300      	movs	r3, #0
    69b6:	b570      	push	{r4, r5, r6, lr}
    69b8:	4c06      	ldr	r4, [pc, #24]	; (69d4 <_isatty_r+0x20>)
    69ba:	0005      	movs	r5, r0
    69bc:	0008      	movs	r0, r1
    69be:	6023      	str	r3, [r4, #0]
    69c0:	f005 f982 	bl	bcc8 <_isatty>
    69c4:	1c43      	adds	r3, r0, #1
    69c6:	d000      	beq.n	69ca <_isatty_r+0x16>
    69c8:	bd70      	pop	{r4, r5, r6, pc}
    69ca:	6823      	ldr	r3, [r4, #0]
    69cc:	2b00      	cmp	r3, #0
    69ce:	d0fb      	beq.n	69c8 <_isatty_r+0x14>
    69d0:	602b      	str	r3, [r5, #0]
    69d2:	e7f9      	b.n	69c8 <_isatty_r+0x14>
    69d4:	4000043c 	.word	0x4000043c

000069d8 <__sread>:
    69d8:	b570      	push	{r4, r5, r6, lr}
    69da:	000c      	movs	r4, r1
    69dc:	250e      	movs	r5, #14
    69de:	5f49      	ldrsh	r1, [r1, r5]
    69e0:	f002 f848 	bl	8a74 <_read_r>
    69e4:	2800      	cmp	r0, #0
    69e6:	db03      	blt.n	69f0 <__sread+0x18>
    69e8:	6d23      	ldr	r3, [r4, #80]	; 0x50
    69ea:	181b      	adds	r3, r3, r0
    69ec:	6523      	str	r3, [r4, #80]	; 0x50
    69ee:	bd70      	pop	{r4, r5, r6, pc}
    69f0:	89a3      	ldrh	r3, [r4, #12]
    69f2:	4a02      	ldr	r2, [pc, #8]	; (69fc <__sread+0x24>)
    69f4:	4013      	ands	r3, r2
    69f6:	81a3      	strh	r3, [r4, #12]
    69f8:	e7f9      	b.n	69ee <__sread+0x16>
    69fa:	46c0      	nop			; (mov r8, r8)
    69fc:	ffffefff 	.word	0xffffefff

00006a00 <__seofread>:
    6a00:	2000      	movs	r0, #0
    6a02:	4770      	bx	lr

00006a04 <__swrite>:
    6a04:	b5f8      	push	{r3, r4, r5, r6, r7, lr}
    6a06:	000c      	movs	r4, r1
    6a08:	001f      	movs	r7, r3
    6a0a:	230c      	movs	r3, #12
    6a0c:	5ec9      	ldrsh	r1, [r1, r3]
    6a0e:	0005      	movs	r5, r0
    6a10:	0016      	movs	r6, r2
    6a12:	05cb      	lsls	r3, r1, #23
    6a14:	d40a      	bmi.n	6a2c <__swrite+0x28>
    6a16:	4b0a      	ldr	r3, [pc, #40]	; (6a40 <__swrite+0x3c>)
    6a18:	0032      	movs	r2, r6
    6a1a:	4019      	ands	r1, r3
    6a1c:	0028      	movs	r0, r5
    6a1e:	81a1      	strh	r1, [r4, #12]
    6a20:	230e      	movs	r3, #14
    6a22:	5ee1      	ldrsh	r1, [r4, r3]
    6a24:	003b      	movs	r3, r7
    6a26:	f000 fb91 	bl	714c <_write_r>
    6a2a:	bdf8      	pop	{r3, r4, r5, r6, r7, pc}
    6a2c:	230e      	movs	r3, #14
    6a2e:	5ee1      	ldrsh	r1, [r4, r3]
    6a30:	2200      	movs	r2, #0
    6a32:	2302      	movs	r3, #2
    6a34:	f002 f80a 	bl	8a4c <_lseek_r>
    6a38:	230c      	movs	r3, #12
    6a3a:	5ee1      	ldrsh	r1, [r4, r3]
    6a3c:	e7eb      	b.n	6a16 <__swrite+0x12>
    6a3e:	46c0      	nop			; (mov r8, r8)
    6a40:	ffffefff 	.word	0xffffefff

00006a44 <__sseek>:
    6a44:	b570      	push	{r4, r5, r6, lr}
    6a46:	000c      	movs	r4, r1
    6a48:	250e      	movs	r5, #14
    6a4a:	5f49      	ldrsh	r1, [r1, r5]
    6a4c:	f001 fffe 	bl	8a4c <_lseek_r>
    6a50:	1c43      	adds	r3, r0, #1
    6a52:	d006      	beq.n	6a62 <__sseek+0x1e>
    6a54:	2380      	movs	r3, #128	; 0x80
    6a56:	89a2      	ldrh	r2, [r4, #12]
    6a58:	015b      	lsls	r3, r3, #5
    6a5a:	4313      	orrs	r3, r2
    6a5c:	81a3      	strh	r3, [r4, #12]
    6a5e:	6520      	str	r0, [r4, #80]	; 0x50
    6a60:	bd70      	pop	{r4, r5, r6, pc}
    6a62:	89a3      	ldrh	r3, [r4, #12]
    6a64:	4a01      	ldr	r2, [pc, #4]	; (6a6c <__sseek+0x28>)
    6a66:	4013      	ands	r3, r2
    6a68:	81a3      	strh	r3, [r4, #12]
    6a6a:	e7f9      	b.n	6a60 <__sseek+0x1c>
    6a6c:	ffffefff 	.word	0xffffefff

00006a70 <__sclose>:
    6a70:	b510      	push	{r4, lr}
    6a72:	230e      	movs	r3, #14
    6a74:	5ec9      	ldrsh	r1, [r1, r3]
    6a76:	f001 fda9 	bl	85cc <_close_r>
    6a7a:	bd10      	pop	{r4, pc}

00006a7c <__fputwc>:
    6a7c:	b5f0      	push	{r4, r5, r6, r7, lr}
    6a7e:	46ce      	mov	lr, r9
    6a80:	4647      	mov	r7, r8
    6a82:	b580      	push	{r7, lr}
    6a84:	b083      	sub	sp, #12
    6a86:	4680      	mov	r8, r0
    6a88:	4689      	mov	r9, r1
    6a8a:	0014      	movs	r4, r2
    6a8c:	f7fd fe64 	bl	4758 <__locale_mb_cur_max>
    6a90:	2801      	cmp	r0, #1
    6a92:	d103      	bne.n	6a9c <__fputwc+0x20>
    6a94:	464b      	mov	r3, r9
    6a96:	3b01      	subs	r3, #1
    6a98:	2bfe      	cmp	r3, #254	; 0xfe
    6a9a:	d930      	bls.n	6afe <__fputwc+0x82>
    6a9c:	0023      	movs	r3, r4
    6a9e:	af01      	add	r7, sp, #4
    6aa0:	464a      	mov	r2, r9
    6aa2:	0039      	movs	r1, r7
    6aa4:	4640      	mov	r0, r8
    6aa6:	335c      	adds	r3, #92	; 0x5c
    6aa8:	f7fd f982 	bl	3db0 <_wcrtomb_r>
    6aac:	0006      	movs	r6, r0
    6aae:	1c43      	adds	r3, r0, #1
    6ab0:	d02b      	beq.n	6b0a <__fputwc+0x8e>
    6ab2:	2800      	cmp	r0, #0
    6ab4:	d021      	beq.n	6afa <__fputwc+0x7e>
    6ab6:	7839      	ldrb	r1, [r7, #0]
    6ab8:	2500      	movs	r5, #0
    6aba:	e007      	b.n	6acc <__fputwc+0x50>
    6abc:	6823      	ldr	r3, [r4, #0]
    6abe:	1c5a      	adds	r2, r3, #1
    6ac0:	6022      	str	r2, [r4, #0]
    6ac2:	7019      	strb	r1, [r3, #0]
    6ac4:	3501      	adds	r5, #1
    6ac6:	42b5      	cmp	r5, r6
    6ac8:	d217      	bcs.n	6afa <__fputwc+0x7e>
    6aca:	5d79      	ldrb	r1, [r7, r5]
    6acc:	68a3      	ldr	r3, [r4, #8]
    6ace:	3b01      	subs	r3, #1
    6ad0:	60a3      	str	r3, [r4, #8]
    6ad2:	2b00      	cmp	r3, #0
    6ad4:	daf2      	bge.n	6abc <__fputwc+0x40>
    6ad6:	69a2      	ldr	r2, [r4, #24]
    6ad8:	4293      	cmp	r3, r2
    6ada:	db01      	blt.n	6ae0 <__fputwc+0x64>
    6adc:	290a      	cmp	r1, #10
    6ade:	d1ed      	bne.n	6abc <__fputwc+0x40>
    6ae0:	0022      	movs	r2, r4
    6ae2:	4640      	mov	r0, r8
    6ae4:	f000 fb46 	bl	7174 <__swbuf_r>
    6ae8:	1c43      	adds	r3, r0, #1
    6aea:	d1eb      	bne.n	6ac4 <__fputwc+0x48>
    6aec:	0006      	movs	r6, r0
    6aee:	0030      	movs	r0, r6
    6af0:	b003      	add	sp, #12
    6af2:	bcc0      	pop	{r6, r7}
    6af4:	46b9      	mov	r9, r7
    6af6:	46b0      	mov	r8, r6
    6af8:	bdf0      	pop	{r4, r5, r6, r7, pc}
    6afa:	464e      	mov	r6, r9
    6afc:	e7f7      	b.n	6aee <__fputwc+0x72>
    6afe:	464b      	mov	r3, r9
    6b00:	af01      	add	r7, sp, #4
    6b02:	b2d9      	uxtb	r1, r3
    6b04:	2601      	movs	r6, #1
    6b06:	7039      	strb	r1, [r7, #0]
    6b08:	e7d6      	b.n	6ab8 <__fputwc+0x3c>
    6b0a:	2240      	movs	r2, #64	; 0x40
    6b0c:	89a3      	ldrh	r3, [r4, #12]
    6b0e:	4313      	orrs	r3, r2
    6b10:	81a3      	strh	r3, [r4, #12]
    6b12:	e7ec      	b.n	6aee <__fputwc+0x72>

00006b14 <_fputwc_r>:
    6b14:	6e53      	ldr	r3, [r2, #100]	; 0x64
    6b16:	b570      	push	{r4, r5, r6, lr}
    6b18:	0005      	movs	r5, r0
    6b1a:	000e      	movs	r6, r1
    6b1c:	0014      	movs	r4, r2
    6b1e:	07db      	lsls	r3, r3, #31
    6b20:	d41e      	bmi.n	6b60 <_fputwc_r+0x4c>
    6b22:	89a1      	ldrh	r1, [r4, #12]
    6b24:	230c      	movs	r3, #12
    6b26:	5ed2      	ldrsh	r2, [r2, r3]
    6b28:	058b      	lsls	r3, r1, #22
    6b2a:	d516      	bpl.n	6b5a <_fputwc_r+0x46>
    6b2c:	2380      	movs	r3, #128	; 0x80
    6b2e:	019b      	lsls	r3, r3, #6
    6b30:	4219      	tst	r1, r3
    6b32:	d104      	bne.n	6b3e <_fputwc_r+0x2a>
    6b34:	431a      	orrs	r2, r3
    6b36:	81a2      	strh	r2, [r4, #12]
    6b38:	6e62      	ldr	r2, [r4, #100]	; 0x64
    6b3a:	4313      	orrs	r3, r2
    6b3c:	6663      	str	r3, [r4, #100]	; 0x64
    6b3e:	0028      	movs	r0, r5
    6b40:	0022      	movs	r2, r4
    6b42:	0031      	movs	r1, r6
    6b44:	f7ff ff9a 	bl	6a7c <__fputwc>
    6b48:	6e63      	ldr	r3, [r4, #100]	; 0x64
    6b4a:	0005      	movs	r5, r0
    6b4c:	07db      	lsls	r3, r3, #31
    6b4e:	d402      	bmi.n	6b56 <_fputwc_r+0x42>
    6b50:	89a3      	ldrh	r3, [r4, #12]
    6b52:	059b      	lsls	r3, r3, #22
    6b54:	d508      	bpl.n	6b68 <_fputwc_r+0x54>
    6b56:	0028      	movs	r0, r5
    6b58:	bd70      	pop	{r4, r5, r6, pc}
    6b5a:	6da0      	ldr	r0, [r4, #88]	; 0x58
    6b5c:	f7fd f986 	bl	3e6c <__retarget_lock_acquire_recursive>
    6b60:	230c      	movs	r3, #12
    6b62:	5ee2      	ldrsh	r2, [r4, r3]
    6b64:	89a1      	ldrh	r1, [r4, #12]
    6b66:	e7e1      	b.n	6b2c <_fputwc_r+0x18>
    6b68:	6da0      	ldr	r0, [r4, #88]	; 0x58
    6b6a:	f7fd f987 	bl	3e7c <__retarget_lock_release_recursive>
    6b6e:	e7f2      	b.n	6b56 <_fputwc_r+0x42>

00006b70 <fputwc>:
    6b70:	4b1b      	ldr	r3, [pc, #108]	; (6be0 <fputwc+0x70>)
    6b72:	b570      	push	{r4, r5, r6, lr}
    6b74:	681e      	ldr	r6, [r3, #0]
    6b76:	0005      	movs	r5, r0
    6b78:	000c      	movs	r4, r1
    6b7a:	2e00      	cmp	r6, #0
    6b7c:	d002      	beq.n	6b84 <fputwc+0x14>
    6b7e:	6b73      	ldr	r3, [r6, #52]	; 0x34
    6b80:	2b00      	cmp	r3, #0
    6b82:	d029      	beq.n	6bd8 <fputwc+0x68>
    6b84:	6e63      	ldr	r3, [r4, #100]	; 0x64
    6b86:	07db      	lsls	r3, r3, #31
    6b88:	d41e      	bmi.n	6bc8 <fputwc+0x58>
    6b8a:	89a1      	ldrh	r1, [r4, #12]
    6b8c:	230c      	movs	r3, #12
    6b8e:	5ee2      	ldrsh	r2, [r4, r3]
    6b90:	058b      	lsls	r3, r1, #22
    6b92:	d516      	bpl.n	6bc2 <fputwc+0x52>
    6b94:	2380      	movs	r3, #128	; 0x80
    6b96:	019b      	lsls	r3, r3, #6
    6b98:	4219      	tst	r1, r3
    6b9a:	d104      	bne.n	6ba6 <fputwc+0x36>
    6b9c:	431a      	orrs	r2, r3
    6b9e:	81a2      	strh	r2, [r4, #12]
    6ba0:	6e62      	ldr	r2, [r4, #100]	; 0x64
    6ba2:	4313      	orrs	r3, r2
    6ba4:	6663      	str	r3, [r4, #100]	; 0x64
    6ba6:	0029      	movs	r1, r5
    6ba8:	0022      	movs	r2, r4
    6baa:	0030      	movs	r0, r6
    6bac:	f7ff ff66 	bl	6a7c <__fputwc>
    6bb0:	6e63      	ldr	r3, [r4, #100]	; 0x64
    6bb2:	0005      	movs	r5, r0
    6bb4:	07db      	lsls	r3, r3, #31
    6bb6:	d402      	bmi.n	6bbe <fputwc+0x4e>
    6bb8:	89a3      	ldrh	r3, [r4, #12]
    6bba:	059b      	lsls	r3, r3, #22
    6bbc:	d508      	bpl.n	6bd0 <fputwc+0x60>
    6bbe:	0028      	movs	r0, r5
    6bc0:	bd70      	pop	{r4, r5, r6, pc}
    6bc2:	6da0      	ldr	r0, [r4, #88]	; 0x58
    6bc4:	f7fd f952 	bl	3e6c <__retarget_lock_acquire_recursive>
    6bc8:	230c      	movs	r3, #12
    6bca:	5ee2      	ldrsh	r2, [r4, r3]
    6bcc:	89a1      	ldrh	r1, [r4, #12]
    6bce:	e7e1      	b.n	6b94 <fputwc+0x24>
    6bd0:	6da0      	ldr	r0, [r4, #88]	; 0x58
    6bd2:	f7fd f953 	bl	3e7c <__retarget_lock_release_recursive>
    6bd6:	e7f2      	b.n	6bbe <fputwc+0x4e>
    6bd8:	0030      	movs	r0, r6
    6bda:	f7ff fad3 	bl	6184 <__sinit>
    6bde:	e7d1      	b.n	6b84 <fputwc+0x14>
    6be0:	0020d0e0 	.word	0x0020d0e0

00006be4 <_wctomb_r>:
    6be4:	b570      	push	{r4, r5, r6, lr}
    6be6:	25e0      	movs	r5, #224	; 0xe0
    6be8:	4c01      	ldr	r4, [pc, #4]	; (6bf0 <_wctomb_r+0xc>)
    6bea:	5964      	ldr	r4, [r4, r5]
    6bec:	47a0      	blx	r4
    6bee:	bd70      	pop	{r4, r5, r6, pc}
    6bf0:	0020ce50 	.word	0x0020ce50

00006bf4 <__ascii_wctomb>:
    6bf4:	2900      	cmp	r1, #0
    6bf6:	d009      	beq.n	6c0c <__ascii_wctomb+0x18>
    6bf8:	2aff      	cmp	r2, #255	; 0xff
    6bfa:	d802      	bhi.n	6c02 <__ascii_wctomb+0xe>
    6bfc:	2001      	movs	r0, #1
    6bfe:	700a      	strb	r2, [r1, #0]
    6c00:	4770      	bx	lr
    6c02:	238a      	movs	r3, #138	; 0x8a
    6c04:	6003      	str	r3, [r0, #0]
    6c06:	2001      	movs	r0, #1
    6c08:	4240      	negs	r0, r0
    6c0a:	e7f9      	b.n	6c00 <__ascii_wctomb+0xc>
    6c0c:	2000      	movs	r0, #0
    6c0e:	e7f7      	b.n	6c00 <__ascii_wctomb+0xc>

00006c10 <__utf8_wctomb>:
    6c10:	b510      	push	{r4, lr}
    6c12:	2900      	cmp	r1, #0
    6c14:	d037      	beq.n	6c86 <__utf8_wctomb+0x76>
    6c16:	2a7f      	cmp	r2, #127	; 0x7f
    6c18:	d926      	bls.n	6c68 <__utf8_wctomb+0x58>
    6c1a:	0013      	movs	r3, r2
    6c1c:	24f0      	movs	r4, #240	; 0xf0
    6c1e:	3b80      	subs	r3, #128	; 0x80
    6c20:	00e4      	lsls	r4, r4, #3
    6c22:	42a3      	cmp	r3, r4
    6c24:	d323      	bcc.n	6c6e <__utf8_wctomb+0x5e>
    6c26:	24f8      	movs	r4, #248	; 0xf8
    6c28:	4b23      	ldr	r3, [pc, #140]	; (6cb8 <__utf8_wctomb+0xa8>)
    6c2a:	0224      	lsls	r4, r4, #8
    6c2c:	18d3      	adds	r3, r2, r3
    6c2e:	42a3      	cmp	r3, r4
    6c30:	d32b      	bcc.n	6c8a <__utf8_wctomb+0x7a>
    6c32:	2480      	movs	r4, #128	; 0x80
    6c34:	4b21      	ldr	r3, [pc, #132]	; (6cbc <__utf8_wctomb+0xac>)
    6c36:	0364      	lsls	r4, r4, #13
    6c38:	18d3      	adds	r3, r2, r3
    6c3a:	42a3      	cmp	r3, r4
    6c3c:	d236      	bcs.n	6cac <__utf8_wctomb+0x9c>
    6c3e:	2310      	movs	r3, #16
    6c40:	0c90      	lsrs	r0, r2, #18
    6c42:	425b      	negs	r3, r3
    6c44:	4303      	orrs	r3, r0
    6c46:	700b      	strb	r3, [r1, #0]
    6c48:	203f      	movs	r0, #63	; 0x3f
    6c4a:	2380      	movs	r3, #128	; 0x80
    6c4c:	0b14      	lsrs	r4, r2, #12
    6c4e:	425b      	negs	r3, r3
    6c50:	4004      	ands	r4, r0
    6c52:	431c      	orrs	r4, r3
    6c54:	704c      	strb	r4, [r1, #1]
    6c56:	0994      	lsrs	r4, r2, #6
    6c58:	4004      	ands	r4, r0
    6c5a:	4010      	ands	r0, r2
    6c5c:	431c      	orrs	r4, r3
    6c5e:	4303      	orrs	r3, r0
    6c60:	2004      	movs	r0, #4
    6c62:	708c      	strb	r4, [r1, #2]
    6c64:	70cb      	strb	r3, [r1, #3]
    6c66:	bd10      	pop	{r4, pc}
    6c68:	2001      	movs	r0, #1
    6c6a:	700a      	strb	r2, [r1, #0]
    6c6c:	e7fb      	b.n	6c66 <__utf8_wctomb+0x56>
    6c6e:	2340      	movs	r3, #64	; 0x40
    6c70:	0990      	lsrs	r0, r2, #6
    6c72:	425b      	negs	r3, r3
    6c74:	4303      	orrs	r3, r0
    6c76:	700b      	strb	r3, [r1, #0]
    6c78:	233f      	movs	r3, #63	; 0x3f
    6c7a:	401a      	ands	r2, r3
    6c7c:	3bbf      	subs	r3, #191	; 0xbf
    6c7e:	4313      	orrs	r3, r2
    6c80:	2002      	movs	r0, #2
    6c82:	704b      	strb	r3, [r1, #1]
    6c84:	e7ef      	b.n	6c66 <__utf8_wctomb+0x56>
    6c86:	2000      	movs	r0, #0
    6c88:	e7ed      	b.n	6c66 <__utf8_wctomb+0x56>
    6c8a:	2320      	movs	r3, #32
    6c8c:	0b10      	lsrs	r0, r2, #12
    6c8e:	425b      	negs	r3, r3
    6c90:	4303      	orrs	r3, r0
    6c92:	243f      	movs	r4, #63	; 0x3f
    6c94:	2080      	movs	r0, #128	; 0x80
    6c96:	700b      	strb	r3, [r1, #0]
    6c98:	0993      	lsrs	r3, r2, #6
    6c9a:	4023      	ands	r3, r4
    6c9c:	4240      	negs	r0, r0
    6c9e:	4014      	ands	r4, r2
    6ca0:	4303      	orrs	r3, r0
    6ca2:	4320      	orrs	r0, r4
    6ca4:	7088      	strb	r0, [r1, #2]
    6ca6:	704b      	strb	r3, [r1, #1]
    6ca8:	2003      	movs	r0, #3
    6caa:	e7dc      	b.n	6c66 <__utf8_wctomb+0x56>
    6cac:	238a      	movs	r3, #138	; 0x8a
    6cae:	6003      	str	r3, [r0, #0]
    6cb0:	2001      	movs	r0, #1
    6cb2:	4240      	negs	r0, r0
    6cb4:	e7d7      	b.n	6c66 <__utf8_wctomb+0x56>
    6cb6:	46c0      	nop			; (mov r8, r8)
    6cb8:	fffff800 	.word	0xfffff800
    6cbc:	ffff0000 	.word	0xffff0000

00006cc0 <__sjis_wctomb>:
    6cc0:	b2d3      	uxtb	r3, r2
    6cc2:	0a12      	lsrs	r2, r2, #8
    6cc4:	b510      	push	{r4, lr}
    6cc6:	b2d2      	uxtb	r2, r2
    6cc8:	2900      	cmp	r1, #0
    6cca:	d01a      	beq.n	6d02 <__sjis_wctomb+0x42>
    6ccc:	2a00      	cmp	r2, #0
    6cce:	d015      	beq.n	6cfc <__sjis_wctomb+0x3c>
    6cd0:	0014      	movs	r4, r2
    6cd2:	347f      	adds	r4, #127	; 0x7f
    6cd4:	b2e4      	uxtb	r4, r4
    6cd6:	2c1e      	cmp	r4, #30
    6cd8:	d904      	bls.n	6ce4 <__sjis_wctomb+0x24>
    6cda:	0014      	movs	r4, r2
    6cdc:	3420      	adds	r4, #32
    6cde:	b2e4      	uxtb	r4, r4
    6ce0:	2c0f      	cmp	r4, #15
    6ce2:	d810      	bhi.n	6d06 <__sjis_wctomb+0x46>
    6ce4:	001c      	movs	r4, r3
    6ce6:	3c40      	subs	r4, #64	; 0x40
    6ce8:	2c3e      	cmp	r4, #62	; 0x3e
    6cea:	d903      	bls.n	6cf4 <__sjis_wctomb+0x34>
    6cec:	3c40      	subs	r4, #64	; 0x40
    6cee:	b2e4      	uxtb	r4, r4
    6cf0:	2c7c      	cmp	r4, #124	; 0x7c
    6cf2:	d808      	bhi.n	6d06 <__sjis_wctomb+0x46>
    6cf4:	2002      	movs	r0, #2
    6cf6:	700a      	strb	r2, [r1, #0]
    6cf8:	704b      	strb	r3, [r1, #1]
    6cfa:	e001      	b.n	6d00 <__sjis_wctomb+0x40>
    6cfc:	2001      	movs	r0, #1
    6cfe:	700b      	strb	r3, [r1, #0]
    6d00:	bd10      	pop	{r4, pc}
    6d02:	2000      	movs	r0, #0
    6d04:	e7fc      	b.n	6d00 <__sjis_wctomb+0x40>
    6d06:	238a      	movs	r3, #138	; 0x8a
    6d08:	6003      	str	r3, [r0, #0]
    6d0a:	2001      	movs	r0, #1
    6d0c:	4240      	negs	r0, r0
    6d0e:	e7f7      	b.n	6d00 <__sjis_wctomb+0x40>

00006d10 <__eucjp_wctomb>:
    6d10:	b2d3      	uxtb	r3, r2
    6d12:	0a12      	lsrs	r2, r2, #8
    6d14:	b510      	push	{r4, lr}
    6d16:	b2d2      	uxtb	r2, r2
    6d18:	2900      	cmp	r1, #0
    6d1a:	d020      	beq.n	6d5e <__eucjp_wctomb+0x4e>
    6d1c:	2a00      	cmp	r2, #0
    6d1e:	d01b      	beq.n	6d58 <__eucjp_wctomb+0x48>
    6d20:	0014      	movs	r4, r2
    6d22:	3472      	adds	r4, #114	; 0x72
    6d24:	b2e4      	uxtb	r4, r4
    6d26:	2c01      	cmp	r4, #1
    6d28:	d91b      	bls.n	6d62 <__eucjp_wctomb+0x52>
    6d2a:	0014      	movs	r4, r2
    6d2c:	345f      	adds	r4, #95	; 0x5f
    6d2e:	b2e4      	uxtb	r4, r4
    6d30:	2c5d      	cmp	r4, #93	; 0x5d
    6d32:	d81b      	bhi.n	6d6c <__eucjp_wctomb+0x5c>
    6d34:	001c      	movs	r4, r3
    6d36:	345f      	adds	r4, #95	; 0x5f
    6d38:	b2e4      	uxtb	r4, r4
    6d3a:	2c5d      	cmp	r4, #93	; 0x5d
    6d3c:	d91b      	bls.n	6d76 <__eucjp_wctomb+0x66>
    6d3e:	2480      	movs	r4, #128	; 0x80
    6d40:	4323      	orrs	r3, r4
    6d42:	001c      	movs	r4, r3
    6d44:	345f      	adds	r4, #95	; 0x5f
    6d46:	b2e4      	uxtb	r4, r4
    6d48:	2c5d      	cmp	r4, #93	; 0x5d
    6d4a:	d80f      	bhi.n	6d6c <__eucjp_wctomb+0x5c>
    6d4c:	208f      	movs	r0, #143	; 0x8f
    6d4e:	704a      	strb	r2, [r1, #1]
    6d50:	7008      	strb	r0, [r1, #0]
    6d52:	708b      	strb	r3, [r1, #2]
    6d54:	388c      	subs	r0, #140	; 0x8c
    6d56:	e001      	b.n	6d5c <__eucjp_wctomb+0x4c>
    6d58:	2001      	movs	r0, #1
    6d5a:	700b      	strb	r3, [r1, #0]
    6d5c:	bd10      	pop	{r4, pc}
    6d5e:	2000      	movs	r0, #0
    6d60:	e7fc      	b.n	6d5c <__eucjp_wctomb+0x4c>
    6d62:	001c      	movs	r4, r3
    6d64:	345f      	adds	r4, #95	; 0x5f
    6d66:	b2e4      	uxtb	r4, r4
    6d68:	2c5d      	cmp	r4, #93	; 0x5d
    6d6a:	d904      	bls.n	6d76 <__eucjp_wctomb+0x66>
    6d6c:	238a      	movs	r3, #138	; 0x8a
    6d6e:	6003      	str	r3, [r0, #0]
    6d70:	2001      	movs	r0, #1
    6d72:	4240      	negs	r0, r0
    6d74:	e7f2      	b.n	6d5c <__eucjp_wctomb+0x4c>
    6d76:	2002      	movs	r0, #2
    6d78:	700a      	strb	r2, [r1, #0]
    6d7a:	704b      	strb	r3, [r1, #1]
    6d7c:	e7ee      	b.n	6d5c <__eucjp_wctomb+0x4c>
    6d7e:	46c0      	nop			; (mov r8, r8)

00006d80 <__jis_wctomb>:
    6d80:	b530      	push	{r4, r5, lr}
    6d82:	b2d4      	uxtb	r4, r2
    6d84:	0a12      	lsrs	r2, r2, #8
    6d86:	b2d2      	uxtb	r2, r2
    6d88:	2900      	cmp	r1, #0
    6d8a:	d029      	beq.n	6de0 <__jis_wctomb+0x60>
    6d8c:	2a00      	cmp	r2, #0
    6d8e:	d018      	beq.n	6dc2 <__jis_wctomb+0x42>
    6d90:	0015      	movs	r5, r2
    6d92:	3d21      	subs	r5, #33	; 0x21
    6d94:	2d5d      	cmp	r5, #93	; 0x5d
    6d96:	d825      	bhi.n	6de4 <__jis_wctomb+0x64>
    6d98:	0025      	movs	r5, r4
    6d9a:	3d21      	subs	r5, #33	; 0x21
    6d9c:	2d5d      	cmp	r5, #93	; 0x5d
    6d9e:	d821      	bhi.n	6de4 <__jis_wctomb+0x64>
    6da0:	681d      	ldr	r5, [r3, #0]
    6da2:	2002      	movs	r0, #2
    6da4:	2d00      	cmp	r5, #0
    6da6:	d109      	bne.n	6dbc <__jis_wctomb+0x3c>
    6da8:	3801      	subs	r0, #1
    6daa:	6018      	str	r0, [r3, #0]
    6dac:	231b      	movs	r3, #27
    6dae:	700b      	strb	r3, [r1, #0]
    6db0:	3309      	adds	r3, #9
    6db2:	704b      	strb	r3, [r1, #1]
    6db4:	331e      	adds	r3, #30
    6db6:	708b      	strb	r3, [r1, #2]
    6db8:	3004      	adds	r0, #4
    6dba:	3103      	adds	r1, #3
    6dbc:	700a      	strb	r2, [r1, #0]
    6dbe:	704c      	strb	r4, [r1, #1]
    6dc0:	e00d      	b.n	6dde <__jis_wctomb+0x5e>
    6dc2:	681d      	ldr	r5, [r3, #0]
    6dc4:	2001      	movs	r0, #1
    6dc6:	2d00      	cmp	r5, #0
    6dc8:	d008      	beq.n	6ddc <__jis_wctomb+0x5c>
    6dca:	601a      	str	r2, [r3, #0]
    6dcc:	231b      	movs	r3, #27
    6dce:	700b      	strb	r3, [r1, #0]
    6dd0:	330d      	adds	r3, #13
    6dd2:	704b      	strb	r3, [r1, #1]
    6dd4:	331a      	adds	r3, #26
    6dd6:	708b      	strb	r3, [r1, #2]
    6dd8:	3003      	adds	r0, #3
    6dda:	3103      	adds	r1, #3
    6ddc:	700c      	strb	r4, [r1, #0]
    6dde:	bd30      	pop	{r4, r5, pc}
    6de0:	2001      	movs	r0, #1
    6de2:	e7fc      	b.n	6dde <__jis_wctomb+0x5e>
    6de4:	238a      	movs	r3, #138	; 0x8a
    6de6:	6003      	str	r3, [r0, #0]
    6de8:	2001      	movs	r0, #1
    6dea:	4240      	negs	r0, r0
    6dec:	e7f7      	b.n	6dde <__jis_wctomb+0x5e>
    6dee:	46c0      	nop			; (mov r8, r8)

00006df0 <_sbrk_r>:
    6df0:	2300      	movs	r3, #0
    6df2:	b570      	push	{r4, r5, r6, lr}
    6df4:	4c06      	ldr	r4, [pc, #24]	; (6e10 <_sbrk_r+0x20>)
    6df6:	0005      	movs	r5, r0
    6df8:	0008      	movs	r0, r1
    6dfa:	6023      	str	r3, [r4, #0]
    6dfc:	f004 ff84 	bl	bd08 <_sbrk>
    6e00:	1c43      	adds	r3, r0, #1
    6e02:	d000      	beq.n	6e06 <_sbrk_r+0x16>
    6e04:	bd70      	pop	{r4, r5, r6, pc}
    6e06:	6823      	ldr	r3, [r4, #0]
    6e08:	2b00      	cmp	r3, #0
    6e0a:	d0fb      	beq.n	6e04 <_sbrk_r+0x14>
    6e0c:	602b      	str	r3, [r5, #0]
    6e0e:	e7f9      	b.n	6e04 <_sbrk_r+0x14>
    6e10:	4000043c 	.word	0x4000043c

00006e14 <__sfvwrite_r>:
    6e14:	b5f0      	push	{r4, r5, r6, r7, lr}
    6e16:	46de      	mov	lr, fp
    6e18:	4645      	mov	r5, r8
    6e1a:	4657      	mov	r7, sl
    6e1c:	464e      	mov	r6, r9
    6e1e:	b5e0      	push	{r5, r6, r7, lr}
    6e20:	6893      	ldr	r3, [r2, #8]
    6e22:	4683      	mov	fp, r0
    6e24:	000c      	movs	r4, r1
    6e26:	4690      	mov	r8, r2
    6e28:	b083      	sub	sp, #12
    6e2a:	2b00      	cmp	r3, #0
    6e2c:	d024      	beq.n	6e78 <__sfvwrite_r+0x64>
    6e2e:	898b      	ldrh	r3, [r1, #12]
    6e30:	071a      	lsls	r2, r3, #28
    6e32:	d529      	bpl.n	6e88 <__sfvwrite_r+0x74>
    6e34:	690a      	ldr	r2, [r1, #16]
    6e36:	2a00      	cmp	r2, #0
    6e38:	d026      	beq.n	6e88 <__sfvwrite_r+0x74>
    6e3a:	4642      	mov	r2, r8
    6e3c:	6816      	ldr	r6, [r2, #0]
    6e3e:	079a      	lsls	r2, r3, #30
    6e40:	d52e      	bpl.n	6ea0 <__sfvwrite_r+0x8c>
    6e42:	4bad      	ldr	r3, [pc, #692]	; (70f8 <__sfvwrite_r+0x2e4>)
    6e44:	2700      	movs	r7, #0
    6e46:	2500      	movs	r5, #0
    6e48:	4699      	mov	r9, r3
    6e4a:	2d00      	cmp	r5, #0
    6e4c:	d05a      	beq.n	6f04 <__sfvwrite_r+0xf0>
    6e4e:	002b      	movs	r3, r5
    6e50:	454d      	cmp	r5, r9
    6e52:	d900      	bls.n	6e56 <__sfvwrite_r+0x42>
    6e54:	4ba8      	ldr	r3, [pc, #672]	; (70f8 <__sfvwrite_r+0x2e4>)
    6e56:	6a62      	ldr	r2, [r4, #36]	; 0x24
    6e58:	4658      	mov	r0, fp
    6e5a:	4692      	mov	sl, r2
    6e5c:	69e1      	ldr	r1, [r4, #28]
    6e5e:	003a      	movs	r2, r7
    6e60:	47d0      	blx	sl
    6e62:	2800      	cmp	r0, #0
    6e64:	dd58      	ble.n	6f18 <__sfvwrite_r+0x104>
    6e66:	4643      	mov	r3, r8
    6e68:	4642      	mov	r2, r8
    6e6a:	689b      	ldr	r3, [r3, #8]
    6e6c:	183f      	adds	r7, r7, r0
    6e6e:	1a1b      	subs	r3, r3, r0
    6e70:	1a2d      	subs	r5, r5, r0
    6e72:	6093      	str	r3, [r2, #8]
    6e74:	2b00      	cmp	r3, #0
    6e76:	d1e8      	bne.n	6e4a <__sfvwrite_r+0x36>
    6e78:	2000      	movs	r0, #0
    6e7a:	b003      	add	sp, #12
    6e7c:	bcf0      	pop	{r4, r5, r6, r7}
    6e7e:	46bb      	mov	fp, r7
    6e80:	46b2      	mov	sl, r6
    6e82:	46a9      	mov	r9, r5
    6e84:	46a0      	mov	r8, r4
    6e86:	bdf0      	pop	{r4, r5, r6, r7, pc}
    6e88:	0021      	movs	r1, r4
    6e8a:	4658      	mov	r0, fp
    6e8c:	f7fd fcd8 	bl	4840 <__swsetup_r>
    6e90:	2800      	cmp	r0, #0
    6e92:	d000      	beq.n	6e96 <__sfvwrite_r+0x82>
    6e94:	e12c      	b.n	70f0 <__sfvwrite_r+0x2dc>
    6e96:	4642      	mov	r2, r8
    6e98:	89a3      	ldrh	r3, [r4, #12]
    6e9a:	6816      	ldr	r6, [r2, #0]
    6e9c:	079a      	lsls	r2, r3, #30
    6e9e:	d4d0      	bmi.n	6e42 <__sfvwrite_r+0x2e>
    6ea0:	07da      	lsls	r2, r3, #31
    6ea2:	d441      	bmi.n	6f28 <__sfvwrite_r+0x114>
    6ea4:	2200      	movs	r2, #0
    6ea6:	2700      	movs	r7, #0
    6ea8:	4691      	mov	r9, r2
    6eaa:	2f00      	cmp	r7, #0
    6eac:	d025      	beq.n	6efa <__sfvwrite_r+0xe6>
    6eae:	2280      	movs	r2, #128	; 0x80
    6eb0:	0092      	lsls	r2, r2, #2
    6eb2:	68a5      	ldr	r5, [r4, #8]
    6eb4:	4213      	tst	r3, r2
    6eb6:	d100      	bne.n	6eba <__sfvwrite_r+0xa6>
    6eb8:	e07f      	b.n	6fba <__sfvwrite_r+0x1a6>
    6eba:	46aa      	mov	sl, r5
    6ebc:	42bd      	cmp	r5, r7
    6ebe:	d900      	bls.n	6ec2 <__sfvwrite_r+0xae>
    6ec0:	e0ae      	b.n	7020 <__sfvwrite_r+0x20c>
    6ec2:	2290      	movs	r2, #144	; 0x90
    6ec4:	00d2      	lsls	r2, r2, #3
    6ec6:	4213      	tst	r3, r2
    6ec8:	d000      	beq.n	6ecc <__sfvwrite_r+0xb8>
    6eca:	e0ba      	b.n	7042 <__sfvwrite_r+0x22e>
    6ecc:	6820      	ldr	r0, [r4, #0]
    6ece:	4652      	mov	r2, sl
    6ed0:	4649      	mov	r1, r9
    6ed2:	f000 fc23 	bl	771c <memmove>
    6ed6:	68a3      	ldr	r3, [r4, #8]
    6ed8:	1b5b      	subs	r3, r3, r5
    6eda:	003d      	movs	r5, r7
    6edc:	2700      	movs	r7, #0
    6ede:	60a3      	str	r3, [r4, #8]
    6ee0:	6823      	ldr	r3, [r4, #0]
    6ee2:	4453      	add	r3, sl
    6ee4:	6023      	str	r3, [r4, #0]
    6ee6:	4643      	mov	r3, r8
    6ee8:	4642      	mov	r2, r8
    6eea:	689b      	ldr	r3, [r3, #8]
    6eec:	44a9      	add	r9, r5
    6eee:	1b5b      	subs	r3, r3, r5
    6ef0:	6093      	str	r3, [r2, #8]
    6ef2:	d0c1      	beq.n	6e78 <__sfvwrite_r+0x64>
    6ef4:	89a3      	ldrh	r3, [r4, #12]
    6ef6:	2f00      	cmp	r7, #0
    6ef8:	d1d9      	bne.n	6eae <__sfvwrite_r+0x9a>
    6efa:	6832      	ldr	r2, [r6, #0]
    6efc:	6877      	ldr	r7, [r6, #4]
    6efe:	4691      	mov	r9, r2
    6f00:	3608      	adds	r6, #8
    6f02:	e7d2      	b.n	6eaa <__sfvwrite_r+0x96>
    6f04:	6837      	ldr	r7, [r6, #0]
    6f06:	6875      	ldr	r5, [r6, #4]
    6f08:	3608      	adds	r6, #8
    6f0a:	e79e      	b.n	6e4a <__sfvwrite_r+0x36>
    6f0c:	0021      	movs	r1, r4
    6f0e:	9801      	ldr	r0, [sp, #4]
    6f10:	f7fe ff98 	bl	5e44 <_fflush_r>
    6f14:	2800      	cmp	r0, #0
    6f16:	d02f      	beq.n	6f78 <__sfvwrite_r+0x164>
    6f18:	220c      	movs	r2, #12
    6f1a:	5ea3      	ldrsh	r3, [r4, r2]
    6f1c:	2240      	movs	r2, #64	; 0x40
    6f1e:	2001      	movs	r0, #1
    6f20:	4313      	orrs	r3, r2
    6f22:	81a3      	strh	r3, [r4, #12]
    6f24:	4240      	negs	r0, r0
    6f26:	e7a8      	b.n	6e7a <__sfvwrite_r+0x66>
    6f28:	2300      	movs	r3, #0
    6f2a:	2200      	movs	r2, #0
    6f2c:	46b1      	mov	r9, r6
    6f2e:	2700      	movs	r7, #0
    6f30:	001e      	movs	r6, r3
    6f32:	465b      	mov	r3, fp
    6f34:	2000      	movs	r0, #0
    6f36:	4692      	mov	sl, r2
    6f38:	9301      	str	r3, [sp, #4]
    6f3a:	2f00      	cmp	r7, #0
    6f3c:	d028      	beq.n	6f90 <__sfvwrite_r+0x17c>
    6f3e:	2800      	cmp	r0, #0
    6f40:	d02f      	beq.n	6fa2 <__sfvwrite_r+0x18e>
    6f42:	0033      	movs	r3, r6
    6f44:	46bb      	mov	fp, r7
    6f46:	429f      	cmp	r7, r3
    6f48:	d900      	bls.n	6f4c <__sfvwrite_r+0x138>
    6f4a:	469b      	mov	fp, r3
    6f4c:	6820      	ldr	r0, [r4, #0]
    6f4e:	6922      	ldr	r2, [r4, #16]
    6f50:	68a5      	ldr	r5, [r4, #8]
    6f52:	6963      	ldr	r3, [r4, #20]
    6f54:	4290      	cmp	r0, r2
    6f56:	d903      	bls.n	6f60 <__sfvwrite_r+0x14c>
    6f58:	18ed      	adds	r5, r5, r3
    6f5a:	45ab      	cmp	fp, r5
    6f5c:	dd00      	ble.n	6f60 <__sfvwrite_r+0x14c>
    6f5e:	e09e      	b.n	709e <__sfvwrite_r+0x28a>
    6f60:	455b      	cmp	r3, fp
    6f62:	dc61      	bgt.n	7028 <__sfvwrite_r+0x214>
    6f64:	6a65      	ldr	r5, [r4, #36]	; 0x24
    6f66:	4652      	mov	r2, sl
    6f68:	69e1      	ldr	r1, [r4, #28]
    6f6a:	9801      	ldr	r0, [sp, #4]
    6f6c:	47a8      	blx	r5
    6f6e:	1e05      	subs	r5, r0, #0
    6f70:	ddd2      	ble.n	6f18 <__sfvwrite_r+0x104>
    6f72:	2001      	movs	r0, #1
    6f74:	1b76      	subs	r6, r6, r5
    6f76:	d0c9      	beq.n	6f0c <__sfvwrite_r+0xf8>
    6f78:	4643      	mov	r3, r8
    6f7a:	4642      	mov	r2, r8
    6f7c:	689b      	ldr	r3, [r3, #8]
    6f7e:	44aa      	add	sl, r5
    6f80:	1b5b      	subs	r3, r3, r5
    6f82:	1b7f      	subs	r7, r7, r5
    6f84:	6093      	str	r3, [r2, #8]
    6f86:	2b00      	cmp	r3, #0
    6f88:	d100      	bne.n	6f8c <__sfvwrite_r+0x178>
    6f8a:	e775      	b.n	6e78 <__sfvwrite_r+0x64>
    6f8c:	2f00      	cmp	r7, #0
    6f8e:	d1d6      	bne.n	6f3e <__sfvwrite_r+0x12a>
    6f90:	2208      	movs	r2, #8
    6f92:	464b      	mov	r3, r9
    6f94:	4694      	mov	ip, r2
    6f96:	685f      	ldr	r7, [r3, #4]
    6f98:	44e1      	add	r9, ip
    6f9a:	2f00      	cmp	r7, #0
    6f9c:	d0f8      	beq.n	6f90 <__sfvwrite_r+0x17c>
    6f9e:	681b      	ldr	r3, [r3, #0]
    6fa0:	469a      	mov	sl, r3
    6fa2:	003a      	movs	r2, r7
    6fa4:	210a      	movs	r1, #10
    6fa6:	4650      	mov	r0, sl
    6fa8:	f7ff f938 	bl	621c <memchr>
    6fac:	2800      	cmp	r0, #0
    6fae:	d100      	bne.n	6fb2 <__sfvwrite_r+0x19e>
    6fb0:	e095      	b.n	70de <__sfvwrite_r+0x2ca>
    6fb2:	4653      	mov	r3, sl
    6fb4:	3001      	adds	r0, #1
    6fb6:	1ac6      	subs	r6, r0, r3
    6fb8:	e7c3      	b.n	6f42 <__sfvwrite_r+0x12e>
    6fba:	6820      	ldr	r0, [r4, #0]
    6fbc:	6923      	ldr	r3, [r4, #16]
    6fbe:	4298      	cmp	r0, r3
    6fc0:	d816      	bhi.n	6ff0 <__sfvwrite_r+0x1dc>
    6fc2:	6963      	ldr	r3, [r4, #20]
    6fc4:	469a      	mov	sl, r3
    6fc6:	42bb      	cmp	r3, r7
    6fc8:	d812      	bhi.n	6ff0 <__sfvwrite_r+0x1dc>
    6fca:	4b4c      	ldr	r3, [pc, #304]	; (70fc <__sfvwrite_r+0x2e8>)
    6fcc:	0038      	movs	r0, r7
    6fce:	429f      	cmp	r7, r3
    6fd0:	d900      	bls.n	6fd4 <__sfvwrite_r+0x1c0>
    6fd2:	484b      	ldr	r0, [pc, #300]	; (7100 <__sfvwrite_r+0x2ec>)
    6fd4:	4651      	mov	r1, sl
    6fd6:	f002 f809 	bl	8fec <__divsi3>
    6fda:	4653      	mov	r3, sl
    6fdc:	6a65      	ldr	r5, [r4, #36]	; 0x24
    6fde:	4343      	muls	r3, r0
    6fe0:	464a      	mov	r2, r9
    6fe2:	4658      	mov	r0, fp
    6fe4:	69e1      	ldr	r1, [r4, #28]
    6fe6:	47a8      	blx	r5
    6fe8:	1e05      	subs	r5, r0, #0
    6fea:	dd95      	ble.n	6f18 <__sfvwrite_r+0x104>
    6fec:	1b7f      	subs	r7, r7, r5
    6fee:	e77a      	b.n	6ee6 <__sfvwrite_r+0xd2>
    6ff0:	42bd      	cmp	r5, r7
    6ff2:	d900      	bls.n	6ff6 <__sfvwrite_r+0x1e2>
    6ff4:	003d      	movs	r5, r7
    6ff6:	002a      	movs	r2, r5
    6ff8:	4649      	mov	r1, r9
    6ffa:	f000 fb8f 	bl	771c <memmove>
    6ffe:	68a3      	ldr	r3, [r4, #8]
    7000:	6822      	ldr	r2, [r4, #0]
    7002:	1b5b      	subs	r3, r3, r5
    7004:	1952      	adds	r2, r2, r5
    7006:	60a3      	str	r3, [r4, #8]
    7008:	6022      	str	r2, [r4, #0]
    700a:	2b00      	cmp	r3, #0
    700c:	d1ee      	bne.n	6fec <__sfvwrite_r+0x1d8>
    700e:	0021      	movs	r1, r4
    7010:	4658      	mov	r0, fp
    7012:	f7fe ff17 	bl	5e44 <_fflush_r>
    7016:	2800      	cmp	r0, #0
    7018:	d000      	beq.n	701c <__sfvwrite_r+0x208>
    701a:	e77d      	b.n	6f18 <__sfvwrite_r+0x104>
    701c:	1b7f      	subs	r7, r7, r5
    701e:	e762      	b.n	6ee6 <__sfvwrite_r+0xd2>
    7020:	003d      	movs	r5, r7
    7022:	46ba      	mov	sl, r7
    7024:	6820      	ldr	r0, [r4, #0]
    7026:	e752      	b.n	6ece <__sfvwrite_r+0xba>
    7028:	465a      	mov	r2, fp
    702a:	4651      	mov	r1, sl
    702c:	f000 fb76 	bl	771c <memmove>
    7030:	465a      	mov	r2, fp
    7032:	68a3      	ldr	r3, [r4, #8]
    7034:	465d      	mov	r5, fp
    7036:	1a9b      	subs	r3, r3, r2
    7038:	60a3      	str	r3, [r4, #8]
    703a:	6823      	ldr	r3, [r4, #0]
    703c:	445b      	add	r3, fp
    703e:	6023      	str	r3, [r4, #0]
    7040:	e797      	b.n	6f72 <__sfvwrite_r+0x15e>
    7042:	6960      	ldr	r0, [r4, #20]
    7044:	6822      	ldr	r2, [r4, #0]
    7046:	6921      	ldr	r1, [r4, #16]
    7048:	1a55      	subs	r5, r2, r1
    704a:	0042      	lsls	r2, r0, #1
    704c:	1812      	adds	r2, r2, r0
    704e:	0fd0      	lsrs	r0, r2, #31
    7050:	1882      	adds	r2, r0, r2
    7052:	1c68      	adds	r0, r5, #1
    7054:	1052      	asrs	r2, r2, #1
    7056:	19c0      	adds	r0, r0, r7
    7058:	4692      	mov	sl, r2
    705a:	9501      	str	r5, [sp, #4]
    705c:	4290      	cmp	r0, r2
    705e:	d901      	bls.n	7064 <__sfvwrite_r+0x250>
    7060:	4682      	mov	sl, r0
    7062:	0002      	movs	r2, r0
    7064:	055b      	lsls	r3, r3, #21
    7066:	d529      	bpl.n	70bc <__sfvwrite_r+0x2a8>
    7068:	0011      	movs	r1, r2
    706a:	4658      	mov	r0, fp
    706c:	f7fc fb8e 	bl	378c <_malloc_r>
    7070:	1e05      	subs	r5, r0, #0
    7072:	d037      	beq.n	70e4 <__sfvwrite_r+0x2d0>
    7074:	9a01      	ldr	r2, [sp, #4]
    7076:	6921      	ldr	r1, [r4, #16]
    7078:	f7ff f90a 	bl	6290 <memcpy>
    707c:	89a3      	ldrh	r3, [r4, #12]
    707e:	4a21      	ldr	r2, [pc, #132]	; (7104 <__sfvwrite_r+0x2f0>)
    7080:	4013      	ands	r3, r2
    7082:	2280      	movs	r2, #128	; 0x80
    7084:	4313      	orrs	r3, r2
    7086:	81a3      	strh	r3, [r4, #12]
    7088:	4652      	mov	r2, sl
    708a:	9b01      	ldr	r3, [sp, #4]
    708c:	6125      	str	r5, [r4, #16]
    708e:	18e8      	adds	r0, r5, r3
    7090:	1ad3      	subs	r3, r2, r3
    7092:	003d      	movs	r5, r7
    7094:	46ba      	mov	sl, r7
    7096:	6020      	str	r0, [r4, #0]
    7098:	6162      	str	r2, [r4, #20]
    709a:	60a3      	str	r3, [r4, #8]
    709c:	e717      	b.n	6ece <__sfvwrite_r+0xba>
    709e:	4651      	mov	r1, sl
    70a0:	002a      	movs	r2, r5
    70a2:	f000 fb3b 	bl	771c <memmove>
    70a6:	6823      	ldr	r3, [r4, #0]
    70a8:	0021      	movs	r1, r4
    70aa:	195b      	adds	r3, r3, r5
    70ac:	9801      	ldr	r0, [sp, #4]
    70ae:	6023      	str	r3, [r4, #0]
    70b0:	f7fe fec8 	bl	5e44 <_fflush_r>
    70b4:	2800      	cmp	r0, #0
    70b6:	d100      	bne.n	70ba <__sfvwrite_r+0x2a6>
    70b8:	e75b      	b.n	6f72 <__sfvwrite_r+0x15e>
    70ba:	e72d      	b.n	6f18 <__sfvwrite_r+0x104>
    70bc:	4658      	mov	r0, fp
    70be:	f001 fac7 	bl	8650 <_realloc_r>
    70c2:	1e05      	subs	r5, r0, #0
    70c4:	d1e0      	bne.n	7088 <__sfvwrite_r+0x274>
    70c6:	6921      	ldr	r1, [r4, #16]
    70c8:	4658      	mov	r0, fp
    70ca:	f7ff fa01 	bl	64d0 <_free_r>
    70ce:	2280      	movs	r2, #128	; 0x80
    70d0:	4659      	mov	r1, fp
    70d2:	89a3      	ldrh	r3, [r4, #12]
    70d4:	4393      	bics	r3, r2
    70d6:	3a74      	subs	r2, #116	; 0x74
    70d8:	b21b      	sxth	r3, r3
    70da:	600a      	str	r2, [r1, #0]
    70dc:	e71e      	b.n	6f1c <__sfvwrite_r+0x108>
    70de:	1c7b      	adds	r3, r7, #1
    70e0:	001e      	movs	r6, r3
    70e2:	e72f      	b.n	6f44 <__sfvwrite_r+0x130>
    70e4:	230c      	movs	r3, #12
    70e6:	465a      	mov	r2, fp
    70e8:	6013      	str	r3, [r2, #0]
    70ea:	220c      	movs	r2, #12
    70ec:	5ea3      	ldrsh	r3, [r4, r2]
    70ee:	e715      	b.n	6f1c <__sfvwrite_r+0x108>
    70f0:	2001      	movs	r0, #1
    70f2:	4240      	negs	r0, r0
    70f4:	e6c1      	b.n	6e7a <__sfvwrite_r+0x66>
    70f6:	46c0      	nop			; (mov r8, r8)
    70f8:	7ffffc00 	.word	0x7ffffc00
    70fc:	7ffffffe 	.word	0x7ffffffe
    7100:	7fffffff 	.word	0x7fffffff
    7104:	fffffb7f 	.word	0xfffffb7f

00007108 <_fwalk_sglue>:
    7108:	b5f8      	push	{r3, r4, r5, r6, r7, lr}
    710a:	4647      	mov	r7, r8
    710c:	46ce      	mov	lr, r9
    710e:	4688      	mov	r8, r1
    7110:	b580      	push	{r7, lr}
    7112:	4681      	mov	r9, r0
    7114:	0017      	movs	r7, r2
    7116:	2600      	movs	r6, #0
    7118:	687d      	ldr	r5, [r7, #4]
    711a:	68bc      	ldr	r4, [r7, #8]
    711c:	3d01      	subs	r5, #1
    711e:	d40d      	bmi.n	713c <_fwalk_sglue+0x34>
    7120:	89a3      	ldrh	r3, [r4, #12]
    7122:	2b01      	cmp	r3, #1
    7124:	d907      	bls.n	7136 <_fwalk_sglue+0x2e>
    7126:	220e      	movs	r2, #14
    7128:	5ea3      	ldrsh	r3, [r4, r2]
    712a:	3301      	adds	r3, #1
    712c:	d003      	beq.n	7136 <_fwalk_sglue+0x2e>
    712e:	0021      	movs	r1, r4
    7130:	4648      	mov	r0, r9
    7132:	47c0      	blx	r8
    7134:	4306      	orrs	r6, r0
    7136:	3468      	adds	r4, #104	; 0x68
    7138:	3d01      	subs	r5, #1
    713a:	d2f1      	bcs.n	7120 <_fwalk_sglue+0x18>
    713c:	683f      	ldr	r7, [r7, #0]
    713e:	2f00      	cmp	r7, #0
    7140:	d1ea      	bne.n	7118 <_fwalk_sglue+0x10>
    7142:	0030      	movs	r0, r6
    7144:	bcc0      	pop	{r6, r7}
    7146:	46b9      	mov	r9, r7
    7148:	46b0      	mov	r8, r6
    714a:	bdf8      	pop	{r3, r4, r5, r6, r7, pc}

0000714c <_write_r>:
    714c:	b570      	push	{r4, r5, r6, lr}
    714e:	0004      	movs	r4, r0
    7150:	0008      	movs	r0, r1
    7152:	0011      	movs	r1, r2
    7154:	001a      	movs	r2, r3
    7156:	2300      	movs	r3, #0
    7158:	4d05      	ldr	r5, [pc, #20]	; (7170 <_write_r+0x24>)
    715a:	602b      	str	r3, [r5, #0]
    715c:	f004 fde2 	bl	bd24 <_write>
    7160:	1c43      	adds	r3, r0, #1
    7162:	d000      	beq.n	7166 <_write_r+0x1a>
    7164:	bd70      	pop	{r4, r5, r6, pc}
    7166:	682b      	ldr	r3, [r5, #0]
    7168:	2b00      	cmp	r3, #0
    716a:	d0fb      	beq.n	7164 <_write_r+0x18>
    716c:	6023      	str	r3, [r4, #0]
    716e:	e7f9      	b.n	7164 <_write_r+0x18>
    7170:	4000043c 	.word	0x4000043c

00007174 <__swbuf_r>:
    7174:	b5f8      	push	{r3, r4, r5, r6, r7, lr}
    7176:	0005      	movs	r5, r0
    7178:	000e      	movs	r6, r1
    717a:	0014      	movs	r4, r2
    717c:	2800      	cmp	r0, #0
    717e:	d002      	beq.n	7186 <__swbuf_r+0x12>
    7180:	6b43      	ldr	r3, [r0, #52]	; 0x34
    7182:	2b00      	cmp	r3, #0
    7184:	d054      	beq.n	7230 <__swbuf_r+0xbc>
    7186:	69a3      	ldr	r3, [r4, #24]
    7188:	89a2      	ldrh	r2, [r4, #12]
    718a:	60a3      	str	r3, [r4, #8]
    718c:	230c      	movs	r3, #12
    718e:	5ee0      	ldrsh	r0, [r4, r3]
    7190:	0713      	lsls	r3, r2, #28
    7192:	d51f      	bpl.n	71d4 <__swbuf_r+0x60>
    7194:	6923      	ldr	r3, [r4, #16]
    7196:	2b00      	cmp	r3, #0
    7198:	d01c      	beq.n	71d4 <__swbuf_r+0x60>
    719a:	21ff      	movs	r1, #255	; 0xff
    719c:	b2f7      	uxtb	r7, r6
    719e:	400e      	ands	r6, r1
    71a0:	2180      	movs	r1, #128	; 0x80
    71a2:	0189      	lsls	r1, r1, #6
    71a4:	420a      	tst	r2, r1
    71a6:	d026      	beq.n	71f6 <__swbuf_r+0x82>
    71a8:	6822      	ldr	r2, [r4, #0]
    71aa:	6961      	ldr	r1, [r4, #20]
    71ac:	1ad3      	subs	r3, r2, r3
    71ae:	4299      	cmp	r1, r3
    71b0:	dd2c      	ble.n	720c <__swbuf_r+0x98>
    71b2:	3301      	adds	r3, #1
    71b4:	68a1      	ldr	r1, [r4, #8]
    71b6:	3901      	subs	r1, #1
    71b8:	60a1      	str	r1, [r4, #8]
    71ba:	1c51      	adds	r1, r2, #1
    71bc:	6021      	str	r1, [r4, #0]
    71be:	7017      	strb	r7, [r2, #0]
    71c0:	6962      	ldr	r2, [r4, #20]
    71c2:	429a      	cmp	r2, r3
    71c4:	d02b      	beq.n	721e <__swbuf_r+0xaa>
    71c6:	89a3      	ldrh	r3, [r4, #12]
    71c8:	07db      	lsls	r3, r3, #31
    71ca:	d501      	bpl.n	71d0 <__swbuf_r+0x5c>
    71cc:	2e0a      	cmp	r6, #10
    71ce:	d026      	beq.n	721e <__swbuf_r+0xaa>
    71d0:	0030      	movs	r0, r6
    71d2:	bdf8      	pop	{r3, r4, r5, r6, r7, pc}
    71d4:	0021      	movs	r1, r4
    71d6:	0028      	movs	r0, r5
    71d8:	f7fd fb32 	bl	4840 <__swsetup_r>
    71dc:	2800      	cmp	r0, #0
    71de:	d124      	bne.n	722a <__swbuf_r+0xb6>
    71e0:	21ff      	movs	r1, #255	; 0xff
    71e2:	b2f7      	uxtb	r7, r6
    71e4:	400e      	ands	r6, r1
    71e6:	2180      	movs	r1, #128	; 0x80
    71e8:	89a2      	ldrh	r2, [r4, #12]
    71ea:	0189      	lsls	r1, r1, #6
    71ec:	230c      	movs	r3, #12
    71ee:	5ee0      	ldrsh	r0, [r4, r3]
    71f0:	6923      	ldr	r3, [r4, #16]
    71f2:	420a      	tst	r2, r1
    71f4:	d1d8      	bne.n	71a8 <__swbuf_r+0x34>
    71f6:	4301      	orrs	r1, r0
    71f8:	6e62      	ldr	r2, [r4, #100]	; 0x64
    71fa:	81a1      	strh	r1, [r4, #12]
    71fc:	490e      	ldr	r1, [pc, #56]	; (7238 <__swbuf_r+0xc4>)
    71fe:	400a      	ands	r2, r1
    7200:	6662      	str	r2, [r4, #100]	; 0x64
    7202:	6961      	ldr	r1, [r4, #20]
    7204:	6822      	ldr	r2, [r4, #0]
    7206:	1ad3      	subs	r3, r2, r3
    7208:	4299      	cmp	r1, r3
    720a:	dcd2      	bgt.n	71b2 <__swbuf_r+0x3e>
    720c:	0021      	movs	r1, r4
    720e:	0028      	movs	r0, r5
    7210:	f7fe fe18 	bl	5e44 <_fflush_r>
    7214:	2800      	cmp	r0, #0
    7216:	d108      	bne.n	722a <__swbuf_r+0xb6>
    7218:	2301      	movs	r3, #1
    721a:	6822      	ldr	r2, [r4, #0]
    721c:	e7ca      	b.n	71b4 <__swbuf_r+0x40>
    721e:	0021      	movs	r1, r4
    7220:	0028      	movs	r0, r5
    7222:	f7fe fe0f 	bl	5e44 <_fflush_r>
    7226:	2800      	cmp	r0, #0
    7228:	d0d2      	beq.n	71d0 <__swbuf_r+0x5c>
    722a:	2601      	movs	r6, #1
    722c:	4276      	negs	r6, r6
    722e:	e7cf      	b.n	71d0 <__swbuf_r+0x5c>
    7230:	f7fe ffa8 	bl	6184 <__sinit>
    7234:	e7a7      	b.n	7186 <__swbuf_r+0x12>
    7236:	46c0      	nop			; (mov r8, r8)
    7238:	ffffdfff 	.word	0xffffdfff

0000723c <__swbuf>:
    723c:	0003      	movs	r3, r0
    723e:	b510      	push	{r4, lr}
    7240:	000a      	movs	r2, r1
    7242:	4903      	ldr	r1, [pc, #12]	; (7250 <__swbuf+0x14>)
    7244:	6808      	ldr	r0, [r1, #0]
    7246:	0019      	movs	r1, r3
    7248:	f7ff ff94 	bl	7174 <__swbuf_r>
    724c:	bd10      	pop	{r4, pc}
    724e:	46c0      	nop			; (mov r8, r8)
    7250:	0020d0e0 	.word	0x0020d0e0

00007254 <_mbtowc_r>:
    7254:	b530      	push	{r4, r5, lr}
    7256:	b083      	sub	sp, #12
    7258:	9d06      	ldr	r5, [sp, #24]
    725a:	4c03      	ldr	r4, [pc, #12]	; (7268 <_mbtowc_r+0x14>)
    725c:	9500      	str	r5, [sp, #0]
    725e:	25e4      	movs	r5, #228	; 0xe4
    7260:	5964      	ldr	r4, [r4, r5]
    7262:	47a0      	blx	r4
    7264:	b003      	add	sp, #12
    7266:	bd30      	pop	{r4, r5, pc}
    7268:	0020ce50 	.word	0x0020ce50

0000726c <__ascii_mbtowc>:
    726c:	b082      	sub	sp, #8
    726e:	2900      	cmp	r1, #0
    7270:	d00a      	beq.n	7288 <__ascii_mbtowc+0x1c>
    7272:	2a00      	cmp	r2, #0
    7274:	d00b      	beq.n	728e <__ascii_mbtowc+0x22>
    7276:	2b00      	cmp	r3, #0
    7278:	d00b      	beq.n	7292 <__ascii_mbtowc+0x26>
    727a:	7813      	ldrb	r3, [r2, #0]
    727c:	600b      	str	r3, [r1, #0]
    727e:	7810      	ldrb	r0, [r2, #0]
    7280:	1e43      	subs	r3, r0, #1
    7282:	4198      	sbcs	r0, r3
    7284:	b002      	add	sp, #8
    7286:	4770      	bx	lr
    7288:	a901      	add	r1, sp, #4
    728a:	2a00      	cmp	r2, #0
    728c:	d1f3      	bne.n	7276 <__ascii_mbtowc+0xa>
    728e:	2000      	movs	r0, #0
    7290:	e7f8      	b.n	7284 <__ascii_mbtowc+0x18>
    7292:	2002      	movs	r0, #2
    7294:	4240      	negs	r0, r0
    7296:	e7f5      	b.n	7284 <__ascii_mbtowc+0x18>

00007298 <__utf8_mbtowc>:
    7298:	b5f0      	push	{r4, r5, r6, r7, lr}
    729a:	46ce      	mov	lr, r9
    729c:	4647      	mov	r7, r8
    729e:	b580      	push	{r7, lr}
    72a0:	b083      	sub	sp, #12
    72a2:	4681      	mov	r9, r0
    72a4:	9d0a      	ldr	r5, [sp, #40]	; 0x28
    72a6:	2900      	cmp	r1, #0
    72a8:	d03d      	beq.n	7326 <__utf8_mbtowc+0x8e>
    72aa:	2a00      	cmp	r2, #0
    72ac:	d03e      	beq.n	732c <__utf8_mbtowc+0x94>
    72ae:	2b00      	cmp	r3, #0
    72b0:	d100      	bne.n	72b4 <__utf8_mbtowc+0x1c>
    72b2:	e0e0      	b.n	7476 <__utf8_mbtowc+0x1de>
    72b4:	682c      	ldr	r4, [r5, #0]
    72b6:	2c00      	cmp	r4, #0
    72b8:	d029      	beq.n	730e <__utf8_mbtowc+0x76>
    72ba:	2700      	movs	r7, #0
    72bc:	7928      	ldrb	r0, [r5, #4]
    72be:	46bc      	mov	ip, r7
    72c0:	2800      	cmp	r0, #0
    72c2:	d029      	beq.n	7318 <__utf8_mbtowc+0x80>
    72c4:	287f      	cmp	r0, #127	; 0x7f
    72c6:	dd66      	ble.n	7396 <__utf8_mbtowc+0xfe>
    72c8:	0007      	movs	r7, r0
    72ca:	3fc0      	subs	r7, #192	; 0xc0
    72cc:	2f1f      	cmp	r7, #31
    72ce:	d82f      	bhi.n	7330 <__utf8_mbtowc+0x98>
    72d0:	7128      	strb	r0, [r5, #4]
    72d2:	2c00      	cmp	r4, #0
    72d4:	d104      	bne.n	72e0 <__utf8_mbtowc+0x48>
    72d6:	2401      	movs	r4, #1
    72d8:	602c      	str	r4, [r5, #0]
    72da:	2b01      	cmp	r3, #1
    72dc:	d100      	bne.n	72e0 <__utf8_mbtowc+0x48>
    72de:	e0ca      	b.n	7476 <__utf8_mbtowc+0x1de>
    72e0:	4663      	mov	r3, ip
    72e2:	5cd2      	ldrb	r2, [r2, r3]
    72e4:	1c5c      	adds	r4, r3, #1
    72e6:	0013      	movs	r3, r2
    72e8:	3b80      	subs	r3, #128	; 0x80
    72ea:	2b3f      	cmp	r3, #63	; 0x3f
    72ec:	d900      	bls.n	72f0 <__utf8_mbtowc+0x58>
    72ee:	e0b7      	b.n	7460 <__utf8_mbtowc+0x1c8>
    72f0:	28c1      	cmp	r0, #193	; 0xc1
    72f2:	dc00      	bgt.n	72f6 <__utf8_mbtowc+0x5e>
    72f4:	e0b4      	b.n	7460 <__utf8_mbtowc+0x1c8>
    72f6:	2300      	movs	r3, #0
    72f8:	602b      	str	r3, [r5, #0]
    72fa:	23f8      	movs	r3, #248	; 0xf8
    72fc:	0180      	lsls	r0, r0, #6
    72fe:	00db      	lsls	r3, r3, #3
    7300:	4018      	ands	r0, r3
    7302:	233f      	movs	r3, #63	; 0x3f
    7304:	4013      	ands	r3, r2
    7306:	4318      	orrs	r0, r3
    7308:	6008      	str	r0, [r1, #0]
    730a:	0020      	movs	r0, r4
    730c:	e006      	b.n	731c <__utf8_mbtowc+0x84>
    730e:	2701      	movs	r7, #1
    7310:	7810      	ldrb	r0, [r2, #0]
    7312:	46bc      	mov	ip, r7
    7314:	2800      	cmp	r0, #0
    7316:	d1d5      	bne.n	72c4 <__utf8_mbtowc+0x2c>
    7318:	6008      	str	r0, [r1, #0]
    731a:	6028      	str	r0, [r5, #0]
    731c:	b003      	add	sp, #12
    731e:	bcc0      	pop	{r6, r7}
    7320:	46b9      	mov	r9, r7
    7322:	46b0      	mov	r8, r6
    7324:	bdf0      	pop	{r4, r5, r6, r7, pc}
    7326:	a901      	add	r1, sp, #4
    7328:	2a00      	cmp	r2, #0
    732a:	d1c0      	bne.n	72ae <__utf8_mbtowc+0x16>
    732c:	2000      	movs	r0, #0
    732e:	e7f5      	b.n	731c <__utf8_mbtowc+0x84>
    7330:	0007      	movs	r7, r0
    7332:	3fe0      	subs	r7, #224	; 0xe0
    7334:	2f0f      	cmp	r7, #15
    7336:	d833      	bhi.n	73a0 <__utf8_mbtowc+0x108>
    7338:	7128      	strb	r0, [r5, #4]
    733a:	2c00      	cmp	r4, #0
    733c:	d079      	beq.n	7432 <__utf8_mbtowc+0x19a>
    733e:	1c5f      	adds	r7, r3, #1
    7340:	1e7e      	subs	r6, r7, #1
    7342:	41b7      	sbcs	r7, r6
    7344:	19db      	adds	r3, r3, r7
    7346:	2c01      	cmp	r4, #1
    7348:	d077      	beq.n	743a <__utf8_mbtowc+0x1a2>
    734a:	796f      	ldrb	r7, [r5, #5]
    734c:	28e0      	cmp	r0, #224	; 0xe0
    734e:	d100      	bne.n	7352 <__utf8_mbtowc+0xba>
    7350:	e083      	b.n	745a <__utf8_mbtowc+0x1c2>
    7352:	2680      	movs	r6, #128	; 0x80
    7354:	4276      	negs	r6, r6
    7356:	46b0      	mov	r8, r6
    7358:	44b8      	add	r8, r7
    735a:	4646      	mov	r6, r8
    735c:	2e3f      	cmp	r6, #63	; 0x3f
    735e:	d87f      	bhi.n	7460 <__utf8_mbtowc+0x1c8>
    7360:	716f      	strb	r7, [r5, #5]
    7362:	2c01      	cmp	r4, #1
    7364:	d100      	bne.n	7368 <__utf8_mbtowc+0xd0>
    7366:	e081      	b.n	746c <__utf8_mbtowc+0x1d4>
    7368:	4664      	mov	r4, ip
    736a:	5d14      	ldrb	r4, [r2, r4]
    736c:	4663      	mov	r3, ip
    736e:	0022      	movs	r2, r4
    7370:	3a80      	subs	r2, #128	; 0x80
    7372:	3301      	adds	r3, #1
    7374:	2a3f      	cmp	r2, #63	; 0x3f
    7376:	d873      	bhi.n	7460 <__utf8_mbtowc+0x1c8>
    7378:	2200      	movs	r2, #0
    737a:	602a      	str	r2, [r5, #0]
    737c:	22fc      	movs	r2, #252	; 0xfc
    737e:	01bf      	lsls	r7, r7, #6
    7380:	0112      	lsls	r2, r2, #4
    7382:	4017      	ands	r7, r2
    7384:	223f      	movs	r2, #63	; 0x3f
    7386:	0700      	lsls	r0, r0, #28
    7388:	0c00      	lsrs	r0, r0, #16
    738a:	4338      	orrs	r0, r7
    738c:	4022      	ands	r2, r4
    738e:	4310      	orrs	r0, r2
    7390:	6008      	str	r0, [r1, #0]
    7392:	0018      	movs	r0, r3
    7394:	e7c2      	b.n	731c <__utf8_mbtowc+0x84>
    7396:	2300      	movs	r3, #0
    7398:	602b      	str	r3, [r5, #0]
    739a:	6008      	str	r0, [r1, #0]
    739c:	2001      	movs	r0, #1
    739e:	e7bd      	b.n	731c <__utf8_mbtowc+0x84>
    73a0:	0007      	movs	r7, r0
    73a2:	3ff0      	subs	r7, #240	; 0xf0
    73a4:	2f04      	cmp	r7, #4
    73a6:	d85b      	bhi.n	7460 <__utf8_mbtowc+0x1c8>
    73a8:	7128      	strb	r0, [r5, #4]
    73aa:	2c00      	cmp	r4, #0
    73ac:	d04b      	beq.n	7446 <__utf8_mbtowc+0x1ae>
    73ae:	1c5f      	adds	r7, r3, #1
    73b0:	1e7e      	subs	r6, r7, #1
    73b2:	41b7      	sbcs	r7, r6
    73b4:	19db      	adds	r3, r3, r7
    73b6:	2c01      	cmp	r4, #1
    73b8:	d049      	beq.n	744e <__utf8_mbtowc+0x1b6>
    73ba:	796f      	ldrb	r7, [r5, #5]
    73bc:	28f0      	cmp	r0, #240	; 0xf0
    73be:	d05d      	beq.n	747c <__utf8_mbtowc+0x1e4>
    73c0:	28f4      	cmp	r0, #244	; 0xf4
    73c2:	d101      	bne.n	73c8 <__utf8_mbtowc+0x130>
    73c4:	2f8f      	cmp	r7, #143	; 0x8f
    73c6:	dc4b      	bgt.n	7460 <__utf8_mbtowc+0x1c8>
    73c8:	2680      	movs	r6, #128	; 0x80
    73ca:	4276      	negs	r6, r6
    73cc:	46b0      	mov	r8, r6
    73ce:	44b8      	add	r8, r7
    73d0:	4646      	mov	r6, r8
    73d2:	2e3f      	cmp	r6, #63	; 0x3f
    73d4:	d844      	bhi.n	7460 <__utf8_mbtowc+0x1c8>
    73d6:	716f      	strb	r7, [r5, #5]
    73d8:	2c01      	cmp	r4, #1
    73da:	d052      	beq.n	7482 <__utf8_mbtowc+0x1ea>
    73dc:	1c5c      	adds	r4, r3, #1
    73de:	1e66      	subs	r6, r4, #1
    73e0:	41b4      	sbcs	r4, r6
    73e2:	191b      	adds	r3, r3, r4
    73e4:	682c      	ldr	r4, [r5, #0]
    73e6:	2c02      	cmp	r4, #2
    73e8:	d04f      	beq.n	748a <__utf8_mbtowc+0x1f2>
    73ea:	79ac      	ldrb	r4, [r5, #6]
    73ec:	0023      	movs	r3, r4
    73ee:	3b80      	subs	r3, #128	; 0x80
    73f0:	2b3f      	cmp	r3, #63	; 0x3f
    73f2:	d835      	bhi.n	7460 <__utf8_mbtowc+0x1c8>
    73f4:	4666      	mov	r6, ip
    73f6:	4663      	mov	r3, ip
    73f8:	5d92      	ldrb	r2, [r2, r6]
    73fa:	3301      	adds	r3, #1
    73fc:	4694      	mov	ip, r2
    73fe:	3a80      	subs	r2, #128	; 0x80
    7400:	2a3f      	cmp	r2, #63	; 0x3f
    7402:	d82d      	bhi.n	7460 <__utf8_mbtowc+0x1c8>
    7404:	22e0      	movs	r2, #224	; 0xe0
    7406:	0480      	lsls	r0, r0, #18
    7408:	0352      	lsls	r2, r2, #13
    740a:	4010      	ands	r0, r2
    740c:	22fc      	movs	r2, #252	; 0xfc
    740e:	033f      	lsls	r7, r7, #12
    7410:	0292      	lsls	r2, r2, #10
    7412:	4017      	ands	r7, r2
    7414:	22fc      	movs	r2, #252	; 0xfc
    7416:	01a4      	lsls	r4, r4, #6
    7418:	0112      	lsls	r2, r2, #4
    741a:	4014      	ands	r4, r2
    741c:	4338      	orrs	r0, r7
    741e:	4320      	orrs	r0, r4
    7420:	223f      	movs	r2, #63	; 0x3f
    7422:	4664      	mov	r4, ip
    7424:	4022      	ands	r2, r4
    7426:	4310      	orrs	r0, r2
    7428:	2200      	movs	r2, #0
    742a:	6008      	str	r0, [r1, #0]
    742c:	0018      	movs	r0, r3
    742e:	602a      	str	r2, [r5, #0]
    7430:	e774      	b.n	731c <__utf8_mbtowc+0x84>
    7432:	3401      	adds	r4, #1
    7434:	602c      	str	r4, [r5, #0]
    7436:	2b01      	cmp	r3, #1
    7438:	d01d      	beq.n	7476 <__utf8_mbtowc+0x1de>
    743a:	4664      	mov	r4, ip
    743c:	5d17      	ldrb	r7, [r2, r4]
    743e:	2401      	movs	r4, #1
    7440:	46a0      	mov	r8, r4
    7442:	44c4      	add	ip, r8
    7444:	e782      	b.n	734c <__utf8_mbtowc+0xb4>
    7446:	3401      	adds	r4, #1
    7448:	602c      	str	r4, [r5, #0]
    744a:	2b01      	cmp	r3, #1
    744c:	d013      	beq.n	7476 <__utf8_mbtowc+0x1de>
    744e:	4664      	mov	r4, ip
    7450:	5d17      	ldrb	r7, [r2, r4]
    7452:	2401      	movs	r4, #1
    7454:	46a0      	mov	r8, r4
    7456:	44c4      	add	ip, r8
    7458:	e7b0      	b.n	73bc <__utf8_mbtowc+0x124>
    745a:	2f9f      	cmp	r7, #159	; 0x9f
    745c:	dd00      	ble.n	7460 <__utf8_mbtowc+0x1c8>
    745e:	e778      	b.n	7352 <__utf8_mbtowc+0xba>
    7460:	238a      	movs	r3, #138	; 0x8a
    7462:	464a      	mov	r2, r9
    7464:	2001      	movs	r0, #1
    7466:	6013      	str	r3, [r2, #0]
    7468:	4240      	negs	r0, r0
    746a:	e757      	b.n	731c <__utf8_mbtowc+0x84>
    746c:	2402      	movs	r4, #2
    746e:	602c      	str	r4, [r5, #0]
    7470:	2b02      	cmp	r3, #2
    7472:	d000      	beq.n	7476 <__utf8_mbtowc+0x1de>
    7474:	e778      	b.n	7368 <__utf8_mbtowc+0xd0>
    7476:	2002      	movs	r0, #2
    7478:	4240      	negs	r0, r0
    747a:	e74f      	b.n	731c <__utf8_mbtowc+0x84>
    747c:	2f8f      	cmp	r7, #143	; 0x8f
    747e:	dca3      	bgt.n	73c8 <__utf8_mbtowc+0x130>
    7480:	e7ee      	b.n	7460 <__utf8_mbtowc+0x1c8>
    7482:	3401      	adds	r4, #1
    7484:	602c      	str	r4, [r5, #0]
    7486:	2b02      	cmp	r3, #2
    7488:	d0f5      	beq.n	7476 <__utf8_mbtowc+0x1de>
    748a:	2401      	movs	r4, #1
    748c:	2680      	movs	r6, #128	; 0x80
    748e:	4464      	add	r4, ip
    7490:	46a0      	mov	r8, r4
    7492:	4664      	mov	r4, ip
    7494:	4276      	negs	r6, r6
    7496:	46b4      	mov	ip, r6
    7498:	5d14      	ldrb	r4, [r2, r4]
    749a:	44a4      	add	ip, r4
    749c:	4666      	mov	r6, ip
    749e:	2e3f      	cmp	r6, #63	; 0x3f
    74a0:	d8de      	bhi.n	7460 <__utf8_mbtowc+0x1c8>
    74a2:	2603      	movs	r6, #3
    74a4:	71ac      	strb	r4, [r5, #6]
    74a6:	602e      	str	r6, [r5, #0]
    74a8:	2b03      	cmp	r3, #3
    74aa:	d0e4      	beq.n	7476 <__utf8_mbtowc+0x1de>
    74ac:	46c4      	mov	ip, r8
    74ae:	e7a1      	b.n	73f4 <__utf8_mbtowc+0x15c>

000074b0 <__sjis_mbtowc>:
    74b0:	b570      	push	{r4, r5, r6, lr}
    74b2:	b082      	sub	sp, #8
    74b4:	0005      	movs	r5, r0
    74b6:	9e06      	ldr	r6, [sp, #24]
    74b8:	2900      	cmp	r1, #0
    74ba:	d02b      	beq.n	7514 <__sjis_mbtowc+0x64>
    74bc:	2a00      	cmp	r2, #0
    74be:	d02c      	beq.n	751a <__sjis_mbtowc+0x6a>
    74c0:	2b00      	cmp	r3, #0
    74c2:	d031      	beq.n	7528 <__sjis_mbtowc+0x78>
    74c4:	6830      	ldr	r0, [r6, #0]
    74c6:	7814      	ldrb	r4, [r2, #0]
    74c8:	2800      	cmp	r0, #0
    74ca:	d007      	beq.n	74dc <__sjis_mbtowc+0x2c>
    74cc:	2801      	cmp	r0, #1
    74ce:	d013      	beq.n	74f8 <__sjis_mbtowc+0x48>
    74d0:	600c      	str	r4, [r1, #0]
    74d2:	7810      	ldrb	r0, [r2, #0]
    74d4:	1e43      	subs	r3, r0, #1
    74d6:	4198      	sbcs	r0, r3
    74d8:	b002      	add	sp, #8
    74da:	bd70      	pop	{r4, r5, r6, pc}
    74dc:	0020      	movs	r0, r4
    74de:	3881      	subs	r0, #129	; 0x81
    74e0:	281e      	cmp	r0, #30
    74e2:	d902      	bls.n	74ea <__sjis_mbtowc+0x3a>
    74e4:	385f      	subs	r0, #95	; 0x5f
    74e6:	280f      	cmp	r0, #15
    74e8:	d8f2      	bhi.n	74d0 <__sjis_mbtowc+0x20>
    74ea:	2001      	movs	r0, #1
    74ec:	7134      	strb	r4, [r6, #4]
    74ee:	6030      	str	r0, [r6, #0]
    74f0:	2b01      	cmp	r3, #1
    74f2:	d019      	beq.n	7528 <__sjis_mbtowc+0x78>
    74f4:	7854      	ldrb	r4, [r2, #1]
    74f6:	3001      	adds	r0, #1
    74f8:	0023      	movs	r3, r4
    74fa:	3b40      	subs	r3, #64	; 0x40
    74fc:	2b3e      	cmp	r3, #62	; 0x3e
    74fe:	d902      	bls.n	7506 <__sjis_mbtowc+0x56>
    7500:	3b40      	subs	r3, #64	; 0x40
    7502:	2b7c      	cmp	r3, #124	; 0x7c
    7504:	d80b      	bhi.n	751e <__sjis_mbtowc+0x6e>
    7506:	7933      	ldrb	r3, [r6, #4]
    7508:	021b      	lsls	r3, r3, #8
    750a:	191b      	adds	r3, r3, r4
    750c:	600b      	str	r3, [r1, #0]
    750e:	2300      	movs	r3, #0
    7510:	6033      	str	r3, [r6, #0]
    7512:	e7e1      	b.n	74d8 <__sjis_mbtowc+0x28>
    7514:	a901      	add	r1, sp, #4
    7516:	2a00      	cmp	r2, #0
    7518:	d1d2      	bne.n	74c0 <__sjis_mbtowc+0x10>
    751a:	2000      	movs	r0, #0
    751c:	e7dc      	b.n	74d8 <__sjis_mbtowc+0x28>
    751e:	238a      	movs	r3, #138	; 0x8a
    7520:	2001      	movs	r0, #1
    7522:	602b      	str	r3, [r5, #0]
    7524:	4240      	negs	r0, r0
    7526:	e7d7      	b.n	74d8 <__sjis_mbtowc+0x28>
    7528:	2002      	movs	r0, #2
    752a:	4240      	negs	r0, r0
    752c:	e7d4      	b.n	74d8 <__sjis_mbtowc+0x28>
    752e:	46c0      	nop			; (mov r8, r8)

00007530 <__eucjp_mbtowc>:
    7530:	b5f0      	push	{r4, r5, r6, r7, lr}
    7532:	b083      	sub	sp, #12
    7534:	0006      	movs	r6, r0
    7536:	9d08      	ldr	r5, [sp, #32]
    7538:	2900      	cmp	r1, #0
    753a:	d03c      	beq.n	75b6 <__eucjp_mbtowc+0x86>
    753c:	2a00      	cmp	r2, #0
    753e:	d03d      	beq.n	75bc <__eucjp_mbtowc+0x8c>
    7540:	2b00      	cmp	r3, #0
    7542:	d045      	beq.n	75d0 <__eucjp_mbtowc+0xa0>
    7544:	7814      	ldrb	r4, [r2, #0]
    7546:	6828      	ldr	r0, [r5, #0]
    7548:	0027      	movs	r7, r4
    754a:	2800      	cmp	r0, #0
    754c:	d009      	beq.n	7562 <__eucjp_mbtowc+0x32>
    754e:	2801      	cmp	r0, #1
    7550:	d015      	beq.n	757e <__eucjp_mbtowc+0x4e>
    7552:	2802      	cmp	r0, #2
    7554:	d03a      	beq.n	75cc <__eucjp_mbtowc+0x9c>
    7556:	600c      	str	r4, [r1, #0]
    7558:	7810      	ldrb	r0, [r2, #0]
    755a:	1e43      	subs	r3, r0, #1
    755c:	4198      	sbcs	r0, r3
    755e:	b003      	add	sp, #12
    7560:	bdf0      	pop	{r4, r5, r6, r7, pc}
    7562:	0020      	movs	r0, r4
    7564:	388e      	subs	r0, #142	; 0x8e
    7566:	2801      	cmp	r0, #1
    7568:	d902      	bls.n	7570 <__eucjp_mbtowc+0x40>
    756a:	3813      	subs	r0, #19
    756c:	285d      	cmp	r0, #93	; 0x5d
    756e:	d8f2      	bhi.n	7556 <__eucjp_mbtowc+0x26>
    7570:	2001      	movs	r0, #1
    7572:	712c      	strb	r4, [r5, #4]
    7574:	6028      	str	r0, [r5, #0]
    7576:	2b01      	cmp	r3, #1
    7578:	d02a      	beq.n	75d0 <__eucjp_mbtowc+0xa0>
    757a:	7857      	ldrb	r7, [r2, #1]
    757c:	3001      	adds	r0, #1
    757e:	003c      	movs	r4, r7
    7580:	3ca1      	subs	r4, #161	; 0xa1
    7582:	2c5d      	cmp	r4, #93	; 0x5d
    7584:	d827      	bhi.n	75d6 <__eucjp_mbtowc+0xa6>
    7586:	792c      	ldrb	r4, [r5, #4]
    7588:	2c8f      	cmp	r4, #143	; 0x8f
    758a:	d119      	bne.n	75c0 <__eucjp_mbtowc+0x90>
    758c:	3c8d      	subs	r4, #141	; 0x8d
    758e:	602c      	str	r4, [r5, #0]
    7590:	716f      	strb	r7, [r5, #5]
    7592:	0004      	movs	r4, r0
    7594:	4298      	cmp	r0, r3
    7596:	d21b      	bcs.n	75d0 <__eucjp_mbtowc+0xa0>
    7598:	5d17      	ldrb	r7, [r2, r4]
    759a:	3001      	adds	r0, #1
    759c:	003b      	movs	r3, r7
    759e:	3ba1      	subs	r3, #161	; 0xa1
    75a0:	2b5d      	cmp	r3, #93	; 0x5d
    75a2:	d818      	bhi.n	75d6 <__eucjp_mbtowc+0xa6>
    75a4:	227f      	movs	r2, #127	; 0x7f
    75a6:	796b      	ldrb	r3, [r5, #5]
    75a8:	403a      	ands	r2, r7
    75aa:	021b      	lsls	r3, r3, #8
    75ac:	189b      	adds	r3, r3, r2
    75ae:	600b      	str	r3, [r1, #0]
    75b0:	2300      	movs	r3, #0
    75b2:	602b      	str	r3, [r5, #0]
    75b4:	e7d3      	b.n	755e <__eucjp_mbtowc+0x2e>
    75b6:	a901      	add	r1, sp, #4
    75b8:	2a00      	cmp	r2, #0
    75ba:	d1c1      	bne.n	7540 <__eucjp_mbtowc+0x10>
    75bc:	2000      	movs	r0, #0
    75be:	e7ce      	b.n	755e <__eucjp_mbtowc+0x2e>
    75c0:	2300      	movs	r3, #0
    75c2:	0224      	lsls	r4, r4, #8
    75c4:	19e4      	adds	r4, r4, r7
    75c6:	600c      	str	r4, [r1, #0]
    75c8:	602b      	str	r3, [r5, #0]
    75ca:	e7c8      	b.n	755e <__eucjp_mbtowc+0x2e>
    75cc:	3801      	subs	r0, #1
    75ce:	e7e5      	b.n	759c <__eucjp_mbtowc+0x6c>
    75d0:	2002      	movs	r0, #2
    75d2:	4240      	negs	r0, r0
    75d4:	e7c3      	b.n	755e <__eucjp_mbtowc+0x2e>
    75d6:	238a      	movs	r3, #138	; 0x8a
    75d8:	2001      	movs	r0, #1
    75da:	6033      	str	r3, [r6, #0]
    75dc:	4240      	negs	r0, r0
    75de:	e7be      	b.n	755e <__eucjp_mbtowc+0x2e>

000075e0 <__jis_mbtowc>:
    75e0:	b5f0      	push	{r4, r5, r6, r7, lr}
    75e2:	46de      	mov	lr, fp
    75e4:	4657      	mov	r7, sl
    75e6:	464e      	mov	r6, r9
    75e8:	4645      	mov	r5, r8
    75ea:	b5e0      	push	{r5, r6, r7, lr}
    75ec:	b087      	sub	sp, #28
    75ee:	469c      	mov	ip, r3
    75f0:	9002      	str	r0, [sp, #8]
    75f2:	2900      	cmp	r1, #0
    75f4:	d020      	beq.n	7638 <__jis_mbtowc+0x58>
    75f6:	2a00      	cmp	r2, #0
    75f8:	d021      	beq.n	763e <__jis_mbtowc+0x5e>
    75fa:	4663      	mov	r3, ip
    75fc:	2b00      	cmp	r3, #0
    75fe:	d100      	bne.n	7602 <__jis_mbtowc+0x22>
    7600:	e081      	b.n	7706 <__jis_mbtowc+0x126>
    7602:	9b10      	ldr	r3, [sp, #64]	; 0x40
    7604:	4c41      	ldr	r4, [pc, #260]	; (770c <__jis_mbtowc+0x12c>)
    7606:	781d      	ldrb	r5, [r3, #0]
    7608:	0013      	movs	r3, r2
    760a:	46a3      	mov	fp, r4
    760c:	4c40      	ldr	r4, [pc, #256]	; (7710 <__jis_mbtowc+0x130>)
    760e:	781e      	ldrb	r6, [r3, #0]
    7610:	46a2      	mov	sl, r4
    7612:	4c40      	ldr	r4, [pc, #256]	; (7714 <__jis_mbtowc+0x134>)
    7614:	2001      	movs	r0, #1
    7616:	46a1      	mov	r9, r4
    7618:	4c3f      	ldr	r4, [pc, #252]	; (7718 <__jis_mbtowc+0x138>)
    761a:	465f      	mov	r7, fp
    761c:	46a0      	mov	r8, r4
    761e:	9203      	str	r2, [sp, #12]
    7620:	9201      	str	r2, [sp, #4]
    7622:	2e00      	cmp	r6, #0
    7624:	d02f      	beq.n	7686 <__jis_mbtowc+0xa6>
    7626:	0034      	movs	r4, r6
    7628:	3c1b      	subs	r4, #27
    762a:	b2e4      	uxtb	r4, r4
    762c:	2c2f      	cmp	r4, #47	; 0x2f
    762e:	d80a      	bhi.n	7646 <__jis_mbtowc+0x66>
    7630:	464a      	mov	r2, r9
    7632:	00a4      	lsls	r4, r4, #2
    7634:	5914      	ldr	r4, [r2, r4]
    7636:	46a7      	mov	pc, r4
    7638:	a905      	add	r1, sp, #20
    763a:	2a00      	cmp	r2, #0
    763c:	d1dd      	bne.n	75fa <__jis_mbtowc+0x1a>
    763e:	9b10      	ldr	r3, [sp, #64]	; 0x40
    7640:	2001      	movs	r0, #1
    7642:	601a      	str	r2, [r3, #0]
    7644:	e02e      	b.n	76a4 <__jis_mbtowc+0xc4>
    7646:	225d      	movs	r2, #93	; 0x5d
    7648:	0034      	movs	r4, r6
    764a:	4693      	mov	fp, r2
    764c:	3c21      	subs	r4, #33	; 0x21
    764e:	45a3      	cmp	fp, r4
    7650:	41a4      	sbcs	r4, r4
    7652:	4264      	negs	r4, r4
    7654:	1de2      	adds	r2, r4, #7
    7656:	4693      	mov	fp, r2
    7658:	465a      	mov	r2, fp
    765a:	00ec      	lsls	r4, r5, #3
    765c:	1964      	adds	r4, r4, r5
    765e:	193d      	adds	r5, r7, r4
    7660:	4454      	add	r4, sl
    7662:	5ca4      	ldrb	r4, [r4, r2]
    7664:	5cad      	ldrb	r5, [r5, r2]
    7666:	2c05      	cmp	r4, #5
    7668:	d83f      	bhi.n	76ea <__jis_mbtowc+0x10a>
    766a:	4642      	mov	r2, r8
    766c:	00a4      	lsls	r4, r4, #2
    766e:	5914      	ldr	r4, [r2, r4]
    7670:	46a7      	mov	pc, r4
    7672:	9a10      	ldr	r2, [sp, #64]	; 0x40
    7674:	7116      	strb	r6, [r2, #4]
    7676:	3301      	adds	r3, #1
    7678:	1c44      	adds	r4, r0, #1
    767a:	4584      	cmp	ip, r0
    767c:	d93e      	bls.n	76fc <__jis_mbtowc+0x11c>
    767e:	781e      	ldrb	r6, [r3, #0]
    7680:	0020      	movs	r0, r4
    7682:	2e00      	cmp	r6, #0
    7684:	d1cf      	bne.n	7626 <__jis_mbtowc+0x46>
    7686:	2206      	movs	r2, #6
    7688:	4693      	mov	fp, r2
    768a:	e7e5      	b.n	7658 <__jis_mbtowc+0x78>
    768c:	9a03      	ldr	r2, [sp, #12]
    768e:	1812      	adds	r2, r2, r0
    7690:	9201      	str	r2, [sp, #4]
    7692:	e7f0      	b.n	7676 <__jis_mbtowc+0x96>
    7694:	2201      	movs	r2, #1
    7696:	9c10      	ldr	r4, [sp, #64]	; 0x40
    7698:	6022      	str	r2, [r4, #0]
    769a:	7922      	ldrb	r2, [r4, #4]
    769c:	0214      	lsls	r4, r2, #8
    769e:	781a      	ldrb	r2, [r3, #0]
    76a0:	18a3      	adds	r3, r4, r2
    76a2:	600b      	str	r3, [r1, #0]
    76a4:	b007      	add	sp, #28
    76a6:	bcf0      	pop	{r4, r5, r6, r7}
    76a8:	46bb      	mov	fp, r7
    76aa:	46b2      	mov	sl, r6
    76ac:	46a9      	mov	r9, r5
    76ae:	46a0      	mov	r8, r4
    76b0:	bdf0      	pop	{r4, r5, r6, r7, pc}
    76b2:	2400      	movs	r4, #0
    76b4:	9b10      	ldr	r3, [sp, #64]	; 0x40
    76b6:	9a01      	ldr	r2, [sp, #4]
    76b8:	601c      	str	r4, [r3, #0]
    76ba:	7813      	ldrb	r3, [r2, #0]
    76bc:	600b      	str	r3, [r1, #0]
    76be:	e7f1      	b.n	76a4 <__jis_mbtowc+0xc4>
    76c0:	2200      	movs	r2, #0
    76c2:	9b10      	ldr	r3, [sp, #64]	; 0x40
    76c4:	2000      	movs	r0, #0
    76c6:	601a      	str	r2, [r3, #0]
    76c8:	600a      	str	r2, [r1, #0]
    76ca:	e7eb      	b.n	76a4 <__jis_mbtowc+0xc4>
    76cc:	2202      	movs	r2, #2
    76ce:	4693      	mov	fp, r2
    76d0:	e7c2      	b.n	7658 <__jis_mbtowc+0x78>
    76d2:	2203      	movs	r2, #3
    76d4:	4693      	mov	fp, r2
    76d6:	e7bf      	b.n	7658 <__jis_mbtowc+0x78>
    76d8:	2204      	movs	r2, #4
    76da:	4693      	mov	fp, r2
    76dc:	e7bc      	b.n	7658 <__jis_mbtowc+0x78>
    76de:	2205      	movs	r2, #5
    76e0:	4693      	mov	fp, r2
    76e2:	e7b9      	b.n	7658 <__jis_mbtowc+0x78>
    76e4:	2200      	movs	r2, #0
    76e6:	4693      	mov	fp, r2
    76e8:	e7b6      	b.n	7658 <__jis_mbtowc+0x78>
    76ea:	238a      	movs	r3, #138	; 0x8a
    76ec:	2001      	movs	r0, #1
    76ee:	9a02      	ldr	r2, [sp, #8]
    76f0:	4240      	negs	r0, r0
    76f2:	6013      	str	r3, [r2, #0]
    76f4:	e7d6      	b.n	76a4 <__jis_mbtowc+0xc4>
    76f6:	2201      	movs	r2, #1
    76f8:	4693      	mov	fp, r2
    76fa:	e7ad      	b.n	7658 <__jis_mbtowc+0x78>
    76fc:	2002      	movs	r0, #2
    76fe:	9b10      	ldr	r3, [sp, #64]	; 0x40
    7700:	4240      	negs	r0, r0
    7702:	601d      	str	r5, [r3, #0]
    7704:	e7ce      	b.n	76a4 <__jis_mbtowc+0xc4>
    7706:	2002      	movs	r0, #2
    7708:	4240      	negs	r0, r0
    770a:	e7cb      	b.n	76a4 <__jis_mbtowc+0xc4>
    770c:	0000c7b0 	.word	0x0000c7b0
    7710:	0000c768 	.word	0x0000c768
    7714:	0000c690 	.word	0x0000c690
    7718:	0000c750 	.word	0x0000c750

0000771c <memmove>:
    771c:	b5f0      	push	{r4, r5, r6, r7, lr}
    771e:	4288      	cmp	r0, r1
    7720:	d90a      	bls.n	7738 <memmove+0x1c>
    7722:	188b      	adds	r3, r1, r2
    7724:	4298      	cmp	r0, r3
    7726:	d207      	bcs.n	7738 <memmove+0x1c>
    7728:	1e53      	subs	r3, r2, #1
    772a:	2a00      	cmp	r2, #0
    772c:	d003      	beq.n	7736 <memmove+0x1a>
    772e:	5cca      	ldrb	r2, [r1, r3]
    7730:	54c2      	strb	r2, [r0, r3]
    7732:	3b01      	subs	r3, #1
    7734:	d2fb      	bcs.n	772e <memmove+0x12>
    7736:	bdf0      	pop	{r4, r5, r6, r7, pc}
    7738:	2a0f      	cmp	r2, #15
    773a:	d80b      	bhi.n	7754 <memmove+0x38>
    773c:	0005      	movs	r5, r0
    773e:	1e56      	subs	r6, r2, #1
    7740:	2a00      	cmp	r2, #0
    7742:	d0f8      	beq.n	7736 <memmove+0x1a>
    7744:	2300      	movs	r3, #0
    7746:	5ccc      	ldrb	r4, [r1, r3]
    7748:	001a      	movs	r2, r3
    774a:	54ec      	strb	r4, [r5, r3]
    774c:	3301      	adds	r3, #1
    774e:	4296      	cmp	r6, r2
    7750:	d1f9      	bne.n	7746 <memmove+0x2a>
    7752:	e7f0      	b.n	7736 <memmove+0x1a>
    7754:	2403      	movs	r4, #3
    7756:	0003      	movs	r3, r0
    7758:	0026      	movs	r6, r4
    775a:	430b      	orrs	r3, r1
    775c:	401e      	ands	r6, r3
    775e:	421c      	tst	r4, r3
    7760:	d12d      	bne.n	77be <memmove+0xa2>
    7762:	0015      	movs	r5, r2
    7764:	3d10      	subs	r5, #16
    7766:	092d      	lsrs	r5, r5, #4
    7768:	0003      	movs	r3, r0
    776a:	000c      	movs	r4, r1
    776c:	46ac      	mov	ip, r5
    776e:	012f      	lsls	r7, r5, #4
    7770:	183f      	adds	r7, r7, r0
    7772:	6825      	ldr	r5, [r4, #0]
    7774:	601d      	str	r5, [r3, #0]
    7776:	6865      	ldr	r5, [r4, #4]
    7778:	605d      	str	r5, [r3, #4]
    777a:	68a5      	ldr	r5, [r4, #8]
    777c:	609d      	str	r5, [r3, #8]
    777e:	68e5      	ldr	r5, [r4, #12]
    7780:	3410      	adds	r4, #16
    7782:	60dd      	str	r5, [r3, #12]
    7784:	001d      	movs	r5, r3
    7786:	3310      	adds	r3, #16
    7788:	42bd      	cmp	r5, r7
    778a:	d1f2      	bne.n	7772 <memmove+0x56>
    778c:	4665      	mov	r5, ip
    778e:	230f      	movs	r3, #15
    7790:	240c      	movs	r4, #12
    7792:	3501      	adds	r5, #1
    7794:	012d      	lsls	r5, r5, #4
    7796:	1949      	adds	r1, r1, r5
    7798:	4013      	ands	r3, r2
    779a:	1945      	adds	r5, r0, r5
    779c:	4214      	tst	r4, r2
    779e:	d011      	beq.n	77c4 <memmove+0xa8>
    77a0:	598c      	ldr	r4, [r1, r6]
    77a2:	51ac      	str	r4, [r5, r6]
    77a4:	3604      	adds	r6, #4
    77a6:	1b9c      	subs	r4, r3, r6
    77a8:	2c03      	cmp	r4, #3
    77aa:	d8f9      	bhi.n	77a0 <memmove+0x84>
    77ac:	3b04      	subs	r3, #4
    77ae:	089b      	lsrs	r3, r3, #2
    77b0:	3301      	adds	r3, #1
    77b2:	009b      	lsls	r3, r3, #2
    77b4:	18ed      	adds	r5, r5, r3
    77b6:	18c9      	adds	r1, r1, r3
    77b8:	2303      	movs	r3, #3
    77ba:	401a      	ands	r2, r3
    77bc:	e7bf      	b.n	773e <memmove+0x22>
    77be:	0005      	movs	r5, r0
    77c0:	1e56      	subs	r6, r2, #1
    77c2:	e7bf      	b.n	7744 <memmove+0x28>
    77c4:	001a      	movs	r2, r3
    77c6:	e7ba      	b.n	773e <memmove+0x22>

000077c8 <__assert_func>:
    77c8:	b570      	push	{r4, r5, r6, lr}
    77ca:	0014      	movs	r4, r2
    77cc:	001a      	movs	r2, r3
    77ce:	4b0a      	ldr	r3, [pc, #40]	; (77f8 <__assert_func+0x30>)
    77d0:	0006      	movs	r6, r0
    77d2:	681b      	ldr	r3, [r3, #0]
    77d4:	b084      	sub	sp, #16
    77d6:	68d8      	ldr	r0, [r3, #12]
    77d8:	2c00      	cmp	r4, #0
    77da:	d00a      	beq.n	77f2 <__assert_func+0x2a>
    77dc:	4b07      	ldr	r3, [pc, #28]	; (77fc <__assert_func+0x34>)
    77de:	4d08      	ldr	r5, [pc, #32]	; (7800 <__assert_func+0x38>)
    77e0:	9301      	str	r3, [sp, #4]
    77e2:	9100      	str	r1, [sp, #0]
    77e4:	0033      	movs	r3, r6
    77e6:	0029      	movs	r1, r5
    77e8:	9402      	str	r4, [sp, #8]
    77ea:	f001 f963 	bl	8ab4 <fiprintf>
    77ee:	f001 f973 	bl	8ad8 <abort>
    77f2:	4b04      	ldr	r3, [pc, #16]	; (7804 <__assert_func+0x3c>)
    77f4:	001c      	movs	r4, r3
    77f6:	e7f2      	b.n	77de <__assert_func+0x16>
    77f8:	0020d0e0 	.word	0x0020d0e0
    77fc:	0000c7f8 	.word	0x0000c7f8
    7800:	0000c808 	.word	0x0000c808
    7804:	0000c804 	.word	0x0000c804

00007808 <__assert>:
    7808:	0013      	movs	r3, r2
    780a:	b510      	push	{r4, lr}
    780c:	2200      	movs	r2, #0
    780e:	f7ff ffdb 	bl	77c8 <__assert_func>
    7812:	46c0      	nop			; (mov r8, r8)

00007814 <strcasecmp>:
    7814:	b5f0      	push	{r4, r5, r6, r7, lr}
    7816:	0007      	movs	r7, r0
    7818:	2400      	movs	r4, #0
    781a:	2503      	movs	r5, #3
    781c:	4e0d      	ldr	r6, [pc, #52]	; (7854 <strcasecmp+0x40>)
    781e:	5d3b      	ldrb	r3, [r7, r4]
    7820:	5cf2      	ldrb	r2, [r6, r3]
    7822:	402a      	ands	r2, r5
    7824:	2a01      	cmp	r2, #1
    7826:	d100      	bne.n	782a <strcasecmp+0x16>
    7828:	3320      	adds	r3, #32
    782a:	5d08      	ldrb	r0, [r1, r4]
    782c:	5c32      	ldrb	r2, [r6, r0]
    782e:	402a      	ands	r2, r5
    7830:	2a01      	cmp	r2, #1
    7832:	d008      	beq.n	7846 <strcasecmp+0x32>
    7834:	1a1a      	subs	r2, r3, r0
    7836:	4283      	cmp	r3, r0
    7838:	d103      	bne.n	7842 <strcasecmp+0x2e>
    783a:	2800      	cmp	r0, #0
    783c:	d002      	beq.n	7844 <strcasecmp+0x30>
    783e:	3401      	adds	r4, #1
    7840:	e7ed      	b.n	781e <strcasecmp+0xa>
    7842:	0010      	movs	r0, r2
    7844:	bdf0      	pop	{r4, r5, r6, r7, pc}
    7846:	0002      	movs	r2, r0
    7848:	3220      	adds	r2, #32
    784a:	1a98      	subs	r0, r3, r2
    784c:	4293      	cmp	r3, r2
    784e:	d1f9      	bne.n	7844 <strcasecmp+0x30>
    7850:	3401      	adds	r4, #1
    7852:	e7e4      	b.n	781e <strcasecmp+0xa>
    7854:	0000c58d 	.word	0x0000c58d

00007858 <strcat>:
    7858:	b570      	push	{r4, r5, r6, lr}
    785a:	0004      	movs	r4, r0
    785c:	0783      	lsls	r3, r0, #30
    785e:	d116      	bne.n	788e <strcat+0x36>
    7860:	6802      	ldr	r2, [r0, #0]
    7862:	4b0e      	ldr	r3, [pc, #56]	; (789c <strcat+0x44>)
    7864:	4d0e      	ldr	r5, [pc, #56]	; (78a0 <strcat+0x48>)
    7866:	18d3      	adds	r3, r2, r3
    7868:	4393      	bics	r3, r2
    786a:	422b      	tst	r3, r5
    786c:	d10f      	bne.n	788e <strcat+0x36>
    786e:	6842      	ldr	r2, [r0, #4]
    7870:	4b0a      	ldr	r3, [pc, #40]	; (789c <strcat+0x44>)
    7872:	3004      	adds	r0, #4
    7874:	18d3      	adds	r3, r2, r3
    7876:	4393      	bics	r3, r2
    7878:	422b      	tst	r3, r5
    787a:	d108      	bne.n	788e <strcat+0x36>
    787c:	6842      	ldr	r2, [r0, #4]
    787e:	4b07      	ldr	r3, [pc, #28]	; (789c <strcat+0x44>)
    7880:	3004      	adds	r0, #4
    7882:	18d3      	adds	r3, r2, r3
    7884:	4393      	bics	r3, r2
    7886:	422b      	tst	r3, r5
    7888:	d0f1      	beq.n	786e <strcat+0x16>
    788a:	e000      	b.n	788e <strcat+0x36>
    788c:	3001      	adds	r0, #1
    788e:	7803      	ldrb	r3, [r0, #0]
    7890:	2b00      	cmp	r3, #0
    7892:	d1fb      	bne.n	788c <strcat+0x34>
    7894:	f7fd f8d8 	bl	4a48 <strcpy>
    7898:	0020      	movs	r0, r4
    789a:	bd70      	pop	{r4, r5, r6, pc}
    789c:	fefefeff 	.word	0xfefefeff
    78a0:	80808080 	.word	0x80808080

000078a4 <_fclose_r>:
    78a4:	b5f8      	push	{r3, r4, r5, r6, r7, lr}
    78a6:	0006      	movs	r6, r0
    78a8:	1e0c      	subs	r4, r1, #0
    78aa:	d04d      	beq.n	7948 <_fclose_r+0xa4>
    78ac:	2800      	cmp	r0, #0
    78ae:	d002      	beq.n	78b6 <_fclose_r+0x12>
    78b0:	6b43      	ldr	r3, [r0, #52]	; 0x34
    78b2:	2b00      	cmp	r3, #0
    78b4:	d054      	beq.n	7960 <_fclose_r+0xbc>
    78b6:	2701      	movs	r7, #1
    78b8:	6e63      	ldr	r3, [r4, #100]	; 0x64
    78ba:	423b      	tst	r3, r7
    78bc:	d035      	beq.n	792a <_fclose_r+0x86>
    78be:	220c      	movs	r2, #12
    78c0:	5ea3      	ldrsh	r3, [r4, r2]
    78c2:	2b00      	cmp	r3, #0
    78c4:	d040      	beq.n	7948 <_fclose_r+0xa4>
    78c6:	0021      	movs	r1, r4
    78c8:	0030      	movs	r0, r6
    78ca:	f7fe fa21 	bl	5d10 <__sflush_r>
    78ce:	6ae3      	ldr	r3, [r4, #44]	; 0x2c
    78d0:	0005      	movs	r5, r0
    78d2:	2b00      	cmp	r3, #0
    78d4:	d004      	beq.n	78e0 <_fclose_r+0x3c>
    78d6:	0030      	movs	r0, r6
    78d8:	69e1      	ldr	r1, [r4, #28]
    78da:	4798      	blx	r3
    78dc:	2800      	cmp	r0, #0
    78de:	db35      	blt.n	794c <_fclose_r+0xa8>
    78e0:	89a3      	ldrh	r3, [r4, #12]
    78e2:	061b      	lsls	r3, r3, #24
    78e4:	d437      	bmi.n	7956 <_fclose_r+0xb2>
    78e6:	6b21      	ldr	r1, [r4, #48]	; 0x30
    78e8:	2900      	cmp	r1, #0
    78ea:	d008      	beq.n	78fe <_fclose_r+0x5a>
    78ec:	0023      	movs	r3, r4
    78ee:	3340      	adds	r3, #64	; 0x40
    78f0:	4299      	cmp	r1, r3
    78f2:	d002      	beq.n	78fa <_fclose_r+0x56>
    78f4:	0030      	movs	r0, r6
    78f6:	f7fe fdeb 	bl	64d0 <_free_r>
    78fa:	2300      	movs	r3, #0
    78fc:	6323      	str	r3, [r4, #48]	; 0x30
    78fe:	6c61      	ldr	r1, [r4, #68]	; 0x44
    7900:	2900      	cmp	r1, #0
    7902:	d004      	beq.n	790e <_fclose_r+0x6a>
    7904:	0030      	movs	r0, r6
    7906:	f7fe fde3 	bl	64d0 <_free_r>
    790a:	2300      	movs	r3, #0
    790c:	6463      	str	r3, [r4, #68]	; 0x44
    790e:	f7fe fc55 	bl	61bc <__sfp_lock_acquire>
    7912:	2300      	movs	r3, #0
    7914:	81a3      	strh	r3, [r4, #12]
    7916:	6e63      	ldr	r3, [r4, #100]	; 0x64
    7918:	07db      	lsls	r3, r3, #31
    791a:	d528      	bpl.n	796e <_fclose_r+0xca>
    791c:	6da0      	ldr	r0, [r4, #88]	; 0x58
    791e:	f7fc faa1 	bl	3e64 <__retarget_lock_close_recursive>
    7922:	f7fe fc53 	bl	61cc <__sfp_lock_release>
    7926:	0028      	movs	r0, r5
    7928:	bdf8      	pop	{r3, r4, r5, r6, r7, pc}
    792a:	89a3      	ldrh	r3, [r4, #12]
    792c:	059b      	lsls	r3, r3, #22
    792e:	d4ca      	bmi.n	78c6 <_fclose_r+0x22>
    7930:	6da0      	ldr	r0, [r4, #88]	; 0x58
    7932:	f7fc fa9b 	bl	3e6c <__retarget_lock_acquire_recursive>
    7936:	220c      	movs	r2, #12
    7938:	5ea3      	ldrsh	r3, [r4, r2]
    793a:	2b00      	cmp	r3, #0
    793c:	d1c3      	bne.n	78c6 <_fclose_r+0x22>
    793e:	6e63      	ldr	r3, [r4, #100]	; 0x64
    7940:	001d      	movs	r5, r3
    7942:	403d      	ands	r5, r7
    7944:	423b      	tst	r3, r7
    7946:	d00e      	beq.n	7966 <_fclose_r+0xc2>
    7948:	2500      	movs	r5, #0
    794a:	e7ec      	b.n	7926 <_fclose_r+0x82>
    794c:	2501      	movs	r5, #1
    794e:	89a3      	ldrh	r3, [r4, #12]
    7950:	426d      	negs	r5, r5
    7952:	061b      	lsls	r3, r3, #24
    7954:	d5c7      	bpl.n	78e6 <_fclose_r+0x42>
    7956:	0030      	movs	r0, r6
    7958:	6921      	ldr	r1, [r4, #16]
    795a:	f7fe fdb9 	bl	64d0 <_free_r>
    795e:	e7c2      	b.n	78e6 <_fclose_r+0x42>
    7960:	f7fe fc10 	bl	6184 <__sinit>
    7964:	e7a7      	b.n	78b6 <_fclose_r+0x12>
    7966:	6da0      	ldr	r0, [r4, #88]	; 0x58
    7968:	f7fc fa88 	bl	3e7c <__retarget_lock_release_recursive>
    796c:	e7db      	b.n	7926 <_fclose_r+0x82>
    796e:	6da0      	ldr	r0, [r4, #88]	; 0x58
    7970:	f7fc fa84 	bl	3e7c <__retarget_lock_release_recursive>
    7974:	e7d2      	b.n	791c <_fclose_r+0x78>
    7976:	46c0      	nop			; (mov r8, r8)

00007978 <fclose>:
    7978:	b510      	push	{r4, lr}
    797a:	4b03      	ldr	r3, [pc, #12]	; (7988 <fclose+0x10>)
    797c:	0001      	movs	r1, r0
    797e:	6818      	ldr	r0, [r3, #0]
    7980:	f7ff ff90 	bl	78a4 <_fclose_r>
    7984:	bd10      	pop	{r4, pc}
    7986:	46c0      	nop			; (mov r8, r8)
    7988:	0020d0e0 	.word	0x0020d0e0

0000798c <_Balloc>:
    798c:	6c43      	ldr	r3, [r0, #68]	; 0x44
    798e:	b570      	push	{r4, r5, r6, lr}
    7990:	0004      	movs	r4, r0
    7992:	000d      	movs	r5, r1
    7994:	2b00      	cmp	r3, #0
    7996:	d00a      	beq.n	79ae <_Balloc+0x22>
    7998:	00aa      	lsls	r2, r5, #2
    799a:	189b      	adds	r3, r3, r2
    799c:	6818      	ldr	r0, [r3, #0]
    799e:	2800      	cmp	r0, #0
    79a0:	d00e      	beq.n	79c0 <_Balloc+0x34>
    79a2:	6802      	ldr	r2, [r0, #0]
    79a4:	601a      	str	r2, [r3, #0]
    79a6:	2300      	movs	r3, #0
    79a8:	6103      	str	r3, [r0, #16]
    79aa:	60c3      	str	r3, [r0, #12]
    79ac:	bd70      	pop	{r4, r5, r6, pc}
    79ae:	2221      	movs	r2, #33	; 0x21
    79b0:	2104      	movs	r1, #4
    79b2:	f7fd f8cd 	bl	4b50 <_calloc_r>
    79b6:	1e03      	subs	r3, r0, #0
    79b8:	6460      	str	r0, [r4, #68]	; 0x44
    79ba:	d1ed      	bne.n	7998 <_Balloc+0xc>
    79bc:	2000      	movs	r0, #0
    79be:	e7f5      	b.n	79ac <_Balloc+0x20>
    79c0:	2601      	movs	r6, #1
    79c2:	40ae      	lsls	r6, r5
    79c4:	1d72      	adds	r2, r6, #5
    79c6:	2101      	movs	r1, #1
    79c8:	0020      	movs	r0, r4
    79ca:	0092      	lsls	r2, r2, #2
    79cc:	f7fd f8c0 	bl	4b50 <_calloc_r>
    79d0:	2800      	cmp	r0, #0
    79d2:	d0f3      	beq.n	79bc <_Balloc+0x30>
    79d4:	6045      	str	r5, [r0, #4]
    79d6:	6086      	str	r6, [r0, #8]
    79d8:	e7e5      	b.n	79a6 <_Balloc+0x1a>
    79da:	46c0      	nop			; (mov r8, r8)

000079dc <_Bfree>:
    79dc:	2900      	cmp	r1, #0
    79de:	d006      	beq.n	79ee <_Bfree+0x12>
    79e0:	684a      	ldr	r2, [r1, #4]
    79e2:	6c43      	ldr	r3, [r0, #68]	; 0x44
    79e4:	0092      	lsls	r2, r2, #2
    79e6:	189b      	adds	r3, r3, r2
    79e8:	681a      	ldr	r2, [r3, #0]
    79ea:	600a      	str	r2, [r1, #0]
    79ec:	6019      	str	r1, [r3, #0]
    79ee:	4770      	bx	lr

000079f0 <__multadd>:
    79f0:	b5f0      	push	{r4, r5, r6, r7, lr}
    79f2:	46c6      	mov	lr, r8
    79f4:	001f      	movs	r7, r3
    79f6:	4680      	mov	r8, r0
    79f8:	2300      	movs	r3, #0
    79fa:	b500      	push	{lr}
    79fc:	000e      	movs	r6, r1
    79fe:	690d      	ldr	r5, [r1, #16]
    7a00:	3114      	adds	r1, #20
    7a02:	680c      	ldr	r4, [r1, #0]
    7a04:	3301      	adds	r3, #1
    7a06:	0420      	lsls	r0, r4, #16
    7a08:	0c00      	lsrs	r0, r0, #16
    7a0a:	4350      	muls	r0, r2
    7a0c:	0c24      	lsrs	r4, r4, #16
    7a0e:	4354      	muls	r4, r2
    7a10:	19c0      	adds	r0, r0, r7
    7a12:	0c07      	lsrs	r7, r0, #16
    7a14:	19e4      	adds	r4, r4, r7
    7a16:	0400      	lsls	r0, r0, #16
    7a18:	0c27      	lsrs	r7, r4, #16
    7a1a:	0c00      	lsrs	r0, r0, #16
    7a1c:	0424      	lsls	r4, r4, #16
    7a1e:	1824      	adds	r4, r4, r0
    7a20:	c110      	stmia	r1!, {r4}
    7a22:	429d      	cmp	r5, r3
    7a24:	dced      	bgt.n	7a02 <__multadd+0x12>
    7a26:	2f00      	cmp	r7, #0
    7a28:	d008      	beq.n	7a3c <__multadd+0x4c>
    7a2a:	68b3      	ldr	r3, [r6, #8]
    7a2c:	42ab      	cmp	r3, r5
    7a2e:	dd09      	ble.n	7a44 <__multadd+0x54>
    7a30:	1d2b      	adds	r3, r5, #4
    7a32:	009b      	lsls	r3, r3, #2
    7a34:	18f3      	adds	r3, r6, r3
    7a36:	3501      	adds	r5, #1
    7a38:	605f      	str	r7, [r3, #4]
    7a3a:	6135      	str	r5, [r6, #16]
    7a3c:	0030      	movs	r0, r6
    7a3e:	bc80      	pop	{r7}
    7a40:	46b8      	mov	r8, r7
    7a42:	bdf0      	pop	{r4, r5, r6, r7, pc}
    7a44:	6871      	ldr	r1, [r6, #4]
    7a46:	4640      	mov	r0, r8
    7a48:	3101      	adds	r1, #1
    7a4a:	f7ff ff9f 	bl	798c <_Balloc>
    7a4e:	1e04      	subs	r4, r0, #0
    7a50:	d017      	beq.n	7a82 <__multadd+0x92>
    7a52:	0031      	movs	r1, r6
    7a54:	6932      	ldr	r2, [r6, #16]
    7a56:	310c      	adds	r1, #12
    7a58:	3202      	adds	r2, #2
    7a5a:	0092      	lsls	r2, r2, #2
    7a5c:	300c      	adds	r0, #12
    7a5e:	f7fe fc17 	bl	6290 <memcpy>
    7a62:	4643      	mov	r3, r8
    7a64:	6872      	ldr	r2, [r6, #4]
    7a66:	6c5b      	ldr	r3, [r3, #68]	; 0x44
    7a68:	0092      	lsls	r2, r2, #2
    7a6a:	189b      	adds	r3, r3, r2
    7a6c:	681a      	ldr	r2, [r3, #0]
    7a6e:	6032      	str	r2, [r6, #0]
    7a70:	601e      	str	r6, [r3, #0]
    7a72:	0026      	movs	r6, r4
    7a74:	1d2b      	adds	r3, r5, #4
    7a76:	009b      	lsls	r3, r3, #2
    7a78:	18f3      	adds	r3, r6, r3
    7a7a:	3501      	adds	r5, #1
    7a7c:	605f      	str	r7, [r3, #4]
    7a7e:	6135      	str	r5, [r6, #16]
    7a80:	e7dc      	b.n	7a3c <__multadd+0x4c>
    7a82:	2200      	movs	r2, #0
    7a84:	21ba      	movs	r1, #186	; 0xba
    7a86:	4b02      	ldr	r3, [pc, #8]	; (7a90 <__multadd+0xa0>)
    7a88:	4802      	ldr	r0, [pc, #8]	; (7a94 <__multadd+0xa4>)
    7a8a:	f7ff fe9d 	bl	77c8 <__assert_func>
    7a8e:	46c0      	nop			; (mov r8, r8)
    7a90:	0000c838 	.word	0x0000c838
    7a94:	0000c84c 	.word	0x0000c84c

00007a98 <__s2b>:
    7a98:	b5f8      	push	{r3, r4, r5, r6, r7, lr}
    7a9a:	4647      	mov	r7, r8
    7a9c:	46ce      	mov	lr, r9
    7a9e:	0006      	movs	r6, r0
    7aa0:	0018      	movs	r0, r3
    7aa2:	b580      	push	{r7, lr}
    7aa4:	000c      	movs	r4, r1
    7aa6:	3008      	adds	r0, #8
    7aa8:	2109      	movs	r1, #9
    7aaa:	001f      	movs	r7, r3
    7aac:	4690      	mov	r8, r2
    7aae:	f001 fa9d 	bl	8fec <__divsi3>
    7ab2:	2f09      	cmp	r7, #9
    7ab4:	dd3b      	ble.n	7b2e <__s2b+0x96>
    7ab6:	2501      	movs	r5, #1
    7ab8:	2100      	movs	r1, #0
    7aba:	006d      	lsls	r5, r5, #1
    7abc:	3101      	adds	r1, #1
    7abe:	42a8      	cmp	r0, r5
    7ac0:	dcfb      	bgt.n	7aba <__s2b+0x22>
    7ac2:	0030      	movs	r0, r6
    7ac4:	f7ff ff62 	bl	798c <_Balloc>
    7ac8:	1e01      	subs	r1, r0, #0
    7aca:	d032      	beq.n	7b32 <__s2b+0x9a>
    7acc:	9b08      	ldr	r3, [sp, #32]
    7ace:	6143      	str	r3, [r0, #20]
    7ad0:	2301      	movs	r3, #1
    7ad2:	6103      	str	r3, [r0, #16]
    7ad4:	4643      	mov	r3, r8
    7ad6:	2b09      	cmp	r3, #9
    7ad8:	dc16      	bgt.n	7b08 <__s2b+0x70>
    7ada:	2309      	movs	r3, #9
    7adc:	4698      	mov	r8, r3
    7ade:	340a      	adds	r4, #10
    7ae0:	4547      	cmp	r7, r8
    7ae2:	dd0c      	ble.n	7afe <__s2b+0x66>
    7ae4:	4643      	mov	r3, r8
    7ae6:	19e7      	adds	r7, r4, r7
    7ae8:	1aff      	subs	r7, r7, r3
    7aea:	7823      	ldrb	r3, [r4, #0]
    7aec:	220a      	movs	r2, #10
    7aee:	0030      	movs	r0, r6
    7af0:	3b30      	subs	r3, #48	; 0x30
    7af2:	f7ff ff7d 	bl	79f0 <__multadd>
    7af6:	3401      	adds	r4, #1
    7af8:	0001      	movs	r1, r0
    7afa:	42bc      	cmp	r4, r7
    7afc:	d1f5      	bne.n	7aea <__s2b+0x52>
    7afe:	0008      	movs	r0, r1
    7b00:	bcc0      	pop	{r6, r7}
    7b02:	46b9      	mov	r9, r7
    7b04:	46b0      	mov	r8, r6
    7b06:	bdf8      	pop	{r3, r4, r5, r6, r7, pc}
    7b08:	2309      	movs	r3, #9
    7b0a:	4699      	mov	r9, r3
    7b0c:	44a1      	add	r9, r4
    7b0e:	464d      	mov	r5, r9
    7b10:	4444      	add	r4, r8
    7b12:	782b      	ldrb	r3, [r5, #0]
    7b14:	220a      	movs	r2, #10
    7b16:	0030      	movs	r0, r6
    7b18:	3b30      	subs	r3, #48	; 0x30
    7b1a:	f7ff ff69 	bl	79f0 <__multadd>
    7b1e:	3501      	adds	r5, #1
    7b20:	0001      	movs	r1, r0
    7b22:	42a5      	cmp	r5, r4
    7b24:	d1f5      	bne.n	7b12 <__s2b+0x7a>
    7b26:	4644      	mov	r4, r8
    7b28:	3c08      	subs	r4, #8
    7b2a:	444c      	add	r4, r9
    7b2c:	e7d8      	b.n	7ae0 <__s2b+0x48>
    7b2e:	2100      	movs	r1, #0
    7b30:	e7c7      	b.n	7ac2 <__s2b+0x2a>
    7b32:	2200      	movs	r2, #0
    7b34:	4b02      	ldr	r3, [pc, #8]	; (7b40 <__s2b+0xa8>)
    7b36:	4803      	ldr	r0, [pc, #12]	; (7b44 <__s2b+0xac>)
    7b38:	31d3      	adds	r1, #211	; 0xd3
    7b3a:	f7ff fe45 	bl	77c8 <__assert_func>
    7b3e:	46c0      	nop			; (mov r8, r8)
    7b40:	0000c838 	.word	0x0000c838
    7b44:	0000c84c 	.word	0x0000c84c

00007b48 <__hi0bits>:
    7b48:	0003      	movs	r3, r0
    7b4a:	0c02      	lsrs	r2, r0, #16
    7b4c:	2000      	movs	r0, #0
    7b4e:	2a00      	cmp	r2, #0
    7b50:	d101      	bne.n	7b56 <__hi0bits+0xe>
    7b52:	041b      	lsls	r3, r3, #16
    7b54:	3010      	adds	r0, #16
    7b56:	0e1a      	lsrs	r2, r3, #24
    7b58:	d101      	bne.n	7b5e <__hi0bits+0x16>
    7b5a:	3008      	adds	r0, #8
    7b5c:	021b      	lsls	r3, r3, #8
    7b5e:	0f1a      	lsrs	r2, r3, #28
    7b60:	d101      	bne.n	7b66 <__hi0bits+0x1e>
    7b62:	3004      	adds	r0, #4
    7b64:	011b      	lsls	r3, r3, #4
    7b66:	0f9a      	lsrs	r2, r3, #30
    7b68:	d101      	bne.n	7b6e <__hi0bits+0x26>
    7b6a:	3002      	adds	r0, #2
    7b6c:	009b      	lsls	r3, r3, #2
    7b6e:	2b00      	cmp	r3, #0
    7b70:	db02      	blt.n	7b78 <__hi0bits+0x30>
    7b72:	3001      	adds	r0, #1
    7b74:	005b      	lsls	r3, r3, #1
    7b76:	d500      	bpl.n	7b7a <__hi0bits+0x32>
    7b78:	4770      	bx	lr
    7b7a:	2020      	movs	r0, #32
    7b7c:	e7fc      	b.n	7b78 <__hi0bits+0x30>
    7b7e:	46c0      	nop			; (mov r8, r8)

00007b80 <__lo0bits>:
    7b80:	6803      	ldr	r3, [r0, #0]
    7b82:	0002      	movs	r2, r0
    7b84:	0759      	lsls	r1, r3, #29
    7b86:	d007      	beq.n	7b98 <__lo0bits+0x18>
    7b88:	07d9      	lsls	r1, r3, #31
    7b8a:	d41e      	bmi.n	7bca <__lo0bits+0x4a>
    7b8c:	0799      	lsls	r1, r3, #30
    7b8e:	d520      	bpl.n	7bd2 <__lo0bits+0x52>
    7b90:	085b      	lsrs	r3, r3, #1
    7b92:	6003      	str	r3, [r0, #0]
    7b94:	2001      	movs	r0, #1
    7b96:	4770      	bx	lr
    7b98:	2000      	movs	r0, #0
    7b9a:	0419      	lsls	r1, r3, #16
    7b9c:	d101      	bne.n	7ba2 <__lo0bits+0x22>
    7b9e:	0c1b      	lsrs	r3, r3, #16
    7ba0:	3010      	adds	r0, #16
    7ba2:	21ff      	movs	r1, #255	; 0xff
    7ba4:	4219      	tst	r1, r3
    7ba6:	d101      	bne.n	7bac <__lo0bits+0x2c>
    7ba8:	3008      	adds	r0, #8
    7baa:	0a1b      	lsrs	r3, r3, #8
    7bac:	0719      	lsls	r1, r3, #28
    7bae:	d101      	bne.n	7bb4 <__lo0bits+0x34>
    7bb0:	3004      	adds	r0, #4
    7bb2:	091b      	lsrs	r3, r3, #4
    7bb4:	0799      	lsls	r1, r3, #30
    7bb6:	d101      	bne.n	7bbc <__lo0bits+0x3c>
    7bb8:	3002      	adds	r0, #2
    7bba:	089b      	lsrs	r3, r3, #2
    7bbc:	07d9      	lsls	r1, r3, #31
    7bbe:	d402      	bmi.n	7bc6 <__lo0bits+0x46>
    7bc0:	3001      	adds	r0, #1
    7bc2:	085b      	lsrs	r3, r3, #1
    7bc4:	d003      	beq.n	7bce <__lo0bits+0x4e>
    7bc6:	6013      	str	r3, [r2, #0]
    7bc8:	e7e5      	b.n	7b96 <__lo0bits+0x16>
    7bca:	2000      	movs	r0, #0
    7bcc:	e7e3      	b.n	7b96 <__lo0bits+0x16>
    7bce:	2020      	movs	r0, #32
    7bd0:	e7e1      	b.n	7b96 <__lo0bits+0x16>
    7bd2:	089b      	lsrs	r3, r3, #2
    7bd4:	6003      	str	r3, [r0, #0]
    7bd6:	2002      	movs	r0, #2
    7bd8:	e7dd      	b.n	7b96 <__lo0bits+0x16>
    7bda:	46c0      	nop			; (mov r8, r8)

00007bdc <__i2b>:
    7bdc:	6c43      	ldr	r3, [r0, #68]	; 0x44
    7bde:	b570      	push	{r4, r5, r6, lr}
    7be0:	0004      	movs	r4, r0
    7be2:	000d      	movs	r5, r1
    7be4:	2b00      	cmp	r3, #0
    7be6:	d00a      	beq.n	7bfe <__i2b+0x22>
    7be8:	6858      	ldr	r0, [r3, #4]
    7bea:	2800      	cmp	r0, #0
    7bec:	d015      	beq.n	7c1a <__i2b+0x3e>
    7bee:	6802      	ldr	r2, [r0, #0]
    7bf0:	605a      	str	r2, [r3, #4]
    7bf2:	2300      	movs	r3, #0
    7bf4:	60c3      	str	r3, [r0, #12]
    7bf6:	3301      	adds	r3, #1
    7bf8:	6145      	str	r5, [r0, #20]
    7bfa:	6103      	str	r3, [r0, #16]
    7bfc:	bd70      	pop	{r4, r5, r6, pc}
    7bfe:	2221      	movs	r2, #33	; 0x21
    7c00:	2104      	movs	r1, #4
    7c02:	f7fc ffa5 	bl	4b50 <_calloc_r>
    7c06:	1e03      	subs	r3, r0, #0
    7c08:	6460      	str	r0, [r4, #68]	; 0x44
    7c0a:	d1ed      	bne.n	7be8 <__i2b+0xc>
    7c0c:	2146      	movs	r1, #70	; 0x46
    7c0e:	2200      	movs	r2, #0
    7c10:	4b08      	ldr	r3, [pc, #32]	; (7c34 <__i2b+0x58>)
    7c12:	4809      	ldr	r0, [pc, #36]	; (7c38 <__i2b+0x5c>)
    7c14:	31ff      	adds	r1, #255	; 0xff
    7c16:	f7ff fdd7 	bl	77c8 <__assert_func>
    7c1a:	221c      	movs	r2, #28
    7c1c:	2101      	movs	r1, #1
    7c1e:	0020      	movs	r0, r4
    7c20:	f7fc ff96 	bl	4b50 <_calloc_r>
    7c24:	2800      	cmp	r0, #0
    7c26:	d0f1      	beq.n	7c0c <__i2b+0x30>
    7c28:	2301      	movs	r3, #1
    7c2a:	6043      	str	r3, [r0, #4]
    7c2c:	3301      	adds	r3, #1
    7c2e:	6083      	str	r3, [r0, #8]
    7c30:	e7df      	b.n	7bf2 <__i2b+0x16>
    7c32:	46c0      	nop			; (mov r8, r8)
    7c34:	0000c838 	.word	0x0000c838
    7c38:	0000c84c 	.word	0x0000c84c

00007c3c <__multiply>:
    7c3c:	b5f0      	push	{r4, r5, r6, r7, lr}
    7c3e:	464e      	mov	r6, r9
    7c40:	4645      	mov	r5, r8
    7c42:	46de      	mov	lr, fp
    7c44:	4657      	mov	r7, sl
    7c46:	b5e0      	push	{r5, r6, r7, lr}
    7c48:	690d      	ldr	r5, [r1, #16]
    7c4a:	6916      	ldr	r6, [r2, #16]
    7c4c:	4689      	mov	r9, r1
    7c4e:	0014      	movs	r4, r2
    7c50:	b087      	sub	sp, #28
    7c52:	42b5      	cmp	r5, r6
    7c54:	db04      	blt.n	7c60 <__multiply+0x24>
    7c56:	0033      	movs	r3, r6
    7c58:	000c      	movs	r4, r1
    7c5a:	002e      	movs	r6, r5
    7c5c:	4691      	mov	r9, r2
    7c5e:	001d      	movs	r5, r3
    7c60:	68a3      	ldr	r3, [r4, #8]
    7c62:	1977      	adds	r7, r6, r5
    7c64:	6861      	ldr	r1, [r4, #4]
    7c66:	42bb      	cmp	r3, r7
    7c68:	da00      	bge.n	7c6c <__multiply+0x30>
    7c6a:	3101      	adds	r1, #1
    7c6c:	f7ff fe8e 	bl	798c <_Balloc>
    7c70:	9005      	str	r0, [sp, #20]
    7c72:	2800      	cmp	r0, #0
    7c74:	d100      	bne.n	7c78 <__multiply+0x3c>
    7c76:	e0a7      	b.n	7dc8 <__multiply+0x18c>
    7c78:	2214      	movs	r2, #20
    7c7a:	4694      	mov	ip, r2
    7c7c:	9b05      	ldr	r3, [sp, #20]
    7c7e:	2200      	movs	r2, #0
    7c80:	4463      	add	r3, ip
    7c82:	469b      	mov	fp, r3
    7c84:	00bb      	lsls	r3, r7, #2
    7c86:	445b      	add	r3, fp
    7c88:	469a      	mov	sl, r3
    7c8a:	465b      	mov	r3, fp
    7c8c:	4651      	mov	r1, sl
    7c8e:	45d3      	cmp	fp, sl
    7c90:	d203      	bcs.n	7c9a <__multiply+0x5e>
    7c92:	c304      	stmia	r3!, {r2}
    7c94:	4299      	cmp	r1, r3
    7c96:	d8fc      	bhi.n	7c92 <__multiply+0x56>
    7c98:	468a      	mov	sl, r1
    7c9a:	2314      	movs	r3, #20
    7c9c:	469c      	mov	ip, r3
    7c9e:	44a4      	add	ip, r4
    7ca0:	4663      	mov	r3, ip
    7ca2:	9304      	str	r3, [sp, #16]
    7ca4:	2314      	movs	r3, #20
    7ca6:	00b6      	lsls	r6, r6, #2
    7ca8:	4466      	add	r6, ip
    7caa:	00ad      	lsls	r5, r5, #2
    7cac:	469c      	mov	ip, r3
    7cae:	002b      	movs	r3, r5
    7cb0:	44e1      	add	r9, ip
    7cb2:	444b      	add	r3, r9
    7cb4:	9302      	str	r3, [sp, #8]
    7cb6:	4599      	cmp	r9, r3
    7cb8:	d26e      	bcs.n	7d98 <__multiply+0x15c>
    7cba:	2304      	movs	r3, #4
    7cbc:	9303      	str	r3, [sp, #12]
    7cbe:	0023      	movs	r3, r4
    7cc0:	3315      	adds	r3, #21
    7cc2:	429e      	cmp	r6, r3
    7cc4:	d200      	bcs.n	7cc8 <__multiply+0x8c>
    7cc6:	e07c      	b.n	7dc2 <__multiply+0x186>
    7cc8:	1b33      	subs	r3, r6, r4
    7cca:	3b15      	subs	r3, #21
    7ccc:	089b      	lsrs	r3, r3, #2
    7cce:	3301      	adds	r3, #1
    7cd0:	009b      	lsls	r3, r3, #2
    7cd2:	46b8      	mov	r8, r7
    7cd4:	9303      	str	r3, [sp, #12]
    7cd6:	9601      	str	r6, [sp, #4]
    7cd8:	e008      	b.n	7cec <__multiply+0xb0>
    7cda:	0c00      	lsrs	r0, r0, #16
    7cdc:	d131      	bne.n	7d42 <__multiply+0x106>
    7cde:	2304      	movs	r3, #4
    7ce0:	469c      	mov	ip, r3
    7ce2:	9b02      	ldr	r3, [sp, #8]
    7ce4:	44e1      	add	r9, ip
    7ce6:	44e3      	add	fp, ip
    7ce8:	454b      	cmp	r3, r9
    7cea:	d954      	bls.n	7d96 <__multiply+0x15a>
    7cec:	464b      	mov	r3, r9
    7cee:	6818      	ldr	r0, [r3, #0]
    7cf0:	0403      	lsls	r3, r0, #16
    7cf2:	0c1e      	lsrs	r6, r3, #16
    7cf4:	2b00      	cmp	r3, #0
    7cf6:	d0f0      	beq.n	7cda <__multiply+0x9e>
    7cf8:	9b01      	ldr	r3, [sp, #4]
    7cfa:	465d      	mov	r5, fp
    7cfc:	2700      	movs	r7, #0
    7cfe:	469c      	mov	ip, r3
    7d00:	9c04      	ldr	r4, [sp, #16]
    7d02:	cc04      	ldmia	r4!, {r2}
    7d04:	6829      	ldr	r1, [r5, #0]
    7d06:	0410      	lsls	r0, r2, #16
    7d08:	0c00      	lsrs	r0, r0, #16
    7d0a:	4370      	muls	r0, r6
    7d0c:	040b      	lsls	r3, r1, #16
    7d0e:	0c1b      	lsrs	r3, r3, #16
    7d10:	18c0      	adds	r0, r0, r3
    7d12:	0c13      	lsrs	r3, r2, #16
    7d14:	4373      	muls	r3, r6
    7d16:	19c0      	adds	r0, r0, r7
    7d18:	0c0a      	lsrs	r2, r1, #16
    7d1a:	189b      	adds	r3, r3, r2
    7d1c:	0c02      	lsrs	r2, r0, #16
    7d1e:	189b      	adds	r3, r3, r2
    7d20:	0400      	lsls	r0, r0, #16
    7d22:	0c1f      	lsrs	r7, r3, #16
    7d24:	0c00      	lsrs	r0, r0, #16
    7d26:	041b      	lsls	r3, r3, #16
    7d28:	4303      	orrs	r3, r0
    7d2a:	c508      	stmia	r5!, {r3}
    7d2c:	45a4      	cmp	ip, r4
    7d2e:	d8e8      	bhi.n	7d02 <__multiply+0xc6>
    7d30:	4663      	mov	r3, ip
    7d32:	9301      	str	r3, [sp, #4]
    7d34:	465b      	mov	r3, fp
    7d36:	9a03      	ldr	r2, [sp, #12]
    7d38:	509f      	str	r7, [r3, r2]
    7d3a:	464b      	mov	r3, r9
    7d3c:	6818      	ldr	r0, [r3, #0]
    7d3e:	0c00      	lsrs	r0, r0, #16
    7d40:	d0cd      	beq.n	7cde <__multiply+0xa2>
    7d42:	465b      	mov	r3, fp
    7d44:	2700      	movs	r7, #0
    7d46:	681b      	ldr	r3, [r3, #0]
    7d48:	465c      	mov	r4, fp
    7d4a:	0019      	movs	r1, r3
    7d4c:	003e      	movs	r6, r7
    7d4e:	9d04      	ldr	r5, [sp, #16]
    7d50:	9a01      	ldr	r2, [sp, #4]
    7d52:	882f      	ldrh	r7, [r5, #0]
    7d54:	0c09      	lsrs	r1, r1, #16
    7d56:	4347      	muls	r7, r0
    7d58:	187f      	adds	r7, r7, r1
    7d5a:	19bf      	adds	r7, r7, r6
    7d5c:	041b      	lsls	r3, r3, #16
    7d5e:	0439      	lsls	r1, r7, #16
    7d60:	0c1b      	lsrs	r3, r3, #16
    7d62:	430b      	orrs	r3, r1
    7d64:	6023      	str	r3, [r4, #0]
    7d66:	cd08      	ldmia	r5!, {r3}
    7d68:	6861      	ldr	r1, [r4, #4]
    7d6a:	0c1b      	lsrs	r3, r3, #16
    7d6c:	4343      	muls	r3, r0
    7d6e:	040e      	lsls	r6, r1, #16
    7d70:	0c36      	lsrs	r6, r6, #16
    7d72:	199b      	adds	r3, r3, r6
    7d74:	0c3f      	lsrs	r7, r7, #16
    7d76:	19db      	adds	r3, r3, r7
    7d78:	0c1e      	lsrs	r6, r3, #16
    7d7a:	3404      	adds	r4, #4
    7d7c:	42aa      	cmp	r2, r5
    7d7e:	d8e8      	bhi.n	7d52 <__multiply+0x116>
    7d80:	9201      	str	r2, [sp, #4]
    7d82:	465a      	mov	r2, fp
    7d84:	9903      	ldr	r1, [sp, #12]
    7d86:	5053      	str	r3, [r2, r1]
    7d88:	2304      	movs	r3, #4
    7d8a:	469c      	mov	ip, r3
    7d8c:	9b02      	ldr	r3, [sp, #8]
    7d8e:	44e1      	add	r9, ip
    7d90:	44e3      	add	fp, ip
    7d92:	454b      	cmp	r3, r9
    7d94:	d8aa      	bhi.n	7cec <__multiply+0xb0>
    7d96:	4647      	mov	r7, r8
    7d98:	4653      	mov	r3, sl
    7d9a:	2f00      	cmp	r7, #0
    7d9c:	dc03      	bgt.n	7da6 <__multiply+0x16a>
    7d9e:	e006      	b.n	7dae <__multiply+0x172>
    7da0:	3f01      	subs	r7, #1
    7da2:	2f00      	cmp	r7, #0
    7da4:	d003      	beq.n	7dae <__multiply+0x172>
    7da6:	3b04      	subs	r3, #4
    7da8:	681a      	ldr	r2, [r3, #0]
    7daa:	2a00      	cmp	r2, #0
    7dac:	d0f8      	beq.n	7da0 <__multiply+0x164>
    7dae:	9b05      	ldr	r3, [sp, #20]
    7db0:	0018      	movs	r0, r3
    7db2:	611f      	str	r7, [r3, #16]
    7db4:	b007      	add	sp, #28
    7db6:	bcf0      	pop	{r4, r5, r6, r7}
    7db8:	46bb      	mov	fp, r7
    7dba:	46b2      	mov	sl, r6
    7dbc:	46a9      	mov	r9, r5
    7dbe:	46a0      	mov	r8, r4
    7dc0:	bdf0      	pop	{r4, r5, r6, r7, pc}
    7dc2:	46b8      	mov	r8, r7
    7dc4:	9601      	str	r6, [sp, #4]
    7dc6:	e791      	b.n	7cec <__multiply+0xb0>
    7dc8:	21b1      	movs	r1, #177	; 0xb1
    7dca:	2200      	movs	r2, #0
    7dcc:	4b02      	ldr	r3, [pc, #8]	; (7dd8 <__multiply+0x19c>)
    7dce:	4803      	ldr	r0, [pc, #12]	; (7ddc <__multiply+0x1a0>)
    7dd0:	0049      	lsls	r1, r1, #1
    7dd2:	f7ff fcf9 	bl	77c8 <__assert_func>
    7dd6:	46c0      	nop			; (mov r8, r8)
    7dd8:	0000c838 	.word	0x0000c838
    7ddc:	0000c84c 	.word	0x0000c84c

00007de0 <__pow5mult>:
    7de0:	b5f8      	push	{r3, r4, r5, r6, r7, lr}
    7de2:	2303      	movs	r3, #3
    7de4:	4647      	mov	r7, r8
    7de6:	0014      	movs	r4, r2
    7de8:	46ce      	mov	lr, r9
    7dea:	001a      	movs	r2, r3
    7dec:	b580      	push	{r7, lr}
    7dee:	000e      	movs	r6, r1
    7df0:	0007      	movs	r7, r0
    7df2:	4022      	ands	r2, r4
    7df4:	4223      	tst	r3, r4
    7df6:	d137      	bne.n	7e68 <__pow5mult+0x88>
    7df8:	10a4      	asrs	r4, r4, #2
    7dfa:	d024      	beq.n	7e46 <__pow5mult+0x66>
    7dfc:	6c3d      	ldr	r5, [r7, #64]	; 0x40
    7dfe:	2d00      	cmp	r5, #0
    7e00:	d03b      	beq.n	7e7a <__pow5mult+0x9a>
    7e02:	2301      	movs	r3, #1
    7e04:	4698      	mov	r8, r3
    7e06:	2300      	movs	r3, #0
    7e08:	4699      	mov	r9, r3
    7e0a:	4643      	mov	r3, r8
    7e0c:	4223      	tst	r3, r4
    7e0e:	d108      	bne.n	7e22 <__pow5mult+0x42>
    7e10:	1064      	asrs	r4, r4, #1
    7e12:	d018      	beq.n	7e46 <__pow5mult+0x66>
    7e14:	6828      	ldr	r0, [r5, #0]
    7e16:	2800      	cmp	r0, #0
    7e18:	d01a      	beq.n	7e50 <__pow5mult+0x70>
    7e1a:	0005      	movs	r5, r0
    7e1c:	4643      	mov	r3, r8
    7e1e:	4223      	tst	r3, r4
    7e20:	d0f6      	beq.n	7e10 <__pow5mult+0x30>
    7e22:	002a      	movs	r2, r5
    7e24:	0031      	movs	r1, r6
    7e26:	0038      	movs	r0, r7
    7e28:	f7ff ff08 	bl	7c3c <__multiply>
    7e2c:	2e00      	cmp	r6, #0
    7e2e:	d019      	beq.n	7e64 <__pow5mult+0x84>
    7e30:	6872      	ldr	r2, [r6, #4]
    7e32:	6c7b      	ldr	r3, [r7, #68]	; 0x44
    7e34:	0092      	lsls	r2, r2, #2
    7e36:	189b      	adds	r3, r3, r2
    7e38:	681a      	ldr	r2, [r3, #0]
    7e3a:	1064      	asrs	r4, r4, #1
    7e3c:	6032      	str	r2, [r6, #0]
    7e3e:	601e      	str	r6, [r3, #0]
    7e40:	0006      	movs	r6, r0
    7e42:	2c00      	cmp	r4, #0
    7e44:	d1e6      	bne.n	7e14 <__pow5mult+0x34>
    7e46:	0030      	movs	r0, r6
    7e48:	bcc0      	pop	{r6, r7}
    7e4a:	46b9      	mov	r9, r7
    7e4c:	46b0      	mov	r8, r6
    7e4e:	bdf8      	pop	{r3, r4, r5, r6, r7, pc}
    7e50:	002a      	movs	r2, r5
    7e52:	0029      	movs	r1, r5
    7e54:	0038      	movs	r0, r7
    7e56:	f7ff fef1 	bl	7c3c <__multiply>
    7e5a:	464b      	mov	r3, r9
    7e5c:	6028      	str	r0, [r5, #0]
    7e5e:	0005      	movs	r5, r0
    7e60:	6003      	str	r3, [r0, #0]
    7e62:	e7db      	b.n	7e1c <__pow5mult+0x3c>
    7e64:	0006      	movs	r6, r0
    7e66:	e7d3      	b.n	7e10 <__pow5mult+0x30>
    7e68:	4b0e      	ldr	r3, [pc, #56]	; (7ea4 <__pow5mult+0xc4>)
    7e6a:	3a01      	subs	r2, #1
    7e6c:	0092      	lsls	r2, r2, #2
    7e6e:	58d2      	ldr	r2, [r2, r3]
    7e70:	2300      	movs	r3, #0
    7e72:	f7ff fdbd 	bl	79f0 <__multadd>
    7e76:	0006      	movs	r6, r0
    7e78:	e7be      	b.n	7df8 <__pow5mult+0x18>
    7e7a:	2101      	movs	r1, #1
    7e7c:	0038      	movs	r0, r7
    7e7e:	f7ff fd85 	bl	798c <_Balloc>
    7e82:	1e05      	subs	r5, r0, #0
    7e84:	d007      	beq.n	7e96 <__pow5mult+0xb6>
    7e86:	4b08      	ldr	r3, [pc, #32]	; (7ea8 <__pow5mult+0xc8>)
    7e88:	6143      	str	r3, [r0, #20]
    7e8a:	2301      	movs	r3, #1
    7e8c:	6103      	str	r3, [r0, #16]
    7e8e:	2300      	movs	r3, #0
    7e90:	6438      	str	r0, [r7, #64]	; 0x40
    7e92:	6003      	str	r3, [r0, #0]
    7e94:	e7b5      	b.n	7e02 <__pow5mult+0x22>
    7e96:	2146      	movs	r1, #70	; 0x46
    7e98:	2200      	movs	r2, #0
    7e9a:	4b04      	ldr	r3, [pc, #16]	; (7eac <__pow5mult+0xcc>)
    7e9c:	4804      	ldr	r0, [pc, #16]	; (7eb0 <__pow5mult+0xd0>)
    7e9e:	31ff      	adds	r1, #255	; 0xff
    7ea0:	f7ff fc92 	bl	77c8 <__assert_func>
    7ea4:	0000c9c0 	.word	0x0000c9c0
    7ea8:	00000271 	.word	0x00000271
    7eac:	0000c838 	.word	0x0000c838
    7eb0:	0000c84c 	.word	0x0000c84c

00007eb4 <__lshift>:
    7eb4:	b5f0      	push	{r4, r5, r6, r7, lr}
    7eb6:	464e      	mov	r6, r9
    7eb8:	4645      	mov	r5, r8
    7eba:	46de      	mov	lr, fp
    7ebc:	4657      	mov	r7, sl
    7ebe:	b5e0      	push	{r5, r6, r7, lr}
    7ec0:	000d      	movs	r5, r1
    7ec2:	692f      	ldr	r7, [r5, #16]
    7ec4:	1154      	asrs	r4, r2, #5
    7ec6:	46bb      	mov	fp, r7
    7ec8:	44a3      	add	fp, r4
    7eca:	465b      	mov	r3, fp
    7ecc:	1c5e      	adds	r6, r3, #1
    7ece:	68ab      	ldr	r3, [r5, #8]
    7ed0:	4680      	mov	r8, r0
    7ed2:	4691      	mov	r9, r2
    7ed4:	6849      	ldr	r1, [r1, #4]
    7ed6:	b083      	sub	sp, #12
    7ed8:	429e      	cmp	r6, r3
    7eda:	dd03      	ble.n	7ee4 <__lshift+0x30>
    7edc:	3101      	adds	r1, #1
    7ede:	005b      	lsls	r3, r3, #1
    7ee0:	429e      	cmp	r6, r3
    7ee2:	dcfb      	bgt.n	7edc <__lshift+0x28>
    7ee4:	4640      	mov	r0, r8
    7ee6:	f7ff fd51 	bl	798c <_Balloc>
    7eea:	4684      	mov	ip, r0
    7eec:	2800      	cmp	r0, #0
    7eee:	d056      	beq.n	7f9e <__lshift+0xea>
    7ef0:	0001      	movs	r1, r0
    7ef2:	3114      	adds	r1, #20
    7ef4:	000b      	movs	r3, r1
    7ef6:	9101      	str	r1, [sp, #4]
    7ef8:	2c00      	cmp	r4, #0
    7efa:	dd0c      	ble.n	7f16 <__lshift+0x62>
    7efc:	00a4      	lsls	r4, r4, #2
    7efe:	0022      	movs	r2, r4
    7f00:	2000      	movs	r0, #0
    7f02:	3214      	adds	r2, #20
    7f04:	4462      	add	r2, ip
    7f06:	c301      	stmia	r3!, {r0}
    7f08:	4293      	cmp	r3, r2
    7f0a:	d1fc      	bne.n	7f06 <__lshift+0x52>
    7f0c:	9b01      	ldr	r3, [sp, #4]
    7f0e:	469a      	mov	sl, r3
    7f10:	44a2      	add	sl, r4
    7f12:	4653      	mov	r3, sl
    7f14:	9301      	str	r3, [sp, #4]
    7f16:	221f      	movs	r2, #31
    7f18:	4649      	mov	r1, r9
    7f1a:	002b      	movs	r3, r5
    7f1c:	4011      	ands	r1, r2
    7f1e:	468a      	mov	sl, r1
    7f20:	4649      	mov	r1, r9
    7f22:	692c      	ldr	r4, [r5, #16]
    7f24:	3314      	adds	r3, #20
    7f26:	00a4      	lsls	r4, r4, #2
    7f28:	191c      	adds	r4, r3, r4
    7f2a:	420a      	tst	r2, r1
    7f2c:	d031      	beq.n	7f92 <__lshift+0xde>
    7f2e:	4651      	mov	r1, sl
    7f30:	3201      	adds	r2, #1
    7f32:	1a52      	subs	r2, r2, r1
    7f34:	4691      	mov	r9, r2
    7f36:	2700      	movs	r7, #0
    7f38:	9801      	ldr	r0, [sp, #4]
    7f3a:	4651      	mov	r1, sl
    7f3c:	681a      	ldr	r2, [r3, #0]
    7f3e:	408a      	lsls	r2, r1
    7f40:	433a      	orrs	r2, r7
    7f42:	c004      	stmia	r0!, {r2}
    7f44:	464a      	mov	r2, r9
    7f46:	cb80      	ldmia	r3!, {r7}
    7f48:	40d7      	lsrs	r7, r2
    7f4a:	429c      	cmp	r4, r3
    7f4c:	d8f5      	bhi.n	7f3a <__lshift+0x86>
    7f4e:	002a      	movs	r2, r5
    7f50:	3215      	adds	r2, #21
    7f52:	2304      	movs	r3, #4
    7f54:	4294      	cmp	r4, r2
    7f56:	d304      	bcc.n	7f62 <__lshift+0xae>
    7f58:	1b63      	subs	r3, r4, r5
    7f5a:	3b15      	subs	r3, #21
    7f5c:	089b      	lsrs	r3, r3, #2
    7f5e:	3301      	adds	r3, #1
    7f60:	009b      	lsls	r3, r3, #2
    7f62:	9a01      	ldr	r2, [sp, #4]
    7f64:	50d7      	str	r7, [r2, r3]
    7f66:	2f00      	cmp	r7, #0
    7f68:	d000      	beq.n	7f6c <__lshift+0xb8>
    7f6a:	46b3      	mov	fp, r6
    7f6c:	4663      	mov	r3, ip
    7f6e:	465a      	mov	r2, fp
    7f70:	611a      	str	r2, [r3, #16]
    7f72:	4643      	mov	r3, r8
    7f74:	4660      	mov	r0, ip
    7f76:	686a      	ldr	r2, [r5, #4]
    7f78:	6c5b      	ldr	r3, [r3, #68]	; 0x44
    7f7a:	0092      	lsls	r2, r2, #2
    7f7c:	189b      	adds	r3, r3, r2
    7f7e:	681a      	ldr	r2, [r3, #0]
    7f80:	602a      	str	r2, [r5, #0]
    7f82:	601d      	str	r5, [r3, #0]
    7f84:	b003      	add	sp, #12
    7f86:	bcf0      	pop	{r4, r5, r6, r7}
    7f88:	46bb      	mov	fp, r7
    7f8a:	46b2      	mov	sl, r6
    7f8c:	46a9      	mov	r9, r5
    7f8e:	46a0      	mov	r8, r4
    7f90:	bdf0      	pop	{r4, r5, r6, r7, pc}
    7f92:	9901      	ldr	r1, [sp, #4]
    7f94:	cb04      	ldmia	r3!, {r2}
    7f96:	c104      	stmia	r1!, {r2}
    7f98:	429c      	cmp	r4, r3
    7f9a:	d8fb      	bhi.n	7f94 <__lshift+0xe0>
    7f9c:	e7e6      	b.n	7f6c <__lshift+0xb8>
    7f9e:	21ef      	movs	r1, #239	; 0xef
    7fa0:	2200      	movs	r2, #0
    7fa2:	4b02      	ldr	r3, [pc, #8]	; (7fac <__lshift+0xf8>)
    7fa4:	4802      	ldr	r0, [pc, #8]	; (7fb0 <__lshift+0xfc>)
    7fa6:	0049      	lsls	r1, r1, #1
    7fa8:	f7ff fc0e 	bl	77c8 <__assert_func>
    7fac:	0000c838 	.word	0x0000c838
    7fb0:	0000c84c 	.word	0x0000c84c

00007fb4 <__mcmp>:
    7fb4:	6902      	ldr	r2, [r0, #16]
    7fb6:	690b      	ldr	r3, [r1, #16]
    7fb8:	b530      	push	{r4, r5, lr}
    7fba:	0005      	movs	r5, r0
    7fbc:	1ad0      	subs	r0, r2, r3
    7fbe:	429a      	cmp	r2, r3
    7fc0:	d111      	bne.n	7fe6 <__mcmp+0x32>
    7fc2:	009a      	lsls	r2, r3, #2
    7fc4:	3514      	adds	r5, #20
    7fc6:	3114      	adds	r1, #20
    7fc8:	18ab      	adds	r3, r5, r2
    7fca:	1889      	adds	r1, r1, r2
    7fcc:	e001      	b.n	7fd2 <__mcmp+0x1e>
    7fce:	429d      	cmp	r5, r3
    7fd0:	d209      	bcs.n	7fe6 <__mcmp+0x32>
    7fd2:	3b04      	subs	r3, #4
    7fd4:	3904      	subs	r1, #4
    7fd6:	681a      	ldr	r2, [r3, #0]
    7fd8:	680c      	ldr	r4, [r1, #0]
    7fda:	42a2      	cmp	r2, r4
    7fdc:	d0f7      	beq.n	7fce <__mcmp+0x1a>
    7fde:	42a2      	cmp	r2, r4
    7fe0:	4192      	sbcs	r2, r2
    7fe2:	2001      	movs	r0, #1
    7fe4:	4310      	orrs	r0, r2
    7fe6:	bd30      	pop	{r4, r5, pc}

00007fe8 <__mdiff>:
    7fe8:	b5f0      	push	{r4, r5, r6, r7, lr}
    7fea:	464e      	mov	r6, r9
    7fec:	4691      	mov	r9, r2
    7fee:	4645      	mov	r5, r8
    7ff0:	46de      	mov	lr, fp
    7ff2:	4657      	mov	r7, sl
    7ff4:	464b      	mov	r3, r9
    7ff6:	b5e0      	push	{r5, r6, r7, lr}
    7ff8:	690a      	ldr	r2, [r1, #16]
    7ffa:	4688      	mov	r8, r1
    7ffc:	6919      	ldr	r1, [r3, #16]
    7ffe:	b083      	sub	sp, #12
    8000:	1a54      	subs	r4, r2, r1
    8002:	428a      	cmp	r2, r1
    8004:	d000      	beq.n	8008 <__mdiff+0x20>
    8006:	e097      	b.n	8138 <__mdiff+0x150>
    8008:	4646      	mov	r6, r8
    800a:	464a      	mov	r2, r9
    800c:	0089      	lsls	r1, r1, #2
    800e:	3614      	adds	r6, #20
    8010:	3214      	adds	r2, #20
    8012:	1873      	adds	r3, r6, r1
    8014:	1852      	adds	r2, r2, r1
    8016:	e002      	b.n	801e <__mdiff+0x36>
    8018:	429e      	cmp	r6, r3
    801a:	d300      	bcc.n	801e <__mdiff+0x36>
    801c:	e090      	b.n	8140 <__mdiff+0x158>
    801e:	3b04      	subs	r3, #4
    8020:	3a04      	subs	r2, #4
    8022:	681d      	ldr	r5, [r3, #0]
    8024:	6811      	ldr	r1, [r2, #0]
    8026:	428d      	cmp	r5, r1
    8028:	d0f6      	beq.n	8018 <__mdiff+0x30>
    802a:	d200      	bcs.n	802e <__mdiff+0x46>
    802c:	e07f      	b.n	812e <__mdiff+0x146>
    802e:	4643      	mov	r3, r8
    8030:	6859      	ldr	r1, [r3, #4]
    8032:	f7ff fcab 	bl	798c <_Balloc>
    8036:	2800      	cmp	r0, #0
    8038:	d100      	bne.n	803c <__mdiff+0x54>
    803a:	e08b      	b.n	8154 <__mdiff+0x16c>
    803c:	4643      	mov	r3, r8
    803e:	6919      	ldr	r1, [r3, #16]
    8040:	2314      	movs	r3, #20
    8042:	4443      	add	r3, r8
    8044:	469c      	mov	ip, r3
    8046:	60c4      	str	r4, [r0, #12]
    8048:	001c      	movs	r4, r3
    804a:	464b      	mov	r3, r9
    804c:	691b      	ldr	r3, [r3, #16]
    804e:	008a      	lsls	r2, r1, #2
    8050:	009b      	lsls	r3, r3, #2
    8052:	4462      	add	r2, ip
    8054:	469c      	mov	ip, r3
    8056:	2314      	movs	r3, #20
    8058:	464f      	mov	r7, r9
    805a:	469a      	mov	sl, r3
    805c:	3714      	adds	r7, #20
    805e:	4482      	add	sl, r0
    8060:	4653      	mov	r3, sl
    8062:	44bc      	add	ip, r7
    8064:	4693      	mov	fp, r2
    8066:	4665      	mov	r5, ip
    8068:	2614      	movs	r6, #20
    806a:	2200      	movs	r2, #0
    806c:	46a2      	mov	sl, r4
    806e:	468c      	mov	ip, r1
    8070:	9301      	str	r3, [sp, #4]
    8072:	4643      	mov	r3, r8
    8074:	599c      	ldr	r4, [r3, r6]
    8076:	cf02      	ldmia	r7!, {r1}
    8078:	0423      	lsls	r3, r4, #16
    807a:	0c1b      	lsrs	r3, r3, #16
    807c:	189b      	adds	r3, r3, r2
    807e:	040a      	lsls	r2, r1, #16
    8080:	0c12      	lsrs	r2, r2, #16
    8082:	1a9b      	subs	r3, r3, r2
    8084:	0c24      	lsrs	r4, r4, #16
    8086:	0c0a      	lsrs	r2, r1, #16
    8088:	1aa4      	subs	r4, r4, r2
    808a:	141a      	asrs	r2, r3, #16
    808c:	18a4      	adds	r4, r4, r2
    808e:	041b      	lsls	r3, r3, #16
    8090:	1422      	asrs	r2, r4, #16
    8092:	0c1b      	lsrs	r3, r3, #16
    8094:	0424      	lsls	r4, r4, #16
    8096:	431c      	orrs	r4, r3
    8098:	5184      	str	r4, [r0, r6]
    809a:	3604      	adds	r6, #4
    809c:	42bd      	cmp	r5, r7
    809e:	d8e8      	bhi.n	8072 <__mdiff+0x8a>
    80a0:	002b      	movs	r3, r5
    80a2:	4661      	mov	r1, ip
    80a4:	46ac      	mov	ip, r5
    80a6:	464d      	mov	r5, r9
    80a8:	464e      	mov	r6, r9
    80aa:	1b5d      	subs	r5, r3, r5
    80ac:	3d15      	subs	r5, #21
    80ae:	3615      	adds	r6, #21
    80b0:	2300      	movs	r3, #0
    80b2:	08ad      	lsrs	r5, r5, #2
    80b4:	45b4      	cmp	ip, r6
    80b6:	d300      	bcc.n	80ba <__mdiff+0xd2>
    80b8:	00ab      	lsls	r3, r5, #2
    80ba:	9f01      	ldr	r7, [sp, #4]
    80bc:	46b8      	mov	r8, r7
    80be:	2704      	movs	r7, #4
    80c0:	4443      	add	r3, r8
    80c2:	46b8      	mov	r8, r7
    80c4:	45b4      	cmp	ip, r6
    80c6:	d302      	bcc.n	80ce <__mdiff+0xe6>
    80c8:	3501      	adds	r5, #1
    80ca:	00ad      	lsls	r5, r5, #2
    80cc:	46a8      	mov	r8, r5
    80ce:	4657      	mov	r7, sl
    80d0:	9d01      	ldr	r5, [sp, #4]
    80d2:	4447      	add	r7, r8
    80d4:	4445      	add	r5, r8
    80d6:	46ac      	mov	ip, r5
    80d8:	45bb      	cmp	fp, r7
    80da:	d919      	bls.n	8110 <__mdiff+0x128>
    80dc:	4688      	mov	r8, r1
    80de:	002e      	movs	r6, r5
    80e0:	0011      	movs	r1, r2
    80e2:	003b      	movs	r3, r7
    80e4:	465a      	mov	r2, fp
    80e6:	cb10      	ldmia	r3!, {r4}
    80e8:	0425      	lsls	r5, r4, #16
    80ea:	0c2d      	lsrs	r5, r5, #16
    80ec:	186d      	adds	r5, r5, r1
    80ee:	1429      	asrs	r1, r5, #16
    80f0:	0c24      	lsrs	r4, r4, #16
    80f2:	1864      	adds	r4, r4, r1
    80f4:	042d      	lsls	r5, r5, #16
    80f6:	1421      	asrs	r1, r4, #16
    80f8:	0c2d      	lsrs	r5, r5, #16
    80fa:	0424      	lsls	r4, r4, #16
    80fc:	432c      	orrs	r4, r5
    80fe:	c610      	stmia	r6!, {r4}
    8100:	429a      	cmp	r2, r3
    8102:	d8f0      	bhi.n	80e6 <__mdiff+0xfe>
    8104:	4641      	mov	r1, r8
    8106:	3a01      	subs	r2, #1
    8108:	1bd3      	subs	r3, r2, r7
    810a:	089b      	lsrs	r3, r3, #2
    810c:	009b      	lsls	r3, r3, #2
    810e:	4463      	add	r3, ip
    8110:	2c00      	cmp	r4, #0
    8112:	d104      	bne.n	811e <__mdiff+0x136>
    8114:	3b04      	subs	r3, #4
    8116:	681a      	ldr	r2, [r3, #0]
    8118:	3901      	subs	r1, #1
    811a:	2a00      	cmp	r2, #0
    811c:	d0fa      	beq.n	8114 <__mdiff+0x12c>
    811e:	6101      	str	r1, [r0, #16]
    8120:	b003      	add	sp, #12
    8122:	bcf0      	pop	{r4, r5, r6, r7}
    8124:	46bb      	mov	fp, r7
    8126:	46b2      	mov	sl, r6
    8128:	46a9      	mov	r9, r5
    812a:	46a0      	mov	r8, r4
    812c:	bdf0      	pop	{r4, r5, r6, r7, pc}
    812e:	4643      	mov	r3, r8
    8130:	2401      	movs	r4, #1
    8132:	46c8      	mov	r8, r9
    8134:	4699      	mov	r9, r3
    8136:	e77a      	b.n	802e <__mdiff+0x46>
    8138:	2c00      	cmp	r4, #0
    813a:	dbf8      	blt.n	812e <__mdiff+0x146>
    813c:	2400      	movs	r4, #0
    813e:	e776      	b.n	802e <__mdiff+0x46>
    8140:	2100      	movs	r1, #0
    8142:	f7ff fc23 	bl	798c <_Balloc>
    8146:	2800      	cmp	r0, #0
    8148:	d00a      	beq.n	8160 <__mdiff+0x178>
    814a:	2301      	movs	r3, #1
    814c:	6103      	str	r3, [r0, #16]
    814e:	2300      	movs	r3, #0
    8150:	6143      	str	r3, [r0, #20]
    8152:	e7e5      	b.n	8120 <__mdiff+0x138>
    8154:	2200      	movs	r2, #0
    8156:	4b05      	ldr	r3, [pc, #20]	; (816c <__mdiff+0x184>)
    8158:	4805      	ldr	r0, [pc, #20]	; (8170 <__mdiff+0x188>)
    815a:	4906      	ldr	r1, [pc, #24]	; (8174 <__mdiff+0x18c>)
    815c:	f7ff fb34 	bl	77c8 <__assert_func>
    8160:	2200      	movs	r2, #0
    8162:	4b02      	ldr	r3, [pc, #8]	; (816c <__mdiff+0x184>)
    8164:	4802      	ldr	r0, [pc, #8]	; (8170 <__mdiff+0x188>)
    8166:	4904      	ldr	r1, [pc, #16]	; (8178 <__mdiff+0x190>)
    8168:	f7ff fb2e 	bl	77c8 <__assert_func>
    816c:	0000c838 	.word	0x0000c838
    8170:	0000c84c 	.word	0x0000c84c
    8174:	00000245 	.word	0x00000245
    8178:	00000237 	.word	0x00000237

0000817c <__ulp>:
    817c:	4b0c      	ldr	r3, [pc, #48]	; (81b0 <__ulp+0x34>)
    817e:	2000      	movs	r0, #0
    8180:	4019      	ands	r1, r3
    8182:	4b0c      	ldr	r3, [pc, #48]	; (81b4 <__ulp+0x38>)
    8184:	469c      	mov	ip, r3
    8186:	4461      	add	r1, ip
    8188:	2900      	cmp	r1, #0
    818a:	dd00      	ble.n	818e <__ulp+0x12>
    818c:	4770      	bx	lr
    818e:	4249      	negs	r1, r1
    8190:	150b      	asrs	r3, r1, #20
    8192:	2b13      	cmp	r3, #19
    8194:	dc03      	bgt.n	819e <__ulp+0x22>
    8196:	2180      	movs	r1, #128	; 0x80
    8198:	0309      	lsls	r1, r1, #12
    819a:	4119      	asrs	r1, r3
    819c:	e7f6      	b.n	818c <__ulp+0x10>
    819e:	3b14      	subs	r3, #20
    81a0:	2001      	movs	r0, #1
    81a2:	2b1e      	cmp	r3, #30
    81a4:	dc02      	bgt.n	81ac <__ulp+0x30>
    81a6:	2080      	movs	r0, #128	; 0x80
    81a8:	0600      	lsls	r0, r0, #24
    81aa:	40d8      	lsrs	r0, r3
    81ac:	2100      	movs	r1, #0
    81ae:	e7ed      	b.n	818c <__ulp+0x10>
    81b0:	7ff00000 	.word	0x7ff00000
    81b4:	fcc00000 	.word	0xfcc00000

000081b8 <__b2d>:
    81b8:	b5f8      	push	{r3, r4, r5, r6, r7, lr}
    81ba:	0006      	movs	r6, r0
    81bc:	4647      	mov	r7, r8
    81be:	46ce      	mov	lr, r9
    81c0:	6904      	ldr	r4, [r0, #16]
    81c2:	3614      	adds	r6, #20
    81c4:	00a4      	lsls	r4, r4, #2
    81c6:	1934      	adds	r4, r6, r4
    81c8:	1f23      	subs	r3, r4, #4
    81ca:	681d      	ldr	r5, [r3, #0]
    81cc:	b580      	push	{r7, lr}
    81ce:	0028      	movs	r0, r5
    81d0:	000f      	movs	r7, r1
    81d2:	4698      	mov	r8, r3
    81d4:	f7ff fcb8 	bl	7b48 <__hi0bits>
    81d8:	2120      	movs	r1, #32
    81da:	1a0a      	subs	r2, r1, r0
    81dc:	0003      	movs	r3, r0
    81de:	603a      	str	r2, [r7, #0]
    81e0:	280a      	cmp	r0, #10
    81e2:	dd30      	ble.n	8246 <__b2d+0x8e>
    81e4:	4546      	cmp	r6, r8
    81e6:	d21b      	bcs.n	8220 <__b2d+0x68>
    81e8:	2208      	movs	r2, #8
    81ea:	4252      	negs	r2, r2
    81ec:	4694      	mov	ip, r2
    81ee:	44a4      	add	ip, r4
    81f0:	4662      	mov	r2, ip
    81f2:	0007      	movs	r7, r0
    81f4:	6812      	ldr	r2, [r2, #0]
    81f6:	3f0b      	subs	r7, #11
    81f8:	280b      	cmp	r0, #11
    81fa:	d01c      	beq.n	8236 <__b2d+0x7e>
    81fc:	1bcb      	subs	r3, r1, r7
    81fe:	0011      	movs	r1, r2
    8200:	40bd      	lsls	r5, r7
    8202:	40d9      	lsrs	r1, r3
    8204:	4699      	mov	r9, r3
    8206:	4b1b      	ldr	r3, [pc, #108]	; (8274 <__b2d+0xbc>)
    8208:	430d      	orrs	r5, r1
    820a:	432b      	orrs	r3, r5
    820c:	0019      	movs	r1, r3
    820e:	4566      	cmp	r6, ip
    8210:	d22d      	bcs.n	826e <__b2d+0xb6>
    8212:	464b      	mov	r3, r9
    8214:	3c0c      	subs	r4, #12
    8216:	6824      	ldr	r4, [r4, #0]
    8218:	40ba      	lsls	r2, r7
    821a:	40dc      	lsrs	r4, r3
    821c:	4322      	orrs	r2, r4
    821e:	e00d      	b.n	823c <__b2d+0x84>
    8220:	0002      	movs	r2, r0
    8222:	3a0b      	subs	r2, #11
    8224:	280b      	cmp	r0, #11
    8226:	d005      	beq.n	8234 <__b2d+0x7c>
    8228:	4095      	lsls	r5, r2
    822a:	4b12      	ldr	r3, [pc, #72]	; (8274 <__b2d+0xbc>)
    822c:	2200      	movs	r2, #0
    822e:	432b      	orrs	r3, r5
    8230:	0019      	movs	r1, r3
    8232:	e003      	b.n	823c <__b2d+0x84>
    8234:	2200      	movs	r2, #0
    8236:	4b0f      	ldr	r3, [pc, #60]	; (8274 <__b2d+0xbc>)
    8238:	432b      	orrs	r3, r5
    823a:	0019      	movs	r1, r3
    823c:	0010      	movs	r0, r2
    823e:	bcc0      	pop	{r6, r7}
    8240:	46b9      	mov	r9, r7
    8242:	46b0      	mov	r8, r6
    8244:	bdf8      	pop	{r3, r4, r5, r6, r7, pc}
    8246:	220b      	movs	r2, #11
    8248:	002f      	movs	r7, r5
    824a:	1a12      	subs	r2, r2, r0
    824c:	40d7      	lsrs	r7, r2
    824e:	4691      	mov	r9, r2
    8250:	4a08      	ldr	r2, [pc, #32]	; (8274 <__b2d+0xbc>)
    8252:	433a      	orrs	r2, r7
    8254:	0011      	movs	r1, r2
    8256:	2700      	movs	r7, #0
    8258:	4546      	cmp	r6, r8
    825a:	d203      	bcs.n	8264 <__b2d+0xac>
    825c:	464a      	mov	r2, r9
    825e:	3c08      	subs	r4, #8
    8260:	6827      	ldr	r7, [r4, #0]
    8262:	40d7      	lsrs	r7, r2
    8264:	002a      	movs	r2, r5
    8266:	3315      	adds	r3, #21
    8268:	409a      	lsls	r2, r3
    826a:	433a      	orrs	r2, r7
    826c:	e7e6      	b.n	823c <__b2d+0x84>
    826e:	40ba      	lsls	r2, r7
    8270:	e7e4      	b.n	823c <__b2d+0x84>
    8272:	46c0      	nop			; (mov r8, r8)
    8274:	3ff00000 	.word	0x3ff00000

00008278 <__d2b>:
    8278:	b570      	push	{r4, r5, r6, lr}
    827a:	2101      	movs	r1, #1
    827c:	b082      	sub	sp, #8
    827e:	0015      	movs	r5, r2
    8280:	001c      	movs	r4, r3
    8282:	f7ff fb83 	bl	798c <_Balloc>
    8286:	1e06      	subs	r6, r0, #0
    8288:	d04b      	beq.n	8322 <__d2b+0xaa>
    828a:	0323      	lsls	r3, r4, #12
    828c:	0064      	lsls	r4, r4, #1
    828e:	0b1b      	lsrs	r3, r3, #12
    8290:	0d64      	lsrs	r4, r4, #21
    8292:	d002      	beq.n	829a <__d2b+0x22>
    8294:	2280      	movs	r2, #128	; 0x80
    8296:	0352      	lsls	r2, r2, #13
    8298:	4313      	orrs	r3, r2
    829a:	9301      	str	r3, [sp, #4]
    829c:	2d00      	cmp	r5, #0
    829e:	d116      	bne.n	82ce <__d2b+0x56>
    82a0:	a801      	add	r0, sp, #4
    82a2:	f7ff fc6d 	bl	7b80 <__lo0bits>
    82a6:	2501      	movs	r5, #1
    82a8:	9b01      	ldr	r3, [sp, #4]
    82aa:	3020      	adds	r0, #32
    82ac:	6173      	str	r3, [r6, #20]
    82ae:	6135      	str	r5, [r6, #16]
    82b0:	2c00      	cmp	r4, #0
    82b2:	d024      	beq.n	82fe <__d2b+0x86>
    82b4:	4b1e      	ldr	r3, [pc, #120]	; (8330 <__d2b+0xb8>)
    82b6:	2535      	movs	r5, #53	; 0x35
    82b8:	469c      	mov	ip, r3
    82ba:	9b06      	ldr	r3, [sp, #24]
    82bc:	4464      	add	r4, ip
    82be:	1824      	adds	r4, r4, r0
    82c0:	601c      	str	r4, [r3, #0]
    82c2:	1a2d      	subs	r5, r5, r0
    82c4:	0030      	movs	r0, r6
    82c6:	9b07      	ldr	r3, [sp, #28]
    82c8:	601d      	str	r5, [r3, #0]
    82ca:	b002      	add	sp, #8
    82cc:	bd70      	pop	{r4, r5, r6, pc}
    82ce:	4668      	mov	r0, sp
    82d0:	9500      	str	r5, [sp, #0]
    82d2:	f7ff fc55 	bl	7b80 <__lo0bits>
    82d6:	2800      	cmp	r0, #0
    82d8:	d01f      	beq.n	831a <__d2b+0xa2>
    82da:	9d01      	ldr	r5, [sp, #4]
    82dc:	2220      	movs	r2, #32
    82de:	002b      	movs	r3, r5
    82e0:	1a12      	subs	r2, r2, r0
    82e2:	4093      	lsls	r3, r2
    82e4:	001a      	movs	r2, r3
    82e6:	40c5      	lsrs	r5, r0
    82e8:	9900      	ldr	r1, [sp, #0]
    82ea:	9501      	str	r5, [sp, #4]
    82ec:	430a      	orrs	r2, r1
    82ee:	6172      	str	r2, [r6, #20]
    82f0:	61b5      	str	r5, [r6, #24]
    82f2:	1e6a      	subs	r2, r5, #1
    82f4:	4195      	sbcs	r5, r2
    82f6:	3501      	adds	r5, #1
    82f8:	6135      	str	r5, [r6, #16]
    82fa:	2c00      	cmp	r4, #0
    82fc:	d1da      	bne.n	82b4 <__d2b+0x3c>
    82fe:	4b0d      	ldr	r3, [pc, #52]	; (8334 <__d2b+0xbc>)
    8300:	9a06      	ldr	r2, [sp, #24]
    8302:	18c3      	adds	r3, r0, r3
    8304:	6013      	str	r3, [r2, #0]
    8306:	4b0c      	ldr	r3, [pc, #48]	; (8338 <__d2b+0xc0>)
    8308:	18eb      	adds	r3, r5, r3
    830a:	009b      	lsls	r3, r3, #2
    830c:	18f3      	adds	r3, r6, r3
    830e:	6958      	ldr	r0, [r3, #20]
    8310:	f7ff fc1a 	bl	7b48 <__hi0bits>
    8314:	016d      	lsls	r5, r5, #5
    8316:	1a2d      	subs	r5, r5, r0
    8318:	e7d4      	b.n	82c4 <__d2b+0x4c>
    831a:	9a00      	ldr	r2, [sp, #0]
    831c:	9d01      	ldr	r5, [sp, #4]
    831e:	6172      	str	r2, [r6, #20]
    8320:	e7e6      	b.n	82f0 <__d2b+0x78>
    8322:	2200      	movs	r2, #0
    8324:	4b05      	ldr	r3, [pc, #20]	; (833c <__d2b+0xc4>)
    8326:	4806      	ldr	r0, [pc, #24]	; (8340 <__d2b+0xc8>)
    8328:	4906      	ldr	r1, [pc, #24]	; (8344 <__d2b+0xcc>)
    832a:	f7ff fa4d 	bl	77c8 <__assert_func>
    832e:	46c0      	nop			; (mov r8, r8)
    8330:	fffffbcd 	.word	0xfffffbcd
    8334:	fffffbce 	.word	0xfffffbce
    8338:	3fffffff 	.word	0x3fffffff
    833c:	0000c838 	.word	0x0000c838
    8340:	0000c84c 	.word	0x0000c84c
    8344:	0000030f 	.word	0x0000030f

00008348 <__ratio>:
    8348:	b5f0      	push	{r4, r5, r6, r7, lr}
    834a:	46ce      	mov	lr, r9
    834c:	4647      	mov	r7, r8
    834e:	b580      	push	{r7, lr}
    8350:	b085      	sub	sp, #20
    8352:	4688      	mov	r8, r1
    8354:	a902      	add	r1, sp, #8
    8356:	4681      	mov	r9, r0
    8358:	f7ff ff2e 	bl	81b8 <__b2d>
    835c:	0004      	movs	r4, r0
    835e:	000d      	movs	r5, r1
    8360:	4640      	mov	r0, r8
    8362:	a903      	add	r1, sp, #12
    8364:	f7ff ff28 	bl	81b8 <__b2d>
    8368:	0002      	movs	r2, r0
    836a:	000b      	movs	r3, r1
    836c:	4640      	mov	r0, r8
    836e:	4649      	mov	r1, r9
    8370:	6900      	ldr	r0, [r0, #16]
    8372:	6909      	ldr	r1, [r1, #16]
    8374:	9200      	str	r2, [sp, #0]
    8376:	9301      	str	r3, [sp, #4]
    8378:	1a09      	subs	r1, r1, r0
    837a:	0149      	lsls	r1, r1, #5
    837c:	4688      	mov	r8, r1
    837e:	9802      	ldr	r0, [sp, #8]
    8380:	9903      	ldr	r1, [sp, #12]
    8382:	1a40      	subs	r0, r0, r1
    8384:	0001      	movs	r1, r0
    8386:	4441      	add	r1, r8
    8388:	2900      	cmp	r1, #0
    838a:	dd0b      	ble.n	83a4 <__ratio+0x5c>
    838c:	0509      	lsls	r1, r1, #20
    838e:	194f      	adds	r7, r1, r5
    8390:	003d      	movs	r5, r7
    8392:	0020      	movs	r0, r4
    8394:	0029      	movs	r1, r5
    8396:	f002 f89f 	bl	a4d8 <__aeabi_ddiv>
    839a:	b005      	add	sp, #20
    839c:	bcc0      	pop	{r6, r7}
    839e:	46b9      	mov	r9, r7
    83a0:	46b0      	mov	r8, r6
    83a2:	bdf0      	pop	{r4, r5, r6, r7, pc}
    83a4:	0509      	lsls	r1, r1, #20
    83a6:	1a5b      	subs	r3, r3, r1
    83a8:	9301      	str	r3, [sp, #4]
    83aa:	9a00      	ldr	r2, [sp, #0]
    83ac:	9b01      	ldr	r3, [sp, #4]
    83ae:	e7f0      	b.n	8392 <__ratio+0x4a>

000083b0 <_mprec_log10>:
    83b0:	b510      	push	{r4, lr}
    83b2:	0004      	movs	r4, r0
    83b4:	2817      	cmp	r0, #23
    83b6:	dd09      	ble.n	83cc <_mprec_log10+0x1c>
    83b8:	2000      	movs	r0, #0
    83ba:	4907      	ldr	r1, [pc, #28]	; (83d8 <_mprec_log10+0x28>)
    83bc:	2200      	movs	r2, #0
    83be:	4b07      	ldr	r3, [pc, #28]	; (83dc <_mprec_log10+0x2c>)
    83c0:	3c01      	subs	r4, #1
    83c2:	f002 fc83 	bl	accc <__aeabi_dmul>
    83c6:	2c00      	cmp	r4, #0
    83c8:	d1f8      	bne.n	83bc <_mprec_log10+0xc>
    83ca:	bd10      	pop	{r4, pc}
    83cc:	4b04      	ldr	r3, [pc, #16]	; (83e0 <_mprec_log10+0x30>)
    83ce:	00c4      	lsls	r4, r0, #3
    83d0:	191b      	adds	r3, r3, r4
    83d2:	6818      	ldr	r0, [r3, #0]
    83d4:	6859      	ldr	r1, [r3, #4]
    83d6:	e7f8      	b.n	83ca <_mprec_log10+0x1a>
    83d8:	3ff00000 	.word	0x3ff00000
    83dc:	40240000 	.word	0x40240000
    83e0:	0000c8d0 	.word	0x0000c8d0

000083e4 <__copybits>:
    83e4:	0013      	movs	r3, r2
    83e6:	3901      	subs	r1, #1
    83e8:	b570      	push	{r4, r5, r6, lr}
    83ea:	114c      	asrs	r4, r1, #5
    83ec:	6911      	ldr	r1, [r2, #16]
    83ee:	3401      	adds	r4, #1
    83f0:	3314      	adds	r3, #20
    83f2:	0089      	lsls	r1, r1, #2
    83f4:	00a4      	lsls	r4, r4, #2
    83f6:	1859      	adds	r1, r3, r1
    83f8:	1904      	adds	r4, r0, r4
    83fa:	428b      	cmp	r3, r1
    83fc:	d20a      	bcs.n	8414 <__copybits+0x30>
    83fe:	0005      	movs	r5, r0
    8400:	cb40      	ldmia	r3!, {r6}
    8402:	c540      	stmia	r5!, {r6}
    8404:	4299      	cmp	r1, r3
    8406:	d8fb      	bhi.n	8400 <__copybits+0x1c>
    8408:	1a8b      	subs	r3, r1, r2
    840a:	3b15      	subs	r3, #21
    840c:	089b      	lsrs	r3, r3, #2
    840e:	3301      	adds	r3, #1
    8410:	009b      	lsls	r3, r3, #2
    8412:	18c0      	adds	r0, r0, r3
    8414:	4284      	cmp	r4, r0
    8416:	d903      	bls.n	8420 <__copybits+0x3c>
    8418:	2300      	movs	r3, #0
    841a:	c008      	stmia	r0!, {r3}
    841c:	4284      	cmp	r4, r0
    841e:	d8fc      	bhi.n	841a <__copybits+0x36>
    8420:	bd70      	pop	{r4, r5, r6, pc}
    8422:	46c0      	nop			; (mov r8, r8)

00008424 <__any_on>:
    8424:	b510      	push	{r4, lr}
    8426:	0004      	movs	r4, r0
    8428:	6903      	ldr	r3, [r0, #16]
    842a:	3414      	adds	r4, #20
    842c:	114a      	asrs	r2, r1, #5
    842e:	4293      	cmp	r3, r2
    8430:	da0a      	bge.n	8448 <__any_on+0x24>
    8432:	009b      	lsls	r3, r3, #2
    8434:	18e3      	adds	r3, r4, r3
    8436:	e003      	b.n	8440 <__any_on+0x1c>
    8438:	3b04      	subs	r3, #4
    843a:	681a      	ldr	r2, [r3, #0]
    843c:	2a00      	cmp	r2, #0
    843e:	d117      	bne.n	8470 <__any_on+0x4c>
    8440:	42a3      	cmp	r3, r4
    8442:	d8f9      	bhi.n	8438 <__any_on+0x14>
    8444:	2000      	movs	r0, #0
    8446:	bd10      	pop	{r4, pc}
    8448:	4293      	cmp	r3, r2
    844a:	dd0e      	ble.n	846a <__any_on+0x46>
    844c:	231f      	movs	r3, #31
    844e:	0018      	movs	r0, r3
    8450:	4008      	ands	r0, r1
    8452:	420b      	tst	r3, r1
    8454:	d009      	beq.n	846a <__any_on+0x46>
    8456:	0093      	lsls	r3, r2, #2
    8458:	18e3      	adds	r3, r4, r3
    845a:	6819      	ldr	r1, [r3, #0]
    845c:	000a      	movs	r2, r1
    845e:	40c2      	lsrs	r2, r0
    8460:	4082      	lsls	r2, r0
    8462:	2001      	movs	r0, #1
    8464:	4291      	cmp	r1, r2
    8466:	d1ee      	bne.n	8446 <__any_on+0x22>
    8468:	e7ea      	b.n	8440 <__any_on+0x1c>
    846a:	0093      	lsls	r3, r2, #2
    846c:	18e3      	adds	r3, r4, r3
    846e:	e7e7      	b.n	8440 <__any_on+0x1c>
    8470:	2001      	movs	r0, #1
    8472:	e7e8      	b.n	8446 <__any_on+0x22>

00008474 <_wcsnrtombs_l>:
    8474:	b5f0      	push	{r4, r5, r6, r7, lr}
    8476:	46de      	mov	lr, fp
    8478:	4657      	mov	r7, sl
    847a:	464e      	mov	r6, r9
    847c:	4645      	mov	r5, r8
    847e:	b5e0      	push	{r5, r6, r7, lr}
    8480:	b089      	sub	sp, #36	; 0x24
    8482:	4691      	mov	r9, r2
    8484:	9c13      	ldr	r4, [sp, #76]	; 0x4c
    8486:	9a12      	ldr	r2, [sp, #72]	; 0x48
    8488:	4683      	mov	fp, r0
    848a:	4692      	mov	sl, r2
    848c:	9102      	str	r1, [sp, #8]
    848e:	2c00      	cmp	r4, #0
    8490:	d05d      	beq.n	854e <_wcsnrtombs_l+0xda>
    8492:	9a02      	ldr	r2, [sp, #8]
    8494:	2a00      	cmp	r2, #0
    8496:	d060      	beq.n	855a <_wcsnrtombs_l+0xe6>
    8498:	464a      	mov	r2, r9
    849a:	6815      	ldr	r5, [r2, #0]
    849c:	4652      	mov	r2, sl
    849e:	2a00      	cmp	r2, #0
    84a0:	d06a      	beq.n	8578 <_wcsnrtombs_l+0x104>
    84a2:	1e5e      	subs	r6, r3, #1
    84a4:	2b00      	cmp	r3, #0
    84a6:	d067      	beq.n	8578 <_wcsnrtombs_l+0x104>
    84a8:	2700      	movs	r7, #0
    84aa:	9b02      	ldr	r3, [sp, #8]
    84ac:	46b8      	mov	r8, r7
    84ae:	9303      	str	r3, [sp, #12]
    84b0:	e00b      	b.n	84ca <_wcsnrtombs_l+0x56>
    84b2:	9b02      	ldr	r3, [sp, #8]
    84b4:	2b00      	cmp	r3, #0
    84b6:	d127      	bne.n	8508 <_wcsnrtombs_l+0x94>
    84b8:	682b      	ldr	r3, [r5, #0]
    84ba:	2b00      	cmp	r3, #0
    84bc:	d03e      	beq.n	853c <_wcsnrtombs_l+0xc8>
    84be:	4552      	cmp	r2, sl
    84c0:	d258      	bcs.n	8574 <_wcsnrtombs_l+0x100>
    84c2:	3504      	adds	r5, #4
    84c4:	3e01      	subs	r6, #1
    84c6:	d355      	bcc.n	8574 <_wcsnrtombs_l+0x100>
    84c8:	4690      	mov	r8, r2
    84ca:	21e0      	movs	r1, #224	; 0xe0
    84cc:	6823      	ldr	r3, [r4, #0]
    84ce:	4658      	mov	r0, fp
    84d0:	9300      	str	r3, [sp, #0]
    84d2:	6863      	ldr	r3, [r4, #4]
    84d4:	682a      	ldr	r2, [r5, #0]
    84d6:	9301      	str	r3, [sp, #4]
    84d8:	9b14      	ldr	r3, [sp, #80]	; 0x50
    84da:	585f      	ldr	r7, [r3, r1]
    84dc:	0023      	movs	r3, r4
    84de:	a905      	add	r1, sp, #20
    84e0:	47b8      	blx	r7
    84e2:	1c43      	adds	r3, r0, #1
    84e4:	d03f      	beq.n	8566 <_wcsnrtombs_l+0xf2>
    84e6:	4643      	mov	r3, r8
    84e8:	18c2      	adds	r2, r0, r3
    84ea:	4552      	cmp	r2, sl
    84ec:	d9e1      	bls.n	84b2 <_wcsnrtombs_l+0x3e>
    84ee:	4647      	mov	r7, r8
    84f0:	9b00      	ldr	r3, [sp, #0]
    84f2:	6023      	str	r3, [r4, #0]
    84f4:	9b01      	ldr	r3, [sp, #4]
    84f6:	6063      	str	r3, [r4, #4]
    84f8:	0038      	movs	r0, r7
    84fa:	b009      	add	sp, #36	; 0x24
    84fc:	bcf0      	pop	{r4, r5, r6, r7}
    84fe:	46bb      	mov	fp, r7
    8500:	46b2      	mov	sl, r6
    8502:	46a9      	mov	r9, r5
    8504:	46a0      	mov	r8, r4
    8506:	bdf0      	pop	{r4, r5, r6, r7, pc}
    8508:	2800      	cmp	r0, #0
    850a:	dd0f      	ble.n	852c <_wcsnrtombs_l+0xb8>
    850c:	2301      	movs	r3, #1
    850e:	9903      	ldr	r1, [sp, #12]
    8510:	1e4f      	subs	r7, r1, #1
    8512:	a904      	add	r1, sp, #16
    8514:	3103      	adds	r1, #3
    8516:	5cc9      	ldrb	r1, [r1, r3]
    8518:	54f9      	strb	r1, [r7, r3]
    851a:	0019      	movs	r1, r3
    851c:	3301      	adds	r3, #1
    851e:	4288      	cmp	r0, r1
    8520:	d1f7      	bne.n	8512 <_wcsnrtombs_l+0x9e>
    8522:	9b03      	ldr	r3, [sp, #12]
    8524:	469c      	mov	ip, r3
    8526:	4484      	add	ip, r0
    8528:	4663      	mov	r3, ip
    852a:	9303      	str	r3, [sp, #12]
    852c:	464b      	mov	r3, r9
    852e:	4649      	mov	r1, r9
    8530:	681b      	ldr	r3, [r3, #0]
    8532:	3304      	adds	r3, #4
    8534:	600b      	str	r3, [r1, #0]
    8536:	682b      	ldr	r3, [r5, #0]
    8538:	2b00      	cmp	r3, #0
    853a:	d1c0      	bne.n	84be <_wcsnrtombs_l+0x4a>
    853c:	9902      	ldr	r1, [sp, #8]
    853e:	2900      	cmp	r1, #0
    8540:	d001      	beq.n	8546 <_wcsnrtombs_l+0xd2>
    8542:	4649      	mov	r1, r9
    8544:	600b      	str	r3, [r1, #0]
    8546:	2300      	movs	r3, #0
    8548:	1e57      	subs	r7, r2, #1
    854a:	6023      	str	r3, [r4, #0]
    854c:	e7d4      	b.n	84f8 <_wcsnrtombs_l+0x84>
    854e:	0004      	movs	r4, r0
    8550:	9a02      	ldr	r2, [sp, #8]
    8552:	340d      	adds	r4, #13
    8554:	34ff      	adds	r4, #255	; 0xff
    8556:	2a00      	cmp	r2, #0
    8558:	d19e      	bne.n	8498 <_wcsnrtombs_l+0x24>
    855a:	464a      	mov	r2, r9
    855c:	6815      	ldr	r5, [r2, #0]
    855e:	2201      	movs	r2, #1
    8560:	4252      	negs	r2, r2
    8562:	4692      	mov	sl, r2
    8564:	e79d      	b.n	84a2 <_wcsnrtombs_l+0x2e>
    8566:	238a      	movs	r3, #138	; 0x8a
    8568:	465a      	mov	r2, fp
    856a:	6013      	str	r3, [r2, #0]
    856c:	2300      	movs	r3, #0
    856e:	0007      	movs	r7, r0
    8570:	6023      	str	r3, [r4, #0]
    8572:	e7c1      	b.n	84f8 <_wcsnrtombs_l+0x84>
    8574:	0017      	movs	r7, r2
    8576:	e7bf      	b.n	84f8 <_wcsnrtombs_l+0x84>
    8578:	2700      	movs	r7, #0
    857a:	e7bd      	b.n	84f8 <_wcsnrtombs_l+0x84>

0000857c <_wcsnrtombs_r>:
    857c:	b510      	push	{r4, lr}
    857e:	4806      	ldr	r0, [pc, #24]	; (8598 <_wcsnrtombs_r+0x1c>)
    8580:	4c06      	ldr	r4, [pc, #24]	; (859c <_wcsnrtombs_r+0x20>)
    8582:	b084      	sub	sp, #16
    8584:	6800      	ldr	r0, [r0, #0]
    8586:	9402      	str	r4, [sp, #8]
    8588:	9c07      	ldr	r4, [sp, #28]
    858a:	9401      	str	r4, [sp, #4]
    858c:	9c06      	ldr	r4, [sp, #24]
    858e:	9400      	str	r4, [sp, #0]
    8590:	f7ff ff70 	bl	8474 <_wcsnrtombs_l>
    8594:	b004      	add	sp, #16
    8596:	bd10      	pop	{r4, pc}
    8598:	0020d0e0 	.word	0x0020d0e0
    859c:	0020ce50 	.word	0x0020ce50

000085a0 <wcsnrtombs>:
    85a0:	b530      	push	{r4, r5, lr}
    85a2:	0004      	movs	r4, r0
    85a4:	4d07      	ldr	r5, [pc, #28]	; (85c4 <wcsnrtombs+0x24>)
    85a6:	4808      	ldr	r0, [pc, #32]	; (85c8 <wcsnrtombs+0x28>)
    85a8:	b085      	sub	sp, #20
    85aa:	6800      	ldr	r0, [r0, #0]
    85ac:	9502      	str	r5, [sp, #8]
    85ae:	9d08      	ldr	r5, [sp, #32]
    85b0:	9300      	str	r3, [sp, #0]
    85b2:	9501      	str	r5, [sp, #4]
    85b4:	0013      	movs	r3, r2
    85b6:	000a      	movs	r2, r1
    85b8:	0021      	movs	r1, r4
    85ba:	f7ff ff5b 	bl	8474 <_wcsnrtombs_l>
    85be:	b005      	add	sp, #20
    85c0:	bd30      	pop	{r4, r5, pc}
    85c2:	46c0      	nop			; (mov r8, r8)
    85c4:	0020ce50 	.word	0x0020ce50
    85c8:	0020d0e0 	.word	0x0020d0e0

000085cc <_close_r>:
    85cc:	2300      	movs	r3, #0
    85ce:	b570      	push	{r4, r5, r6, lr}
    85d0:	4c06      	ldr	r4, [pc, #24]	; (85ec <_close_r+0x20>)
    85d2:	0005      	movs	r5, r0
    85d4:	0008      	movs	r0, r1
    85d6:	6023      	str	r3, [r4, #0]
    85d8:	f003 fb5e 	bl	bc98 <_close>
    85dc:	1c43      	adds	r3, r0, #1
    85de:	d000      	beq.n	85e2 <_close_r+0x16>
    85e0:	bd70      	pop	{r4, r5, r6, pc}
    85e2:	6823      	ldr	r3, [r4, #0]
    85e4:	2b00      	cmp	r3, #0
    85e6:	d0fb      	beq.n	85e0 <_close_r+0x14>
    85e8:	602b      	str	r3, [r5, #0]
    85ea:	e7f9      	b.n	85e0 <_close_r+0x14>
    85ec:	4000043c 	.word	0x4000043c

000085f0 <_reclaim_reent>:
    85f0:	4b16      	ldr	r3, [pc, #88]	; (864c <_reclaim_reent+0x5c>)
    85f2:	b570      	push	{r4, r5, r6, lr}
    85f4:	681b      	ldr	r3, [r3, #0]
    85f6:	0005      	movs	r5, r0
    85f8:	4283      	cmp	r3, r0
    85fa:	d025      	beq.n	8648 <_reclaim_reent+0x58>
    85fc:	6c41      	ldr	r1, [r0, #68]	; 0x44
    85fe:	2900      	cmp	r1, #0
    8600:	d011      	beq.n	8626 <_reclaim_reent+0x36>
    8602:	2600      	movs	r6, #0
    8604:	598c      	ldr	r4, [r1, r6]
    8606:	2c00      	cmp	r4, #0
    8608:	d007      	beq.n	861a <_reclaim_reent+0x2a>
    860a:	0021      	movs	r1, r4
    860c:	6824      	ldr	r4, [r4, #0]
    860e:	0028      	movs	r0, r5
    8610:	f7fd ff5e 	bl	64d0 <_free_r>
    8614:	2c00      	cmp	r4, #0
    8616:	d1f8      	bne.n	860a <_reclaim_reent+0x1a>
    8618:	6c69      	ldr	r1, [r5, #68]	; 0x44
    861a:	3604      	adds	r6, #4
    861c:	2e80      	cmp	r6, #128	; 0x80
    861e:	d1f1      	bne.n	8604 <_reclaim_reent+0x14>
    8620:	0028      	movs	r0, r5
    8622:	f7fd ff55 	bl	64d0 <_free_r>
    8626:	6ba9      	ldr	r1, [r5, #56]	; 0x38
    8628:	2900      	cmp	r1, #0
    862a:	d002      	beq.n	8632 <_reclaim_reent+0x42>
    862c:	0028      	movs	r0, r5
    862e:	f7fd ff4f 	bl	64d0 <_free_r>
    8632:	6ce9      	ldr	r1, [r5, #76]	; 0x4c
    8634:	2900      	cmp	r1, #0
    8636:	d002      	beq.n	863e <_reclaim_reent+0x4e>
    8638:	0028      	movs	r0, r5
    863a:	f7fd ff49 	bl	64d0 <_free_r>
    863e:	6b6b      	ldr	r3, [r5, #52]	; 0x34
    8640:	2b00      	cmp	r3, #0
    8642:	d001      	beq.n	8648 <_reclaim_reent+0x58>
    8644:	0028      	movs	r0, r5
    8646:	4798      	blx	r3
    8648:	bd70      	pop	{r4, r5, r6, pc}
    864a:	46c0      	nop			; (mov r8, r8)
    864c:	0020d0e0 	.word	0x0020d0e0

00008650 <_realloc_r>:
    8650:	b5f0      	push	{r4, r5, r6, r7, lr}
    8652:	4657      	mov	r7, sl
    8654:	4645      	mov	r5, r8
    8656:	46de      	mov	lr, fp
    8658:	464e      	mov	r6, r9
    865a:	b5e0      	push	{r5, r6, r7, lr}
    865c:	000c      	movs	r4, r1
    865e:	0007      	movs	r7, r0
    8660:	4690      	mov	r8, r2
    8662:	b083      	sub	sp, #12
    8664:	2900      	cmp	r1, #0
    8666:	d100      	bne.n	866a <_realloc_r+0x1a>
    8668:	e0a8      	b.n	87bc <_realloc_r+0x16c>
    866a:	f7fc f9f5 	bl	4a58 <__malloc_lock>
    866e:	2308      	movs	r3, #8
    8670:	425b      	negs	r3, r3
    8672:	4699      	mov	r9, r3
    8674:	4646      	mov	r6, r8
    8676:	44a1      	add	r9, r4
    8678:	464b      	mov	r3, r9
    867a:	360b      	adds	r6, #11
    867c:	685a      	ldr	r2, [r3, #4]
    867e:	2e16      	cmp	r6, #22
    8680:	d867      	bhi.n	8752 <_realloc_r+0x102>
    8682:	2610      	movs	r6, #16
    8684:	2310      	movs	r3, #16
    8686:	45b0      	cmp	r8, r6
    8688:	d867      	bhi.n	875a <_realloc_r+0x10a>
    868a:	0015      	movs	r5, r2
    868c:	2103      	movs	r1, #3
    868e:	46ca      	mov	sl, r9
    8690:	438d      	bics	r5, r1
    8692:	429d      	cmp	r5, r3
    8694:	db00      	blt.n	8698 <_realloc_r+0x48>
    8696:	e072      	b.n	877e <_realloc_r+0x12e>
    8698:	4649      	mov	r1, r9
    869a:	1948      	adds	r0, r1, r5
    869c:	49c5      	ldr	r1, [pc, #788]	; (89b4 <_realloc_r+0x364>)
    869e:	9000      	str	r0, [sp, #0]
    86a0:	468b      	mov	fp, r1
    86a2:	6889      	ldr	r1, [r1, #8]
    86a4:	4281      	cmp	r1, r0
    86a6:	d100      	bne.n	86aa <_realloc_r+0x5a>
    86a8:	e0c9      	b.n	883e <_realloc_r+0x1ee>
    86aa:	6841      	ldr	r1, [r0, #4]
    86ac:	2001      	movs	r0, #1
    86ae:	9101      	str	r1, [sp, #4]
    86b0:	4381      	bics	r1, r0
    86b2:	468c      	mov	ip, r1
    86b4:	9900      	ldr	r1, [sp, #0]
    86b6:	468b      	mov	fp, r1
    86b8:	44dc      	add	ip, fp
    86ba:	4661      	mov	r1, ip
    86bc:	6849      	ldr	r1, [r1, #4]
    86be:	4201      	tst	r1, r0
    86c0:	d000      	beq.n	86c4 <_realloc_r+0x74>
    86c2:	e06f      	b.n	87a4 <_realloc_r+0x154>
    86c4:	2003      	movs	r0, #3
    86c6:	9901      	ldr	r1, [sp, #4]
    86c8:	46ab      	mov	fp, r5
    86ca:	4381      	bics	r1, r0
    86cc:	468c      	mov	ip, r1
    86ce:	44e3      	add	fp, ip
    86d0:	459b      	cmp	fp, r3
    86d2:	da4e      	bge.n	8772 <_realloc_r+0x122>
    86d4:	2101      	movs	r1, #1
    86d6:	4211      	tst	r1, r2
    86d8:	d113      	bne.n	8702 <_realloc_r+0xb2>
    86da:	464a      	mov	r2, r9
    86dc:	4649      	mov	r1, r9
    86de:	6812      	ldr	r2, [r2, #0]
    86e0:	1a8a      	subs	r2, r1, r2
    86e2:	2103      	movs	r1, #3
    86e4:	9201      	str	r2, [sp, #4]
    86e6:	6852      	ldr	r2, [r2, #4]
    86e8:	438a      	bics	r2, r1
    86ea:	4661      	mov	r1, ip
    86ec:	1851      	adds	r1, r2, r1
    86ee:	468b      	mov	fp, r1
    86f0:	44ab      	add	fp, r5
    86f2:	459b      	cmp	fp, r3
    86f4:	db00      	blt.n	86f8 <_realloc_r+0xa8>
    86f6:	e079      	b.n	87ec <_realloc_r+0x19c>
    86f8:	4693      	mov	fp, r2
    86fa:	44ab      	add	fp, r5
    86fc:	459b      	cmp	fp, r3
    86fe:	db00      	blt.n	8702 <_realloc_r+0xb2>
    8700:	e079      	b.n	87f6 <_realloc_r+0x1a6>
    8702:	4641      	mov	r1, r8
    8704:	0038      	movs	r0, r7
    8706:	f7fb f841 	bl	378c <_malloc_r>
    870a:	4680      	mov	r8, r0
    870c:	2800      	cmp	r0, #0
    870e:	d01c      	beq.n	874a <_realloc_r+0xfa>
    8710:	464b      	mov	r3, r9
    8712:	2201      	movs	r2, #1
    8714:	685b      	ldr	r3, [r3, #4]
    8716:	4393      	bics	r3, r2
    8718:	0002      	movs	r2, r0
    871a:	444b      	add	r3, r9
    871c:	3a08      	subs	r2, #8
    871e:	4293      	cmp	r3, r2
    8720:	d100      	bne.n	8724 <_realloc_r+0xd4>
    8722:	e0ff      	b.n	8924 <_realloc_r+0x2d4>
    8724:	1f2a      	subs	r2, r5, #4
    8726:	2a24      	cmp	r2, #36	; 0x24
    8728:	d900      	bls.n	872c <_realloc_r+0xdc>
    872a:	e100      	b.n	892e <_realloc_r+0x2de>
    872c:	0003      	movs	r3, r0
    872e:	0021      	movs	r1, r4
    8730:	2a13      	cmp	r2, #19
    8732:	d900      	bls.n	8736 <_realloc_r+0xe6>
    8734:	e0cf      	b.n	88d6 <_realloc_r+0x286>
    8736:	680a      	ldr	r2, [r1, #0]
    8738:	601a      	str	r2, [r3, #0]
    873a:	684a      	ldr	r2, [r1, #4]
    873c:	605a      	str	r2, [r3, #4]
    873e:	688a      	ldr	r2, [r1, #8]
    8740:	609a      	str	r2, [r3, #8]
    8742:	0021      	movs	r1, r4
    8744:	0038      	movs	r0, r7
    8746:	f7fd fec3 	bl	64d0 <_free_r>
    874a:	0038      	movs	r0, r7
    874c:	f7fc f98c 	bl	4a68 <__malloc_unlock>
    8750:	e007      	b.n	8762 <_realloc_r+0x112>
    8752:	2307      	movs	r3, #7
    8754:	439e      	bics	r6, r3
    8756:	1e33      	subs	r3, r6, #0
    8758:	da95      	bge.n	8686 <_realloc_r+0x36>
    875a:	230c      	movs	r3, #12
    875c:	603b      	str	r3, [r7, #0]
    875e:	2300      	movs	r3, #0
    8760:	4698      	mov	r8, r3
    8762:	4640      	mov	r0, r8
    8764:	b003      	add	sp, #12
    8766:	bcf0      	pop	{r4, r5, r6, r7}
    8768:	46bb      	mov	fp, r7
    876a:	46b2      	mov	sl, r6
    876c:	46a9      	mov	r9, r5
    876e:	46a0      	mov	r8, r4
    8770:	bdf0      	pop	{r4, r5, r6, r7, pc}
    8772:	465d      	mov	r5, fp
    8774:	9a00      	ldr	r2, [sp, #0]
    8776:	68d3      	ldr	r3, [r2, #12]
    8778:	6892      	ldr	r2, [r2, #8]
    877a:	60d3      	str	r3, [r2, #12]
    877c:	609a      	str	r2, [r3, #8]
    877e:	1bab      	subs	r3, r5, r6
    8780:	2b0f      	cmp	r3, #15
    8782:	d820      	bhi.n	87c6 <_realloc_r+0x176>
    8784:	4653      	mov	r3, sl
    8786:	2201      	movs	r2, #1
    8788:	4651      	mov	r1, sl
    878a:	685b      	ldr	r3, [r3, #4]
    878c:	4013      	ands	r3, r2
    878e:	432b      	orrs	r3, r5
    8790:	604b      	str	r3, [r1, #4]
    8792:	4455      	add	r5, sl
    8794:	686b      	ldr	r3, [r5, #4]
    8796:	4313      	orrs	r3, r2
    8798:	606b      	str	r3, [r5, #4]
    879a:	0038      	movs	r0, r7
    879c:	f7fc f964 	bl	4a68 <__malloc_unlock>
    87a0:	46a0      	mov	r8, r4
    87a2:	e7de      	b.n	8762 <_realloc_r+0x112>
    87a4:	2101      	movs	r1, #1
    87a6:	4211      	tst	r1, r2
    87a8:	d1ab      	bne.n	8702 <_realloc_r+0xb2>
    87aa:	464a      	mov	r2, r9
    87ac:	4649      	mov	r1, r9
    87ae:	6812      	ldr	r2, [r2, #0]
    87b0:	1a8a      	subs	r2, r1, r2
    87b2:	2103      	movs	r1, #3
    87b4:	9201      	str	r2, [sp, #4]
    87b6:	6852      	ldr	r2, [r2, #4]
    87b8:	438a      	bics	r2, r1
    87ba:	e79d      	b.n	86f8 <_realloc_r+0xa8>
    87bc:	0011      	movs	r1, r2
    87be:	f7fa ffe5 	bl	378c <_malloc_r>
    87c2:	4680      	mov	r8, r0
    87c4:	e7cd      	b.n	8762 <_realloc_r+0x112>
    87c6:	4652      	mov	r2, sl
    87c8:	2001      	movs	r0, #1
    87ca:	1991      	adds	r1, r2, r6
    87cc:	6852      	ldr	r2, [r2, #4]
    87ce:	4303      	orrs	r3, r0
    87d0:	4002      	ands	r2, r0
    87d2:	4332      	orrs	r2, r6
    87d4:	4656      	mov	r6, sl
    87d6:	4455      	add	r5, sl
    87d8:	6072      	str	r2, [r6, #4]
    87da:	604b      	str	r3, [r1, #4]
    87dc:	686b      	ldr	r3, [r5, #4]
    87de:	3108      	adds	r1, #8
    87e0:	4303      	orrs	r3, r0
    87e2:	606b      	str	r3, [r5, #4]
    87e4:	0038      	movs	r0, r7
    87e6:	f7fd fe73 	bl	64d0 <_free_r>
    87ea:	e7d6      	b.n	879a <_realloc_r+0x14a>
    87ec:	9a00      	ldr	r2, [sp, #0]
    87ee:	68d3      	ldr	r3, [r2, #12]
    87f0:	6892      	ldr	r2, [r2, #8]
    87f2:	60d3      	str	r3, [r2, #12]
    87f4:	609a      	str	r2, [r3, #8]
    87f6:	9901      	ldr	r1, [sp, #4]
    87f8:	688a      	ldr	r2, [r1, #8]
    87fa:	68cb      	ldr	r3, [r1, #12]
    87fc:	468c      	mov	ip, r1
    87fe:	60d3      	str	r3, [r2, #12]
    8800:	609a      	str	r2, [r3, #8]
    8802:	2208      	movs	r2, #8
    8804:	4462      	add	r2, ip
    8806:	4690      	mov	r8, r2
    8808:	1f2a      	subs	r2, r5, #4
    880a:	2a24      	cmp	r2, #36	; 0x24
    880c:	d86d      	bhi.n	88ea <_realloc_r+0x29a>
    880e:	4643      	mov	r3, r8
    8810:	2a13      	cmp	r2, #19
    8812:	d909      	bls.n	8828 <_realloc_r+0x1d8>
    8814:	6823      	ldr	r3, [r4, #0]
    8816:	608b      	str	r3, [r1, #8]
    8818:	6863      	ldr	r3, [r4, #4]
    881a:	60cb      	str	r3, [r1, #12]
    881c:	2a1b      	cmp	r2, #27
    881e:	d900      	bls.n	8822 <_realloc_r+0x1d2>
    8820:	e093      	b.n	894a <_realloc_r+0x2fa>
    8822:	000b      	movs	r3, r1
    8824:	3408      	adds	r4, #8
    8826:	3310      	adds	r3, #16
    8828:	6822      	ldr	r2, [r4, #0]
    882a:	465d      	mov	r5, fp
    882c:	601a      	str	r2, [r3, #0]
    882e:	6862      	ldr	r2, [r4, #4]
    8830:	605a      	str	r2, [r3, #4]
    8832:	68a2      	ldr	r2, [r4, #8]
    8834:	4644      	mov	r4, r8
    8836:	609a      	str	r2, [r3, #8]
    8838:	9b01      	ldr	r3, [sp, #4]
    883a:	469a      	mov	sl, r3
    883c:	e79f      	b.n	877e <_realloc_r+0x12e>
    883e:	6848      	ldr	r0, [r1, #4]
    8840:	2103      	movs	r1, #3
    8842:	4388      	bics	r0, r1
    8844:	1829      	adds	r1, r5, r0
    8846:	9000      	str	r0, [sp, #0]
    8848:	2010      	movs	r0, #16
    884a:	4684      	mov	ip, r0
    884c:	44b4      	add	ip, r6
    884e:	9101      	str	r1, [sp, #4]
    8850:	4561      	cmp	r1, ip
    8852:	da53      	bge.n	88fc <_realloc_r+0x2ac>
    8854:	07d2      	lsls	r2, r2, #31
    8856:	d500      	bpl.n	885a <_realloc_r+0x20a>
    8858:	e753      	b.n	8702 <_realloc_r+0xb2>
    885a:	464a      	mov	r2, r9
    885c:	4649      	mov	r1, r9
    885e:	6812      	ldr	r2, [r2, #0]
    8860:	1a8a      	subs	r2, r1, r2
    8862:	2103      	movs	r1, #3
    8864:	9201      	str	r2, [sp, #4]
    8866:	6852      	ldr	r2, [r2, #4]
    8868:	438a      	bics	r2, r1
    886a:	9900      	ldr	r1, [sp, #0]
    886c:	1850      	adds	r0, r2, r1
    886e:	1941      	adds	r1, r0, r5
    8870:	9100      	str	r1, [sp, #0]
    8872:	458c      	cmp	ip, r1
    8874:	dd00      	ble.n	8878 <_realloc_r+0x228>
    8876:	e73f      	b.n	86f8 <_realloc_r+0xa8>
    8878:	9901      	ldr	r1, [sp, #4]
    887a:	688a      	ldr	r2, [r1, #8]
    887c:	68cb      	ldr	r3, [r1, #12]
    887e:	468c      	mov	ip, r1
    8880:	60d3      	str	r3, [r2, #12]
    8882:	609a      	str	r2, [r3, #8]
    8884:	2208      	movs	r2, #8
    8886:	4462      	add	r2, ip
    8888:	4690      	mov	r8, r2
    888a:	1f2a      	subs	r2, r5, #4
    888c:	2a24      	cmp	r2, #36	; 0x24
    888e:	d878      	bhi.n	8982 <_realloc_r+0x332>
    8890:	4643      	mov	r3, r8
    8892:	2a13      	cmp	r2, #19
    8894:	d908      	bls.n	88a8 <_realloc_r+0x258>
    8896:	6823      	ldr	r3, [r4, #0]
    8898:	608b      	str	r3, [r1, #8]
    889a:	6863      	ldr	r3, [r4, #4]
    889c:	60cb      	str	r3, [r1, #12]
    889e:	2a1b      	cmp	r2, #27
    88a0:	d874      	bhi.n	898c <_realloc_r+0x33c>
    88a2:	000b      	movs	r3, r1
    88a4:	3408      	adds	r4, #8
    88a6:	3310      	adds	r3, #16
    88a8:	6822      	ldr	r2, [r4, #0]
    88aa:	601a      	str	r2, [r3, #0]
    88ac:	6862      	ldr	r2, [r4, #4]
    88ae:	605a      	str	r2, [r3, #4]
    88b0:	68a2      	ldr	r2, [r4, #8]
    88b2:	609a      	str	r2, [r3, #8]
    88b4:	465b      	mov	r3, fp
    88b6:	2201      	movs	r2, #1
    88b8:	9801      	ldr	r0, [sp, #4]
    88ba:	1981      	adds	r1, r0, r6
    88bc:	6099      	str	r1, [r3, #8]
    88be:	9b00      	ldr	r3, [sp, #0]
    88c0:	1b9b      	subs	r3, r3, r6
    88c2:	4313      	orrs	r3, r2
    88c4:	604b      	str	r3, [r1, #4]
    88c6:	6843      	ldr	r3, [r0, #4]
    88c8:	4013      	ands	r3, r2
    88ca:	4333      	orrs	r3, r6
    88cc:	6043      	str	r3, [r0, #4]
    88ce:	0038      	movs	r0, r7
    88d0:	f7fc f8ca 	bl	4a68 <__malloc_unlock>
    88d4:	e745      	b.n	8762 <_realloc_r+0x112>
    88d6:	6823      	ldr	r3, [r4, #0]
    88d8:	6003      	str	r3, [r0, #0]
    88da:	6863      	ldr	r3, [r4, #4]
    88dc:	6043      	str	r3, [r0, #4]
    88de:	2a1b      	cmp	r2, #27
    88e0:	d829      	bhi.n	8936 <_realloc_r+0x2e6>
    88e2:	0003      	movs	r3, r0
    88e4:	3108      	adds	r1, #8
    88e6:	3308      	adds	r3, #8
    88e8:	e725      	b.n	8736 <_realloc_r+0xe6>
    88ea:	0021      	movs	r1, r4
    88ec:	4640      	mov	r0, r8
    88ee:	f7fe ff15 	bl	771c <memmove>
    88f2:	9b01      	ldr	r3, [sp, #4]
    88f4:	4644      	mov	r4, r8
    88f6:	465d      	mov	r5, fp
    88f8:	469a      	mov	sl, r3
    88fa:	e740      	b.n	877e <_realloc_r+0x12e>
    88fc:	464b      	mov	r3, r9
    88fe:	1999      	adds	r1, r3, r6
    8900:	465b      	mov	r3, fp
    8902:	2201      	movs	r2, #1
    8904:	6099      	str	r1, [r3, #8]
    8906:	9b01      	ldr	r3, [sp, #4]
    8908:	0038      	movs	r0, r7
    890a:	1b9b      	subs	r3, r3, r6
    890c:	4313      	orrs	r3, r2
    890e:	604b      	str	r3, [r1, #4]
    8910:	464b      	mov	r3, r9
    8912:	685b      	ldr	r3, [r3, #4]
    8914:	46a0      	mov	r8, r4
    8916:	4013      	ands	r3, r2
    8918:	464a      	mov	r2, r9
    891a:	4333      	orrs	r3, r6
    891c:	6053      	str	r3, [r2, #4]
    891e:	f7fc f8a3 	bl	4a68 <__malloc_unlock>
    8922:	e71e      	b.n	8762 <_realloc_r+0x112>
    8924:	2203      	movs	r2, #3
    8926:	685b      	ldr	r3, [r3, #4]
    8928:	4393      	bics	r3, r2
    892a:	18ed      	adds	r5, r5, r3
    892c:	e727      	b.n	877e <_realloc_r+0x12e>
    892e:	0021      	movs	r1, r4
    8930:	f7fe fef4 	bl	771c <memmove>
    8934:	e705      	b.n	8742 <_realloc_r+0xf2>
    8936:	68a3      	ldr	r3, [r4, #8]
    8938:	6083      	str	r3, [r0, #8]
    893a:	68e3      	ldr	r3, [r4, #12]
    893c:	60c3      	str	r3, [r0, #12]
    893e:	2a24      	cmp	r2, #36	; 0x24
    8940:	d00e      	beq.n	8960 <_realloc_r+0x310>
    8942:	0003      	movs	r3, r0
    8944:	3110      	adds	r1, #16
    8946:	3310      	adds	r3, #16
    8948:	e6f5      	b.n	8736 <_realloc_r+0xe6>
    894a:	68a3      	ldr	r3, [r4, #8]
    894c:	9901      	ldr	r1, [sp, #4]
    894e:	610b      	str	r3, [r1, #16]
    8950:	68e3      	ldr	r3, [r4, #12]
    8952:	614b      	str	r3, [r1, #20]
    8954:	2a24      	cmp	r2, #36	; 0x24
    8956:	d00b      	beq.n	8970 <_realloc_r+0x320>
    8958:	000b      	movs	r3, r1
    895a:	3410      	adds	r4, #16
    895c:	3318      	adds	r3, #24
    895e:	e763      	b.n	8828 <_realloc_r+0x1d8>
    8960:	6923      	ldr	r3, [r4, #16]
    8962:	3118      	adds	r1, #24
    8964:	6103      	str	r3, [r0, #16]
    8966:	0003      	movs	r3, r0
    8968:	6962      	ldr	r2, [r4, #20]
    896a:	3318      	adds	r3, #24
    896c:	6142      	str	r2, [r0, #20]
    896e:	e6e2      	b.n	8736 <_realloc_r+0xe6>
    8970:	6923      	ldr	r3, [r4, #16]
    8972:	9901      	ldr	r1, [sp, #4]
    8974:	618b      	str	r3, [r1, #24]
    8976:	000b      	movs	r3, r1
    8978:	6962      	ldr	r2, [r4, #20]
    897a:	3320      	adds	r3, #32
    897c:	61ca      	str	r2, [r1, #28]
    897e:	3418      	adds	r4, #24
    8980:	e752      	b.n	8828 <_realloc_r+0x1d8>
    8982:	0021      	movs	r1, r4
    8984:	4640      	mov	r0, r8
    8986:	f7fe fec9 	bl	771c <memmove>
    898a:	e793      	b.n	88b4 <_realloc_r+0x264>
    898c:	68a3      	ldr	r3, [r4, #8]
    898e:	9901      	ldr	r1, [sp, #4]
    8990:	610b      	str	r3, [r1, #16]
    8992:	68e3      	ldr	r3, [r4, #12]
    8994:	614b      	str	r3, [r1, #20]
    8996:	2a24      	cmp	r2, #36	; 0x24
    8998:	d003      	beq.n	89a2 <_realloc_r+0x352>
    899a:	000b      	movs	r3, r1
    899c:	3410      	adds	r4, #16
    899e:	3318      	adds	r3, #24
    89a0:	e782      	b.n	88a8 <_realloc_r+0x258>
    89a2:	6923      	ldr	r3, [r4, #16]
    89a4:	9901      	ldr	r1, [sp, #4]
    89a6:	618b      	str	r3, [r1, #24]
    89a8:	000b      	movs	r3, r1
    89aa:	6962      	ldr	r2, [r4, #20]
    89ac:	3320      	adds	r3, #32
    89ae:	61ca      	str	r2, [r1, #28]
    89b0:	3418      	adds	r4, #24
    89b2:	e779      	b.n	88a8 <_realloc_r+0x258>
    89b4:	0020ca20 	.word	0x0020ca20

000089b8 <__env_lock>:
    89b8:	b510      	push	{r4, lr}
    89ba:	4802      	ldr	r0, [pc, #8]	; (89c4 <__env_lock+0xc>)
    89bc:	f7fb fa56 	bl	3e6c <__retarget_lock_acquire_recursive>
    89c0:	bd10      	pop	{r4, pc}
    89c2:	46c0      	nop			; (mov r8, r8)
    89c4:	40000044 	.word	0x40000044

000089c8 <__env_unlock>:
    89c8:	b510      	push	{r4, lr}
    89ca:	4802      	ldr	r0, [pc, #8]	; (89d4 <__env_unlock+0xc>)
    89cc:	f7fb fa56 	bl	3e7c <__retarget_lock_release_recursive>
    89d0:	bd10      	pop	{r4, pc}
    89d2:	46c0      	nop			; (mov r8, r8)
    89d4:	40000044 	.word	0x40000044

000089d8 <strncmp>:
    89d8:	b530      	push	{r4, r5, lr}
    89da:	2a00      	cmp	r2, #0
    89dc:	d026      	beq.n	8a2c <strncmp+0x54>
    89de:	0003      	movs	r3, r0
    89e0:	430b      	orrs	r3, r1
    89e2:	079b      	lsls	r3, r3, #30
    89e4:	d124      	bne.n	8a30 <strncmp+0x58>
    89e6:	2a03      	cmp	r2, #3
    89e8:	d922      	bls.n	8a30 <strncmp+0x58>
    89ea:	4d16      	ldr	r5, [pc, #88]	; (8a44 <strncmp+0x6c>)
    89ec:	e00b      	b.n	8a06 <strncmp+0x2e>
    89ee:	3a04      	subs	r2, #4
    89f0:	2a00      	cmp	r2, #0
    89f2:	d01b      	beq.n	8a2c <strncmp+0x54>
    89f4:	4c14      	ldr	r4, [pc, #80]	; (8a48 <strncmp+0x70>)
    89f6:	191c      	adds	r4, r3, r4
    89f8:	439c      	bics	r4, r3
    89fa:	422c      	tst	r4, r5
    89fc:	d116      	bne.n	8a2c <strncmp+0x54>
    89fe:	3004      	adds	r0, #4
    8a00:	3104      	adds	r1, #4
    8a02:	2a03      	cmp	r2, #3
    8a04:	d914      	bls.n	8a30 <strncmp+0x58>
    8a06:	6803      	ldr	r3, [r0, #0]
    8a08:	680c      	ldr	r4, [r1, #0]
    8a0a:	42a3      	cmp	r3, r4
    8a0c:	d0ef      	beq.n	89ee <strncmp+0x16>
    8a0e:	7804      	ldrb	r4, [r0, #0]
    8a10:	780d      	ldrb	r5, [r1, #0]
    8a12:	42ac      	cmp	r4, r5
    8a14:	d113      	bne.n	8a3e <strncmp+0x66>
    8a16:	2301      	movs	r3, #1
    8a18:	e006      	b.n	8a28 <strncmp+0x50>
    8a1a:	5cc4      	ldrb	r4, [r0, r3]
    8a1c:	5ccd      	ldrb	r5, [r1, r3]
    8a1e:	42ac      	cmp	r4, r5
    8a20:	d10d      	bne.n	8a3e <strncmp+0x66>
    8a22:	3301      	adds	r3, #1
    8a24:	4293      	cmp	r3, r2
    8a26:	d001      	beq.n	8a2c <strncmp+0x54>
    8a28:	2c00      	cmp	r4, #0
    8a2a:	d1f6      	bne.n	8a1a <strncmp+0x42>
    8a2c:	2000      	movs	r0, #0
    8a2e:	bd30      	pop	{r4, r5, pc}
    8a30:	7804      	ldrb	r4, [r0, #0]
    8a32:	780d      	ldrb	r5, [r1, #0]
    8a34:	42a5      	cmp	r5, r4
    8a36:	d102      	bne.n	8a3e <strncmp+0x66>
    8a38:	2a01      	cmp	r2, #1
    8a3a:	d1ec      	bne.n	8a16 <strncmp+0x3e>
    8a3c:	e7f6      	b.n	8a2c <strncmp+0x54>
    8a3e:	1b60      	subs	r0, r4, r5
    8a40:	e7f5      	b.n	8a2e <strncmp+0x56>
    8a42:	46c0      	nop			; (mov r8, r8)
    8a44:	80808080 	.word	0x80808080
    8a48:	fefefeff 	.word	0xfefefeff

00008a4c <_lseek_r>:
    8a4c:	b570      	push	{r4, r5, r6, lr}
    8a4e:	0004      	movs	r4, r0
    8a50:	0008      	movs	r0, r1
    8a52:	0011      	movs	r1, r2
    8a54:	001a      	movs	r2, r3
    8a56:	2300      	movs	r3, #0
    8a58:	4d05      	ldr	r5, [pc, #20]	; (8a70 <_lseek_r+0x24>)
    8a5a:	602b      	str	r3, [r5, #0]
    8a5c:	f003 f944 	bl	bce8 <_lseek>
    8a60:	1c43      	adds	r3, r0, #1
    8a62:	d000      	beq.n	8a66 <_lseek_r+0x1a>
    8a64:	bd70      	pop	{r4, r5, r6, pc}
    8a66:	682b      	ldr	r3, [r5, #0]
    8a68:	2b00      	cmp	r3, #0
    8a6a:	d0fb      	beq.n	8a64 <_lseek_r+0x18>
    8a6c:	6023      	str	r3, [r4, #0]
    8a6e:	e7f9      	b.n	8a64 <_lseek_r+0x18>
    8a70:	4000043c 	.word	0x4000043c

00008a74 <_read_r>:
    8a74:	b570      	push	{r4, r5, r6, lr}
    8a76:	0004      	movs	r4, r0
    8a78:	0008      	movs	r0, r1
    8a7a:	0011      	movs	r1, r2
    8a7c:	001a      	movs	r2, r3
    8a7e:	2300      	movs	r3, #0
    8a80:	4d05      	ldr	r5, [pc, #20]	; (8a98 <_read_r+0x24>)
    8a82:	602b      	str	r3, [r5, #0]
    8a84:	f003 f938 	bl	bcf8 <_read>
    8a88:	1c43      	adds	r3, r0, #1
    8a8a:	d000      	beq.n	8a8e <_read_r+0x1a>
    8a8c:	bd70      	pop	{r4, r5, r6, pc}
    8a8e:	682b      	ldr	r3, [r5, #0]
    8a90:	2b00      	cmp	r3, #0
    8a92:	d0fb      	beq.n	8a8c <_read_r+0x18>
    8a94:	6023      	str	r3, [r4, #0]
    8a96:	e7f9      	b.n	8a8c <_read_r+0x18>
    8a98:	4000043c 	.word	0x4000043c

00008a9c <_fiprintf_r>:
    8a9c:	b40c      	push	{r2, r3}
    8a9e:	b500      	push	{lr}
    8aa0:	b083      	sub	sp, #12
    8aa2:	ab04      	add	r3, sp, #16
    8aa4:	cb04      	ldmia	r3!, {r2}
    8aa6:	9301      	str	r3, [sp, #4]
    8aa8:	f7f9 fe3a 	bl	2720 <_vfiprintf_r>
    8aac:	b003      	add	sp, #12
    8aae:	bc08      	pop	{r3}
    8ab0:	b002      	add	sp, #8
    8ab2:	4718      	bx	r3

00008ab4 <fiprintf>:
    8ab4:	b40e      	push	{r1, r2, r3}
    8ab6:	b500      	push	{lr}
    8ab8:	b082      	sub	sp, #8
    8aba:	ab03      	add	r3, sp, #12
    8abc:	0001      	movs	r1, r0
    8abe:	4805      	ldr	r0, [pc, #20]	; (8ad4 <fiprintf+0x20>)
    8ac0:	cb04      	ldmia	r3!, {r2}
    8ac2:	6800      	ldr	r0, [r0, #0]
    8ac4:	9301      	str	r3, [sp, #4]
    8ac6:	f7f9 fe2b 	bl	2720 <_vfiprintf_r>
    8aca:	b002      	add	sp, #8
    8acc:	bc08      	pop	{r3}
    8ace:	b003      	add	sp, #12
    8ad0:	4718      	bx	r3
    8ad2:	46c0      	nop			; (mov r8, r8)
    8ad4:	0020d0e0 	.word	0x0020d0e0

00008ad8 <abort>:
    8ad8:	2006      	movs	r0, #6
    8ada:	b510      	push	{r4, lr}
    8adc:	f000 f8a2 	bl	8c24 <raise>
    8ae0:	2001      	movs	r0, #1
    8ae2:	f003 f927 	bl	bd34 <_exit>
    8ae6:	46c0      	nop			; (mov r8, r8)

00008ae8 <_init_signal_r>:
    8ae8:	b570      	push	{r4, r5, r6, lr}
    8aea:	258c      	movs	r5, #140	; 0x8c
    8aec:	006d      	lsls	r5, r5, #1
    8aee:	5943      	ldr	r3, [r0, r5]
    8af0:	0004      	movs	r4, r0
    8af2:	2b00      	cmp	r3, #0
    8af4:	d001      	beq.n	8afa <_init_signal_r+0x12>
    8af6:	2000      	movs	r0, #0
    8af8:	bd70      	pop	{r4, r5, r6, pc}
    8afa:	2180      	movs	r1, #128	; 0x80
    8afc:	f7fa fe46 	bl	378c <_malloc_r>
    8b00:	5160      	str	r0, [r4, r5]
    8b02:	2800      	cmp	r0, #0
    8b04:	d006      	beq.n	8b14 <_init_signal_r+0x2c>
    8b06:	0002      	movs	r2, r0
    8b08:	2300      	movs	r3, #0
    8b0a:	3280      	adds	r2, #128	; 0x80
    8b0c:	c008      	stmia	r0!, {r3}
    8b0e:	4290      	cmp	r0, r2
    8b10:	d1fc      	bne.n	8b0c <_init_signal_r+0x24>
    8b12:	e7f0      	b.n	8af6 <_init_signal_r+0xe>
    8b14:	2001      	movs	r0, #1
    8b16:	4240      	negs	r0, r0
    8b18:	e7ee      	b.n	8af8 <_init_signal_r+0x10>
    8b1a:	46c0      	nop			; (mov r8, r8)

00008b1c <_signal_r>:
    8b1c:	b5f8      	push	{r3, r4, r5, r6, r7, lr}
    8b1e:	0005      	movs	r5, r0
    8b20:	000c      	movs	r4, r1
    8b22:	0016      	movs	r6, r2
    8b24:	291f      	cmp	r1, #31
    8b26:	d809      	bhi.n	8b3c <_signal_r+0x20>
    8b28:	278c      	movs	r7, #140	; 0x8c
    8b2a:	007f      	lsls	r7, r7, #1
    8b2c:	59c1      	ldr	r1, [r0, r7]
    8b2e:	2900      	cmp	r1, #0
    8b30:	d009      	beq.n	8b46 <_signal_r+0x2a>
    8b32:	00a4      	lsls	r4, r4, #2
    8b34:	1909      	adds	r1, r1, r4
    8b36:	6808      	ldr	r0, [r1, #0]
    8b38:	600e      	str	r6, [r1, #0]
    8b3a:	bdf8      	pop	{r3, r4, r5, r6, r7, pc}
    8b3c:	2316      	movs	r3, #22
    8b3e:	6003      	str	r3, [r0, #0]
    8b40:	2001      	movs	r0, #1
    8b42:	4240      	negs	r0, r0
    8b44:	e7f9      	b.n	8b3a <_signal_r+0x1e>
    8b46:	3180      	adds	r1, #128	; 0x80
    8b48:	f7fa fe20 	bl	378c <_malloc_r>
    8b4c:	1e01      	subs	r1, r0, #0
    8b4e:	51e8      	str	r0, [r5, r7]
    8b50:	d006      	beq.n	8b60 <_signal_r+0x44>
    8b52:	2200      	movs	r2, #0
    8b54:	0003      	movs	r3, r0
    8b56:	3080      	adds	r0, #128	; 0x80
    8b58:	c304      	stmia	r3!, {r2}
    8b5a:	4283      	cmp	r3, r0
    8b5c:	d1fc      	bne.n	8b58 <_signal_r+0x3c>
    8b5e:	e7e8      	b.n	8b32 <_signal_r+0x16>
    8b60:	2001      	movs	r0, #1
    8b62:	4240      	negs	r0, r0
    8b64:	e7e9      	b.n	8b3a <_signal_r+0x1e>
    8b66:	46c0      	nop			; (mov r8, r8)

00008b68 <_raise_r>:
    8b68:	b570      	push	{r4, r5, r6, lr}
    8b6a:	0005      	movs	r5, r0
    8b6c:	000c      	movs	r4, r1
    8b6e:	291f      	cmp	r1, #31
    8b70:	d822      	bhi.n	8bb8 <_raise_r+0x50>
    8b72:	238c      	movs	r3, #140	; 0x8c
    8b74:	005b      	lsls	r3, r3, #1
    8b76:	58c3      	ldr	r3, [r0, r3]
    8b78:	2b00      	cmp	r3, #0
    8b7a:	d00e      	beq.n	8b9a <_raise_r+0x32>
    8b7c:	008a      	lsls	r2, r1, #2
    8b7e:	189b      	adds	r3, r3, r2
    8b80:	681a      	ldr	r2, [r3, #0]
    8b82:	2a00      	cmp	r2, #0
    8b84:	d009      	beq.n	8b9a <_raise_r+0x32>
    8b86:	2a01      	cmp	r2, #1
    8b88:	d014      	beq.n	8bb4 <_raise_r+0x4c>
    8b8a:	1c51      	adds	r1, r2, #1
    8b8c:	d00e      	beq.n	8bac <_raise_r+0x44>
    8b8e:	2100      	movs	r1, #0
    8b90:	0020      	movs	r0, r4
    8b92:	6019      	str	r1, [r3, #0]
    8b94:	4790      	blx	r2
    8b96:	2000      	movs	r0, #0
    8b98:	bd70      	pop	{r4, r5, r6, pc}
    8b9a:	0028      	movs	r0, r5
    8b9c:	f000 f902 	bl	8da4 <_getpid_r>
    8ba0:	0022      	movs	r2, r4
    8ba2:	0001      	movs	r1, r0
    8ba4:	0028      	movs	r0, r5
    8ba6:	f000 f8e9 	bl	8d7c <_kill_r>
    8baa:	e7f5      	b.n	8b98 <_raise_r+0x30>
    8bac:	2316      	movs	r3, #22
    8bae:	6003      	str	r3, [r0, #0]
    8bb0:	2001      	movs	r0, #1
    8bb2:	e7f1      	b.n	8b98 <_raise_r+0x30>
    8bb4:	2000      	movs	r0, #0
    8bb6:	e7ef      	b.n	8b98 <_raise_r+0x30>
    8bb8:	2316      	movs	r3, #22
    8bba:	6003      	str	r3, [r0, #0]
    8bbc:	2001      	movs	r0, #1
    8bbe:	4240      	negs	r0, r0
    8bc0:	e7ea      	b.n	8b98 <_raise_r+0x30>
    8bc2:	46c0      	nop			; (mov r8, r8)

00008bc4 <__sigtramp_r>:
    8bc4:	b570      	push	{r4, r5, r6, lr}
    8bc6:	0004      	movs	r4, r0
    8bc8:	000d      	movs	r5, r1
    8bca:	291f      	cmp	r1, #31
    8bcc:	d827      	bhi.n	8c1e <__sigtramp_r+0x5a>
    8bce:	268c      	movs	r6, #140	; 0x8c
    8bd0:	0076      	lsls	r6, r6, #1
    8bd2:	5982      	ldr	r2, [r0, r6]
    8bd4:	2a00      	cmp	r2, #0
    8bd6:	d010      	beq.n	8bfa <__sigtramp_r+0x36>
    8bd8:	00ab      	lsls	r3, r5, #2
    8bda:	18d2      	adds	r2, r2, r3
    8bdc:	6813      	ldr	r3, [r2, #0]
    8bde:	2b00      	cmp	r3, #0
    8be0:	d009      	beq.n	8bf6 <__sigtramp_r+0x32>
    8be2:	1c59      	adds	r1, r3, #1
    8be4:	d019      	beq.n	8c1a <__sigtramp_r+0x56>
    8be6:	2b01      	cmp	r3, #1
    8be8:	d015      	beq.n	8c16 <__sigtramp_r+0x52>
    8bea:	2100      	movs	r1, #0
    8bec:	0028      	movs	r0, r5
    8bee:	6011      	str	r1, [r2, #0]
    8bf0:	4798      	blx	r3
    8bf2:	2000      	movs	r0, #0
    8bf4:	bd70      	pop	{r4, r5, r6, pc}
    8bf6:	2001      	movs	r0, #1
    8bf8:	e7fc      	b.n	8bf4 <__sigtramp_r+0x30>
    8bfa:	2180      	movs	r1, #128	; 0x80
    8bfc:	f7fa fdc6 	bl	378c <_malloc_r>
    8c00:	1e02      	subs	r2, r0, #0
    8c02:	51a0      	str	r0, [r4, r6]
    8c04:	d00b      	beq.n	8c1e <__sigtramp_r+0x5a>
    8c06:	0004      	movs	r4, r0
    8c08:	0003      	movs	r3, r0
    8c0a:	2000      	movs	r0, #0
    8c0c:	3480      	adds	r4, #128	; 0x80
    8c0e:	c301      	stmia	r3!, {r0}
    8c10:	42a3      	cmp	r3, r4
    8c12:	d1fc      	bne.n	8c0e <__sigtramp_r+0x4a>
    8c14:	e7e0      	b.n	8bd8 <__sigtramp_r+0x14>
    8c16:	2003      	movs	r0, #3
    8c18:	e7ec      	b.n	8bf4 <__sigtramp_r+0x30>
    8c1a:	2002      	movs	r0, #2
    8c1c:	e7ea      	b.n	8bf4 <__sigtramp_r+0x30>
    8c1e:	2001      	movs	r0, #1
    8c20:	4240      	negs	r0, r0
    8c22:	e7e7      	b.n	8bf4 <__sigtramp_r+0x30>

00008c24 <raise>:
    8c24:	4b16      	ldr	r3, [pc, #88]	; (8c80 <raise+0x5c>)
    8c26:	b570      	push	{r4, r5, r6, lr}
    8c28:	0004      	movs	r4, r0
    8c2a:	681d      	ldr	r5, [r3, #0]
    8c2c:	281f      	cmp	r0, #31
    8c2e:	d821      	bhi.n	8c74 <raise+0x50>
    8c30:	238c      	movs	r3, #140	; 0x8c
    8c32:	005b      	lsls	r3, r3, #1
    8c34:	58eb      	ldr	r3, [r5, r3]
    8c36:	2b00      	cmp	r3, #0
    8c38:	d00d      	beq.n	8c56 <raise+0x32>
    8c3a:	0082      	lsls	r2, r0, #2
    8c3c:	189b      	adds	r3, r3, r2
    8c3e:	681a      	ldr	r2, [r3, #0]
    8c40:	2a00      	cmp	r2, #0
    8c42:	d008      	beq.n	8c56 <raise+0x32>
    8c44:	2a01      	cmp	r2, #1
    8c46:	d013      	beq.n	8c70 <raise+0x4c>
    8c48:	1c51      	adds	r1, r2, #1
    8c4a:	d00d      	beq.n	8c68 <raise+0x44>
    8c4c:	2100      	movs	r1, #0
    8c4e:	6019      	str	r1, [r3, #0]
    8c50:	4790      	blx	r2
    8c52:	2000      	movs	r0, #0
    8c54:	bd70      	pop	{r4, r5, r6, pc}
    8c56:	0028      	movs	r0, r5
    8c58:	f000 f8a4 	bl	8da4 <_getpid_r>
    8c5c:	0022      	movs	r2, r4
    8c5e:	0001      	movs	r1, r0
    8c60:	0028      	movs	r0, r5
    8c62:	f000 f88b 	bl	8d7c <_kill_r>
    8c66:	e7f5      	b.n	8c54 <raise+0x30>
    8c68:	2316      	movs	r3, #22
    8c6a:	2001      	movs	r0, #1
    8c6c:	602b      	str	r3, [r5, #0]
    8c6e:	e7f1      	b.n	8c54 <raise+0x30>
    8c70:	2000      	movs	r0, #0
    8c72:	e7ef      	b.n	8c54 <raise+0x30>
    8c74:	2316      	movs	r3, #22
    8c76:	2001      	movs	r0, #1
    8c78:	602b      	str	r3, [r5, #0]
    8c7a:	4240      	negs	r0, r0
    8c7c:	e7ea      	b.n	8c54 <raise+0x30>
    8c7e:	46c0      	nop			; (mov r8, r8)
    8c80:	0020d0e0 	.word	0x0020d0e0

00008c84 <signal>:
    8c84:	b5f8      	push	{r3, r4, r5, r6, r7, lr}
    8c86:	4b13      	ldr	r3, [pc, #76]	; (8cd4 <signal+0x50>)
    8c88:	0004      	movs	r4, r0
    8c8a:	000d      	movs	r5, r1
    8c8c:	681e      	ldr	r6, [r3, #0]
    8c8e:	281f      	cmp	r0, #31
    8c90:	d809      	bhi.n	8ca6 <signal+0x22>
    8c92:	278c      	movs	r7, #140	; 0x8c
    8c94:	007f      	lsls	r7, r7, #1
    8c96:	59f0      	ldr	r0, [r6, r7]
    8c98:	2800      	cmp	r0, #0
    8c9a:	d009      	beq.n	8cb0 <signal+0x2c>
    8c9c:	00a4      	lsls	r4, r4, #2
    8c9e:	1904      	adds	r4, r0, r4
    8ca0:	6820      	ldr	r0, [r4, #0]
    8ca2:	6025      	str	r5, [r4, #0]
    8ca4:	bdf8      	pop	{r3, r4, r5, r6, r7, pc}
    8ca6:	2316      	movs	r3, #22
    8ca8:	2001      	movs	r0, #1
    8caa:	6033      	str	r3, [r6, #0]
    8cac:	4240      	negs	r0, r0
    8cae:	e7f9      	b.n	8ca4 <signal+0x20>
    8cb0:	2180      	movs	r1, #128	; 0x80
    8cb2:	0030      	movs	r0, r6
    8cb4:	f7fa fd6a 	bl	378c <_malloc_r>
    8cb8:	51f0      	str	r0, [r6, r7]
    8cba:	2800      	cmp	r0, #0
    8cbc:	d007      	beq.n	8cce <signal+0x4a>
    8cbe:	0001      	movs	r1, r0
    8cc0:	0003      	movs	r3, r0
    8cc2:	2200      	movs	r2, #0
    8cc4:	3180      	adds	r1, #128	; 0x80
    8cc6:	c304      	stmia	r3!, {r2}
    8cc8:	428b      	cmp	r3, r1
    8cca:	d1fc      	bne.n	8cc6 <signal+0x42>
    8ccc:	e7e6      	b.n	8c9c <signal+0x18>
    8cce:	2001      	movs	r0, #1
    8cd0:	4240      	negs	r0, r0
    8cd2:	e7e7      	b.n	8ca4 <signal+0x20>
    8cd4:	0020d0e0 	.word	0x0020d0e0

00008cd8 <_init_signal>:
    8cd8:	b570      	push	{r4, r5, r6, lr}
    8cda:	258c      	movs	r5, #140	; 0x8c
    8cdc:	4b0c      	ldr	r3, [pc, #48]	; (8d10 <_init_signal+0x38>)
    8cde:	006d      	lsls	r5, r5, #1
    8ce0:	681c      	ldr	r4, [r3, #0]
    8ce2:	5963      	ldr	r3, [r4, r5]
    8ce4:	2b00      	cmp	r3, #0
    8ce6:	d001      	beq.n	8cec <_init_signal+0x14>
    8ce8:	2000      	movs	r0, #0
    8cea:	bd70      	pop	{r4, r5, r6, pc}
    8cec:	2180      	movs	r1, #128	; 0x80
    8cee:	0020      	movs	r0, r4
    8cf0:	f7fa fd4c 	bl	378c <_malloc_r>
    8cf4:	5160      	str	r0, [r4, r5]
    8cf6:	2800      	cmp	r0, #0
    8cf8:	d006      	beq.n	8d08 <_init_signal+0x30>
    8cfa:	0002      	movs	r2, r0
    8cfc:	2300      	movs	r3, #0
    8cfe:	3280      	adds	r2, #128	; 0x80
    8d00:	c008      	stmia	r0!, {r3}
    8d02:	4290      	cmp	r0, r2
    8d04:	d1fc      	bne.n	8d00 <_init_signal+0x28>
    8d06:	e7ef      	b.n	8ce8 <_init_signal+0x10>
    8d08:	2001      	movs	r0, #1
    8d0a:	4240      	negs	r0, r0
    8d0c:	e7ed      	b.n	8cea <_init_signal+0x12>
    8d0e:	46c0      	nop			; (mov r8, r8)
    8d10:	0020d0e0 	.word	0x0020d0e0

00008d14 <__sigtramp>:
    8d14:	4b18      	ldr	r3, [pc, #96]	; (8d78 <__sigtramp+0x64>)
    8d16:	b570      	push	{r4, r5, r6, lr}
    8d18:	0005      	movs	r5, r0
    8d1a:	681c      	ldr	r4, [r3, #0]
    8d1c:	281f      	cmp	r0, #31
    8d1e:	d828      	bhi.n	8d72 <__sigtramp+0x5e>
    8d20:	268c      	movs	r6, #140	; 0x8c
    8d22:	0076      	lsls	r6, r6, #1
    8d24:	59a2      	ldr	r2, [r4, r6]
    8d26:	2a00      	cmp	r2, #0
    8d28:	d010      	beq.n	8d4c <__sigtramp+0x38>
    8d2a:	00ab      	lsls	r3, r5, #2
    8d2c:	18d2      	adds	r2, r2, r3
    8d2e:	6813      	ldr	r3, [r2, #0]
    8d30:	2b00      	cmp	r3, #0
    8d32:	d009      	beq.n	8d48 <__sigtramp+0x34>
    8d34:	1c59      	adds	r1, r3, #1
    8d36:	d01a      	beq.n	8d6e <__sigtramp+0x5a>
    8d38:	2b01      	cmp	r3, #1
    8d3a:	d016      	beq.n	8d6a <__sigtramp+0x56>
    8d3c:	2100      	movs	r1, #0
    8d3e:	0028      	movs	r0, r5
    8d40:	6011      	str	r1, [r2, #0]
    8d42:	4798      	blx	r3
    8d44:	2000      	movs	r0, #0
    8d46:	bd70      	pop	{r4, r5, r6, pc}
    8d48:	2001      	movs	r0, #1
    8d4a:	e7fc      	b.n	8d46 <__sigtramp+0x32>
    8d4c:	2180      	movs	r1, #128	; 0x80
    8d4e:	0020      	movs	r0, r4
    8d50:	f7fa fd1c 	bl	378c <_malloc_r>
    8d54:	1e02      	subs	r2, r0, #0
    8d56:	51a0      	str	r0, [r4, r6]
    8d58:	d00b      	beq.n	8d72 <__sigtramp+0x5e>
    8d5a:	0004      	movs	r4, r0
    8d5c:	0003      	movs	r3, r0
    8d5e:	2100      	movs	r1, #0
    8d60:	3480      	adds	r4, #128	; 0x80
    8d62:	c302      	stmia	r3!, {r1}
    8d64:	42a3      	cmp	r3, r4
    8d66:	d1fc      	bne.n	8d62 <__sigtramp+0x4e>
    8d68:	e7df      	b.n	8d2a <__sigtramp+0x16>
    8d6a:	2003      	movs	r0, #3
    8d6c:	e7eb      	b.n	8d46 <__sigtramp+0x32>
    8d6e:	2002      	movs	r0, #2
    8d70:	e7e9      	b.n	8d46 <__sigtramp+0x32>
    8d72:	2001      	movs	r0, #1
    8d74:	4240      	negs	r0, r0
    8d76:	e7e6      	b.n	8d46 <__sigtramp+0x32>
    8d78:	0020d0e0 	.word	0x0020d0e0

00008d7c <_kill_r>:
    8d7c:	2300      	movs	r3, #0
    8d7e:	b570      	push	{r4, r5, r6, lr}
    8d80:	4d07      	ldr	r5, [pc, #28]	; (8da0 <_kill_r+0x24>)
    8d82:	0004      	movs	r4, r0
    8d84:	0008      	movs	r0, r1
    8d86:	0011      	movs	r1, r2
    8d88:	602b      	str	r3, [r5, #0]
    8d8a:	f002 ffa5 	bl	bcd8 <_kill>
    8d8e:	1c43      	adds	r3, r0, #1
    8d90:	d000      	beq.n	8d94 <_kill_r+0x18>
    8d92:	bd70      	pop	{r4, r5, r6, pc}
    8d94:	682b      	ldr	r3, [r5, #0]
    8d96:	2b00      	cmp	r3, #0
    8d98:	d0fb      	beq.n	8d92 <_kill_r+0x16>
    8d9a:	6023      	str	r3, [r4, #0]
    8d9c:	e7f9      	b.n	8d92 <_kill_r+0x16>
    8d9e:	46c0      	nop			; (mov r8, r8)
    8da0:	4000043c 	.word	0x4000043c

00008da4 <_getpid_r>:
    8da4:	b510      	push	{r4, lr}
    8da6:	f002 ff87 	bl	bcb8 <_getpid>
    8daa:	bd10      	pop	{r4, pc}

00008dac <floor>:
    8dac:	4a44      	ldr	r2, [pc, #272]	; (8ec0 <floor+0x114>)
    8dae:	b5f8      	push	{r3, r4, r5, r6, r7, lr}
    8db0:	4657      	mov	r7, sl
    8db2:	4692      	mov	sl, r2
    8db4:	004b      	lsls	r3, r1, #1
    8db6:	0d5b      	lsrs	r3, r3, #21
    8db8:	449a      	add	sl, r3
    8dba:	464e      	mov	r6, r9
    8dbc:	4645      	mov	r5, r8
    8dbe:	46de      	mov	lr, fp
    8dc0:	4652      	mov	r2, sl
    8dc2:	b5e0      	push	{r5, r6, r7, lr}
    8dc4:	000c      	movs	r4, r1
    8dc6:	0005      	movs	r5, r0
    8dc8:	000e      	movs	r6, r1
    8dca:	4689      	mov	r9, r1
    8dcc:	0007      	movs	r7, r0
    8dce:	4680      	mov	r8, r0
    8dd0:	2a13      	cmp	r2, #19
    8dd2:	dc37      	bgt.n	8e44 <floor+0x98>
    8dd4:	2a00      	cmp	r2, #0
    8dd6:	db26      	blt.n	8e26 <floor+0x7a>
    8dd8:	4b3a      	ldr	r3, [pc, #232]	; (8ec4 <floor+0x118>)
    8dda:	4684      	mov	ip, r0
    8ddc:	4113      	asrs	r3, r2
    8dde:	469b      	mov	fp, r3
    8de0:	000b      	movs	r3, r1
    8de2:	465a      	mov	r2, fp
    8de4:	4013      	ands	r3, r2
    8de6:	4303      	orrs	r3, r0
    8de8:	d016      	beq.n	8e18 <floor+0x6c>
    8dea:	4a37      	ldr	r2, [pc, #220]	; (8ec8 <floor+0x11c>)
    8dec:	4b37      	ldr	r3, [pc, #220]	; (8ecc <floor+0x120>)
    8dee:	f001 f813 	bl	9e18 <__aeabi_dadd>
    8df2:	2200      	movs	r2, #0
    8df4:	2300      	movs	r3, #0
    8df6:	f000 fa0f 	bl	9218 <__aeabi_dcmpgt>
    8dfa:	2800      	cmp	r0, #0
    8dfc:	d00a      	beq.n	8e14 <floor+0x68>
    8dfe:	2c00      	cmp	r4, #0
    8e00:	da04      	bge.n	8e0c <floor+0x60>
    8e02:	2380      	movs	r3, #128	; 0x80
    8e04:	4652      	mov	r2, sl
    8e06:	035b      	lsls	r3, r3, #13
    8e08:	4113      	asrs	r3, r2
    8e0a:	4499      	add	r9, r3
    8e0c:	464e      	mov	r6, r9
    8e0e:	465b      	mov	r3, fp
    8e10:	2700      	movs	r7, #0
    8e12:	439e      	bics	r6, r3
    8e14:	46bc      	mov	ip, r7
    8e16:	0031      	movs	r1, r6
    8e18:	4660      	mov	r0, ip
    8e1a:	bcf0      	pop	{r4, r5, r6, r7}
    8e1c:	46bb      	mov	fp, r7
    8e1e:	46b2      	mov	sl, r6
    8e20:	46a9      	mov	r9, r5
    8e22:	46a0      	mov	r8, r4
    8e24:	bdf8      	pop	{r3, r4, r5, r6, r7, pc}
    8e26:	4a28      	ldr	r2, [pc, #160]	; (8ec8 <floor+0x11c>)
    8e28:	4b28      	ldr	r3, [pc, #160]	; (8ecc <floor+0x120>)
    8e2a:	f000 fff5 	bl	9e18 <__aeabi_dadd>
    8e2e:	2200      	movs	r2, #0
    8e30:	2300      	movs	r3, #0
    8e32:	f000 f9f1 	bl	9218 <__aeabi_dcmpgt>
    8e36:	2800      	cmp	r0, #0
    8e38:	d0ec      	beq.n	8e14 <floor+0x68>
    8e3a:	2c00      	cmp	r4, #0
    8e3c:	db29      	blt.n	8e92 <floor+0xe6>
    8e3e:	2700      	movs	r7, #0
    8e40:	2600      	movs	r6, #0
    8e42:	e7e7      	b.n	8e14 <floor+0x68>
    8e44:	2a33      	cmp	r2, #51	; 0x33
    8e46:	dd0a      	ble.n	8e5e <floor+0xb2>
    8e48:	2380      	movs	r3, #128	; 0x80
    8e4a:	4684      	mov	ip, r0
    8e4c:	00db      	lsls	r3, r3, #3
    8e4e:	459a      	cmp	sl, r3
    8e50:	d1e2      	bne.n	8e18 <floor+0x6c>
    8e52:	4642      	mov	r2, r8
    8e54:	000b      	movs	r3, r1
    8e56:	f000 ffdf 	bl	9e18 <__aeabi_dadd>
    8e5a:	4684      	mov	ip, r0
    8e5c:	e7dc      	b.n	8e18 <floor+0x6c>
    8e5e:	4a1c      	ldr	r2, [pc, #112]	; (8ed0 <floor+0x124>)
    8e60:	4694      	mov	ip, r2
    8e62:	2201      	movs	r2, #1
    8e64:	4463      	add	r3, ip
    8e66:	4252      	negs	r2, r2
    8e68:	40da      	lsrs	r2, r3
    8e6a:	4684      	mov	ip, r0
    8e6c:	4691      	mov	r9, r2
    8e6e:	4202      	tst	r2, r0
    8e70:	d0d2      	beq.n	8e18 <floor+0x6c>
    8e72:	4a15      	ldr	r2, [pc, #84]	; (8ec8 <floor+0x11c>)
    8e74:	4b15      	ldr	r3, [pc, #84]	; (8ecc <floor+0x120>)
    8e76:	f000 ffcf 	bl	9e18 <__aeabi_dadd>
    8e7a:	2200      	movs	r2, #0
    8e7c:	2300      	movs	r3, #0
    8e7e:	f000 f9cb 	bl	9218 <__aeabi_dcmpgt>
    8e82:	2800      	cmp	r0, #0
    8e84:	d0c6      	beq.n	8e14 <floor+0x68>
    8e86:	2c00      	cmp	r4, #0
    8e88:	db0a      	blt.n	8ea0 <floor+0xf4>
    8e8a:	4647      	mov	r7, r8
    8e8c:	464b      	mov	r3, r9
    8e8e:	439f      	bics	r7, r3
    8e90:	e7c0      	b.n	8e14 <floor+0x68>
    8e92:	0064      	lsls	r4, r4, #1
    8e94:	0864      	lsrs	r4, r4, #1
    8e96:	2700      	movs	r7, #0
    8e98:	432c      	orrs	r4, r5
    8e9a:	d00d      	beq.n	8eb8 <floor+0x10c>
    8e9c:	4e0d      	ldr	r6, [pc, #52]	; (8ed4 <floor+0x128>)
    8e9e:	e7b9      	b.n	8e14 <floor+0x68>
    8ea0:	4653      	mov	r3, sl
    8ea2:	2b14      	cmp	r3, #20
    8ea4:	d006      	beq.n	8eb4 <floor+0x108>
    8ea6:	2234      	movs	r2, #52	; 0x34
    8ea8:	1ad2      	subs	r2, r2, r3
    8eaa:	2301      	movs	r3, #1
    8eac:	4093      	lsls	r3, r2
    8eae:	4498      	add	r8, r3
    8eb0:	4545      	cmp	r5, r8
    8eb2:	d9ea      	bls.n	8e8a <floor+0xde>
    8eb4:	1c66      	adds	r6, r4, #1
    8eb6:	e7e8      	b.n	8e8a <floor+0xde>
    8eb8:	2680      	movs	r6, #128	; 0x80
    8eba:	0636      	lsls	r6, r6, #24
    8ebc:	e7aa      	b.n	8e14 <floor+0x68>
    8ebe:	46c0      	nop			; (mov r8, r8)
    8ec0:	fffffc01 	.word	0xfffffc01
    8ec4:	000fffff 	.word	0x000fffff
    8ec8:	8800759c 	.word	0x8800759c
    8ecc:	7e37e43c 	.word	0x7e37e43c
    8ed0:	fffffbed 	.word	0xfffffbed
    8ed4:	bff00000 	.word	0xbff00000

00008ed8 <__udivsi3>:
    8ed8:	2200      	movs	r2, #0
    8eda:	0843      	lsrs	r3, r0, #1
    8edc:	428b      	cmp	r3, r1
    8ede:	d374      	bcc.n	8fca <__udivsi3+0xf2>
    8ee0:	0903      	lsrs	r3, r0, #4
    8ee2:	428b      	cmp	r3, r1
    8ee4:	d35f      	bcc.n	8fa6 <__udivsi3+0xce>
    8ee6:	0a03      	lsrs	r3, r0, #8
    8ee8:	428b      	cmp	r3, r1
    8eea:	d344      	bcc.n	8f76 <__udivsi3+0x9e>
    8eec:	0b03      	lsrs	r3, r0, #12
    8eee:	428b      	cmp	r3, r1
    8ef0:	d328      	bcc.n	8f44 <__udivsi3+0x6c>
    8ef2:	0c03      	lsrs	r3, r0, #16
    8ef4:	428b      	cmp	r3, r1
    8ef6:	d30d      	bcc.n	8f14 <__udivsi3+0x3c>
    8ef8:	22ff      	movs	r2, #255	; 0xff
    8efa:	0209      	lsls	r1, r1, #8
    8efc:	ba12      	rev	r2, r2
    8efe:	0c03      	lsrs	r3, r0, #16
    8f00:	428b      	cmp	r3, r1
    8f02:	d302      	bcc.n	8f0a <__udivsi3+0x32>
    8f04:	1212      	asrs	r2, r2, #8
    8f06:	0209      	lsls	r1, r1, #8
    8f08:	d065      	beq.n	8fd6 <__udivsi3+0xfe>
    8f0a:	0b03      	lsrs	r3, r0, #12
    8f0c:	428b      	cmp	r3, r1
    8f0e:	d319      	bcc.n	8f44 <__udivsi3+0x6c>
    8f10:	e000      	b.n	8f14 <__udivsi3+0x3c>
    8f12:	0a09      	lsrs	r1, r1, #8
    8f14:	0bc3      	lsrs	r3, r0, #15
    8f16:	428b      	cmp	r3, r1
    8f18:	d301      	bcc.n	8f1e <__udivsi3+0x46>
    8f1a:	03cb      	lsls	r3, r1, #15
    8f1c:	1ac0      	subs	r0, r0, r3
    8f1e:	4152      	adcs	r2, r2
    8f20:	0b83      	lsrs	r3, r0, #14
    8f22:	428b      	cmp	r3, r1
    8f24:	d301      	bcc.n	8f2a <__udivsi3+0x52>
    8f26:	038b      	lsls	r3, r1, #14
    8f28:	1ac0      	subs	r0, r0, r3
    8f2a:	4152      	adcs	r2, r2
    8f2c:	0b43      	lsrs	r3, r0, #13
    8f2e:	428b      	cmp	r3, r1
    8f30:	d301      	bcc.n	8f36 <__udivsi3+0x5e>
    8f32:	034b      	lsls	r3, r1, #13
    8f34:	1ac0      	subs	r0, r0, r3
    8f36:	4152      	adcs	r2, r2
    8f38:	0b03      	lsrs	r3, r0, #12
    8f3a:	428b      	cmp	r3, r1
    8f3c:	d301      	bcc.n	8f42 <__udivsi3+0x6a>
    8f3e:	030b      	lsls	r3, r1, #12
    8f40:	1ac0      	subs	r0, r0, r3
    8f42:	4152      	adcs	r2, r2
    8f44:	0ac3      	lsrs	r3, r0, #11
    8f46:	428b      	cmp	r3, r1
    8f48:	d301      	bcc.n	8f4e <__udivsi3+0x76>
    8f4a:	02cb      	lsls	r3, r1, #11
    8f4c:	1ac0      	subs	r0, r0, r3
    8f4e:	4152      	adcs	r2, r2
    8f50:	0a83      	lsrs	r3, r0, #10
    8f52:	428b      	cmp	r3, r1
    8f54:	d301      	bcc.n	8f5a <__udivsi3+0x82>
    8f56:	028b      	lsls	r3, r1, #10
    8f58:	1ac0      	subs	r0, r0, r3
    8f5a:	4152      	adcs	r2, r2
    8f5c:	0a43      	lsrs	r3, r0, #9
    8f5e:	428b      	cmp	r3, r1
    8f60:	d301      	bcc.n	8f66 <__udivsi3+0x8e>
    8f62:	024b      	lsls	r3, r1, #9
    8f64:	1ac0      	subs	r0, r0, r3
    8f66:	4152      	adcs	r2, r2
    8f68:	0a03      	lsrs	r3, r0, #8
    8f6a:	428b      	cmp	r3, r1
    8f6c:	d301      	bcc.n	8f72 <__udivsi3+0x9a>
    8f6e:	020b      	lsls	r3, r1, #8
    8f70:	1ac0      	subs	r0, r0, r3
    8f72:	4152      	adcs	r2, r2
    8f74:	d2cd      	bcs.n	8f12 <__udivsi3+0x3a>
    8f76:	09c3      	lsrs	r3, r0, #7
    8f78:	428b      	cmp	r3, r1
    8f7a:	d301      	bcc.n	8f80 <__udivsi3+0xa8>
    8f7c:	01cb      	lsls	r3, r1, #7
    8f7e:	1ac0      	subs	r0, r0, r3
    8f80:	4152      	adcs	r2, r2
    8f82:	0983      	lsrs	r3, r0, #6
    8f84:	428b      	cmp	r3, r1
    8f86:	d301      	bcc.n	8f8c <__udivsi3+0xb4>
    8f88:	018b      	lsls	r3, r1, #6
    8f8a:	1ac0      	subs	r0, r0, r3
    8f8c:	4152      	adcs	r2, r2
    8f8e:	0943      	lsrs	r3, r0, #5
    8f90:	428b      	cmp	r3, r1
    8f92:	d301      	bcc.n	8f98 <__udivsi3+0xc0>
    8f94:	014b      	lsls	r3, r1, #5
    8f96:	1ac0      	subs	r0, r0, r3
    8f98:	4152      	adcs	r2, r2
    8f9a:	0903      	lsrs	r3, r0, #4
    8f9c:	428b      	cmp	r3, r1
    8f9e:	d301      	bcc.n	8fa4 <__udivsi3+0xcc>
    8fa0:	010b      	lsls	r3, r1, #4
    8fa2:	1ac0      	subs	r0, r0, r3
    8fa4:	4152      	adcs	r2, r2
    8fa6:	08c3      	lsrs	r3, r0, #3
    8fa8:	428b      	cmp	r3, r1
    8faa:	d301      	bcc.n	8fb0 <__udivsi3+0xd8>
    8fac:	00cb      	lsls	r3, r1, #3
    8fae:	1ac0      	subs	r0, r0, r3
    8fb0:	4152      	adcs	r2, r2
    8fb2:	0883      	lsrs	r3, r0, #2
    8fb4:	428b      	cmp	r3, r1
    8fb6:	d301      	bcc.n	8fbc <__udivsi3+0xe4>
    8fb8:	008b      	lsls	r3, r1, #2
    8fba:	1ac0      	subs	r0, r0, r3
    8fbc:	4152      	adcs	r2, r2
    8fbe:	0843      	lsrs	r3, r0, #1
    8fc0:	428b      	cmp	r3, r1
    8fc2:	d301      	bcc.n	8fc8 <__udivsi3+0xf0>
    8fc4:	004b      	lsls	r3, r1, #1
    8fc6:	1ac0      	subs	r0, r0, r3
    8fc8:	4152      	adcs	r2, r2
    8fca:	1a41      	subs	r1, r0, r1
    8fcc:	d200      	bcs.n	8fd0 <__udivsi3+0xf8>
    8fce:	4601      	mov	r1, r0
    8fd0:	4152      	adcs	r2, r2
    8fd2:	4610      	mov	r0, r2
    8fd4:	4770      	bx	lr
    8fd6:	e7ff      	b.n	8fd8 <__udivsi3+0x100>
    8fd8:	b501      	push	{r0, lr}
    8fda:	2000      	movs	r0, #0
    8fdc:	f000 f8f0 	bl	91c0 <__aeabi_idiv0>
    8fe0:	bd02      	pop	{r1, pc}
    8fe2:	46c0      	nop			; (mov r8, r8)

00008fe4 <__aeabi_uidivmod>:
    8fe4:	2900      	cmp	r1, #0
    8fe6:	d0f7      	beq.n	8fd8 <__udivsi3+0x100>
    8fe8:	e776      	b.n	8ed8 <__udivsi3>
    8fea:	4770      	bx	lr

00008fec <__divsi3>:
    8fec:	4603      	mov	r3, r0
    8fee:	430b      	orrs	r3, r1
    8ff0:	d47f      	bmi.n	90f2 <__divsi3+0x106>
    8ff2:	2200      	movs	r2, #0
    8ff4:	0843      	lsrs	r3, r0, #1
    8ff6:	428b      	cmp	r3, r1
    8ff8:	d374      	bcc.n	90e4 <__divsi3+0xf8>
    8ffa:	0903      	lsrs	r3, r0, #4
    8ffc:	428b      	cmp	r3, r1
    8ffe:	d35f      	bcc.n	90c0 <__divsi3+0xd4>
    9000:	0a03      	lsrs	r3, r0, #8
    9002:	428b      	cmp	r3, r1
    9004:	d344      	bcc.n	9090 <__divsi3+0xa4>
    9006:	0b03      	lsrs	r3, r0, #12
    9008:	428b      	cmp	r3, r1
    900a:	d328      	bcc.n	905e <__divsi3+0x72>
    900c:	0c03      	lsrs	r3, r0, #16
    900e:	428b      	cmp	r3, r1
    9010:	d30d      	bcc.n	902e <__divsi3+0x42>
    9012:	22ff      	movs	r2, #255	; 0xff
    9014:	0209      	lsls	r1, r1, #8
    9016:	ba12      	rev	r2, r2
    9018:	0c03      	lsrs	r3, r0, #16
    901a:	428b      	cmp	r3, r1
    901c:	d302      	bcc.n	9024 <__divsi3+0x38>
    901e:	1212      	asrs	r2, r2, #8
    9020:	0209      	lsls	r1, r1, #8
    9022:	d065      	beq.n	90f0 <__divsi3+0x104>
    9024:	0b03      	lsrs	r3, r0, #12
    9026:	428b      	cmp	r3, r1
    9028:	d319      	bcc.n	905e <__divsi3+0x72>
    902a:	e000      	b.n	902e <__divsi3+0x42>
    902c:	0a09      	lsrs	r1, r1, #8
    902e:	0bc3      	lsrs	r3, r0, #15
    9030:	428b      	cmp	r3, r1
    9032:	d301      	bcc.n	9038 <__divsi3+0x4c>
    9034:	03cb      	lsls	r3, r1, #15
    9036:	1ac0      	subs	r0, r0, r3
    9038:	4152      	adcs	r2, r2
    903a:	0b83      	lsrs	r3, r0, #14
    903c:	428b      	cmp	r3, r1
    903e:	d301      	bcc.n	9044 <__divsi3+0x58>
    9040:	038b      	lsls	r3, r1, #14
    9042:	1ac0      	subs	r0, r0, r3
    9044:	4152      	adcs	r2, r2
    9046:	0b43      	lsrs	r3, r0, #13
    9048:	428b      	cmp	r3, r1
    904a:	d301      	bcc.n	9050 <__divsi3+0x64>
    904c:	034b      	lsls	r3, r1, #13
    904e:	1ac0      	subs	r0, r0, r3
    9050:	4152      	adcs	r2, r2
    9052:	0b03      	lsrs	r3, r0, #12
    9054:	428b      	cmp	r3, r1
    9056:	d301      	bcc.n	905c <__divsi3+0x70>
    9058:	030b      	lsls	r3, r1, #12
    905a:	1ac0      	subs	r0, r0, r3
    905c:	4152      	adcs	r2, r2
    905e:	0ac3      	lsrs	r3, r0, #11
    9060:	428b      	cmp	r3, r1
    9062:	d301      	bcc.n	9068 <__divsi3+0x7c>
    9064:	02cb      	lsls	r3, r1, #11
    9066:	1ac0      	subs	r0, r0, r3
    9068:	4152      	adcs	r2, r2
    906a:	0a83      	lsrs	r3, r0, #10
    906c:	428b      	cmp	r3, r1
    906e:	d301      	bcc.n	9074 <__divsi3+0x88>
    9070:	028b      	lsls	r3, r1, #10
    9072:	1ac0      	subs	r0, r0, r3
    9074:	4152      	adcs	r2, r2
    9076:	0a43      	lsrs	r3, r0, #9
    9078:	428b      	cmp	r3, r1
    907a:	d301      	bcc.n	9080 <__divsi3+0x94>
    907c:	024b      	lsls	r3, r1, #9
    907e:	1ac0      	subs	r0, r0, r3
    9080:	4152      	adcs	r2, r2
    9082:	0a03      	lsrs	r3, r0, #8
    9084:	428b      	cmp	r3, r1
    9086:	d301      	bcc.n	908c <__divsi3+0xa0>
    9088:	020b      	lsls	r3, r1, #8
    908a:	1ac0      	subs	r0, r0, r3
    908c:	4152      	adcs	r2, r2
    908e:	d2cd      	bcs.n	902c <__divsi3+0x40>
    9090:	09c3      	lsrs	r3, r0, #7
    9092:	428b      	cmp	r3, r1
    9094:	d301      	bcc.n	909a <__divsi3+0xae>
    9096:	01cb      	lsls	r3, r1, #7
    9098:	1ac0      	subs	r0, r0, r3
    909a:	4152      	adcs	r2, r2
    909c:	0983      	lsrs	r3, r0, #6
    909e:	428b      	cmp	r3, r1
    90a0:	d301      	bcc.n	90a6 <__divsi3+0xba>
    90a2:	018b      	lsls	r3, r1, #6
    90a4:	1ac0      	subs	r0, r0, r3
    90a6:	4152      	adcs	r2, r2
    90a8:	0943      	lsrs	r3, r0, #5
    90aa:	428b      	cmp	r3, r1
    90ac:	d301      	bcc.n	90b2 <__divsi3+0xc6>
    90ae:	014b      	lsls	r3, r1, #5
    90b0:	1ac0      	subs	r0, r0, r3
    90b2:	4152      	adcs	r2, r2
    90b4:	0903      	lsrs	r3, r0, #4
    90b6:	428b      	cmp	r3, r1
    90b8:	d301      	bcc.n	90be <__divsi3+0xd2>
    90ba:	010b      	lsls	r3, r1, #4
    90bc:	1ac0      	subs	r0, r0, r3
    90be:	4152      	adcs	r2, r2
    90c0:	08c3      	lsrs	r3, r0, #3
    90c2:	428b      	cmp	r3, r1
    90c4:	d301      	bcc.n	90ca <__divsi3+0xde>
    90c6:	00cb      	lsls	r3, r1, #3
    90c8:	1ac0      	subs	r0, r0, r3
    90ca:	4152      	adcs	r2, r2
    90cc:	0883      	lsrs	r3, r0, #2
    90ce:	428b      	cmp	r3, r1
    90d0:	d301      	bcc.n	90d6 <__divsi3+0xea>
    90d2:	008b      	lsls	r3, r1, #2
    90d4:	1ac0      	subs	r0, r0, r3
    90d6:	4152      	adcs	r2, r2
    90d8:	0843      	lsrs	r3, r0, #1
    90da:	428b      	cmp	r3, r1
    90dc:	d301      	bcc.n	90e2 <__divsi3+0xf6>
    90de:	004b      	lsls	r3, r1, #1
    90e0:	1ac0      	subs	r0, r0, r3
    90e2:	4152      	adcs	r2, r2
    90e4:	1a41      	subs	r1, r0, r1
    90e6:	d200      	bcs.n	90ea <__divsi3+0xfe>
    90e8:	4601      	mov	r1, r0
    90ea:	4152      	adcs	r2, r2
    90ec:	4610      	mov	r0, r2
    90ee:	4770      	bx	lr
    90f0:	e05d      	b.n	91ae <__divsi3+0x1c2>
    90f2:	0fca      	lsrs	r2, r1, #31
    90f4:	d000      	beq.n	90f8 <__divsi3+0x10c>
    90f6:	4249      	negs	r1, r1
    90f8:	1003      	asrs	r3, r0, #32
    90fa:	d300      	bcc.n	90fe <__divsi3+0x112>
    90fc:	4240      	negs	r0, r0
    90fe:	4053      	eors	r3, r2
    9100:	2200      	movs	r2, #0
    9102:	469c      	mov	ip, r3
    9104:	0903      	lsrs	r3, r0, #4
    9106:	428b      	cmp	r3, r1
    9108:	d32d      	bcc.n	9166 <__divsi3+0x17a>
    910a:	0a03      	lsrs	r3, r0, #8
    910c:	428b      	cmp	r3, r1
    910e:	d312      	bcc.n	9136 <__divsi3+0x14a>
    9110:	22fc      	movs	r2, #252	; 0xfc
    9112:	0189      	lsls	r1, r1, #6
    9114:	ba12      	rev	r2, r2
    9116:	0a03      	lsrs	r3, r0, #8
    9118:	428b      	cmp	r3, r1
    911a:	d30c      	bcc.n	9136 <__divsi3+0x14a>
    911c:	0189      	lsls	r1, r1, #6
    911e:	1192      	asrs	r2, r2, #6
    9120:	428b      	cmp	r3, r1
    9122:	d308      	bcc.n	9136 <__divsi3+0x14a>
    9124:	0189      	lsls	r1, r1, #6
    9126:	1192      	asrs	r2, r2, #6
    9128:	428b      	cmp	r3, r1
    912a:	d304      	bcc.n	9136 <__divsi3+0x14a>
    912c:	0189      	lsls	r1, r1, #6
    912e:	d03a      	beq.n	91a6 <__divsi3+0x1ba>
    9130:	1192      	asrs	r2, r2, #6
    9132:	e000      	b.n	9136 <__divsi3+0x14a>
    9134:	0989      	lsrs	r1, r1, #6
    9136:	09c3      	lsrs	r3, r0, #7
    9138:	428b      	cmp	r3, r1
    913a:	d301      	bcc.n	9140 <__divsi3+0x154>
    913c:	01cb      	lsls	r3, r1, #7
    913e:	1ac0      	subs	r0, r0, r3
    9140:	4152      	adcs	r2, r2
    9142:	0983      	lsrs	r3, r0, #6
    9144:	428b      	cmp	r3, r1
    9146:	d301      	bcc.n	914c <__divsi3+0x160>
    9148:	018b      	lsls	r3, r1, #6
    914a:	1ac0      	subs	r0, r0, r3
    914c:	4152      	adcs	r2, r2
    914e:	0943      	lsrs	r3, r0, #5
    9150:	428b      	cmp	r3, r1
    9152:	d301      	bcc.n	9158 <__divsi3+0x16c>
    9154:	014b      	lsls	r3, r1, #5
    9156:	1ac0      	subs	r0, r0, r3
    9158:	4152      	adcs	r2, r2
    915a:	0903      	lsrs	r3, r0, #4
    915c:	428b      	cmp	r3, r1
    915e:	d301      	bcc.n	9164 <__divsi3+0x178>
    9160:	010b      	lsls	r3, r1, #4
    9162:	1ac0      	subs	r0, r0, r3
    9164:	4152      	adcs	r2, r2
    9166:	08c3      	lsrs	r3, r0, #3
    9168:	428b      	cmp	r3, r1
    916a:	d301      	bcc.n	9170 <__divsi3+0x184>
    916c:	00cb      	lsls	r3, r1, #3
    916e:	1ac0      	subs	r0, r0, r3
    9170:	4152      	adcs	r2, r2
    9172:	0883      	lsrs	r3, r0, #2
    9174:	428b      	cmp	r3, r1
    9176:	d301      	bcc.n	917c <__divsi3+0x190>
    9178:	008b      	lsls	r3, r1, #2
    917a:	1ac0      	subs	r0, r0, r3
    917c:	4152      	adcs	r2, r2
    917e:	d2d9      	bcs.n	9134 <__divsi3+0x148>
    9180:	0843      	lsrs	r3, r0, #1
    9182:	428b      	cmp	r3, r1
    9184:	d301      	bcc.n	918a <__divsi3+0x19e>
    9186:	004b      	lsls	r3, r1, #1
    9188:	1ac0      	subs	r0, r0, r3
    918a:	4152      	adcs	r2, r2
    918c:	1a41      	subs	r1, r0, r1
    918e:	d200      	bcs.n	9192 <__divsi3+0x1a6>
    9190:	4601      	mov	r1, r0
    9192:	4663      	mov	r3, ip
    9194:	4152      	adcs	r2, r2
    9196:	105b      	asrs	r3, r3, #1
    9198:	4610      	mov	r0, r2
    919a:	d301      	bcc.n	91a0 <__divsi3+0x1b4>
    919c:	4240      	negs	r0, r0
    919e:	2b00      	cmp	r3, #0
    91a0:	d500      	bpl.n	91a4 <__divsi3+0x1b8>
    91a2:	4249      	negs	r1, r1
    91a4:	4770      	bx	lr
    91a6:	4663      	mov	r3, ip
    91a8:	105b      	asrs	r3, r3, #1
    91aa:	d300      	bcc.n	91ae <__divsi3+0x1c2>
    91ac:	4240      	negs	r0, r0
    91ae:	b501      	push	{r0, lr}
    91b0:	2000      	movs	r0, #0
    91b2:	f000 f805 	bl	91c0 <__aeabi_idiv0>
    91b6:	bd02      	pop	{r1, pc}

000091b8 <__aeabi_idivmod>:
    91b8:	2900      	cmp	r1, #0
    91ba:	d0f8      	beq.n	91ae <__divsi3+0x1c2>
    91bc:	e716      	b.n	8fec <__divsi3>
    91be:	4770      	bx	lr

000091c0 <__aeabi_idiv0>:
    91c0:	4770      	bx	lr
    91c2:	46c0      	nop			; (mov r8, r8)

000091c4 <__aeabi_cdrcmple>:
    91c4:	4684      	mov	ip, r0
    91c6:	0010      	movs	r0, r2
    91c8:	4662      	mov	r2, ip
    91ca:	468c      	mov	ip, r1
    91cc:	0019      	movs	r1, r3
    91ce:	4663      	mov	r3, ip
    91d0:	e000      	b.n	91d4 <__aeabi_cdcmpeq>
    91d2:	46c0      	nop			; (mov r8, r8)

000091d4 <__aeabi_cdcmpeq>:
    91d4:	b51f      	push	{r0, r1, r2, r3, r4, lr}
    91d6:	f001 fd15 	bl	ac04 <__ledf2>
    91da:	2800      	cmp	r0, #0
    91dc:	d401      	bmi.n	91e2 <__aeabi_cdcmpeq+0xe>
    91de:	2100      	movs	r1, #0
    91e0:	42c8      	cmn	r0, r1
    91e2:	bd1f      	pop	{r0, r1, r2, r3, r4, pc}

000091e4 <__aeabi_dcmpeq>:
    91e4:	b510      	push	{r4, lr}
    91e6:	f001 fc65 	bl	aab4 <__eqdf2>
    91ea:	4240      	negs	r0, r0
    91ec:	3001      	adds	r0, #1
    91ee:	bd10      	pop	{r4, pc}

000091f0 <__aeabi_dcmplt>:
    91f0:	b510      	push	{r4, lr}
    91f2:	f001 fd07 	bl	ac04 <__ledf2>
    91f6:	2800      	cmp	r0, #0
    91f8:	db01      	blt.n	91fe <__aeabi_dcmplt+0xe>
    91fa:	2000      	movs	r0, #0
    91fc:	bd10      	pop	{r4, pc}
    91fe:	2001      	movs	r0, #1
    9200:	bd10      	pop	{r4, pc}
    9202:	46c0      	nop			; (mov r8, r8)

00009204 <__aeabi_dcmple>:
    9204:	b510      	push	{r4, lr}
    9206:	f001 fcfd 	bl	ac04 <__ledf2>
    920a:	2800      	cmp	r0, #0
    920c:	dd01      	ble.n	9212 <__aeabi_dcmple+0xe>
    920e:	2000      	movs	r0, #0
    9210:	bd10      	pop	{r4, pc}
    9212:	2001      	movs	r0, #1
    9214:	bd10      	pop	{r4, pc}
    9216:	46c0      	nop			; (mov r8, r8)

00009218 <__aeabi_dcmpgt>:
    9218:	b510      	push	{r4, lr}
    921a:	f001 fc8d 	bl	ab38 <__gedf2>
    921e:	2800      	cmp	r0, #0
    9220:	dc01      	bgt.n	9226 <__aeabi_dcmpgt+0xe>
    9222:	2000      	movs	r0, #0
    9224:	bd10      	pop	{r4, pc}
    9226:	2001      	movs	r0, #1
    9228:	bd10      	pop	{r4, pc}
    922a:	46c0      	nop			; (mov r8, r8)

0000922c <__aeabi_dcmpge>:
    922c:	b510      	push	{r4, lr}
    922e:	f001 fc83 	bl	ab38 <__gedf2>
    9232:	2800      	cmp	r0, #0
    9234:	da01      	bge.n	923a <__aeabi_dcmpge+0xe>
    9236:	2000      	movs	r0, #0
    9238:	bd10      	pop	{r4, pc}
    923a:	2001      	movs	r0, #1
    923c:	bd10      	pop	{r4, pc}
    923e:	46c0      	nop			; (mov r8, r8)

00009240 <__aeabi_uldivmod>:
    9240:	2b00      	cmp	r3, #0
    9242:	d111      	bne.n	9268 <__aeabi_uldivmod+0x28>
    9244:	2a00      	cmp	r2, #0
    9246:	d10f      	bne.n	9268 <__aeabi_uldivmod+0x28>
    9248:	2900      	cmp	r1, #0
    924a:	d100      	bne.n	924e <__aeabi_uldivmod+0xe>
    924c:	2800      	cmp	r0, #0
    924e:	d002      	beq.n	9256 <__aeabi_uldivmod+0x16>
    9250:	2100      	movs	r1, #0
    9252:	43c9      	mvns	r1, r1
    9254:	0008      	movs	r0, r1
    9256:	b407      	push	{r0, r1, r2}
    9258:	4802      	ldr	r0, [pc, #8]	; (9264 <__aeabi_uldivmod+0x24>)
    925a:	a102      	add	r1, pc, #8	; (adr r1, 9264 <__aeabi_uldivmod+0x24>)
    925c:	1840      	adds	r0, r0, r1
    925e:	9002      	str	r0, [sp, #8]
    9260:	bd03      	pop	{r0, r1, pc}
    9262:	46c0      	nop			; (mov r8, r8)
    9264:	ffffff5d 	.word	0xffffff5d
    9268:	b403      	push	{r0, r1}
    926a:	4668      	mov	r0, sp
    926c:	b501      	push	{r0, lr}
    926e:	9802      	ldr	r0, [sp, #8]
    9270:	f000 f806 	bl	9280 <__udivmoddi4>
    9274:	9b01      	ldr	r3, [sp, #4]
    9276:	469e      	mov	lr, r3
    9278:	b002      	add	sp, #8
    927a:	bc0c      	pop	{r2, r3}
    927c:	4770      	bx	lr
    927e:	46c0      	nop			; (mov r8, r8)

00009280 <__udivmoddi4>:
    9280:	b5f0      	push	{r4, r5, r6, r7, lr}
    9282:	4657      	mov	r7, sl
    9284:	464e      	mov	r6, r9
    9286:	4645      	mov	r5, r8
    9288:	46de      	mov	lr, fp
    928a:	b5e0      	push	{r5, r6, r7, lr}
    928c:	0004      	movs	r4, r0
    928e:	000d      	movs	r5, r1
    9290:	4692      	mov	sl, r2
    9292:	4699      	mov	r9, r3
    9294:	b083      	sub	sp, #12
    9296:	428b      	cmp	r3, r1
    9298:	d830      	bhi.n	92fc <__udivmoddi4+0x7c>
    929a:	d02d      	beq.n	92f8 <__udivmoddi4+0x78>
    929c:	4649      	mov	r1, r9
    929e:	4650      	mov	r0, sl
    92a0:	f002 fcee 	bl	bc80 <__clzdi2>
    92a4:	0029      	movs	r1, r5
    92a6:	0006      	movs	r6, r0
    92a8:	0020      	movs	r0, r4
    92aa:	f002 fce9 	bl	bc80 <__clzdi2>
    92ae:	1a33      	subs	r3, r6, r0
    92b0:	4698      	mov	r8, r3
    92b2:	3b20      	subs	r3, #32
    92b4:	d434      	bmi.n	9320 <__udivmoddi4+0xa0>
    92b6:	469b      	mov	fp, r3
    92b8:	4653      	mov	r3, sl
    92ba:	465a      	mov	r2, fp
    92bc:	4093      	lsls	r3, r2
    92be:	4642      	mov	r2, r8
    92c0:	001f      	movs	r7, r3
    92c2:	4653      	mov	r3, sl
    92c4:	4093      	lsls	r3, r2
    92c6:	001e      	movs	r6, r3
    92c8:	42af      	cmp	r7, r5
    92ca:	d83b      	bhi.n	9344 <__udivmoddi4+0xc4>
    92cc:	42af      	cmp	r7, r5
    92ce:	d100      	bne.n	92d2 <__udivmoddi4+0x52>
    92d0:	e079      	b.n	93c6 <__udivmoddi4+0x146>
    92d2:	465b      	mov	r3, fp
    92d4:	1ba4      	subs	r4, r4, r6
    92d6:	41bd      	sbcs	r5, r7
    92d8:	2b00      	cmp	r3, #0
    92da:	da00      	bge.n	92de <__udivmoddi4+0x5e>
    92dc:	e076      	b.n	93cc <__udivmoddi4+0x14c>
    92de:	2200      	movs	r2, #0
    92e0:	2300      	movs	r3, #0
    92e2:	9200      	str	r2, [sp, #0]
    92e4:	9301      	str	r3, [sp, #4]
    92e6:	2301      	movs	r3, #1
    92e8:	465a      	mov	r2, fp
    92ea:	4093      	lsls	r3, r2
    92ec:	9301      	str	r3, [sp, #4]
    92ee:	2301      	movs	r3, #1
    92f0:	4642      	mov	r2, r8
    92f2:	4093      	lsls	r3, r2
    92f4:	9300      	str	r3, [sp, #0]
    92f6:	e029      	b.n	934c <__udivmoddi4+0xcc>
    92f8:	4282      	cmp	r2, r0
    92fa:	d9cf      	bls.n	929c <__udivmoddi4+0x1c>
    92fc:	2200      	movs	r2, #0
    92fe:	2300      	movs	r3, #0
    9300:	9200      	str	r2, [sp, #0]
    9302:	9301      	str	r3, [sp, #4]
    9304:	9b0c      	ldr	r3, [sp, #48]	; 0x30
    9306:	2b00      	cmp	r3, #0
    9308:	d001      	beq.n	930e <__udivmoddi4+0x8e>
    930a:	601c      	str	r4, [r3, #0]
    930c:	605d      	str	r5, [r3, #4]
    930e:	9800      	ldr	r0, [sp, #0]
    9310:	9901      	ldr	r1, [sp, #4]
    9312:	b003      	add	sp, #12
    9314:	bcf0      	pop	{r4, r5, r6, r7}
    9316:	46bb      	mov	fp, r7
    9318:	46b2      	mov	sl, r6
    931a:	46a9      	mov	r9, r5
    931c:	46a0      	mov	r8, r4
    931e:	bdf0      	pop	{r4, r5, r6, r7, pc}
    9320:	4642      	mov	r2, r8
    9322:	469b      	mov	fp, r3
    9324:	2320      	movs	r3, #32
    9326:	1a9b      	subs	r3, r3, r2
    9328:	4652      	mov	r2, sl
    932a:	40da      	lsrs	r2, r3
    932c:	4641      	mov	r1, r8
    932e:	0013      	movs	r3, r2
    9330:	464a      	mov	r2, r9
    9332:	408a      	lsls	r2, r1
    9334:	0017      	movs	r7, r2
    9336:	4642      	mov	r2, r8
    9338:	431f      	orrs	r7, r3
    933a:	4653      	mov	r3, sl
    933c:	4093      	lsls	r3, r2
    933e:	001e      	movs	r6, r3
    9340:	42af      	cmp	r7, r5
    9342:	d9c3      	bls.n	92cc <__udivmoddi4+0x4c>
    9344:	2200      	movs	r2, #0
    9346:	2300      	movs	r3, #0
    9348:	9200      	str	r2, [sp, #0]
    934a:	9301      	str	r3, [sp, #4]
    934c:	4643      	mov	r3, r8
    934e:	2b00      	cmp	r3, #0
    9350:	d0d8      	beq.n	9304 <__udivmoddi4+0x84>
    9352:	07fb      	lsls	r3, r7, #31
    9354:	0872      	lsrs	r2, r6, #1
    9356:	431a      	orrs	r2, r3
    9358:	4646      	mov	r6, r8
    935a:	087b      	lsrs	r3, r7, #1
    935c:	e00e      	b.n	937c <__udivmoddi4+0xfc>
    935e:	42ab      	cmp	r3, r5
    9360:	d101      	bne.n	9366 <__udivmoddi4+0xe6>
    9362:	42a2      	cmp	r2, r4
    9364:	d80c      	bhi.n	9380 <__udivmoddi4+0x100>
    9366:	1aa4      	subs	r4, r4, r2
    9368:	419d      	sbcs	r5, r3
    936a:	2001      	movs	r0, #1
    936c:	1924      	adds	r4, r4, r4
    936e:	416d      	adcs	r5, r5
    9370:	2100      	movs	r1, #0
    9372:	3e01      	subs	r6, #1
    9374:	1824      	adds	r4, r4, r0
    9376:	414d      	adcs	r5, r1
    9378:	2e00      	cmp	r6, #0
    937a:	d006      	beq.n	938a <__udivmoddi4+0x10a>
    937c:	42ab      	cmp	r3, r5
    937e:	d9ee      	bls.n	935e <__udivmoddi4+0xde>
    9380:	3e01      	subs	r6, #1
    9382:	1924      	adds	r4, r4, r4
    9384:	416d      	adcs	r5, r5
    9386:	2e00      	cmp	r6, #0
    9388:	d1f8      	bne.n	937c <__udivmoddi4+0xfc>
    938a:	9800      	ldr	r0, [sp, #0]
    938c:	9901      	ldr	r1, [sp, #4]
    938e:	465b      	mov	r3, fp
    9390:	1900      	adds	r0, r0, r4
    9392:	4169      	adcs	r1, r5
    9394:	2b00      	cmp	r3, #0
    9396:	db24      	blt.n	93e2 <__udivmoddi4+0x162>
    9398:	002b      	movs	r3, r5
    939a:	465a      	mov	r2, fp
    939c:	4644      	mov	r4, r8
    939e:	40d3      	lsrs	r3, r2
    93a0:	002a      	movs	r2, r5
    93a2:	40e2      	lsrs	r2, r4
    93a4:	001c      	movs	r4, r3
    93a6:	465b      	mov	r3, fp
    93a8:	0015      	movs	r5, r2
    93aa:	2b00      	cmp	r3, #0
    93ac:	db2a      	blt.n	9404 <__udivmoddi4+0x184>
    93ae:	0026      	movs	r6, r4
    93b0:	409e      	lsls	r6, r3
    93b2:	0033      	movs	r3, r6
    93b4:	0026      	movs	r6, r4
    93b6:	4647      	mov	r7, r8
    93b8:	40be      	lsls	r6, r7
    93ba:	0032      	movs	r2, r6
    93bc:	1a80      	subs	r0, r0, r2
    93be:	4199      	sbcs	r1, r3
    93c0:	9000      	str	r0, [sp, #0]
    93c2:	9101      	str	r1, [sp, #4]
    93c4:	e79e      	b.n	9304 <__udivmoddi4+0x84>
    93c6:	42a3      	cmp	r3, r4
    93c8:	d8bc      	bhi.n	9344 <__udivmoddi4+0xc4>
    93ca:	e782      	b.n	92d2 <__udivmoddi4+0x52>
    93cc:	4642      	mov	r2, r8
    93ce:	2320      	movs	r3, #32
    93d0:	2100      	movs	r1, #0
    93d2:	1a9b      	subs	r3, r3, r2
    93d4:	2200      	movs	r2, #0
    93d6:	9100      	str	r1, [sp, #0]
    93d8:	9201      	str	r2, [sp, #4]
    93da:	2201      	movs	r2, #1
    93dc:	40da      	lsrs	r2, r3
    93de:	9201      	str	r2, [sp, #4]
    93e0:	e785      	b.n	92ee <__udivmoddi4+0x6e>
    93e2:	4642      	mov	r2, r8
    93e4:	2320      	movs	r3, #32
    93e6:	1a9b      	subs	r3, r3, r2
    93e8:	002a      	movs	r2, r5
    93ea:	4646      	mov	r6, r8
    93ec:	409a      	lsls	r2, r3
    93ee:	0023      	movs	r3, r4
    93f0:	40f3      	lsrs	r3, r6
    93f2:	4644      	mov	r4, r8
    93f4:	4313      	orrs	r3, r2
    93f6:	002a      	movs	r2, r5
    93f8:	40e2      	lsrs	r2, r4
    93fa:	001c      	movs	r4, r3
    93fc:	465b      	mov	r3, fp
    93fe:	0015      	movs	r5, r2
    9400:	2b00      	cmp	r3, #0
    9402:	dad4      	bge.n	93ae <__udivmoddi4+0x12e>
    9404:	4642      	mov	r2, r8
    9406:	002f      	movs	r7, r5
    9408:	2320      	movs	r3, #32
    940a:	0026      	movs	r6, r4
    940c:	4097      	lsls	r7, r2
    940e:	1a9b      	subs	r3, r3, r2
    9410:	40de      	lsrs	r6, r3
    9412:	003b      	movs	r3, r7
    9414:	4333      	orrs	r3, r6
    9416:	e7cd      	b.n	93b4 <__udivmoddi4+0x134>

00009418 <__aeabi_fadd>:
    9418:	b5f8      	push	{r3, r4, r5, r6, r7, lr}
    941a:	4647      	mov	r7, r8
    941c:	46ce      	mov	lr, r9
    941e:	024a      	lsls	r2, r1, #9
    9420:	0243      	lsls	r3, r0, #9
    9422:	0045      	lsls	r5, r0, #1
    9424:	0fc4      	lsrs	r4, r0, #31
    9426:	0a50      	lsrs	r0, r2, #9
    9428:	4680      	mov	r8, r0
    942a:	0048      	lsls	r0, r1, #1
    942c:	0a5b      	lsrs	r3, r3, #9
    942e:	0e00      	lsrs	r0, r0, #24
    9430:	0992      	lsrs	r2, r2, #6
    9432:	4694      	mov	ip, r2
    9434:	b580      	push	{r7, lr}
    9436:	001e      	movs	r6, r3
    9438:	4681      	mov	r9, r0
    943a:	0002      	movs	r2, r0
    943c:	0e2d      	lsrs	r5, r5, #24
    943e:	00df      	lsls	r7, r3, #3
    9440:	0fc9      	lsrs	r1, r1, #31
    9442:	428c      	cmp	r4, r1
    9444:	d024      	beq.n	9490 <__aeabi_fadd+0x78>
    9446:	1a28      	subs	r0, r5, r0
    9448:	2800      	cmp	r0, #0
    944a:	dd0e      	ble.n	946a <__aeabi_fadd+0x52>
    944c:	2a00      	cmp	r2, #0
    944e:	d13e      	bne.n	94ce <__aeabi_fadd+0xb6>
    9450:	4662      	mov	r2, ip
    9452:	2a00      	cmp	r2, #0
    9454:	d100      	bne.n	9458 <__aeabi_fadd+0x40>
    9456:	e0fd      	b.n	9654 <__aeabi_fadd+0x23c>
    9458:	1e42      	subs	r2, r0, #1
    945a:	2801      	cmp	r0, #1
    945c:	d100      	bne.n	9460 <__aeabi_fadd+0x48>
    945e:	e137      	b.n	96d0 <__aeabi_fadd+0x2b8>
    9460:	28ff      	cmp	r0, #255	; 0xff
    9462:	d100      	bne.n	9466 <__aeabi_fadd+0x4e>
    9464:	e0a9      	b.n	95ba <__aeabi_fadd+0x1a2>
    9466:	0010      	movs	r0, r2
    9468:	e039      	b.n	94de <__aeabi_fadd+0xc6>
    946a:	2800      	cmp	r0, #0
    946c:	d063      	beq.n	9536 <__aeabi_fadd+0x11e>
    946e:	464b      	mov	r3, r9
    9470:	1b52      	subs	r2, r2, r5
    9472:	2d00      	cmp	r5, #0
    9474:	d000      	beq.n	9478 <__aeabi_fadd+0x60>
    9476:	e0e0      	b.n	963a <__aeabi_fadd+0x222>
    9478:	2f00      	cmp	r7, #0
    947a:	d100      	bne.n	947e <__aeabi_fadd+0x66>
    947c:	e0ce      	b.n	961c <__aeabi_fadd+0x204>
    947e:	1e53      	subs	r3, r2, #1
    9480:	2a01      	cmp	r2, #1
    9482:	d100      	bne.n	9486 <__aeabi_fadd+0x6e>
    9484:	e155      	b.n	9732 <__aeabi_fadd+0x31a>
    9486:	2aff      	cmp	r2, #255	; 0xff
    9488:	d100      	bne.n	948c <__aeabi_fadd+0x74>
    948a:	e094      	b.n	95b6 <__aeabi_fadd+0x19e>
    948c:	001a      	movs	r2, r3
    948e:	e0d9      	b.n	9644 <__aeabi_fadd+0x22c>
    9490:	1a2a      	subs	r2, r5, r0
    9492:	2a00      	cmp	r2, #0
    9494:	dc00      	bgt.n	9498 <__aeabi_fadd+0x80>
    9496:	e099      	b.n	95cc <__aeabi_fadd+0x1b4>
    9498:	2800      	cmp	r0, #0
    949a:	d062      	beq.n	9562 <__aeabi_fadd+0x14a>
    949c:	2dff      	cmp	r5, #255	; 0xff
    949e:	d100      	bne.n	94a2 <__aeabi_fadd+0x8a>
    94a0:	e08b      	b.n	95ba <__aeabi_fadd+0x1a2>
    94a2:	2380      	movs	r3, #128	; 0x80
    94a4:	4661      	mov	r1, ip
    94a6:	04db      	lsls	r3, r3, #19
    94a8:	4319      	orrs	r1, r3
    94aa:	468c      	mov	ip, r1
    94ac:	2a1b      	cmp	r2, #27
    94ae:	dc00      	bgt.n	94b2 <__aeabi_fadd+0x9a>
    94b0:	e0d2      	b.n	9658 <__aeabi_fadd+0x240>
    94b2:	2301      	movs	r3, #1
    94b4:	19db      	adds	r3, r3, r7
    94b6:	015a      	lsls	r2, r3, #5
    94b8:	d56a      	bpl.n	9590 <__aeabi_fadd+0x178>
    94ba:	3501      	adds	r5, #1
    94bc:	2dff      	cmp	r5, #255	; 0xff
    94be:	d05b      	beq.n	9578 <__aeabi_fadd+0x160>
    94c0:	2201      	movs	r2, #1
    94c2:	49a3      	ldr	r1, [pc, #652]	; (9750 <__aeabi_fadd+0x338>)
    94c4:	401a      	ands	r2, r3
    94c6:	085b      	lsrs	r3, r3, #1
    94c8:	400b      	ands	r3, r1
    94ca:	4313      	orrs	r3, r2
    94cc:	e01c      	b.n	9508 <__aeabi_fadd+0xf0>
    94ce:	2dff      	cmp	r5, #255	; 0xff
    94d0:	d100      	bne.n	94d4 <__aeabi_fadd+0xbc>
    94d2:	e072      	b.n	95ba <__aeabi_fadd+0x1a2>
    94d4:	2380      	movs	r3, #128	; 0x80
    94d6:	4662      	mov	r2, ip
    94d8:	04db      	lsls	r3, r3, #19
    94da:	431a      	orrs	r2, r3
    94dc:	4694      	mov	ip, r2
    94de:	281b      	cmp	r0, #27
    94e0:	dc00      	bgt.n	94e4 <__aeabi_fadd+0xcc>
    94e2:	e090      	b.n	9606 <__aeabi_fadd+0x1ee>
    94e4:	2301      	movs	r3, #1
    94e6:	1afb      	subs	r3, r7, r3
    94e8:	015a      	lsls	r2, r3, #5
    94ea:	d551      	bpl.n	9590 <__aeabi_fadd+0x178>
    94ec:	019b      	lsls	r3, r3, #6
    94ee:	099e      	lsrs	r6, r3, #6
    94f0:	0030      	movs	r0, r6
    94f2:	f002 fba7 	bl	bc44 <__clzsi2>
    94f6:	0033      	movs	r3, r6
    94f8:	3805      	subs	r0, #5
    94fa:	4083      	lsls	r3, r0
    94fc:	4285      	cmp	r5, r0
    94fe:	dc00      	bgt.n	9502 <__aeabi_fadd+0xea>
    9500:	e075      	b.n	95ee <__aeabi_fadd+0x1d6>
    9502:	4a94      	ldr	r2, [pc, #592]	; (9754 <__aeabi_fadd+0x33c>)
    9504:	1a2d      	subs	r5, r5, r0
    9506:	4013      	ands	r3, r2
    9508:	075a      	lsls	r2, r3, #29
    950a:	d004      	beq.n	9516 <__aeabi_fadd+0xfe>
    950c:	220f      	movs	r2, #15
    950e:	401a      	ands	r2, r3
    9510:	2a04      	cmp	r2, #4
    9512:	d000      	beq.n	9516 <__aeabi_fadd+0xfe>
    9514:	3304      	adds	r3, #4
    9516:	015a      	lsls	r2, r3, #5
    9518:	d53c      	bpl.n	9594 <__aeabi_fadd+0x17c>
    951a:	1c68      	adds	r0, r5, #1
    951c:	2dfe      	cmp	r5, #254	; 0xfe
    951e:	d02b      	beq.n	9578 <__aeabi_fadd+0x160>
    9520:	019b      	lsls	r3, r3, #6
    9522:	0a5e      	lsrs	r6, r3, #9
    9524:	b2c0      	uxtb	r0, r0
    9526:	05c0      	lsls	r0, r0, #23
    9528:	4330      	orrs	r0, r6
    952a:	07e4      	lsls	r4, r4, #31
    952c:	4320      	orrs	r0, r4
    952e:	bcc0      	pop	{r6, r7}
    9530:	46b9      	mov	r9, r7
    9532:	46b0      	mov	r8, r6
    9534:	bdf8      	pop	{r3, r4, r5, r6, r7, pc}
    9536:	20fe      	movs	r0, #254	; 0xfe
    9538:	1c6a      	adds	r2, r5, #1
    953a:	4210      	tst	r0, r2
    953c:	d172      	bne.n	9624 <__aeabi_fadd+0x20c>
    953e:	2d00      	cmp	r5, #0
    9540:	d000      	beq.n	9544 <__aeabi_fadd+0x12c>
    9542:	e0ae      	b.n	96a2 <__aeabi_fadd+0x28a>
    9544:	2f00      	cmp	r7, #0
    9546:	d100      	bne.n	954a <__aeabi_fadd+0x132>
    9548:	e0ec      	b.n	9724 <__aeabi_fadd+0x30c>
    954a:	4663      	mov	r3, ip
    954c:	2000      	movs	r0, #0
    954e:	2b00      	cmp	r3, #0
    9550:	d0e9      	beq.n	9526 <__aeabi_fadd+0x10e>
    9552:	1afb      	subs	r3, r7, r3
    9554:	015a      	lsls	r2, r3, #5
    9556:	d400      	bmi.n	955a <__aeabi_fadd+0x142>
    9558:	e0f3      	b.n	9742 <__aeabi_fadd+0x32a>
    955a:	4663      	mov	r3, ip
    955c:	000c      	movs	r4, r1
    955e:	1bdb      	subs	r3, r3, r7
    9560:	e7d2      	b.n	9508 <__aeabi_fadd+0xf0>
    9562:	4661      	mov	r1, ip
    9564:	2900      	cmp	r1, #0
    9566:	d05b      	beq.n	9620 <__aeabi_fadd+0x208>
    9568:	1e51      	subs	r1, r2, #1
    956a:	2a01      	cmp	r2, #1
    956c:	d100      	bne.n	9570 <__aeabi_fadd+0x158>
    956e:	e0a7      	b.n	96c0 <__aeabi_fadd+0x2a8>
    9570:	2aff      	cmp	r2, #255	; 0xff
    9572:	d022      	beq.n	95ba <__aeabi_fadd+0x1a2>
    9574:	000a      	movs	r2, r1
    9576:	e799      	b.n	94ac <__aeabi_fadd+0x94>
    9578:	20ff      	movs	r0, #255	; 0xff
    957a:	2600      	movs	r6, #0
    957c:	e7d3      	b.n	9526 <__aeabi_fadd+0x10e>
    957e:	21fe      	movs	r1, #254	; 0xfe
    9580:	1c6a      	adds	r2, r5, #1
    9582:	4211      	tst	r1, r2
    9584:	d073      	beq.n	966e <__aeabi_fadd+0x256>
    9586:	2aff      	cmp	r2, #255	; 0xff
    9588:	d0f6      	beq.n	9578 <__aeabi_fadd+0x160>
    958a:	0015      	movs	r5, r2
    958c:	4467      	add	r7, ip
    958e:	087b      	lsrs	r3, r7, #1
    9590:	075a      	lsls	r2, r3, #29
    9592:	d1bb      	bne.n	950c <__aeabi_fadd+0xf4>
    9594:	08db      	lsrs	r3, r3, #3
    9596:	2dff      	cmp	r5, #255	; 0xff
    9598:	d00f      	beq.n	95ba <__aeabi_fadd+0x1a2>
    959a:	025b      	lsls	r3, r3, #9
    959c:	0a5e      	lsrs	r6, r3, #9
    959e:	b2e8      	uxtb	r0, r5
    95a0:	e7c1      	b.n	9526 <__aeabi_fadd+0x10e>
    95a2:	4662      	mov	r2, ip
    95a4:	2a00      	cmp	r2, #0
    95a6:	d008      	beq.n	95ba <__aeabi_fadd+0x1a2>
    95a8:	2280      	movs	r2, #128	; 0x80
    95aa:	03d2      	lsls	r2, r2, #15
    95ac:	4213      	tst	r3, r2
    95ae:	d004      	beq.n	95ba <__aeabi_fadd+0x1a2>
    95b0:	4640      	mov	r0, r8
    95b2:	4210      	tst	r0, r2
    95b4:	d101      	bne.n	95ba <__aeabi_fadd+0x1a2>
    95b6:	000c      	movs	r4, r1
    95b8:	4643      	mov	r3, r8
    95ba:	2b00      	cmp	r3, #0
    95bc:	d0dc      	beq.n	9578 <__aeabi_fadd+0x160>
    95be:	2680      	movs	r6, #128	; 0x80
    95c0:	03f6      	lsls	r6, r6, #15
    95c2:	431e      	orrs	r6, r3
    95c4:	0276      	lsls	r6, r6, #9
    95c6:	20ff      	movs	r0, #255	; 0xff
    95c8:	0a76      	lsrs	r6, r6, #9
    95ca:	e7ac      	b.n	9526 <__aeabi_fadd+0x10e>
    95cc:	2a00      	cmp	r2, #0
    95ce:	d0d6      	beq.n	957e <__aeabi_fadd+0x166>
    95d0:	1b42      	subs	r2, r0, r5
    95d2:	2d00      	cmp	r5, #0
    95d4:	d05c      	beq.n	9690 <__aeabi_fadd+0x278>
    95d6:	28ff      	cmp	r0, #255	; 0xff
    95d8:	d0ee      	beq.n	95b8 <__aeabi_fadd+0x1a0>
    95da:	2380      	movs	r3, #128	; 0x80
    95dc:	04db      	lsls	r3, r3, #19
    95de:	431f      	orrs	r7, r3
    95e0:	2a1b      	cmp	r2, #27
    95e2:	dc00      	bgt.n	95e6 <__aeabi_fadd+0x1ce>
    95e4:	e082      	b.n	96ec <__aeabi_fadd+0x2d4>
    95e6:	2301      	movs	r3, #1
    95e8:	464d      	mov	r5, r9
    95ea:	4463      	add	r3, ip
    95ec:	e763      	b.n	94b6 <__aeabi_fadd+0x9e>
    95ee:	2220      	movs	r2, #32
    95f0:	1b40      	subs	r0, r0, r5
    95f2:	3001      	adds	r0, #1
    95f4:	1a12      	subs	r2, r2, r0
    95f6:	0019      	movs	r1, r3
    95f8:	4093      	lsls	r3, r2
    95fa:	40c1      	lsrs	r1, r0
    95fc:	1e5a      	subs	r2, r3, #1
    95fe:	4193      	sbcs	r3, r2
    9600:	2500      	movs	r5, #0
    9602:	430b      	orrs	r3, r1
    9604:	e780      	b.n	9508 <__aeabi_fadd+0xf0>
    9606:	2320      	movs	r3, #32
    9608:	4661      	mov	r1, ip
    960a:	1a1b      	subs	r3, r3, r0
    960c:	4099      	lsls	r1, r3
    960e:	4662      	mov	r2, ip
    9610:	000b      	movs	r3, r1
    9612:	40c2      	lsrs	r2, r0
    9614:	1e59      	subs	r1, r3, #1
    9616:	418b      	sbcs	r3, r1
    9618:	4313      	orrs	r3, r2
    961a:	e764      	b.n	94e6 <__aeabi_fadd+0xce>
    961c:	000c      	movs	r4, r1
    961e:	4643      	mov	r3, r8
    9620:	0015      	movs	r5, r2
    9622:	e7b8      	b.n	9596 <__aeabi_fadd+0x17e>
    9624:	4663      	mov	r3, ip
    9626:	1afe      	subs	r6, r7, r3
    9628:	0173      	lsls	r3, r6, #5
    962a:	d445      	bmi.n	96b8 <__aeabi_fadd+0x2a0>
    962c:	2e00      	cmp	r6, #0
    962e:	d000      	beq.n	9632 <__aeabi_fadd+0x21a>
    9630:	e75e      	b.n	94f0 <__aeabi_fadd+0xd8>
    9632:	2400      	movs	r4, #0
    9634:	2000      	movs	r0, #0
    9636:	2600      	movs	r6, #0
    9638:	e775      	b.n	9526 <__aeabi_fadd+0x10e>
    963a:	2bff      	cmp	r3, #255	; 0xff
    963c:	d0bb      	beq.n	95b6 <__aeabi_fadd+0x19e>
    963e:	2380      	movs	r3, #128	; 0x80
    9640:	04db      	lsls	r3, r3, #19
    9642:	431f      	orrs	r7, r3
    9644:	2a1b      	cmp	r2, #27
    9646:	dd47      	ble.n	96d8 <__aeabi_fadd+0x2c0>
    9648:	2301      	movs	r3, #1
    964a:	4662      	mov	r2, ip
    964c:	000c      	movs	r4, r1
    964e:	464d      	mov	r5, r9
    9650:	1ad3      	subs	r3, r2, r3
    9652:	e749      	b.n	94e8 <__aeabi_fadd+0xd0>
    9654:	0005      	movs	r5, r0
    9656:	e79e      	b.n	9596 <__aeabi_fadd+0x17e>
    9658:	4661      	mov	r1, ip
    965a:	2320      	movs	r3, #32
    965c:	40d1      	lsrs	r1, r2
    965e:	1a9b      	subs	r3, r3, r2
    9660:	4662      	mov	r2, ip
    9662:	409a      	lsls	r2, r3
    9664:	0013      	movs	r3, r2
    9666:	1e5a      	subs	r2, r3, #1
    9668:	4193      	sbcs	r3, r2
    966a:	430b      	orrs	r3, r1
    966c:	e722      	b.n	94b4 <__aeabi_fadd+0x9c>
    966e:	2d00      	cmp	r5, #0
    9670:	d146      	bne.n	9700 <__aeabi_fadd+0x2e8>
    9672:	2f00      	cmp	r7, #0
    9674:	d062      	beq.n	973c <__aeabi_fadd+0x324>
    9676:	4663      	mov	r3, ip
    9678:	2000      	movs	r0, #0
    967a:	2b00      	cmp	r3, #0
    967c:	d100      	bne.n	9680 <__aeabi_fadd+0x268>
    967e:	e752      	b.n	9526 <__aeabi_fadd+0x10e>
    9680:	003b      	movs	r3, r7
    9682:	4463      	add	r3, ip
    9684:	015a      	lsls	r2, r3, #5
    9686:	d583      	bpl.n	9590 <__aeabi_fadd+0x178>
    9688:	4a32      	ldr	r2, [pc, #200]	; (9754 <__aeabi_fadd+0x33c>)
    968a:	3501      	adds	r5, #1
    968c:	4013      	ands	r3, r2
    968e:	e77f      	b.n	9590 <__aeabi_fadd+0x178>
    9690:	2f00      	cmp	r7, #0
    9692:	d0c4      	beq.n	961e <__aeabi_fadd+0x206>
    9694:	1e53      	subs	r3, r2, #1
    9696:	2a01      	cmp	r2, #1
    9698:	d012      	beq.n	96c0 <__aeabi_fadd+0x2a8>
    969a:	2aff      	cmp	r2, #255	; 0xff
    969c:	d08c      	beq.n	95b8 <__aeabi_fadd+0x1a0>
    969e:	001a      	movs	r2, r3
    96a0:	e79e      	b.n	95e0 <__aeabi_fadd+0x1c8>
    96a2:	2f00      	cmp	r7, #0
    96a4:	d000      	beq.n	96a8 <__aeabi_fadd+0x290>
    96a6:	e77c      	b.n	95a2 <__aeabi_fadd+0x18a>
    96a8:	4663      	mov	r3, ip
    96aa:	2b00      	cmp	r3, #0
    96ac:	d183      	bne.n	95b6 <__aeabi_fadd+0x19e>
    96ae:	2680      	movs	r6, #128	; 0x80
    96b0:	2400      	movs	r4, #0
    96b2:	20ff      	movs	r0, #255	; 0xff
    96b4:	03f6      	lsls	r6, r6, #15
    96b6:	e736      	b.n	9526 <__aeabi_fadd+0x10e>
    96b8:	4663      	mov	r3, ip
    96ba:	000c      	movs	r4, r1
    96bc:	1bde      	subs	r6, r3, r7
    96be:	e717      	b.n	94f0 <__aeabi_fadd+0xd8>
    96c0:	003b      	movs	r3, r7
    96c2:	4463      	add	r3, ip
    96c4:	2501      	movs	r5, #1
    96c6:	015a      	lsls	r2, r3, #5
    96c8:	d400      	bmi.n	96cc <__aeabi_fadd+0x2b4>
    96ca:	e761      	b.n	9590 <__aeabi_fadd+0x178>
    96cc:	2502      	movs	r5, #2
    96ce:	e6f7      	b.n	94c0 <__aeabi_fadd+0xa8>
    96d0:	4663      	mov	r3, ip
    96d2:	2501      	movs	r5, #1
    96d4:	1afb      	subs	r3, r7, r3
    96d6:	e707      	b.n	94e8 <__aeabi_fadd+0xd0>
    96d8:	2320      	movs	r3, #32
    96da:	1a9b      	subs	r3, r3, r2
    96dc:	0038      	movs	r0, r7
    96de:	409f      	lsls	r7, r3
    96e0:	003b      	movs	r3, r7
    96e2:	40d0      	lsrs	r0, r2
    96e4:	1e5a      	subs	r2, r3, #1
    96e6:	4193      	sbcs	r3, r2
    96e8:	4303      	orrs	r3, r0
    96ea:	e7ae      	b.n	964a <__aeabi_fadd+0x232>
    96ec:	2320      	movs	r3, #32
    96ee:	1a9b      	subs	r3, r3, r2
    96f0:	0039      	movs	r1, r7
    96f2:	409f      	lsls	r7, r3
    96f4:	003b      	movs	r3, r7
    96f6:	40d1      	lsrs	r1, r2
    96f8:	1e5a      	subs	r2, r3, #1
    96fa:	4193      	sbcs	r3, r2
    96fc:	430b      	orrs	r3, r1
    96fe:	e773      	b.n	95e8 <__aeabi_fadd+0x1d0>
    9700:	2f00      	cmp	r7, #0
    9702:	d100      	bne.n	9706 <__aeabi_fadd+0x2ee>
    9704:	e758      	b.n	95b8 <__aeabi_fadd+0x1a0>
    9706:	4662      	mov	r2, ip
    9708:	2a00      	cmp	r2, #0
    970a:	d100      	bne.n	970e <__aeabi_fadd+0x2f6>
    970c:	e755      	b.n	95ba <__aeabi_fadd+0x1a2>
    970e:	2280      	movs	r2, #128	; 0x80
    9710:	03d2      	lsls	r2, r2, #15
    9712:	4213      	tst	r3, r2
    9714:	d100      	bne.n	9718 <__aeabi_fadd+0x300>
    9716:	e750      	b.n	95ba <__aeabi_fadd+0x1a2>
    9718:	4641      	mov	r1, r8
    971a:	4211      	tst	r1, r2
    971c:	d000      	beq.n	9720 <__aeabi_fadd+0x308>
    971e:	e74c      	b.n	95ba <__aeabi_fadd+0x1a2>
    9720:	4643      	mov	r3, r8
    9722:	e74a      	b.n	95ba <__aeabi_fadd+0x1a2>
    9724:	4663      	mov	r3, ip
    9726:	2b00      	cmp	r3, #0
    9728:	d083      	beq.n	9632 <__aeabi_fadd+0x21a>
    972a:	000c      	movs	r4, r1
    972c:	4646      	mov	r6, r8
    972e:	2000      	movs	r0, #0
    9730:	e6f9      	b.n	9526 <__aeabi_fadd+0x10e>
    9732:	4663      	mov	r3, ip
    9734:	000c      	movs	r4, r1
    9736:	1bdb      	subs	r3, r3, r7
    9738:	3501      	adds	r5, #1
    973a:	e6d5      	b.n	94e8 <__aeabi_fadd+0xd0>
    973c:	4646      	mov	r6, r8
    973e:	2000      	movs	r0, #0
    9740:	e6f1      	b.n	9526 <__aeabi_fadd+0x10e>
    9742:	2b00      	cmp	r3, #0
    9744:	d000      	beq.n	9748 <__aeabi_fadd+0x330>
    9746:	e723      	b.n	9590 <__aeabi_fadd+0x178>
    9748:	2400      	movs	r4, #0
    974a:	2600      	movs	r6, #0
    974c:	e6eb      	b.n	9526 <__aeabi_fadd+0x10e>
    974e:	46c0      	nop			; (mov r8, r8)
    9750:	7dffffff 	.word	0x7dffffff
    9754:	fbffffff 	.word	0xfbffffff

00009758 <__aeabi_fmul>:
    9758:	0243      	lsls	r3, r0, #9
    975a:	0a5b      	lsrs	r3, r3, #9
    975c:	b5f0      	push	{r4, r5, r6, r7, lr}
    975e:	464f      	mov	r7, r9
    9760:	4646      	mov	r6, r8
    9762:	4699      	mov	r9, r3
    9764:	46d6      	mov	lr, sl
    9766:	0fc3      	lsrs	r3, r0, #31
    9768:	0045      	lsls	r5, r0, #1
    976a:	4698      	mov	r8, r3
    976c:	b5c0      	push	{r6, r7, lr}
    976e:	464b      	mov	r3, r9
    9770:	1c0f      	adds	r7, r1, #0
    9772:	0e2d      	lsrs	r5, r5, #24
    9774:	d100      	bne.n	9778 <__aeabi_fmul+0x20>
    9776:	e0cb      	b.n	9910 <__aeabi_fmul+0x1b8>
    9778:	2dff      	cmp	r5, #255	; 0xff
    977a:	d100      	bne.n	977e <__aeabi_fmul+0x26>
    977c:	e0cf      	b.n	991e <__aeabi_fmul+0x1c6>
    977e:	2280      	movs	r2, #128	; 0x80
    9780:	00db      	lsls	r3, r3, #3
    9782:	04d2      	lsls	r2, r2, #19
    9784:	431a      	orrs	r2, r3
    9786:	2300      	movs	r3, #0
    9788:	4691      	mov	r9, r2
    978a:	2600      	movs	r6, #0
    978c:	469a      	mov	sl, r3
    978e:	3d7f      	subs	r5, #127	; 0x7f
    9790:	027c      	lsls	r4, r7, #9
    9792:	007b      	lsls	r3, r7, #1
    9794:	0a64      	lsrs	r4, r4, #9
    9796:	0e1b      	lsrs	r3, r3, #24
    9798:	0fff      	lsrs	r7, r7, #31
    979a:	2b00      	cmp	r3, #0
    979c:	d100      	bne.n	97a0 <__aeabi_fmul+0x48>
    979e:	e0a9      	b.n	98f4 <__aeabi_fmul+0x19c>
    97a0:	2bff      	cmp	r3, #255	; 0xff
    97a2:	d011      	beq.n	97c8 <__aeabi_fmul+0x70>
    97a4:	2280      	movs	r2, #128	; 0x80
    97a6:	00e4      	lsls	r4, r4, #3
    97a8:	04d2      	lsls	r2, r2, #19
    97aa:	4314      	orrs	r4, r2
    97ac:	4642      	mov	r2, r8
    97ae:	3b7f      	subs	r3, #127	; 0x7f
    97b0:	195b      	adds	r3, r3, r5
    97b2:	407a      	eors	r2, r7
    97b4:	2000      	movs	r0, #0
    97b6:	b2d2      	uxtb	r2, r2
    97b8:	1c5d      	adds	r5, r3, #1
    97ba:	2e0a      	cmp	r6, #10
    97bc:	dd13      	ble.n	97e6 <__aeabi_fmul+0x8e>
    97be:	003a      	movs	r2, r7
    97c0:	2e0b      	cmp	r6, #11
    97c2:	d047      	beq.n	9854 <__aeabi_fmul+0xfc>
    97c4:	4647      	mov	r7, r8
    97c6:	e03f      	b.n	9848 <__aeabi_fmul+0xf0>
    97c8:	002b      	movs	r3, r5
    97ca:	33ff      	adds	r3, #255	; 0xff
    97cc:	2c00      	cmp	r4, #0
    97ce:	d11e      	bne.n	980e <__aeabi_fmul+0xb6>
    97d0:	2202      	movs	r2, #2
    97d2:	4316      	orrs	r6, r2
    97d4:	4642      	mov	r2, r8
    97d6:	3501      	adds	r5, #1
    97d8:	407a      	eors	r2, r7
    97da:	b2d2      	uxtb	r2, r2
    97dc:	35ff      	adds	r5, #255	; 0xff
    97de:	2e0a      	cmp	r6, #10
    97e0:	dd00      	ble.n	97e4 <__aeabi_fmul+0x8c>
    97e2:	e0e4      	b.n	99ae <__aeabi_fmul+0x256>
    97e4:	2002      	movs	r0, #2
    97e6:	2e02      	cmp	r6, #2
    97e8:	dc1c      	bgt.n	9824 <__aeabi_fmul+0xcc>
    97ea:	3e01      	subs	r6, #1
    97ec:	2e01      	cmp	r6, #1
    97ee:	d842      	bhi.n	9876 <__aeabi_fmul+0x11e>
    97f0:	2802      	cmp	r0, #2
    97f2:	d03d      	beq.n	9870 <__aeabi_fmul+0x118>
    97f4:	2801      	cmp	r0, #1
    97f6:	d166      	bne.n	98c6 <__aeabi_fmul+0x16e>
    97f8:	2000      	movs	r0, #0
    97fa:	2100      	movs	r1, #0
    97fc:	05c0      	lsls	r0, r0, #23
    97fe:	4308      	orrs	r0, r1
    9800:	07d2      	lsls	r2, r2, #31
    9802:	4310      	orrs	r0, r2
    9804:	bce0      	pop	{r5, r6, r7}
    9806:	46ba      	mov	sl, r7
    9808:	46b1      	mov	r9, r6
    980a:	46a8      	mov	r8, r5
    980c:	bdf0      	pop	{r4, r5, r6, r7, pc}
    980e:	2203      	movs	r2, #3
    9810:	4316      	orrs	r6, r2
    9812:	4642      	mov	r2, r8
    9814:	3501      	adds	r5, #1
    9816:	407a      	eors	r2, r7
    9818:	b2d2      	uxtb	r2, r2
    981a:	35ff      	adds	r5, #255	; 0xff
    981c:	2e0a      	cmp	r6, #10
    981e:	dd00      	ble.n	9822 <__aeabi_fmul+0xca>
    9820:	e0e4      	b.n	99ec <__aeabi_fmul+0x294>
    9822:	2003      	movs	r0, #3
    9824:	2101      	movs	r1, #1
    9826:	40b1      	lsls	r1, r6
    9828:	26a6      	movs	r6, #166	; 0xa6
    982a:	00f6      	lsls	r6, r6, #3
    982c:	4231      	tst	r1, r6
    982e:	d10a      	bne.n	9846 <__aeabi_fmul+0xee>
    9830:	2690      	movs	r6, #144	; 0x90
    9832:	00b6      	lsls	r6, r6, #2
    9834:	4231      	tst	r1, r6
    9836:	d116      	bne.n	9866 <__aeabi_fmul+0x10e>
    9838:	3eb9      	subs	r6, #185	; 0xb9
    983a:	3eff      	subs	r6, #255	; 0xff
    983c:	420e      	tst	r6, r1
    983e:	d01a      	beq.n	9876 <__aeabi_fmul+0x11e>
    9840:	46a1      	mov	r9, r4
    9842:	4682      	mov	sl, r0
    9844:	e000      	b.n	9848 <__aeabi_fmul+0xf0>
    9846:	0017      	movs	r7, r2
    9848:	4653      	mov	r3, sl
    984a:	003a      	movs	r2, r7
    984c:	2b02      	cmp	r3, #2
    984e:	d00f      	beq.n	9870 <__aeabi_fmul+0x118>
    9850:	464c      	mov	r4, r9
    9852:	4650      	mov	r0, sl
    9854:	2803      	cmp	r0, #3
    9856:	d1cd      	bne.n	97f4 <__aeabi_fmul+0x9c>
    9858:	2180      	movs	r1, #128	; 0x80
    985a:	03c9      	lsls	r1, r1, #15
    985c:	4321      	orrs	r1, r4
    985e:	0249      	lsls	r1, r1, #9
    9860:	20ff      	movs	r0, #255	; 0xff
    9862:	0a49      	lsrs	r1, r1, #9
    9864:	e7ca      	b.n	97fc <__aeabi_fmul+0xa4>
    9866:	2180      	movs	r1, #128	; 0x80
    9868:	2200      	movs	r2, #0
    986a:	20ff      	movs	r0, #255	; 0xff
    986c:	03c9      	lsls	r1, r1, #15
    986e:	e7c5      	b.n	97fc <__aeabi_fmul+0xa4>
    9870:	20ff      	movs	r0, #255	; 0xff
    9872:	2100      	movs	r1, #0
    9874:	e7c2      	b.n	97fc <__aeabi_fmul+0xa4>
    9876:	0c20      	lsrs	r0, r4, #16
    9878:	4649      	mov	r1, r9
    987a:	0424      	lsls	r4, r4, #16
    987c:	0c24      	lsrs	r4, r4, #16
    987e:	0027      	movs	r7, r4
    9880:	0c0e      	lsrs	r6, r1, #16
    9882:	0409      	lsls	r1, r1, #16
    9884:	0c09      	lsrs	r1, r1, #16
    9886:	4374      	muls	r4, r6
    9888:	434f      	muls	r7, r1
    988a:	4346      	muls	r6, r0
    988c:	4348      	muls	r0, r1
    988e:	0c39      	lsrs	r1, r7, #16
    9890:	1900      	adds	r0, r0, r4
    9892:	1809      	adds	r1, r1, r0
    9894:	428c      	cmp	r4, r1
    9896:	d903      	bls.n	98a0 <__aeabi_fmul+0x148>
    9898:	2080      	movs	r0, #128	; 0x80
    989a:	0240      	lsls	r0, r0, #9
    989c:	4684      	mov	ip, r0
    989e:	4466      	add	r6, ip
    98a0:	043f      	lsls	r7, r7, #16
    98a2:	0408      	lsls	r0, r1, #16
    98a4:	0c3f      	lsrs	r7, r7, #16
    98a6:	19c0      	adds	r0, r0, r7
    98a8:	0184      	lsls	r4, r0, #6
    98aa:	1e67      	subs	r7, r4, #1
    98ac:	41bc      	sbcs	r4, r7
    98ae:	0c09      	lsrs	r1, r1, #16
    98b0:	0e80      	lsrs	r0, r0, #26
    98b2:	1989      	adds	r1, r1, r6
    98b4:	4304      	orrs	r4, r0
    98b6:	0189      	lsls	r1, r1, #6
    98b8:	430c      	orrs	r4, r1
    98ba:	0109      	lsls	r1, r1, #4
    98bc:	d571      	bpl.n	99a2 <__aeabi_fmul+0x24a>
    98be:	2301      	movs	r3, #1
    98c0:	0861      	lsrs	r1, r4, #1
    98c2:	401c      	ands	r4, r3
    98c4:	430c      	orrs	r4, r1
    98c6:	002b      	movs	r3, r5
    98c8:	337f      	adds	r3, #127	; 0x7f
    98ca:	2b00      	cmp	r3, #0
    98cc:	dd51      	ble.n	9972 <__aeabi_fmul+0x21a>
    98ce:	0761      	lsls	r1, r4, #29
    98d0:	d004      	beq.n	98dc <__aeabi_fmul+0x184>
    98d2:	210f      	movs	r1, #15
    98d4:	4021      	ands	r1, r4
    98d6:	2904      	cmp	r1, #4
    98d8:	d000      	beq.n	98dc <__aeabi_fmul+0x184>
    98da:	3404      	adds	r4, #4
    98dc:	0121      	lsls	r1, r4, #4
    98de:	d503      	bpl.n	98e8 <__aeabi_fmul+0x190>
    98e0:	4b43      	ldr	r3, [pc, #268]	; (99f0 <__aeabi_fmul+0x298>)
    98e2:	401c      	ands	r4, r3
    98e4:	002b      	movs	r3, r5
    98e6:	3380      	adds	r3, #128	; 0x80
    98e8:	2bfe      	cmp	r3, #254	; 0xfe
    98ea:	dcc1      	bgt.n	9870 <__aeabi_fmul+0x118>
    98ec:	01a1      	lsls	r1, r4, #6
    98ee:	0a49      	lsrs	r1, r1, #9
    98f0:	b2d8      	uxtb	r0, r3
    98f2:	e783      	b.n	97fc <__aeabi_fmul+0xa4>
    98f4:	2c00      	cmp	r4, #0
    98f6:	d12c      	bne.n	9952 <__aeabi_fmul+0x1fa>
    98f8:	2301      	movs	r3, #1
    98fa:	4642      	mov	r2, r8
    98fc:	431e      	orrs	r6, r3
    98fe:	002b      	movs	r3, r5
    9900:	407a      	eors	r2, r7
    9902:	2001      	movs	r0, #1
    9904:	b2d2      	uxtb	r2, r2
    9906:	1c5d      	adds	r5, r3, #1
    9908:	2e0a      	cmp	r6, #10
    990a:	dd00      	ble.n	990e <__aeabi_fmul+0x1b6>
    990c:	e757      	b.n	97be <__aeabi_fmul+0x66>
    990e:	e76a      	b.n	97e6 <__aeabi_fmul+0x8e>
    9910:	2b00      	cmp	r3, #0
    9912:	d110      	bne.n	9936 <__aeabi_fmul+0x1de>
    9914:	2301      	movs	r3, #1
    9916:	2604      	movs	r6, #4
    9918:	2500      	movs	r5, #0
    991a:	469a      	mov	sl, r3
    991c:	e738      	b.n	9790 <__aeabi_fmul+0x38>
    991e:	2b00      	cmp	r3, #0
    9920:	d104      	bne.n	992c <__aeabi_fmul+0x1d4>
    9922:	2302      	movs	r3, #2
    9924:	2608      	movs	r6, #8
    9926:	25ff      	movs	r5, #255	; 0xff
    9928:	469a      	mov	sl, r3
    992a:	e731      	b.n	9790 <__aeabi_fmul+0x38>
    992c:	2303      	movs	r3, #3
    992e:	260c      	movs	r6, #12
    9930:	25ff      	movs	r5, #255	; 0xff
    9932:	469a      	mov	sl, r3
    9934:	e72c      	b.n	9790 <__aeabi_fmul+0x38>
    9936:	4648      	mov	r0, r9
    9938:	f002 f984 	bl	bc44 <__clzsi2>
    993c:	464a      	mov	r2, r9
    993e:	1f43      	subs	r3, r0, #5
    9940:	2576      	movs	r5, #118	; 0x76
    9942:	409a      	lsls	r2, r3
    9944:	2300      	movs	r3, #0
    9946:	426d      	negs	r5, r5
    9948:	4691      	mov	r9, r2
    994a:	2600      	movs	r6, #0
    994c:	469a      	mov	sl, r3
    994e:	1a2d      	subs	r5, r5, r0
    9950:	e71e      	b.n	9790 <__aeabi_fmul+0x38>
    9952:	0020      	movs	r0, r4
    9954:	f002 f976 	bl	bc44 <__clzsi2>
    9958:	4642      	mov	r2, r8
    995a:	1f43      	subs	r3, r0, #5
    995c:	409c      	lsls	r4, r3
    995e:	1a2b      	subs	r3, r5, r0
    9960:	3b76      	subs	r3, #118	; 0x76
    9962:	407a      	eors	r2, r7
    9964:	2000      	movs	r0, #0
    9966:	b2d2      	uxtb	r2, r2
    9968:	1c5d      	adds	r5, r3, #1
    996a:	2e0a      	cmp	r6, #10
    996c:	dd00      	ble.n	9970 <__aeabi_fmul+0x218>
    996e:	e726      	b.n	97be <__aeabi_fmul+0x66>
    9970:	e739      	b.n	97e6 <__aeabi_fmul+0x8e>
    9972:	2101      	movs	r1, #1
    9974:	1acb      	subs	r3, r1, r3
    9976:	2b1b      	cmp	r3, #27
    9978:	dd00      	ble.n	997c <__aeabi_fmul+0x224>
    997a:	e73d      	b.n	97f8 <__aeabi_fmul+0xa0>
    997c:	359e      	adds	r5, #158	; 0x9e
    997e:	0021      	movs	r1, r4
    9980:	40ac      	lsls	r4, r5
    9982:	40d9      	lsrs	r1, r3
    9984:	1e63      	subs	r3, r4, #1
    9986:	419c      	sbcs	r4, r3
    9988:	4321      	orrs	r1, r4
    998a:	074b      	lsls	r3, r1, #29
    998c:	d004      	beq.n	9998 <__aeabi_fmul+0x240>
    998e:	230f      	movs	r3, #15
    9990:	400b      	ands	r3, r1
    9992:	2b04      	cmp	r3, #4
    9994:	d000      	beq.n	9998 <__aeabi_fmul+0x240>
    9996:	3104      	adds	r1, #4
    9998:	014b      	lsls	r3, r1, #5
    999a:	d504      	bpl.n	99a6 <__aeabi_fmul+0x24e>
    999c:	2001      	movs	r0, #1
    999e:	2100      	movs	r1, #0
    99a0:	e72c      	b.n	97fc <__aeabi_fmul+0xa4>
    99a2:	001d      	movs	r5, r3
    99a4:	e78f      	b.n	98c6 <__aeabi_fmul+0x16e>
    99a6:	0189      	lsls	r1, r1, #6
    99a8:	2000      	movs	r0, #0
    99aa:	0a49      	lsrs	r1, r1, #9
    99ac:	e726      	b.n	97fc <__aeabi_fmul+0xa4>
    99ae:	2302      	movs	r3, #2
    99b0:	2e0f      	cmp	r6, #15
    99b2:	d10c      	bne.n	99ce <__aeabi_fmul+0x276>
    99b4:	2180      	movs	r1, #128	; 0x80
    99b6:	464b      	mov	r3, r9
    99b8:	03c9      	lsls	r1, r1, #15
    99ba:	420b      	tst	r3, r1
    99bc:	d00d      	beq.n	99da <__aeabi_fmul+0x282>
    99be:	420c      	tst	r4, r1
    99c0:	d10b      	bne.n	99da <__aeabi_fmul+0x282>
    99c2:	4321      	orrs	r1, r4
    99c4:	0249      	lsls	r1, r1, #9
    99c6:	003a      	movs	r2, r7
    99c8:	20ff      	movs	r0, #255	; 0xff
    99ca:	0a49      	lsrs	r1, r1, #9
    99cc:	e716      	b.n	97fc <__aeabi_fmul+0xa4>
    99ce:	2e0b      	cmp	r6, #11
    99d0:	d000      	beq.n	99d4 <__aeabi_fmul+0x27c>
    99d2:	e6f7      	b.n	97c4 <__aeabi_fmul+0x6c>
    99d4:	46a1      	mov	r9, r4
    99d6:	469a      	mov	sl, r3
    99d8:	e736      	b.n	9848 <__aeabi_fmul+0xf0>
    99da:	2180      	movs	r1, #128	; 0x80
    99dc:	464b      	mov	r3, r9
    99de:	03c9      	lsls	r1, r1, #15
    99e0:	4319      	orrs	r1, r3
    99e2:	0249      	lsls	r1, r1, #9
    99e4:	4642      	mov	r2, r8
    99e6:	20ff      	movs	r0, #255	; 0xff
    99e8:	0a49      	lsrs	r1, r1, #9
    99ea:	e707      	b.n	97fc <__aeabi_fmul+0xa4>
    99ec:	2303      	movs	r3, #3
    99ee:	e7df      	b.n	99b0 <__aeabi_fmul+0x258>
    99f0:	f7ffffff 	.word	0xf7ffffff

000099f4 <__aeabi_fsub>:
    99f4:	b5f0      	push	{r4, r5, r6, r7, lr}
    99f6:	46c6      	mov	lr, r8
    99f8:	0243      	lsls	r3, r0, #9
    99fa:	0a5b      	lsrs	r3, r3, #9
    99fc:	0045      	lsls	r5, r0, #1
    99fe:	00da      	lsls	r2, r3, #3
    9a00:	0fc4      	lsrs	r4, r0, #31
    9a02:	0248      	lsls	r0, r1, #9
    9a04:	004f      	lsls	r7, r1, #1
    9a06:	4694      	mov	ip, r2
    9a08:	0a42      	lsrs	r2, r0, #9
    9a0a:	001e      	movs	r6, r3
    9a0c:	4690      	mov	r8, r2
    9a0e:	b500      	push	{lr}
    9a10:	0e2d      	lsrs	r5, r5, #24
    9a12:	0e3f      	lsrs	r7, r7, #24
    9a14:	0fc9      	lsrs	r1, r1, #31
    9a16:	0980      	lsrs	r0, r0, #6
    9a18:	2fff      	cmp	r7, #255	; 0xff
    9a1a:	d059      	beq.n	9ad0 <__aeabi_fsub+0xdc>
    9a1c:	2201      	movs	r2, #1
    9a1e:	4051      	eors	r1, r2
    9a20:	428c      	cmp	r4, r1
    9a22:	d039      	beq.n	9a98 <__aeabi_fsub+0xa4>
    9a24:	1bea      	subs	r2, r5, r7
    9a26:	2a00      	cmp	r2, #0
    9a28:	dd58      	ble.n	9adc <__aeabi_fsub+0xe8>
    9a2a:	2f00      	cmp	r7, #0
    9a2c:	d068      	beq.n	9b00 <__aeabi_fsub+0x10c>
    9a2e:	2dff      	cmp	r5, #255	; 0xff
    9a30:	d100      	bne.n	9a34 <__aeabi_fsub+0x40>
    9a32:	e0d1      	b.n	9bd8 <__aeabi_fsub+0x1e4>
    9a34:	2380      	movs	r3, #128	; 0x80
    9a36:	04db      	lsls	r3, r3, #19
    9a38:	4318      	orrs	r0, r3
    9a3a:	2a1b      	cmp	r2, #27
    9a3c:	dc00      	bgt.n	9a40 <__aeabi_fsub+0x4c>
    9a3e:	e0e3      	b.n	9c08 <__aeabi_fsub+0x214>
    9a40:	2301      	movs	r3, #1
    9a42:	4662      	mov	r2, ip
    9a44:	1ad3      	subs	r3, r2, r3
    9a46:	015a      	lsls	r2, r3, #5
    9a48:	d400      	bmi.n	9a4c <__aeabi_fsub+0x58>
    9a4a:	e0ac      	b.n	9ba6 <__aeabi_fsub+0x1b2>
    9a4c:	019b      	lsls	r3, r3, #6
    9a4e:	099e      	lsrs	r6, r3, #6
    9a50:	0030      	movs	r0, r6
    9a52:	f002 f8f7 	bl	bc44 <__clzsi2>
    9a56:	0033      	movs	r3, r6
    9a58:	3805      	subs	r0, #5
    9a5a:	4083      	lsls	r3, r0
    9a5c:	4285      	cmp	r5, r0
    9a5e:	dc00      	bgt.n	9a62 <__aeabi_fsub+0x6e>
    9a60:	e0c6      	b.n	9bf0 <__aeabi_fsub+0x1fc>
    9a62:	4ab2      	ldr	r2, [pc, #712]	; (9d2c <__aeabi_fsub+0x338>)
    9a64:	1a2d      	subs	r5, r5, r0
    9a66:	4013      	ands	r3, r2
    9a68:	075a      	lsls	r2, r3, #29
    9a6a:	d004      	beq.n	9a76 <__aeabi_fsub+0x82>
    9a6c:	220f      	movs	r2, #15
    9a6e:	401a      	ands	r2, r3
    9a70:	2a04      	cmp	r2, #4
    9a72:	d000      	beq.n	9a76 <__aeabi_fsub+0x82>
    9a74:	3304      	adds	r3, #4
    9a76:	015a      	lsls	r2, r3, #5
    9a78:	d400      	bmi.n	9a7c <__aeabi_fsub+0x88>
    9a7a:	e097      	b.n	9bac <__aeabi_fsub+0x1b8>
    9a7c:	1c6a      	adds	r2, r5, #1
    9a7e:	2dfe      	cmp	r5, #254	; 0xfe
    9a80:	d100      	bne.n	9a84 <__aeabi_fsub+0x90>
    9a82:	e084      	b.n	9b8e <__aeabi_fsub+0x19a>
    9a84:	019b      	lsls	r3, r3, #6
    9a86:	0a5e      	lsrs	r6, r3, #9
    9a88:	b2d2      	uxtb	r2, r2
    9a8a:	05d0      	lsls	r0, r2, #23
    9a8c:	4330      	orrs	r0, r6
    9a8e:	07e4      	lsls	r4, r4, #31
    9a90:	4320      	orrs	r0, r4
    9a92:	bc80      	pop	{r7}
    9a94:	46b8      	mov	r8, r7
    9a96:	bdf0      	pop	{r4, r5, r6, r7, pc}
    9a98:	1bea      	subs	r2, r5, r7
    9a9a:	2a00      	cmp	r2, #0
    9a9c:	dd41      	ble.n	9b22 <__aeabi_fsub+0x12e>
    9a9e:	2f00      	cmp	r7, #0
    9aa0:	d06b      	beq.n	9b7a <__aeabi_fsub+0x186>
    9aa2:	2dff      	cmp	r5, #255	; 0xff
    9aa4:	d100      	bne.n	9aa8 <__aeabi_fsub+0xb4>
    9aa6:	e097      	b.n	9bd8 <__aeabi_fsub+0x1e4>
    9aa8:	2380      	movs	r3, #128	; 0x80
    9aaa:	04db      	lsls	r3, r3, #19
    9aac:	4318      	orrs	r0, r3
    9aae:	2a1b      	cmp	r2, #27
    9ab0:	dc00      	bgt.n	9ab4 <__aeabi_fsub+0xc0>
    9ab2:	e0cc      	b.n	9c4e <__aeabi_fsub+0x25a>
    9ab4:	2301      	movs	r3, #1
    9ab6:	4463      	add	r3, ip
    9ab8:	015a      	lsls	r2, r3, #5
    9aba:	d574      	bpl.n	9ba6 <__aeabi_fsub+0x1b2>
    9abc:	3501      	adds	r5, #1
    9abe:	2dff      	cmp	r5, #255	; 0xff
    9ac0:	d065      	beq.n	9b8e <__aeabi_fsub+0x19a>
    9ac2:	2201      	movs	r2, #1
    9ac4:	499a      	ldr	r1, [pc, #616]	; (9d30 <__aeabi_fsub+0x33c>)
    9ac6:	401a      	ands	r2, r3
    9ac8:	085b      	lsrs	r3, r3, #1
    9aca:	400b      	ands	r3, r1
    9acc:	4313      	orrs	r3, r2
    9ace:	e7cb      	b.n	9a68 <__aeabi_fsub+0x74>
    9ad0:	2800      	cmp	r0, #0
    9ad2:	d01f      	beq.n	9b14 <__aeabi_fsub+0x120>
    9ad4:	428c      	cmp	r4, r1
    9ad6:	d022      	beq.n	9b1e <__aeabi_fsub+0x12a>
    9ad8:	002a      	movs	r2, r5
    9ada:	3aff      	subs	r2, #255	; 0xff
    9adc:	2a00      	cmp	r2, #0
    9ade:	d035      	beq.n	9b4c <__aeabi_fsub+0x158>
    9ae0:	1b7a      	subs	r2, r7, r5
    9ae2:	2d00      	cmp	r5, #0
    9ae4:	d000      	beq.n	9ae8 <__aeabi_fsub+0xf4>
    9ae6:	e099      	b.n	9c1c <__aeabi_fsub+0x228>
    9ae8:	4663      	mov	r3, ip
    9aea:	2b00      	cmp	r3, #0
    9aec:	d100      	bne.n	9af0 <__aeabi_fsub+0xfc>
    9aee:	e0dd      	b.n	9cac <__aeabi_fsub+0x2b8>
    9af0:	1e53      	subs	r3, r2, #1
    9af2:	2a01      	cmp	r2, #1
    9af4:	d100      	bne.n	9af8 <__aeabi_fsub+0x104>
    9af6:	e105      	b.n	9d04 <__aeabi_fsub+0x310>
    9af8:	2aff      	cmp	r2, #255	; 0xff
    9afa:	d06b      	beq.n	9bd4 <__aeabi_fsub+0x1e0>
    9afc:	001a      	movs	r2, r3
    9afe:	e094      	b.n	9c2a <__aeabi_fsub+0x236>
    9b00:	2800      	cmp	r0, #0
    9b02:	d073      	beq.n	9bec <__aeabi_fsub+0x1f8>
    9b04:	1e51      	subs	r1, r2, #1
    9b06:	2a01      	cmp	r2, #1
    9b08:	d100      	bne.n	9b0c <__aeabi_fsub+0x118>
    9b0a:	e0df      	b.n	9ccc <__aeabi_fsub+0x2d8>
    9b0c:	2aff      	cmp	r2, #255	; 0xff
    9b0e:	d063      	beq.n	9bd8 <__aeabi_fsub+0x1e4>
    9b10:	000a      	movs	r2, r1
    9b12:	e792      	b.n	9a3a <__aeabi_fsub+0x46>
    9b14:	2201      	movs	r2, #1
    9b16:	4051      	eors	r1, r2
    9b18:	42a1      	cmp	r1, r4
    9b1a:	d000      	beq.n	9b1e <__aeabi_fsub+0x12a>
    9b1c:	e782      	b.n	9a24 <__aeabi_fsub+0x30>
    9b1e:	002a      	movs	r2, r5
    9b20:	3aff      	subs	r2, #255	; 0xff
    9b22:	2a00      	cmp	r2, #0
    9b24:	d036      	beq.n	9b94 <__aeabi_fsub+0x1a0>
    9b26:	1b7a      	subs	r2, r7, r5
    9b28:	2d00      	cmp	r5, #0
    9b2a:	d100      	bne.n	9b2e <__aeabi_fsub+0x13a>
    9b2c:	e0aa      	b.n	9c84 <__aeabi_fsub+0x290>
    9b2e:	2fff      	cmp	r7, #255	; 0xff
    9b30:	d100      	bne.n	9b34 <__aeabi_fsub+0x140>
    9b32:	e0da      	b.n	9cea <__aeabi_fsub+0x2f6>
    9b34:	2380      	movs	r3, #128	; 0x80
    9b36:	4661      	mov	r1, ip
    9b38:	04db      	lsls	r3, r3, #19
    9b3a:	4319      	orrs	r1, r3
    9b3c:	468c      	mov	ip, r1
    9b3e:	2a1b      	cmp	r2, #27
    9b40:	dc00      	bgt.n	9b44 <__aeabi_fsub+0x150>
    9b42:	e0d4      	b.n	9cee <__aeabi_fsub+0x2fa>
    9b44:	2301      	movs	r3, #1
    9b46:	003d      	movs	r5, r7
    9b48:	181b      	adds	r3, r3, r0
    9b4a:	e7b5      	b.n	9ab8 <__aeabi_fsub+0xc4>
    9b4c:	27fe      	movs	r7, #254	; 0xfe
    9b4e:	1c6a      	adds	r2, r5, #1
    9b50:	4217      	tst	r7, r2
    9b52:	d171      	bne.n	9c38 <__aeabi_fsub+0x244>
    9b54:	2d00      	cmp	r5, #0
    9b56:	d000      	beq.n	9b5a <__aeabi_fsub+0x166>
    9b58:	e09e      	b.n	9c98 <__aeabi_fsub+0x2a4>
    9b5a:	4663      	mov	r3, ip
    9b5c:	2b00      	cmp	r3, #0
    9b5e:	d100      	bne.n	9b62 <__aeabi_fsub+0x16e>
    9b60:	e0d5      	b.n	9d0e <__aeabi_fsub+0x31a>
    9b62:	2200      	movs	r2, #0
    9b64:	2800      	cmp	r0, #0
    9b66:	d100      	bne.n	9b6a <__aeabi_fsub+0x176>
    9b68:	e78f      	b.n	9a8a <__aeabi_fsub+0x96>
    9b6a:	1a1b      	subs	r3, r3, r0
    9b6c:	015e      	lsls	r6, r3, #5
    9b6e:	d400      	bmi.n	9b72 <__aeabi_fsub+0x17e>
    9b70:	e0d6      	b.n	9d20 <__aeabi_fsub+0x32c>
    9b72:	4663      	mov	r3, ip
    9b74:	000c      	movs	r4, r1
    9b76:	1ac3      	subs	r3, r0, r3
    9b78:	e776      	b.n	9a68 <__aeabi_fsub+0x74>
    9b7a:	2800      	cmp	r0, #0
    9b7c:	d036      	beq.n	9bec <__aeabi_fsub+0x1f8>
    9b7e:	1e51      	subs	r1, r2, #1
    9b80:	2a01      	cmp	r2, #1
    9b82:	d100      	bne.n	9b86 <__aeabi_fsub+0x192>
    9b84:	e09a      	b.n	9cbc <__aeabi_fsub+0x2c8>
    9b86:	2aff      	cmp	r2, #255	; 0xff
    9b88:	d026      	beq.n	9bd8 <__aeabi_fsub+0x1e4>
    9b8a:	000a      	movs	r2, r1
    9b8c:	e78f      	b.n	9aae <__aeabi_fsub+0xba>
    9b8e:	22ff      	movs	r2, #255	; 0xff
    9b90:	2600      	movs	r6, #0
    9b92:	e77a      	b.n	9a8a <__aeabi_fsub+0x96>
    9b94:	27fe      	movs	r7, #254	; 0xfe
    9b96:	1c6a      	adds	r2, r5, #1
    9b98:	4217      	tst	r7, r2
    9b9a:	d062      	beq.n	9c62 <__aeabi_fsub+0x26e>
    9b9c:	2aff      	cmp	r2, #255	; 0xff
    9b9e:	d0f6      	beq.n	9b8e <__aeabi_fsub+0x19a>
    9ba0:	0015      	movs	r5, r2
    9ba2:	4460      	add	r0, ip
    9ba4:	0843      	lsrs	r3, r0, #1
    9ba6:	075a      	lsls	r2, r3, #29
    9ba8:	d000      	beq.n	9bac <__aeabi_fsub+0x1b8>
    9baa:	e75f      	b.n	9a6c <__aeabi_fsub+0x78>
    9bac:	08db      	lsrs	r3, r3, #3
    9bae:	2dff      	cmp	r5, #255	; 0xff
    9bb0:	d012      	beq.n	9bd8 <__aeabi_fsub+0x1e4>
    9bb2:	025b      	lsls	r3, r3, #9
    9bb4:	0a5e      	lsrs	r6, r3, #9
    9bb6:	b2ea      	uxtb	r2, r5
    9bb8:	e767      	b.n	9a8a <__aeabi_fsub+0x96>
    9bba:	4662      	mov	r2, ip
    9bbc:	2a00      	cmp	r2, #0
    9bbe:	d100      	bne.n	9bc2 <__aeabi_fsub+0x1ce>
    9bc0:	e093      	b.n	9cea <__aeabi_fsub+0x2f6>
    9bc2:	2800      	cmp	r0, #0
    9bc4:	d008      	beq.n	9bd8 <__aeabi_fsub+0x1e4>
    9bc6:	2280      	movs	r2, #128	; 0x80
    9bc8:	03d2      	lsls	r2, r2, #15
    9bca:	4213      	tst	r3, r2
    9bcc:	d004      	beq.n	9bd8 <__aeabi_fsub+0x1e4>
    9bce:	4640      	mov	r0, r8
    9bd0:	4210      	tst	r0, r2
    9bd2:	d101      	bne.n	9bd8 <__aeabi_fsub+0x1e4>
    9bd4:	000c      	movs	r4, r1
    9bd6:	4643      	mov	r3, r8
    9bd8:	2b00      	cmp	r3, #0
    9bda:	d0d8      	beq.n	9b8e <__aeabi_fsub+0x19a>
    9bdc:	2680      	movs	r6, #128	; 0x80
    9bde:	03f6      	lsls	r6, r6, #15
    9be0:	431e      	orrs	r6, r3
    9be2:	0276      	lsls	r6, r6, #9
    9be4:	22ff      	movs	r2, #255	; 0xff
    9be6:	0a76      	lsrs	r6, r6, #9
    9be8:	e74f      	b.n	9a8a <__aeabi_fsub+0x96>
    9bea:	4643      	mov	r3, r8
    9bec:	0015      	movs	r5, r2
    9bee:	e7de      	b.n	9bae <__aeabi_fsub+0x1ba>
    9bf0:	2220      	movs	r2, #32
    9bf2:	1b40      	subs	r0, r0, r5
    9bf4:	3001      	adds	r0, #1
    9bf6:	1a12      	subs	r2, r2, r0
    9bf8:	0019      	movs	r1, r3
    9bfa:	4093      	lsls	r3, r2
    9bfc:	40c1      	lsrs	r1, r0
    9bfe:	1e5a      	subs	r2, r3, #1
    9c00:	4193      	sbcs	r3, r2
    9c02:	2500      	movs	r5, #0
    9c04:	430b      	orrs	r3, r1
    9c06:	e72f      	b.n	9a68 <__aeabi_fsub+0x74>
    9c08:	2320      	movs	r3, #32
    9c0a:	1a9b      	subs	r3, r3, r2
    9c0c:	0001      	movs	r1, r0
    9c0e:	4098      	lsls	r0, r3
    9c10:	0003      	movs	r3, r0
    9c12:	40d1      	lsrs	r1, r2
    9c14:	1e5a      	subs	r2, r3, #1
    9c16:	4193      	sbcs	r3, r2
    9c18:	430b      	orrs	r3, r1
    9c1a:	e712      	b.n	9a42 <__aeabi_fsub+0x4e>
    9c1c:	2fff      	cmp	r7, #255	; 0xff
    9c1e:	d0d9      	beq.n	9bd4 <__aeabi_fsub+0x1e0>
    9c20:	2380      	movs	r3, #128	; 0x80
    9c22:	4664      	mov	r4, ip
    9c24:	04db      	lsls	r3, r3, #19
    9c26:	431c      	orrs	r4, r3
    9c28:	46a4      	mov	ip, r4
    9c2a:	2a1b      	cmp	r2, #27
    9c2c:	dd52      	ble.n	9cd4 <__aeabi_fsub+0x2e0>
    9c2e:	2301      	movs	r3, #1
    9c30:	000c      	movs	r4, r1
    9c32:	003d      	movs	r5, r7
    9c34:	1ac3      	subs	r3, r0, r3
    9c36:	e706      	b.n	9a46 <__aeabi_fsub+0x52>
    9c38:	4663      	mov	r3, ip
    9c3a:	1a1e      	subs	r6, r3, r0
    9c3c:	0173      	lsls	r3, r6, #5
    9c3e:	d439      	bmi.n	9cb4 <__aeabi_fsub+0x2c0>
    9c40:	2e00      	cmp	r6, #0
    9c42:	d000      	beq.n	9c46 <__aeabi_fsub+0x252>
    9c44:	e704      	b.n	9a50 <__aeabi_fsub+0x5c>
    9c46:	2400      	movs	r4, #0
    9c48:	2200      	movs	r2, #0
    9c4a:	2600      	movs	r6, #0
    9c4c:	e71d      	b.n	9a8a <__aeabi_fsub+0x96>
    9c4e:	2320      	movs	r3, #32
    9c50:	1a9b      	subs	r3, r3, r2
    9c52:	0001      	movs	r1, r0
    9c54:	4098      	lsls	r0, r3
    9c56:	0003      	movs	r3, r0
    9c58:	40d1      	lsrs	r1, r2
    9c5a:	1e5a      	subs	r2, r3, #1
    9c5c:	4193      	sbcs	r3, r2
    9c5e:	430b      	orrs	r3, r1
    9c60:	e729      	b.n	9ab6 <__aeabi_fsub+0xc2>
    9c62:	2d00      	cmp	r5, #0
    9c64:	d1a9      	bne.n	9bba <__aeabi_fsub+0x1c6>
    9c66:	4663      	mov	r3, ip
    9c68:	2b00      	cmp	r3, #0
    9c6a:	d056      	beq.n	9d1a <__aeabi_fsub+0x326>
    9c6c:	2200      	movs	r2, #0
    9c6e:	2800      	cmp	r0, #0
    9c70:	d100      	bne.n	9c74 <__aeabi_fsub+0x280>
    9c72:	e70a      	b.n	9a8a <__aeabi_fsub+0x96>
    9c74:	0003      	movs	r3, r0
    9c76:	4463      	add	r3, ip
    9c78:	015a      	lsls	r2, r3, #5
    9c7a:	d594      	bpl.n	9ba6 <__aeabi_fsub+0x1b2>
    9c7c:	4a2b      	ldr	r2, [pc, #172]	; (9d2c <__aeabi_fsub+0x338>)
    9c7e:	3501      	adds	r5, #1
    9c80:	4013      	ands	r3, r2
    9c82:	e790      	b.n	9ba6 <__aeabi_fsub+0x1b2>
    9c84:	4663      	mov	r3, ip
    9c86:	2b00      	cmp	r3, #0
    9c88:	d0af      	beq.n	9bea <__aeabi_fsub+0x1f6>
    9c8a:	1e53      	subs	r3, r2, #1
    9c8c:	2a01      	cmp	r2, #1
    9c8e:	d015      	beq.n	9cbc <__aeabi_fsub+0x2c8>
    9c90:	2aff      	cmp	r2, #255	; 0xff
    9c92:	d02a      	beq.n	9cea <__aeabi_fsub+0x2f6>
    9c94:	001a      	movs	r2, r3
    9c96:	e752      	b.n	9b3e <__aeabi_fsub+0x14a>
    9c98:	4662      	mov	r2, ip
    9c9a:	2a00      	cmp	r2, #0
    9c9c:	d191      	bne.n	9bc2 <__aeabi_fsub+0x1ce>
    9c9e:	2800      	cmp	r0, #0
    9ca0:	d198      	bne.n	9bd4 <__aeabi_fsub+0x1e0>
    9ca2:	2680      	movs	r6, #128	; 0x80
    9ca4:	2400      	movs	r4, #0
    9ca6:	22ff      	movs	r2, #255	; 0xff
    9ca8:	03f6      	lsls	r6, r6, #15
    9caa:	e6ee      	b.n	9a8a <__aeabi_fsub+0x96>
    9cac:	000c      	movs	r4, r1
    9cae:	4643      	mov	r3, r8
    9cb0:	0015      	movs	r5, r2
    9cb2:	e77c      	b.n	9bae <__aeabi_fsub+0x1ba>
    9cb4:	4663      	mov	r3, ip
    9cb6:	000c      	movs	r4, r1
    9cb8:	1ac6      	subs	r6, r0, r3
    9cba:	e6c9      	b.n	9a50 <__aeabi_fsub+0x5c>
    9cbc:	0003      	movs	r3, r0
    9cbe:	4463      	add	r3, ip
    9cc0:	2501      	movs	r5, #1
    9cc2:	015a      	lsls	r2, r3, #5
    9cc4:	d400      	bmi.n	9cc8 <__aeabi_fsub+0x2d4>
    9cc6:	e76e      	b.n	9ba6 <__aeabi_fsub+0x1b2>
    9cc8:	2502      	movs	r5, #2
    9cca:	e6fa      	b.n	9ac2 <__aeabi_fsub+0xce>
    9ccc:	4663      	mov	r3, ip
    9cce:	2501      	movs	r5, #1
    9cd0:	1a1b      	subs	r3, r3, r0
    9cd2:	e6b8      	b.n	9a46 <__aeabi_fsub+0x52>
    9cd4:	4664      	mov	r4, ip
    9cd6:	2320      	movs	r3, #32
    9cd8:	40d4      	lsrs	r4, r2
    9cda:	1a9b      	subs	r3, r3, r2
    9cdc:	4662      	mov	r2, ip
    9cde:	409a      	lsls	r2, r3
    9ce0:	0013      	movs	r3, r2
    9ce2:	1e5a      	subs	r2, r3, #1
    9ce4:	4193      	sbcs	r3, r2
    9ce6:	4323      	orrs	r3, r4
    9ce8:	e7a2      	b.n	9c30 <__aeabi_fsub+0x23c>
    9cea:	4643      	mov	r3, r8
    9cec:	e774      	b.n	9bd8 <__aeabi_fsub+0x1e4>
    9cee:	4661      	mov	r1, ip
    9cf0:	2320      	movs	r3, #32
    9cf2:	40d1      	lsrs	r1, r2
    9cf4:	1a9b      	subs	r3, r3, r2
    9cf6:	4662      	mov	r2, ip
    9cf8:	409a      	lsls	r2, r3
    9cfa:	0013      	movs	r3, r2
    9cfc:	1e5a      	subs	r2, r3, #1
    9cfe:	4193      	sbcs	r3, r2
    9d00:	430b      	orrs	r3, r1
    9d02:	e720      	b.n	9b46 <__aeabi_fsub+0x152>
    9d04:	4663      	mov	r3, ip
    9d06:	000c      	movs	r4, r1
    9d08:	2501      	movs	r5, #1
    9d0a:	1ac3      	subs	r3, r0, r3
    9d0c:	e69b      	b.n	9a46 <__aeabi_fsub+0x52>
    9d0e:	2800      	cmp	r0, #0
    9d10:	d099      	beq.n	9c46 <__aeabi_fsub+0x252>
    9d12:	000c      	movs	r4, r1
    9d14:	4646      	mov	r6, r8
    9d16:	2200      	movs	r2, #0
    9d18:	e6b7      	b.n	9a8a <__aeabi_fsub+0x96>
    9d1a:	4646      	mov	r6, r8
    9d1c:	2200      	movs	r2, #0
    9d1e:	e6b4      	b.n	9a8a <__aeabi_fsub+0x96>
    9d20:	2b00      	cmp	r3, #0
    9d22:	d000      	beq.n	9d26 <__aeabi_fsub+0x332>
    9d24:	e73f      	b.n	9ba6 <__aeabi_fsub+0x1b2>
    9d26:	2400      	movs	r4, #0
    9d28:	2600      	movs	r6, #0
    9d2a:	e6ae      	b.n	9a8a <__aeabi_fsub+0x96>
    9d2c:	fbffffff 	.word	0xfbffffff
    9d30:	7dffffff 	.word	0x7dffffff

00009d34 <__aeabi_f2iz>:
    9d34:	0241      	lsls	r1, r0, #9
    9d36:	0042      	lsls	r2, r0, #1
    9d38:	0fc3      	lsrs	r3, r0, #31
    9d3a:	0a49      	lsrs	r1, r1, #9
    9d3c:	2000      	movs	r0, #0
    9d3e:	0e12      	lsrs	r2, r2, #24
    9d40:	2a7e      	cmp	r2, #126	; 0x7e
    9d42:	dd03      	ble.n	9d4c <__aeabi_f2iz+0x18>
    9d44:	2a9d      	cmp	r2, #157	; 0x9d
    9d46:	dd02      	ble.n	9d4e <__aeabi_f2iz+0x1a>
    9d48:	4a09      	ldr	r2, [pc, #36]	; (9d70 <__aeabi_f2iz+0x3c>)
    9d4a:	1898      	adds	r0, r3, r2
    9d4c:	4770      	bx	lr
    9d4e:	2080      	movs	r0, #128	; 0x80
    9d50:	0400      	lsls	r0, r0, #16
    9d52:	4301      	orrs	r1, r0
    9d54:	2a95      	cmp	r2, #149	; 0x95
    9d56:	dc07      	bgt.n	9d68 <__aeabi_f2iz+0x34>
    9d58:	2096      	movs	r0, #150	; 0x96
    9d5a:	1a82      	subs	r2, r0, r2
    9d5c:	40d1      	lsrs	r1, r2
    9d5e:	4248      	negs	r0, r1
    9d60:	2b00      	cmp	r3, #0
    9d62:	d1f3      	bne.n	9d4c <__aeabi_f2iz+0x18>
    9d64:	0008      	movs	r0, r1
    9d66:	e7f1      	b.n	9d4c <__aeabi_f2iz+0x18>
    9d68:	3a96      	subs	r2, #150	; 0x96
    9d6a:	4091      	lsls	r1, r2
    9d6c:	e7f7      	b.n	9d5e <__aeabi_f2iz+0x2a>
    9d6e:	46c0      	nop			; (mov r8, r8)
    9d70:	7fffffff 	.word	0x7fffffff

00009d74 <__aeabi_i2f>:
    9d74:	b570      	push	{r4, r5, r6, lr}
    9d76:	2800      	cmp	r0, #0
    9d78:	d013      	beq.n	9da2 <__aeabi_i2f+0x2e>
    9d7a:	17c3      	asrs	r3, r0, #31
    9d7c:	18c5      	adds	r5, r0, r3
    9d7e:	405d      	eors	r5, r3
    9d80:	0fc4      	lsrs	r4, r0, #31
    9d82:	0028      	movs	r0, r5
    9d84:	f001 ff5e 	bl	bc44 <__clzsi2>
    9d88:	239e      	movs	r3, #158	; 0x9e
    9d8a:	0001      	movs	r1, r0
    9d8c:	1a1b      	subs	r3, r3, r0
    9d8e:	2b96      	cmp	r3, #150	; 0x96
    9d90:	dc0f      	bgt.n	9db2 <__aeabi_i2f+0x3e>
    9d92:	2808      	cmp	r0, #8
    9d94:	d031      	beq.n	9dfa <__aeabi_i2f+0x86>
    9d96:	3908      	subs	r1, #8
    9d98:	408d      	lsls	r5, r1
    9d9a:	026d      	lsls	r5, r5, #9
    9d9c:	0a6d      	lsrs	r5, r5, #9
    9d9e:	b2d8      	uxtb	r0, r3
    9da0:	e002      	b.n	9da8 <__aeabi_i2f+0x34>
    9da2:	2400      	movs	r4, #0
    9da4:	2000      	movs	r0, #0
    9da6:	2500      	movs	r5, #0
    9da8:	05c0      	lsls	r0, r0, #23
    9daa:	4328      	orrs	r0, r5
    9dac:	07e4      	lsls	r4, r4, #31
    9dae:	4320      	orrs	r0, r4
    9db0:	bd70      	pop	{r4, r5, r6, pc}
    9db2:	2b99      	cmp	r3, #153	; 0x99
    9db4:	dd0c      	ble.n	9dd0 <__aeabi_i2f+0x5c>
    9db6:	2205      	movs	r2, #5
    9db8:	1a12      	subs	r2, r2, r0
    9dba:	0028      	movs	r0, r5
    9dbc:	40d0      	lsrs	r0, r2
    9dbe:	0002      	movs	r2, r0
    9dc0:	0008      	movs	r0, r1
    9dc2:	301b      	adds	r0, #27
    9dc4:	4085      	lsls	r5, r0
    9dc6:	0028      	movs	r0, r5
    9dc8:	1e45      	subs	r5, r0, #1
    9dca:	41a8      	sbcs	r0, r5
    9dcc:	4302      	orrs	r2, r0
    9dce:	0015      	movs	r5, r2
    9dd0:	2905      	cmp	r1, #5
    9dd2:	dc16      	bgt.n	9e02 <__aeabi_i2f+0x8e>
    9dd4:	002a      	movs	r2, r5
    9dd6:	480f      	ldr	r0, [pc, #60]	; (9e14 <__aeabi_i2f+0xa0>)
    9dd8:	4002      	ands	r2, r0
    9dda:	076e      	lsls	r6, r5, #29
    9ddc:	d009      	beq.n	9df2 <__aeabi_i2f+0x7e>
    9dde:	260f      	movs	r6, #15
    9de0:	4035      	ands	r5, r6
    9de2:	2d04      	cmp	r5, #4
    9de4:	d005      	beq.n	9df2 <__aeabi_i2f+0x7e>
    9de6:	3204      	adds	r2, #4
    9de8:	0155      	lsls	r5, r2, #5
    9dea:	d502      	bpl.n	9df2 <__aeabi_i2f+0x7e>
    9dec:	239f      	movs	r3, #159	; 0x9f
    9dee:	4002      	ands	r2, r0
    9df0:	1a5b      	subs	r3, r3, r1
    9df2:	0192      	lsls	r2, r2, #6
    9df4:	0a55      	lsrs	r5, r2, #9
    9df6:	b2d8      	uxtb	r0, r3
    9df8:	e7d6      	b.n	9da8 <__aeabi_i2f+0x34>
    9dfa:	026d      	lsls	r5, r5, #9
    9dfc:	2096      	movs	r0, #150	; 0x96
    9dfe:	0a6d      	lsrs	r5, r5, #9
    9e00:	e7d2      	b.n	9da8 <__aeabi_i2f+0x34>
    9e02:	1f4a      	subs	r2, r1, #5
    9e04:	4095      	lsls	r5, r2
    9e06:	002a      	movs	r2, r5
    9e08:	4802      	ldr	r0, [pc, #8]	; (9e14 <__aeabi_i2f+0xa0>)
    9e0a:	4002      	ands	r2, r0
    9e0c:	076e      	lsls	r6, r5, #29
    9e0e:	d0f0      	beq.n	9df2 <__aeabi_i2f+0x7e>
    9e10:	e7e5      	b.n	9dde <__aeabi_i2f+0x6a>
    9e12:	46c0      	nop			; (mov r8, r8)
    9e14:	fbffffff 	.word	0xfbffffff

00009e18 <__aeabi_dadd>:
    9e18:	b5f0      	push	{r4, r5, r6, r7, lr}
    9e1a:	464f      	mov	r7, r9
    9e1c:	4646      	mov	r6, r8
    9e1e:	46d6      	mov	lr, sl
    9e20:	0004      	movs	r4, r0
    9e22:	b5c0      	push	{r6, r7, lr}
    9e24:	001f      	movs	r7, r3
    9e26:	030b      	lsls	r3, r1, #12
    9e28:	0010      	movs	r0, r2
    9e2a:	004e      	lsls	r6, r1, #1
    9e2c:	0a5b      	lsrs	r3, r3, #9
    9e2e:	0fcd      	lsrs	r5, r1, #31
    9e30:	0f61      	lsrs	r1, r4, #29
    9e32:	007a      	lsls	r2, r7, #1
    9e34:	4319      	orrs	r1, r3
    9e36:	00e3      	lsls	r3, r4, #3
    9e38:	033c      	lsls	r4, r7, #12
    9e3a:	0fff      	lsrs	r7, r7, #31
    9e3c:	46bc      	mov	ip, r7
    9e3e:	0a64      	lsrs	r4, r4, #9
    9e40:	0f47      	lsrs	r7, r0, #29
    9e42:	4327      	orrs	r7, r4
    9e44:	0d76      	lsrs	r6, r6, #21
    9e46:	0d52      	lsrs	r2, r2, #21
    9e48:	00c0      	lsls	r0, r0, #3
    9e4a:	46b9      	mov	r9, r7
    9e4c:	4680      	mov	r8, r0
    9e4e:	1ab7      	subs	r7, r6, r2
    9e50:	4565      	cmp	r5, ip
    9e52:	d100      	bne.n	9e56 <__aeabi_dadd+0x3e>
    9e54:	e09b      	b.n	9f8e <__aeabi_dadd+0x176>
    9e56:	2f00      	cmp	r7, #0
    9e58:	dc00      	bgt.n	9e5c <__aeabi_dadd+0x44>
    9e5a:	e084      	b.n	9f66 <__aeabi_dadd+0x14e>
    9e5c:	2a00      	cmp	r2, #0
    9e5e:	d100      	bne.n	9e62 <__aeabi_dadd+0x4a>
    9e60:	e0be      	b.n	9fe0 <__aeabi_dadd+0x1c8>
    9e62:	4ac8      	ldr	r2, [pc, #800]	; (a184 <__aeabi_dadd+0x36c>)
    9e64:	4296      	cmp	r6, r2
    9e66:	d100      	bne.n	9e6a <__aeabi_dadd+0x52>
    9e68:	e124      	b.n	a0b4 <__aeabi_dadd+0x29c>
    9e6a:	2280      	movs	r2, #128	; 0x80
    9e6c:	464c      	mov	r4, r9
    9e6e:	0412      	lsls	r2, r2, #16
    9e70:	4314      	orrs	r4, r2
    9e72:	46a1      	mov	r9, r4
    9e74:	2f38      	cmp	r7, #56	; 0x38
    9e76:	dd00      	ble.n	9e7a <__aeabi_dadd+0x62>
    9e78:	e167      	b.n	a14a <__aeabi_dadd+0x332>
    9e7a:	2f1f      	cmp	r7, #31
    9e7c:	dd00      	ble.n	9e80 <__aeabi_dadd+0x68>
    9e7e:	e1d6      	b.n	a22e <__aeabi_dadd+0x416>
    9e80:	2220      	movs	r2, #32
    9e82:	464c      	mov	r4, r9
    9e84:	1bd2      	subs	r2, r2, r7
    9e86:	4094      	lsls	r4, r2
    9e88:	46a2      	mov	sl, r4
    9e8a:	4644      	mov	r4, r8
    9e8c:	40fc      	lsrs	r4, r7
    9e8e:	0020      	movs	r0, r4
    9e90:	4654      	mov	r4, sl
    9e92:	4304      	orrs	r4, r0
    9e94:	4640      	mov	r0, r8
    9e96:	4090      	lsls	r0, r2
    9e98:	1e42      	subs	r2, r0, #1
    9e9a:	4190      	sbcs	r0, r2
    9e9c:	464a      	mov	r2, r9
    9e9e:	40fa      	lsrs	r2, r7
    9ea0:	4304      	orrs	r4, r0
    9ea2:	1a89      	subs	r1, r1, r2
    9ea4:	1b1c      	subs	r4, r3, r4
    9ea6:	42a3      	cmp	r3, r4
    9ea8:	4192      	sbcs	r2, r2
    9eaa:	4252      	negs	r2, r2
    9eac:	1a8b      	subs	r3, r1, r2
    9eae:	469a      	mov	sl, r3
    9eb0:	4653      	mov	r3, sl
    9eb2:	021b      	lsls	r3, r3, #8
    9eb4:	d400      	bmi.n	9eb8 <__aeabi_dadd+0xa0>
    9eb6:	e0d4      	b.n	a062 <__aeabi_dadd+0x24a>
    9eb8:	4653      	mov	r3, sl
    9eba:	025a      	lsls	r2, r3, #9
    9ebc:	0a53      	lsrs	r3, r2, #9
    9ebe:	469a      	mov	sl, r3
    9ec0:	4653      	mov	r3, sl
    9ec2:	2b00      	cmp	r3, #0
    9ec4:	d100      	bne.n	9ec8 <__aeabi_dadd+0xb0>
    9ec6:	e104      	b.n	a0d2 <__aeabi_dadd+0x2ba>
    9ec8:	4650      	mov	r0, sl
    9eca:	f001 febb 	bl	bc44 <__clzsi2>
    9ece:	0003      	movs	r3, r0
    9ed0:	3b08      	subs	r3, #8
    9ed2:	2220      	movs	r2, #32
    9ed4:	0020      	movs	r0, r4
    9ed6:	1ad2      	subs	r2, r2, r3
    9ed8:	4651      	mov	r1, sl
    9eda:	40d0      	lsrs	r0, r2
    9edc:	4099      	lsls	r1, r3
    9ede:	0002      	movs	r2, r0
    9ee0:	409c      	lsls	r4, r3
    9ee2:	430a      	orrs	r2, r1
    9ee4:	42b3      	cmp	r3, r6
    9ee6:	da00      	bge.n	9eea <__aeabi_dadd+0xd2>
    9ee8:	e102      	b.n	a0f0 <__aeabi_dadd+0x2d8>
    9eea:	1b9b      	subs	r3, r3, r6
    9eec:	1c59      	adds	r1, r3, #1
    9eee:	291f      	cmp	r1, #31
    9ef0:	dd00      	ble.n	9ef4 <__aeabi_dadd+0xdc>
    9ef2:	e0a7      	b.n	a044 <__aeabi_dadd+0x22c>
    9ef4:	2320      	movs	r3, #32
    9ef6:	0010      	movs	r0, r2
    9ef8:	0026      	movs	r6, r4
    9efa:	1a5b      	subs	r3, r3, r1
    9efc:	409c      	lsls	r4, r3
    9efe:	4098      	lsls	r0, r3
    9f00:	40ce      	lsrs	r6, r1
    9f02:	40ca      	lsrs	r2, r1
    9f04:	1e63      	subs	r3, r4, #1
    9f06:	419c      	sbcs	r4, r3
    9f08:	4330      	orrs	r0, r6
    9f0a:	4692      	mov	sl, r2
    9f0c:	2600      	movs	r6, #0
    9f0e:	4304      	orrs	r4, r0
    9f10:	0763      	lsls	r3, r4, #29
    9f12:	d009      	beq.n	9f28 <__aeabi_dadd+0x110>
    9f14:	230f      	movs	r3, #15
    9f16:	4023      	ands	r3, r4
    9f18:	2b04      	cmp	r3, #4
    9f1a:	d005      	beq.n	9f28 <__aeabi_dadd+0x110>
    9f1c:	1d23      	adds	r3, r4, #4
    9f1e:	42a3      	cmp	r3, r4
    9f20:	41a4      	sbcs	r4, r4
    9f22:	4264      	negs	r4, r4
    9f24:	44a2      	add	sl, r4
    9f26:	001c      	movs	r4, r3
    9f28:	4653      	mov	r3, sl
    9f2a:	021b      	lsls	r3, r3, #8
    9f2c:	d400      	bmi.n	9f30 <__aeabi_dadd+0x118>
    9f2e:	e09b      	b.n	a068 <__aeabi_dadd+0x250>
    9f30:	4b94      	ldr	r3, [pc, #592]	; (a184 <__aeabi_dadd+0x36c>)
    9f32:	3601      	adds	r6, #1
    9f34:	429e      	cmp	r6, r3
    9f36:	d100      	bne.n	9f3a <__aeabi_dadd+0x122>
    9f38:	e0b8      	b.n	a0ac <__aeabi_dadd+0x294>
    9f3a:	4653      	mov	r3, sl
    9f3c:	4992      	ldr	r1, [pc, #584]	; (a188 <__aeabi_dadd+0x370>)
    9f3e:	08e4      	lsrs	r4, r4, #3
    9f40:	400b      	ands	r3, r1
    9f42:	0019      	movs	r1, r3
    9f44:	075b      	lsls	r3, r3, #29
    9f46:	4323      	orrs	r3, r4
    9f48:	0572      	lsls	r2, r6, #21
    9f4a:	024c      	lsls	r4, r1, #9
    9f4c:	0b24      	lsrs	r4, r4, #12
    9f4e:	0d52      	lsrs	r2, r2, #21
    9f50:	0512      	lsls	r2, r2, #20
    9f52:	07ed      	lsls	r5, r5, #31
    9f54:	4322      	orrs	r2, r4
    9f56:	432a      	orrs	r2, r5
    9f58:	0018      	movs	r0, r3
    9f5a:	0011      	movs	r1, r2
    9f5c:	bce0      	pop	{r5, r6, r7}
    9f5e:	46ba      	mov	sl, r7
    9f60:	46b1      	mov	r9, r6
    9f62:	46a8      	mov	r8, r5
    9f64:	bdf0      	pop	{r4, r5, r6, r7, pc}
    9f66:	2f00      	cmp	r7, #0
    9f68:	d048      	beq.n	9ffc <__aeabi_dadd+0x1e4>
    9f6a:	1b97      	subs	r7, r2, r6
    9f6c:	2e00      	cmp	r6, #0
    9f6e:	d000      	beq.n	9f72 <__aeabi_dadd+0x15a>
    9f70:	e10e      	b.n	a190 <__aeabi_dadd+0x378>
    9f72:	000c      	movs	r4, r1
    9f74:	431c      	orrs	r4, r3
    9f76:	d100      	bne.n	9f7a <__aeabi_dadd+0x162>
    9f78:	e1b7      	b.n	a2ea <__aeabi_dadd+0x4d2>
    9f7a:	1e7c      	subs	r4, r7, #1
    9f7c:	2f01      	cmp	r7, #1
    9f7e:	d100      	bne.n	9f82 <__aeabi_dadd+0x16a>
    9f80:	e226      	b.n	a3d0 <__aeabi_dadd+0x5b8>
    9f82:	4d80      	ldr	r5, [pc, #512]	; (a184 <__aeabi_dadd+0x36c>)
    9f84:	42af      	cmp	r7, r5
    9f86:	d100      	bne.n	9f8a <__aeabi_dadd+0x172>
    9f88:	e1d5      	b.n	a336 <__aeabi_dadd+0x51e>
    9f8a:	0027      	movs	r7, r4
    9f8c:	e107      	b.n	a19e <__aeabi_dadd+0x386>
    9f8e:	2f00      	cmp	r7, #0
    9f90:	dc00      	bgt.n	9f94 <__aeabi_dadd+0x17c>
    9f92:	e0b2      	b.n	a0fa <__aeabi_dadd+0x2e2>
    9f94:	2a00      	cmp	r2, #0
    9f96:	d047      	beq.n	a028 <__aeabi_dadd+0x210>
    9f98:	4a7a      	ldr	r2, [pc, #488]	; (a184 <__aeabi_dadd+0x36c>)
    9f9a:	4296      	cmp	r6, r2
    9f9c:	d100      	bne.n	9fa0 <__aeabi_dadd+0x188>
    9f9e:	e089      	b.n	a0b4 <__aeabi_dadd+0x29c>
    9fa0:	2280      	movs	r2, #128	; 0x80
    9fa2:	464c      	mov	r4, r9
    9fa4:	0412      	lsls	r2, r2, #16
    9fa6:	4314      	orrs	r4, r2
    9fa8:	46a1      	mov	r9, r4
    9faa:	2f38      	cmp	r7, #56	; 0x38
    9fac:	dc6b      	bgt.n	a086 <__aeabi_dadd+0x26e>
    9fae:	2f1f      	cmp	r7, #31
    9fb0:	dc00      	bgt.n	9fb4 <__aeabi_dadd+0x19c>
    9fb2:	e16e      	b.n	a292 <__aeabi_dadd+0x47a>
    9fb4:	003a      	movs	r2, r7
    9fb6:	4648      	mov	r0, r9
    9fb8:	3a20      	subs	r2, #32
    9fba:	40d0      	lsrs	r0, r2
    9fbc:	4684      	mov	ip, r0
    9fbe:	2f20      	cmp	r7, #32
    9fc0:	d007      	beq.n	9fd2 <__aeabi_dadd+0x1ba>
    9fc2:	2240      	movs	r2, #64	; 0x40
    9fc4:	4648      	mov	r0, r9
    9fc6:	1bd2      	subs	r2, r2, r7
    9fc8:	4090      	lsls	r0, r2
    9fca:	0002      	movs	r2, r0
    9fcc:	4640      	mov	r0, r8
    9fce:	4310      	orrs	r0, r2
    9fd0:	4680      	mov	r8, r0
    9fd2:	4640      	mov	r0, r8
    9fd4:	1e42      	subs	r2, r0, #1
    9fd6:	4190      	sbcs	r0, r2
    9fd8:	4662      	mov	r2, ip
    9fda:	0004      	movs	r4, r0
    9fdc:	4314      	orrs	r4, r2
    9fde:	e057      	b.n	a090 <__aeabi_dadd+0x278>
    9fe0:	464a      	mov	r2, r9
    9fe2:	4302      	orrs	r2, r0
    9fe4:	d100      	bne.n	9fe8 <__aeabi_dadd+0x1d0>
    9fe6:	e103      	b.n	a1f0 <__aeabi_dadd+0x3d8>
    9fe8:	1e7a      	subs	r2, r7, #1
    9fea:	2f01      	cmp	r7, #1
    9fec:	d100      	bne.n	9ff0 <__aeabi_dadd+0x1d8>
    9fee:	e193      	b.n	a318 <__aeabi_dadd+0x500>
    9ff0:	4c64      	ldr	r4, [pc, #400]	; (a184 <__aeabi_dadd+0x36c>)
    9ff2:	42a7      	cmp	r7, r4
    9ff4:	d100      	bne.n	9ff8 <__aeabi_dadd+0x1e0>
    9ff6:	e18a      	b.n	a30e <__aeabi_dadd+0x4f6>
    9ff8:	0017      	movs	r7, r2
    9ffa:	e73b      	b.n	9e74 <__aeabi_dadd+0x5c>
    9ffc:	4c63      	ldr	r4, [pc, #396]	; (a18c <__aeabi_dadd+0x374>)
    9ffe:	1c72      	adds	r2, r6, #1
    a000:	4222      	tst	r2, r4
    a002:	d000      	beq.n	a006 <__aeabi_dadd+0x1ee>
    a004:	e0e0      	b.n	a1c8 <__aeabi_dadd+0x3b0>
    a006:	000a      	movs	r2, r1
    a008:	431a      	orrs	r2, r3
    a00a:	2e00      	cmp	r6, #0
    a00c:	d000      	beq.n	a010 <__aeabi_dadd+0x1f8>
    a00e:	e174      	b.n	a2fa <__aeabi_dadd+0x4e2>
    a010:	2a00      	cmp	r2, #0
    a012:	d100      	bne.n	a016 <__aeabi_dadd+0x1fe>
    a014:	e1d0      	b.n	a3b8 <__aeabi_dadd+0x5a0>
    a016:	464a      	mov	r2, r9
    a018:	4302      	orrs	r2, r0
    a01a:	d000      	beq.n	a01e <__aeabi_dadd+0x206>
    a01c:	e1e3      	b.n	a3e6 <__aeabi_dadd+0x5ce>
    a01e:	074a      	lsls	r2, r1, #29
    a020:	08db      	lsrs	r3, r3, #3
    a022:	4313      	orrs	r3, r2
    a024:	08c9      	lsrs	r1, r1, #3
    a026:	e029      	b.n	a07c <__aeabi_dadd+0x264>
    a028:	464a      	mov	r2, r9
    a02a:	4302      	orrs	r2, r0
    a02c:	d100      	bne.n	a030 <__aeabi_dadd+0x218>
    a02e:	e17d      	b.n	a32c <__aeabi_dadd+0x514>
    a030:	1e7a      	subs	r2, r7, #1
    a032:	2f01      	cmp	r7, #1
    a034:	d100      	bne.n	a038 <__aeabi_dadd+0x220>
    a036:	e0e0      	b.n	a1fa <__aeabi_dadd+0x3e2>
    a038:	4c52      	ldr	r4, [pc, #328]	; (a184 <__aeabi_dadd+0x36c>)
    a03a:	42a7      	cmp	r7, r4
    a03c:	d100      	bne.n	a040 <__aeabi_dadd+0x228>
    a03e:	e166      	b.n	a30e <__aeabi_dadd+0x4f6>
    a040:	0017      	movs	r7, r2
    a042:	e7b2      	b.n	9faa <__aeabi_dadd+0x192>
    a044:	0010      	movs	r0, r2
    a046:	3b1f      	subs	r3, #31
    a048:	40d8      	lsrs	r0, r3
    a04a:	2920      	cmp	r1, #32
    a04c:	d003      	beq.n	a056 <__aeabi_dadd+0x23e>
    a04e:	2340      	movs	r3, #64	; 0x40
    a050:	1a5b      	subs	r3, r3, r1
    a052:	409a      	lsls	r2, r3
    a054:	4314      	orrs	r4, r2
    a056:	1e63      	subs	r3, r4, #1
    a058:	419c      	sbcs	r4, r3
    a05a:	2300      	movs	r3, #0
    a05c:	2600      	movs	r6, #0
    a05e:	469a      	mov	sl, r3
    a060:	4304      	orrs	r4, r0
    a062:	0763      	lsls	r3, r4, #29
    a064:	d000      	beq.n	a068 <__aeabi_dadd+0x250>
    a066:	e755      	b.n	9f14 <__aeabi_dadd+0xfc>
    a068:	4652      	mov	r2, sl
    a06a:	08e3      	lsrs	r3, r4, #3
    a06c:	0752      	lsls	r2, r2, #29
    a06e:	4313      	orrs	r3, r2
    a070:	4652      	mov	r2, sl
    a072:	0037      	movs	r7, r6
    a074:	08d1      	lsrs	r1, r2, #3
    a076:	4a43      	ldr	r2, [pc, #268]	; (a184 <__aeabi_dadd+0x36c>)
    a078:	4297      	cmp	r7, r2
    a07a:	d01f      	beq.n	a0bc <__aeabi_dadd+0x2a4>
    a07c:	0309      	lsls	r1, r1, #12
    a07e:	057a      	lsls	r2, r7, #21
    a080:	0b0c      	lsrs	r4, r1, #12
    a082:	0d52      	lsrs	r2, r2, #21
    a084:	e764      	b.n	9f50 <__aeabi_dadd+0x138>
    a086:	4642      	mov	r2, r8
    a088:	464c      	mov	r4, r9
    a08a:	4314      	orrs	r4, r2
    a08c:	1e62      	subs	r2, r4, #1
    a08e:	4194      	sbcs	r4, r2
    a090:	18e4      	adds	r4, r4, r3
    a092:	429c      	cmp	r4, r3
    a094:	4192      	sbcs	r2, r2
    a096:	4252      	negs	r2, r2
    a098:	4692      	mov	sl, r2
    a09a:	448a      	add	sl, r1
    a09c:	4653      	mov	r3, sl
    a09e:	021b      	lsls	r3, r3, #8
    a0a0:	d5df      	bpl.n	a062 <__aeabi_dadd+0x24a>
    a0a2:	4b38      	ldr	r3, [pc, #224]	; (a184 <__aeabi_dadd+0x36c>)
    a0a4:	3601      	adds	r6, #1
    a0a6:	429e      	cmp	r6, r3
    a0a8:	d000      	beq.n	a0ac <__aeabi_dadd+0x294>
    a0aa:	e0b3      	b.n	a214 <__aeabi_dadd+0x3fc>
    a0ac:	0032      	movs	r2, r6
    a0ae:	2400      	movs	r4, #0
    a0b0:	2300      	movs	r3, #0
    a0b2:	e74d      	b.n	9f50 <__aeabi_dadd+0x138>
    a0b4:	074a      	lsls	r2, r1, #29
    a0b6:	08db      	lsrs	r3, r3, #3
    a0b8:	4313      	orrs	r3, r2
    a0ba:	08c9      	lsrs	r1, r1, #3
    a0bc:	001a      	movs	r2, r3
    a0be:	430a      	orrs	r2, r1
    a0c0:	d100      	bne.n	a0c4 <__aeabi_dadd+0x2ac>
    a0c2:	e200      	b.n	a4c6 <__aeabi_dadd+0x6ae>
    a0c4:	2480      	movs	r4, #128	; 0x80
    a0c6:	0324      	lsls	r4, r4, #12
    a0c8:	430c      	orrs	r4, r1
    a0ca:	0324      	lsls	r4, r4, #12
    a0cc:	4a2d      	ldr	r2, [pc, #180]	; (a184 <__aeabi_dadd+0x36c>)
    a0ce:	0b24      	lsrs	r4, r4, #12
    a0d0:	e73e      	b.n	9f50 <__aeabi_dadd+0x138>
    a0d2:	0020      	movs	r0, r4
    a0d4:	f001 fdb6 	bl	bc44 <__clzsi2>
    a0d8:	0003      	movs	r3, r0
    a0da:	3318      	adds	r3, #24
    a0dc:	2b1f      	cmp	r3, #31
    a0de:	dc00      	bgt.n	a0e2 <__aeabi_dadd+0x2ca>
    a0e0:	e6f7      	b.n	9ed2 <__aeabi_dadd+0xba>
    a0e2:	0022      	movs	r2, r4
    a0e4:	3808      	subs	r0, #8
    a0e6:	4082      	lsls	r2, r0
    a0e8:	2400      	movs	r4, #0
    a0ea:	42b3      	cmp	r3, r6
    a0ec:	db00      	blt.n	a0f0 <__aeabi_dadd+0x2d8>
    a0ee:	e6fc      	b.n	9eea <__aeabi_dadd+0xd2>
    a0f0:	1af6      	subs	r6, r6, r3
    a0f2:	4b25      	ldr	r3, [pc, #148]	; (a188 <__aeabi_dadd+0x370>)
    a0f4:	401a      	ands	r2, r3
    a0f6:	4692      	mov	sl, r2
    a0f8:	e70a      	b.n	9f10 <__aeabi_dadd+0xf8>
    a0fa:	2f00      	cmp	r7, #0
    a0fc:	d02b      	beq.n	a156 <__aeabi_dadd+0x33e>
    a0fe:	1b97      	subs	r7, r2, r6
    a100:	2e00      	cmp	r6, #0
    a102:	d100      	bne.n	a106 <__aeabi_dadd+0x2ee>
    a104:	e0b8      	b.n	a278 <__aeabi_dadd+0x460>
    a106:	4c1f      	ldr	r4, [pc, #124]	; (a184 <__aeabi_dadd+0x36c>)
    a108:	42a2      	cmp	r2, r4
    a10a:	d100      	bne.n	a10e <__aeabi_dadd+0x2f6>
    a10c:	e11c      	b.n	a348 <__aeabi_dadd+0x530>
    a10e:	2480      	movs	r4, #128	; 0x80
    a110:	0424      	lsls	r4, r4, #16
    a112:	4321      	orrs	r1, r4
    a114:	2f38      	cmp	r7, #56	; 0x38
    a116:	dd00      	ble.n	a11a <__aeabi_dadd+0x302>
    a118:	e11e      	b.n	a358 <__aeabi_dadd+0x540>
    a11a:	2f1f      	cmp	r7, #31
    a11c:	dd00      	ble.n	a120 <__aeabi_dadd+0x308>
    a11e:	e19e      	b.n	a45e <__aeabi_dadd+0x646>
    a120:	2620      	movs	r6, #32
    a122:	000c      	movs	r4, r1
    a124:	1bf6      	subs	r6, r6, r7
    a126:	0018      	movs	r0, r3
    a128:	40b3      	lsls	r3, r6
    a12a:	40b4      	lsls	r4, r6
    a12c:	40f8      	lsrs	r0, r7
    a12e:	1e5e      	subs	r6, r3, #1
    a130:	41b3      	sbcs	r3, r6
    a132:	40f9      	lsrs	r1, r7
    a134:	4304      	orrs	r4, r0
    a136:	431c      	orrs	r4, r3
    a138:	4489      	add	r9, r1
    a13a:	4444      	add	r4, r8
    a13c:	4544      	cmp	r4, r8
    a13e:	419b      	sbcs	r3, r3
    a140:	425b      	negs	r3, r3
    a142:	444b      	add	r3, r9
    a144:	469a      	mov	sl, r3
    a146:	0016      	movs	r6, r2
    a148:	e7a8      	b.n	a09c <__aeabi_dadd+0x284>
    a14a:	4642      	mov	r2, r8
    a14c:	464c      	mov	r4, r9
    a14e:	4314      	orrs	r4, r2
    a150:	1e62      	subs	r2, r4, #1
    a152:	4194      	sbcs	r4, r2
    a154:	e6a6      	b.n	9ea4 <__aeabi_dadd+0x8c>
    a156:	4c0d      	ldr	r4, [pc, #52]	; (a18c <__aeabi_dadd+0x374>)
    a158:	1c72      	adds	r2, r6, #1
    a15a:	4222      	tst	r2, r4
    a15c:	d000      	beq.n	a160 <__aeabi_dadd+0x348>
    a15e:	e0a8      	b.n	a2b2 <__aeabi_dadd+0x49a>
    a160:	000a      	movs	r2, r1
    a162:	431a      	orrs	r2, r3
    a164:	2e00      	cmp	r6, #0
    a166:	d000      	beq.n	a16a <__aeabi_dadd+0x352>
    a168:	e10a      	b.n	a380 <__aeabi_dadd+0x568>
    a16a:	2a00      	cmp	r2, #0
    a16c:	d100      	bne.n	a170 <__aeabi_dadd+0x358>
    a16e:	e15e      	b.n	a42e <__aeabi_dadd+0x616>
    a170:	464a      	mov	r2, r9
    a172:	4302      	orrs	r2, r0
    a174:	d000      	beq.n	a178 <__aeabi_dadd+0x360>
    a176:	e161      	b.n	a43c <__aeabi_dadd+0x624>
    a178:	074a      	lsls	r2, r1, #29
    a17a:	08db      	lsrs	r3, r3, #3
    a17c:	4313      	orrs	r3, r2
    a17e:	08c9      	lsrs	r1, r1, #3
    a180:	e77c      	b.n	a07c <__aeabi_dadd+0x264>
    a182:	46c0      	nop			; (mov r8, r8)
    a184:	000007ff 	.word	0x000007ff
    a188:	ff7fffff 	.word	0xff7fffff
    a18c:	000007fe 	.word	0x000007fe
    a190:	4ccf      	ldr	r4, [pc, #828]	; (a4d0 <__aeabi_dadd+0x6b8>)
    a192:	42a2      	cmp	r2, r4
    a194:	d100      	bne.n	a198 <__aeabi_dadd+0x380>
    a196:	e0ce      	b.n	a336 <__aeabi_dadd+0x51e>
    a198:	2480      	movs	r4, #128	; 0x80
    a19a:	0424      	lsls	r4, r4, #16
    a19c:	4321      	orrs	r1, r4
    a19e:	2f38      	cmp	r7, #56	; 0x38
    a1a0:	dc5b      	bgt.n	a25a <__aeabi_dadd+0x442>
    a1a2:	2f1f      	cmp	r7, #31
    a1a4:	dd00      	ble.n	a1a8 <__aeabi_dadd+0x390>
    a1a6:	e0dc      	b.n	a362 <__aeabi_dadd+0x54a>
    a1a8:	2520      	movs	r5, #32
    a1aa:	000c      	movs	r4, r1
    a1ac:	1bed      	subs	r5, r5, r7
    a1ae:	001e      	movs	r6, r3
    a1b0:	40ab      	lsls	r3, r5
    a1b2:	40ac      	lsls	r4, r5
    a1b4:	40fe      	lsrs	r6, r7
    a1b6:	1e5d      	subs	r5, r3, #1
    a1b8:	41ab      	sbcs	r3, r5
    a1ba:	4334      	orrs	r4, r6
    a1bc:	40f9      	lsrs	r1, r7
    a1be:	431c      	orrs	r4, r3
    a1c0:	464b      	mov	r3, r9
    a1c2:	1a5b      	subs	r3, r3, r1
    a1c4:	4699      	mov	r9, r3
    a1c6:	e04c      	b.n	a262 <__aeabi_dadd+0x44a>
    a1c8:	464a      	mov	r2, r9
    a1ca:	1a1c      	subs	r4, r3, r0
    a1cc:	1a88      	subs	r0, r1, r2
    a1ce:	42a3      	cmp	r3, r4
    a1d0:	4192      	sbcs	r2, r2
    a1d2:	4252      	negs	r2, r2
    a1d4:	4692      	mov	sl, r2
    a1d6:	0002      	movs	r2, r0
    a1d8:	4650      	mov	r0, sl
    a1da:	1a12      	subs	r2, r2, r0
    a1dc:	4692      	mov	sl, r2
    a1de:	0212      	lsls	r2, r2, #8
    a1e0:	d478      	bmi.n	a2d4 <__aeabi_dadd+0x4bc>
    a1e2:	4653      	mov	r3, sl
    a1e4:	4323      	orrs	r3, r4
    a1e6:	d000      	beq.n	a1ea <__aeabi_dadd+0x3d2>
    a1e8:	e66a      	b.n	9ec0 <__aeabi_dadd+0xa8>
    a1ea:	2100      	movs	r1, #0
    a1ec:	2500      	movs	r5, #0
    a1ee:	e745      	b.n	a07c <__aeabi_dadd+0x264>
    a1f0:	074a      	lsls	r2, r1, #29
    a1f2:	08db      	lsrs	r3, r3, #3
    a1f4:	4313      	orrs	r3, r2
    a1f6:	08c9      	lsrs	r1, r1, #3
    a1f8:	e73d      	b.n	a076 <__aeabi_dadd+0x25e>
    a1fa:	181c      	adds	r4, r3, r0
    a1fc:	429c      	cmp	r4, r3
    a1fe:	419b      	sbcs	r3, r3
    a200:	4449      	add	r1, r9
    a202:	468a      	mov	sl, r1
    a204:	425b      	negs	r3, r3
    a206:	449a      	add	sl, r3
    a208:	4653      	mov	r3, sl
    a20a:	2601      	movs	r6, #1
    a20c:	021b      	lsls	r3, r3, #8
    a20e:	d400      	bmi.n	a212 <__aeabi_dadd+0x3fa>
    a210:	e727      	b.n	a062 <__aeabi_dadd+0x24a>
    a212:	2602      	movs	r6, #2
    a214:	4652      	mov	r2, sl
    a216:	4baf      	ldr	r3, [pc, #700]	; (a4d4 <__aeabi_dadd+0x6bc>)
    a218:	2101      	movs	r1, #1
    a21a:	401a      	ands	r2, r3
    a21c:	0013      	movs	r3, r2
    a21e:	4021      	ands	r1, r4
    a220:	0862      	lsrs	r2, r4, #1
    a222:	430a      	orrs	r2, r1
    a224:	07dc      	lsls	r4, r3, #31
    a226:	085b      	lsrs	r3, r3, #1
    a228:	469a      	mov	sl, r3
    a22a:	4314      	orrs	r4, r2
    a22c:	e670      	b.n	9f10 <__aeabi_dadd+0xf8>
    a22e:	003a      	movs	r2, r7
    a230:	464c      	mov	r4, r9
    a232:	3a20      	subs	r2, #32
    a234:	40d4      	lsrs	r4, r2
    a236:	46a4      	mov	ip, r4
    a238:	2f20      	cmp	r7, #32
    a23a:	d007      	beq.n	a24c <__aeabi_dadd+0x434>
    a23c:	2240      	movs	r2, #64	; 0x40
    a23e:	4648      	mov	r0, r9
    a240:	1bd2      	subs	r2, r2, r7
    a242:	4090      	lsls	r0, r2
    a244:	0002      	movs	r2, r0
    a246:	4640      	mov	r0, r8
    a248:	4310      	orrs	r0, r2
    a24a:	4680      	mov	r8, r0
    a24c:	4640      	mov	r0, r8
    a24e:	1e42      	subs	r2, r0, #1
    a250:	4190      	sbcs	r0, r2
    a252:	4662      	mov	r2, ip
    a254:	0004      	movs	r4, r0
    a256:	4314      	orrs	r4, r2
    a258:	e624      	b.n	9ea4 <__aeabi_dadd+0x8c>
    a25a:	4319      	orrs	r1, r3
    a25c:	000c      	movs	r4, r1
    a25e:	1e63      	subs	r3, r4, #1
    a260:	419c      	sbcs	r4, r3
    a262:	4643      	mov	r3, r8
    a264:	1b1c      	subs	r4, r3, r4
    a266:	45a0      	cmp	r8, r4
    a268:	419b      	sbcs	r3, r3
    a26a:	4649      	mov	r1, r9
    a26c:	425b      	negs	r3, r3
    a26e:	1acb      	subs	r3, r1, r3
    a270:	469a      	mov	sl, r3
    a272:	4665      	mov	r5, ip
    a274:	0016      	movs	r6, r2
    a276:	e61b      	b.n	9eb0 <__aeabi_dadd+0x98>
    a278:	000c      	movs	r4, r1
    a27a:	431c      	orrs	r4, r3
    a27c:	d100      	bne.n	a280 <__aeabi_dadd+0x468>
    a27e:	e0c7      	b.n	a410 <__aeabi_dadd+0x5f8>
    a280:	1e7c      	subs	r4, r7, #1
    a282:	2f01      	cmp	r7, #1
    a284:	d100      	bne.n	a288 <__aeabi_dadd+0x470>
    a286:	e0f9      	b.n	a47c <__aeabi_dadd+0x664>
    a288:	4e91      	ldr	r6, [pc, #580]	; (a4d0 <__aeabi_dadd+0x6b8>)
    a28a:	42b7      	cmp	r7, r6
    a28c:	d05c      	beq.n	a348 <__aeabi_dadd+0x530>
    a28e:	0027      	movs	r7, r4
    a290:	e740      	b.n	a114 <__aeabi_dadd+0x2fc>
    a292:	2220      	movs	r2, #32
    a294:	464c      	mov	r4, r9
    a296:	4640      	mov	r0, r8
    a298:	1bd2      	subs	r2, r2, r7
    a29a:	4094      	lsls	r4, r2
    a29c:	40f8      	lsrs	r0, r7
    a29e:	4304      	orrs	r4, r0
    a2a0:	4640      	mov	r0, r8
    a2a2:	4090      	lsls	r0, r2
    a2a4:	1e42      	subs	r2, r0, #1
    a2a6:	4190      	sbcs	r0, r2
    a2a8:	464a      	mov	r2, r9
    a2aa:	40fa      	lsrs	r2, r7
    a2ac:	4304      	orrs	r4, r0
    a2ae:	1889      	adds	r1, r1, r2
    a2b0:	e6ee      	b.n	a090 <__aeabi_dadd+0x278>
    a2b2:	4c87      	ldr	r4, [pc, #540]	; (a4d0 <__aeabi_dadd+0x6b8>)
    a2b4:	42a2      	cmp	r2, r4
    a2b6:	d100      	bne.n	a2ba <__aeabi_dadd+0x4a2>
    a2b8:	e6f9      	b.n	a0ae <__aeabi_dadd+0x296>
    a2ba:	1818      	adds	r0, r3, r0
    a2bc:	4298      	cmp	r0, r3
    a2be:	419b      	sbcs	r3, r3
    a2c0:	4449      	add	r1, r9
    a2c2:	425b      	negs	r3, r3
    a2c4:	18cb      	adds	r3, r1, r3
    a2c6:	07dc      	lsls	r4, r3, #31
    a2c8:	0840      	lsrs	r0, r0, #1
    a2ca:	085b      	lsrs	r3, r3, #1
    a2cc:	469a      	mov	sl, r3
    a2ce:	0016      	movs	r6, r2
    a2d0:	4304      	orrs	r4, r0
    a2d2:	e6c6      	b.n	a062 <__aeabi_dadd+0x24a>
    a2d4:	4642      	mov	r2, r8
    a2d6:	1ad4      	subs	r4, r2, r3
    a2d8:	45a0      	cmp	r8, r4
    a2da:	4180      	sbcs	r0, r0
    a2dc:	464b      	mov	r3, r9
    a2de:	4240      	negs	r0, r0
    a2e0:	1a59      	subs	r1, r3, r1
    a2e2:	1a0b      	subs	r3, r1, r0
    a2e4:	469a      	mov	sl, r3
    a2e6:	4665      	mov	r5, ip
    a2e8:	e5ea      	b.n	9ec0 <__aeabi_dadd+0xa8>
    a2ea:	464b      	mov	r3, r9
    a2ec:	464a      	mov	r2, r9
    a2ee:	08c0      	lsrs	r0, r0, #3
    a2f0:	075b      	lsls	r3, r3, #29
    a2f2:	4665      	mov	r5, ip
    a2f4:	4303      	orrs	r3, r0
    a2f6:	08d1      	lsrs	r1, r2, #3
    a2f8:	e6bd      	b.n	a076 <__aeabi_dadd+0x25e>
    a2fa:	2a00      	cmp	r2, #0
    a2fc:	d000      	beq.n	a300 <__aeabi_dadd+0x4e8>
    a2fe:	e08e      	b.n	a41e <__aeabi_dadd+0x606>
    a300:	464b      	mov	r3, r9
    a302:	4303      	orrs	r3, r0
    a304:	d117      	bne.n	a336 <__aeabi_dadd+0x51e>
    a306:	2180      	movs	r1, #128	; 0x80
    a308:	2500      	movs	r5, #0
    a30a:	0309      	lsls	r1, r1, #12
    a30c:	e6da      	b.n	a0c4 <__aeabi_dadd+0x2ac>
    a30e:	074a      	lsls	r2, r1, #29
    a310:	08db      	lsrs	r3, r3, #3
    a312:	4313      	orrs	r3, r2
    a314:	08c9      	lsrs	r1, r1, #3
    a316:	e6d1      	b.n	a0bc <__aeabi_dadd+0x2a4>
    a318:	1a1c      	subs	r4, r3, r0
    a31a:	464a      	mov	r2, r9
    a31c:	42a3      	cmp	r3, r4
    a31e:	419b      	sbcs	r3, r3
    a320:	1a89      	subs	r1, r1, r2
    a322:	425b      	negs	r3, r3
    a324:	1acb      	subs	r3, r1, r3
    a326:	469a      	mov	sl, r3
    a328:	2601      	movs	r6, #1
    a32a:	e5c1      	b.n	9eb0 <__aeabi_dadd+0x98>
    a32c:	074a      	lsls	r2, r1, #29
    a32e:	08db      	lsrs	r3, r3, #3
    a330:	4313      	orrs	r3, r2
    a332:	08c9      	lsrs	r1, r1, #3
    a334:	e69f      	b.n	a076 <__aeabi_dadd+0x25e>
    a336:	4643      	mov	r3, r8
    a338:	08d8      	lsrs	r0, r3, #3
    a33a:	464b      	mov	r3, r9
    a33c:	464a      	mov	r2, r9
    a33e:	075b      	lsls	r3, r3, #29
    a340:	4665      	mov	r5, ip
    a342:	4303      	orrs	r3, r0
    a344:	08d1      	lsrs	r1, r2, #3
    a346:	e6b9      	b.n	a0bc <__aeabi_dadd+0x2a4>
    a348:	4643      	mov	r3, r8
    a34a:	08d8      	lsrs	r0, r3, #3
    a34c:	464b      	mov	r3, r9
    a34e:	464a      	mov	r2, r9
    a350:	075b      	lsls	r3, r3, #29
    a352:	4303      	orrs	r3, r0
    a354:	08d1      	lsrs	r1, r2, #3
    a356:	e6b1      	b.n	a0bc <__aeabi_dadd+0x2a4>
    a358:	4319      	orrs	r1, r3
    a35a:	000c      	movs	r4, r1
    a35c:	1e63      	subs	r3, r4, #1
    a35e:	419c      	sbcs	r4, r3
    a360:	e6eb      	b.n	a13a <__aeabi_dadd+0x322>
    a362:	003c      	movs	r4, r7
    a364:	000d      	movs	r5, r1
    a366:	3c20      	subs	r4, #32
    a368:	40e5      	lsrs	r5, r4
    a36a:	2f20      	cmp	r7, #32
    a36c:	d003      	beq.n	a376 <__aeabi_dadd+0x55e>
    a36e:	2440      	movs	r4, #64	; 0x40
    a370:	1be4      	subs	r4, r4, r7
    a372:	40a1      	lsls	r1, r4
    a374:	430b      	orrs	r3, r1
    a376:	001c      	movs	r4, r3
    a378:	1e63      	subs	r3, r4, #1
    a37a:	419c      	sbcs	r4, r3
    a37c:	432c      	orrs	r4, r5
    a37e:	e770      	b.n	a262 <__aeabi_dadd+0x44a>
    a380:	2a00      	cmp	r2, #0
    a382:	d0e1      	beq.n	a348 <__aeabi_dadd+0x530>
    a384:	464a      	mov	r2, r9
    a386:	4302      	orrs	r2, r0
    a388:	d0c1      	beq.n	a30e <__aeabi_dadd+0x4f6>
    a38a:	074a      	lsls	r2, r1, #29
    a38c:	08db      	lsrs	r3, r3, #3
    a38e:	4313      	orrs	r3, r2
    a390:	2280      	movs	r2, #128	; 0x80
    a392:	08c9      	lsrs	r1, r1, #3
    a394:	0312      	lsls	r2, r2, #12
    a396:	4211      	tst	r1, r2
    a398:	d008      	beq.n	a3ac <__aeabi_dadd+0x594>
    a39a:	4648      	mov	r0, r9
    a39c:	08c4      	lsrs	r4, r0, #3
    a39e:	4214      	tst	r4, r2
    a3a0:	d104      	bne.n	a3ac <__aeabi_dadd+0x594>
    a3a2:	4643      	mov	r3, r8
    a3a4:	0021      	movs	r1, r4
    a3a6:	08db      	lsrs	r3, r3, #3
    a3a8:	0742      	lsls	r2, r0, #29
    a3aa:	4313      	orrs	r3, r2
    a3ac:	0f5a      	lsrs	r2, r3, #29
    a3ae:	00db      	lsls	r3, r3, #3
    a3b0:	0752      	lsls	r2, r2, #29
    a3b2:	08db      	lsrs	r3, r3, #3
    a3b4:	4313      	orrs	r3, r2
    a3b6:	e681      	b.n	a0bc <__aeabi_dadd+0x2a4>
    a3b8:	464b      	mov	r3, r9
    a3ba:	4303      	orrs	r3, r0
    a3bc:	d100      	bne.n	a3c0 <__aeabi_dadd+0x5a8>
    a3be:	e714      	b.n	a1ea <__aeabi_dadd+0x3d2>
    a3c0:	464b      	mov	r3, r9
    a3c2:	464a      	mov	r2, r9
    a3c4:	08c0      	lsrs	r0, r0, #3
    a3c6:	075b      	lsls	r3, r3, #29
    a3c8:	4665      	mov	r5, ip
    a3ca:	4303      	orrs	r3, r0
    a3cc:	08d1      	lsrs	r1, r2, #3
    a3ce:	e655      	b.n	a07c <__aeabi_dadd+0x264>
    a3d0:	1ac4      	subs	r4, r0, r3
    a3d2:	45a0      	cmp	r8, r4
    a3d4:	4180      	sbcs	r0, r0
    a3d6:	464b      	mov	r3, r9
    a3d8:	4240      	negs	r0, r0
    a3da:	1a59      	subs	r1, r3, r1
    a3dc:	1a0b      	subs	r3, r1, r0
    a3de:	469a      	mov	sl, r3
    a3e0:	4665      	mov	r5, ip
    a3e2:	2601      	movs	r6, #1
    a3e4:	e564      	b.n	9eb0 <__aeabi_dadd+0x98>
    a3e6:	1a1c      	subs	r4, r3, r0
    a3e8:	464a      	mov	r2, r9
    a3ea:	42a3      	cmp	r3, r4
    a3ec:	4180      	sbcs	r0, r0
    a3ee:	1a8a      	subs	r2, r1, r2
    a3f0:	4240      	negs	r0, r0
    a3f2:	1a12      	subs	r2, r2, r0
    a3f4:	4692      	mov	sl, r2
    a3f6:	0212      	lsls	r2, r2, #8
    a3f8:	d549      	bpl.n	a48e <__aeabi_dadd+0x676>
    a3fa:	4642      	mov	r2, r8
    a3fc:	1ad4      	subs	r4, r2, r3
    a3fe:	45a0      	cmp	r8, r4
    a400:	4180      	sbcs	r0, r0
    a402:	464b      	mov	r3, r9
    a404:	4240      	negs	r0, r0
    a406:	1a59      	subs	r1, r3, r1
    a408:	1a0b      	subs	r3, r1, r0
    a40a:	469a      	mov	sl, r3
    a40c:	4665      	mov	r5, ip
    a40e:	e57f      	b.n	9f10 <__aeabi_dadd+0xf8>
    a410:	464b      	mov	r3, r9
    a412:	464a      	mov	r2, r9
    a414:	08c0      	lsrs	r0, r0, #3
    a416:	075b      	lsls	r3, r3, #29
    a418:	4303      	orrs	r3, r0
    a41a:	08d1      	lsrs	r1, r2, #3
    a41c:	e62b      	b.n	a076 <__aeabi_dadd+0x25e>
    a41e:	464a      	mov	r2, r9
    a420:	08db      	lsrs	r3, r3, #3
    a422:	4302      	orrs	r2, r0
    a424:	d138      	bne.n	a498 <__aeabi_dadd+0x680>
    a426:	074a      	lsls	r2, r1, #29
    a428:	4313      	orrs	r3, r2
    a42a:	08c9      	lsrs	r1, r1, #3
    a42c:	e646      	b.n	a0bc <__aeabi_dadd+0x2a4>
    a42e:	464b      	mov	r3, r9
    a430:	464a      	mov	r2, r9
    a432:	08c0      	lsrs	r0, r0, #3
    a434:	075b      	lsls	r3, r3, #29
    a436:	4303      	orrs	r3, r0
    a438:	08d1      	lsrs	r1, r2, #3
    a43a:	e61f      	b.n	a07c <__aeabi_dadd+0x264>
    a43c:	181c      	adds	r4, r3, r0
    a43e:	429c      	cmp	r4, r3
    a440:	419b      	sbcs	r3, r3
    a442:	4449      	add	r1, r9
    a444:	468a      	mov	sl, r1
    a446:	425b      	negs	r3, r3
    a448:	449a      	add	sl, r3
    a44a:	4653      	mov	r3, sl
    a44c:	021b      	lsls	r3, r3, #8
    a44e:	d400      	bmi.n	a452 <__aeabi_dadd+0x63a>
    a450:	e607      	b.n	a062 <__aeabi_dadd+0x24a>
    a452:	4652      	mov	r2, sl
    a454:	4b1f      	ldr	r3, [pc, #124]	; (a4d4 <__aeabi_dadd+0x6bc>)
    a456:	2601      	movs	r6, #1
    a458:	401a      	ands	r2, r3
    a45a:	4692      	mov	sl, r2
    a45c:	e601      	b.n	a062 <__aeabi_dadd+0x24a>
    a45e:	003c      	movs	r4, r7
    a460:	000e      	movs	r6, r1
    a462:	3c20      	subs	r4, #32
    a464:	40e6      	lsrs	r6, r4
    a466:	2f20      	cmp	r7, #32
    a468:	d003      	beq.n	a472 <__aeabi_dadd+0x65a>
    a46a:	2440      	movs	r4, #64	; 0x40
    a46c:	1be4      	subs	r4, r4, r7
    a46e:	40a1      	lsls	r1, r4
    a470:	430b      	orrs	r3, r1
    a472:	001c      	movs	r4, r3
    a474:	1e63      	subs	r3, r4, #1
    a476:	419c      	sbcs	r4, r3
    a478:	4334      	orrs	r4, r6
    a47a:	e65e      	b.n	a13a <__aeabi_dadd+0x322>
    a47c:	4443      	add	r3, r8
    a47e:	4283      	cmp	r3, r0
    a480:	4180      	sbcs	r0, r0
    a482:	4449      	add	r1, r9
    a484:	468a      	mov	sl, r1
    a486:	4240      	negs	r0, r0
    a488:	001c      	movs	r4, r3
    a48a:	4482      	add	sl, r0
    a48c:	e6bc      	b.n	a208 <__aeabi_dadd+0x3f0>
    a48e:	4653      	mov	r3, sl
    a490:	4323      	orrs	r3, r4
    a492:	d100      	bne.n	a496 <__aeabi_dadd+0x67e>
    a494:	e6a9      	b.n	a1ea <__aeabi_dadd+0x3d2>
    a496:	e5e4      	b.n	a062 <__aeabi_dadd+0x24a>
    a498:	074a      	lsls	r2, r1, #29
    a49a:	4313      	orrs	r3, r2
    a49c:	2280      	movs	r2, #128	; 0x80
    a49e:	08c9      	lsrs	r1, r1, #3
    a4a0:	0312      	lsls	r2, r2, #12
    a4a2:	4211      	tst	r1, r2
    a4a4:	d009      	beq.n	a4ba <__aeabi_dadd+0x6a2>
    a4a6:	4648      	mov	r0, r9
    a4a8:	08c4      	lsrs	r4, r0, #3
    a4aa:	4214      	tst	r4, r2
    a4ac:	d105      	bne.n	a4ba <__aeabi_dadd+0x6a2>
    a4ae:	4643      	mov	r3, r8
    a4b0:	4665      	mov	r5, ip
    a4b2:	0021      	movs	r1, r4
    a4b4:	08db      	lsrs	r3, r3, #3
    a4b6:	0742      	lsls	r2, r0, #29
    a4b8:	4313      	orrs	r3, r2
    a4ba:	0f5a      	lsrs	r2, r3, #29
    a4bc:	00db      	lsls	r3, r3, #3
    a4be:	08db      	lsrs	r3, r3, #3
    a4c0:	0752      	lsls	r2, r2, #29
    a4c2:	4313      	orrs	r3, r2
    a4c4:	e5fa      	b.n	a0bc <__aeabi_dadd+0x2a4>
    a4c6:	2300      	movs	r3, #0
    a4c8:	4a01      	ldr	r2, [pc, #4]	; (a4d0 <__aeabi_dadd+0x6b8>)
    a4ca:	001c      	movs	r4, r3
    a4cc:	e540      	b.n	9f50 <__aeabi_dadd+0x138>
    a4ce:	46c0      	nop			; (mov r8, r8)
    a4d0:	000007ff 	.word	0x000007ff
    a4d4:	ff7fffff 	.word	0xff7fffff

0000a4d8 <__aeabi_ddiv>:
    a4d8:	b5f0      	push	{r4, r5, r6, r7, lr}
    a4da:	4657      	mov	r7, sl
    a4dc:	464e      	mov	r6, r9
    a4de:	4645      	mov	r5, r8
    a4e0:	46de      	mov	lr, fp
    a4e2:	b5e0      	push	{r5, r6, r7, lr}
    a4e4:	030c      	lsls	r4, r1, #12
    a4e6:	001f      	movs	r7, r3
    a4e8:	004b      	lsls	r3, r1, #1
    a4ea:	4681      	mov	r9, r0
    a4ec:	4692      	mov	sl, r2
    a4ee:	0005      	movs	r5, r0
    a4f0:	b085      	sub	sp, #20
    a4f2:	0b24      	lsrs	r4, r4, #12
    a4f4:	0d5b      	lsrs	r3, r3, #21
    a4f6:	0fce      	lsrs	r6, r1, #31
    a4f8:	2b00      	cmp	r3, #0
    a4fa:	d100      	bne.n	a4fe <__aeabi_ddiv+0x26>
    a4fc:	e152      	b.n	a7a4 <__aeabi_ddiv+0x2cc>
    a4fe:	4ad2      	ldr	r2, [pc, #840]	; (a848 <__aeabi_ddiv+0x370>)
    a500:	4293      	cmp	r3, r2
    a502:	d100      	bne.n	a506 <__aeabi_ddiv+0x2e>
    a504:	e16e      	b.n	a7e4 <__aeabi_ddiv+0x30c>
    a506:	0f42      	lsrs	r2, r0, #29
    a508:	00e4      	lsls	r4, r4, #3
    a50a:	4314      	orrs	r4, r2
    a50c:	2280      	movs	r2, #128	; 0x80
    a50e:	0412      	lsls	r2, r2, #16
    a510:	4322      	orrs	r2, r4
    a512:	4690      	mov	r8, r2
    a514:	4acd      	ldr	r2, [pc, #820]	; (a84c <__aeabi_ddiv+0x374>)
    a516:	00c5      	lsls	r5, r0, #3
    a518:	4693      	mov	fp, r2
    a51a:	449b      	add	fp, r3
    a51c:	2300      	movs	r3, #0
    a51e:	4699      	mov	r9, r3
    a520:	9300      	str	r3, [sp, #0]
    a522:	033c      	lsls	r4, r7, #12
    a524:	007b      	lsls	r3, r7, #1
    a526:	4650      	mov	r0, sl
    a528:	0b24      	lsrs	r4, r4, #12
    a52a:	0d5b      	lsrs	r3, r3, #21
    a52c:	0fff      	lsrs	r7, r7, #31
    a52e:	2b00      	cmp	r3, #0
    a530:	d100      	bne.n	a534 <__aeabi_ddiv+0x5c>
    a532:	e11a      	b.n	a76a <__aeabi_ddiv+0x292>
    a534:	4ac4      	ldr	r2, [pc, #784]	; (a848 <__aeabi_ddiv+0x370>)
    a536:	4293      	cmp	r3, r2
    a538:	d100      	bne.n	a53c <__aeabi_ddiv+0x64>
    a53a:	e15e      	b.n	a7fa <__aeabi_ddiv+0x322>
    a53c:	0f42      	lsrs	r2, r0, #29
    a53e:	00e4      	lsls	r4, r4, #3
    a540:	4322      	orrs	r2, r4
    a542:	2480      	movs	r4, #128	; 0x80
    a544:	0424      	lsls	r4, r4, #16
    a546:	4314      	orrs	r4, r2
    a548:	4ac0      	ldr	r2, [pc, #768]	; (a84c <__aeabi_ddiv+0x374>)
    a54a:	00c1      	lsls	r1, r0, #3
    a54c:	4694      	mov	ip, r2
    a54e:	465a      	mov	r2, fp
    a550:	4463      	add	r3, ip
    a552:	1ad3      	subs	r3, r2, r3
    a554:	469b      	mov	fp, r3
    a556:	2000      	movs	r0, #0
    a558:	0033      	movs	r3, r6
    a55a:	407b      	eors	r3, r7
    a55c:	469a      	mov	sl, r3
    a55e:	464b      	mov	r3, r9
    a560:	2b0f      	cmp	r3, #15
    a562:	d827      	bhi.n	a5b4 <__aeabi_ddiv+0xdc>
    a564:	4aba      	ldr	r2, [pc, #744]	; (a850 <__aeabi_ddiv+0x378>)
    a566:	009b      	lsls	r3, r3, #2
    a568:	58d3      	ldr	r3, [r2, r3]
    a56a:	469f      	mov	pc, r3
    a56c:	46b2      	mov	sl, r6
    a56e:	9b00      	ldr	r3, [sp, #0]
    a570:	2b02      	cmp	r3, #2
    a572:	d016      	beq.n	a5a2 <__aeabi_ddiv+0xca>
    a574:	2b03      	cmp	r3, #3
    a576:	d100      	bne.n	a57a <__aeabi_ddiv+0xa2>
    a578:	e287      	b.n	aa8a <__aeabi_ddiv+0x5b2>
    a57a:	2b01      	cmp	r3, #1
    a57c:	d000      	beq.n	a580 <__aeabi_ddiv+0xa8>
    a57e:	e0d5      	b.n	a72c <__aeabi_ddiv+0x254>
    a580:	2300      	movs	r3, #0
    a582:	2200      	movs	r2, #0
    a584:	2500      	movs	r5, #0
    a586:	051b      	lsls	r3, r3, #20
    a588:	4313      	orrs	r3, r2
    a58a:	4652      	mov	r2, sl
    a58c:	07d2      	lsls	r2, r2, #31
    a58e:	4313      	orrs	r3, r2
    a590:	0028      	movs	r0, r5
    a592:	0019      	movs	r1, r3
    a594:	b005      	add	sp, #20
    a596:	bcf0      	pop	{r4, r5, r6, r7}
    a598:	46bb      	mov	fp, r7
    a59a:	46b2      	mov	sl, r6
    a59c:	46a9      	mov	r9, r5
    a59e:	46a0      	mov	r8, r4
    a5a0:	bdf0      	pop	{r4, r5, r6, r7, pc}
    a5a2:	2200      	movs	r2, #0
    a5a4:	2500      	movs	r5, #0
    a5a6:	4ba8      	ldr	r3, [pc, #672]	; (a848 <__aeabi_ddiv+0x370>)
    a5a8:	e7ed      	b.n	a586 <__aeabi_ddiv+0xae>
    a5aa:	46ba      	mov	sl, r7
    a5ac:	46a0      	mov	r8, r4
    a5ae:	000d      	movs	r5, r1
    a5b0:	9000      	str	r0, [sp, #0]
    a5b2:	e7dc      	b.n	a56e <__aeabi_ddiv+0x96>
    a5b4:	4544      	cmp	r4, r8
    a5b6:	d200      	bcs.n	a5ba <__aeabi_ddiv+0xe2>
    a5b8:	e1c4      	b.n	a944 <__aeabi_ddiv+0x46c>
    a5ba:	d100      	bne.n	a5be <__aeabi_ddiv+0xe6>
    a5bc:	e1bf      	b.n	a93e <__aeabi_ddiv+0x466>
    a5be:	2301      	movs	r3, #1
    a5c0:	425b      	negs	r3, r3
    a5c2:	469c      	mov	ip, r3
    a5c4:	002e      	movs	r6, r5
    a5c6:	4640      	mov	r0, r8
    a5c8:	2500      	movs	r5, #0
    a5ca:	44e3      	add	fp, ip
    a5cc:	0223      	lsls	r3, r4, #8
    a5ce:	0e0c      	lsrs	r4, r1, #24
    a5d0:	431c      	orrs	r4, r3
    a5d2:	0c1b      	lsrs	r3, r3, #16
    a5d4:	4699      	mov	r9, r3
    a5d6:	0423      	lsls	r3, r4, #16
    a5d8:	020a      	lsls	r2, r1, #8
    a5da:	0c1f      	lsrs	r7, r3, #16
    a5dc:	4649      	mov	r1, r9
    a5de:	9200      	str	r2, [sp, #0]
    a5e0:	9701      	str	r7, [sp, #4]
    a5e2:	f7fe fcff 	bl	8fe4 <__aeabi_uidivmod>
    a5e6:	0002      	movs	r2, r0
    a5e8:	437a      	muls	r2, r7
    a5ea:	040b      	lsls	r3, r1, #16
    a5ec:	0c31      	lsrs	r1, r6, #16
    a5ee:	4680      	mov	r8, r0
    a5f0:	4319      	orrs	r1, r3
    a5f2:	428a      	cmp	r2, r1
    a5f4:	d907      	bls.n	a606 <__aeabi_ddiv+0x12e>
    a5f6:	2301      	movs	r3, #1
    a5f8:	425b      	negs	r3, r3
    a5fa:	469c      	mov	ip, r3
    a5fc:	1909      	adds	r1, r1, r4
    a5fe:	44e0      	add	r8, ip
    a600:	428c      	cmp	r4, r1
    a602:	d800      	bhi.n	a606 <__aeabi_ddiv+0x12e>
    a604:	e201      	b.n	aa0a <__aeabi_ddiv+0x532>
    a606:	1a88      	subs	r0, r1, r2
    a608:	4649      	mov	r1, r9
    a60a:	f7fe fceb 	bl	8fe4 <__aeabi_uidivmod>
    a60e:	9a01      	ldr	r2, [sp, #4]
    a610:	0436      	lsls	r6, r6, #16
    a612:	4342      	muls	r2, r0
    a614:	0409      	lsls	r1, r1, #16
    a616:	0c36      	lsrs	r6, r6, #16
    a618:	0003      	movs	r3, r0
    a61a:	430e      	orrs	r6, r1
    a61c:	42b2      	cmp	r2, r6
    a61e:	d904      	bls.n	a62a <__aeabi_ddiv+0x152>
    a620:	1936      	adds	r6, r6, r4
    a622:	3b01      	subs	r3, #1
    a624:	42b4      	cmp	r4, r6
    a626:	d800      	bhi.n	a62a <__aeabi_ddiv+0x152>
    a628:	e1e9      	b.n	a9fe <__aeabi_ddiv+0x526>
    a62a:	1ab0      	subs	r0, r6, r2
    a62c:	4642      	mov	r2, r8
    a62e:	9e00      	ldr	r6, [sp, #0]
    a630:	0412      	lsls	r2, r2, #16
    a632:	431a      	orrs	r2, r3
    a634:	0c33      	lsrs	r3, r6, #16
    a636:	001f      	movs	r7, r3
    a638:	0c11      	lsrs	r1, r2, #16
    a63a:	4690      	mov	r8, r2
    a63c:	9302      	str	r3, [sp, #8]
    a63e:	0413      	lsls	r3, r2, #16
    a640:	0432      	lsls	r2, r6, #16
    a642:	0c16      	lsrs	r6, r2, #16
    a644:	0032      	movs	r2, r6
    a646:	0c1b      	lsrs	r3, r3, #16
    a648:	435a      	muls	r2, r3
    a64a:	9603      	str	r6, [sp, #12]
    a64c:	437b      	muls	r3, r7
    a64e:	434e      	muls	r6, r1
    a650:	4379      	muls	r1, r7
    a652:	0c17      	lsrs	r7, r2, #16
    a654:	46bc      	mov	ip, r7
    a656:	199b      	adds	r3, r3, r6
    a658:	4463      	add	r3, ip
    a65a:	429e      	cmp	r6, r3
    a65c:	d903      	bls.n	a666 <__aeabi_ddiv+0x18e>
    a65e:	2680      	movs	r6, #128	; 0x80
    a660:	0276      	lsls	r6, r6, #9
    a662:	46b4      	mov	ip, r6
    a664:	4461      	add	r1, ip
    a666:	0c1e      	lsrs	r6, r3, #16
    a668:	1871      	adds	r1, r6, r1
    a66a:	0416      	lsls	r6, r2, #16
    a66c:	041b      	lsls	r3, r3, #16
    a66e:	0c36      	lsrs	r6, r6, #16
    a670:	199e      	adds	r6, r3, r6
    a672:	4288      	cmp	r0, r1
    a674:	d302      	bcc.n	a67c <__aeabi_ddiv+0x1a4>
    a676:	d112      	bne.n	a69e <__aeabi_ddiv+0x1c6>
    a678:	42b5      	cmp	r5, r6
    a67a:	d210      	bcs.n	a69e <__aeabi_ddiv+0x1c6>
    a67c:	4643      	mov	r3, r8
    a67e:	1e5a      	subs	r2, r3, #1
    a680:	9b00      	ldr	r3, [sp, #0]
    a682:	469c      	mov	ip, r3
    a684:	4465      	add	r5, ip
    a686:	001f      	movs	r7, r3
    a688:	429d      	cmp	r5, r3
    a68a:	419b      	sbcs	r3, r3
    a68c:	425b      	negs	r3, r3
    a68e:	191b      	adds	r3, r3, r4
    a690:	18c0      	adds	r0, r0, r3
    a692:	4284      	cmp	r4, r0
    a694:	d200      	bcs.n	a698 <__aeabi_ddiv+0x1c0>
    a696:	e19e      	b.n	a9d6 <__aeabi_ddiv+0x4fe>
    a698:	d100      	bne.n	a69c <__aeabi_ddiv+0x1c4>
    a69a:	e199      	b.n	a9d0 <__aeabi_ddiv+0x4f8>
    a69c:	4690      	mov	r8, r2
    a69e:	1bae      	subs	r6, r5, r6
    a6a0:	42b5      	cmp	r5, r6
    a6a2:	41ad      	sbcs	r5, r5
    a6a4:	1a40      	subs	r0, r0, r1
    a6a6:	426d      	negs	r5, r5
    a6a8:	1b40      	subs	r0, r0, r5
    a6aa:	4284      	cmp	r4, r0
    a6ac:	d100      	bne.n	a6b0 <__aeabi_ddiv+0x1d8>
    a6ae:	e1d2      	b.n	aa56 <__aeabi_ddiv+0x57e>
    a6b0:	4649      	mov	r1, r9
    a6b2:	f7fe fc97 	bl	8fe4 <__aeabi_uidivmod>
    a6b6:	9a01      	ldr	r2, [sp, #4]
    a6b8:	040b      	lsls	r3, r1, #16
    a6ba:	4342      	muls	r2, r0
    a6bc:	0c31      	lsrs	r1, r6, #16
    a6be:	0005      	movs	r5, r0
    a6c0:	4319      	orrs	r1, r3
    a6c2:	428a      	cmp	r2, r1
    a6c4:	d900      	bls.n	a6c8 <__aeabi_ddiv+0x1f0>
    a6c6:	e16c      	b.n	a9a2 <__aeabi_ddiv+0x4ca>
    a6c8:	1a88      	subs	r0, r1, r2
    a6ca:	4649      	mov	r1, r9
    a6cc:	f7fe fc8a 	bl	8fe4 <__aeabi_uidivmod>
    a6d0:	9a01      	ldr	r2, [sp, #4]
    a6d2:	0436      	lsls	r6, r6, #16
    a6d4:	4342      	muls	r2, r0
    a6d6:	0409      	lsls	r1, r1, #16
    a6d8:	0c36      	lsrs	r6, r6, #16
    a6da:	0003      	movs	r3, r0
    a6dc:	430e      	orrs	r6, r1
    a6de:	42b2      	cmp	r2, r6
    a6e0:	d900      	bls.n	a6e4 <__aeabi_ddiv+0x20c>
    a6e2:	e153      	b.n	a98c <__aeabi_ddiv+0x4b4>
    a6e4:	9803      	ldr	r0, [sp, #12]
    a6e6:	1ab6      	subs	r6, r6, r2
    a6e8:	0002      	movs	r2, r0
    a6ea:	042d      	lsls	r5, r5, #16
    a6ec:	431d      	orrs	r5, r3
    a6ee:	9f02      	ldr	r7, [sp, #8]
    a6f0:	042b      	lsls	r3, r5, #16
    a6f2:	0c1b      	lsrs	r3, r3, #16
    a6f4:	435a      	muls	r2, r3
    a6f6:	437b      	muls	r3, r7
    a6f8:	469c      	mov	ip, r3
    a6fa:	0c29      	lsrs	r1, r5, #16
    a6fc:	4348      	muls	r0, r1
    a6fe:	0c13      	lsrs	r3, r2, #16
    a700:	4484      	add	ip, r0
    a702:	4463      	add	r3, ip
    a704:	4379      	muls	r1, r7
    a706:	4298      	cmp	r0, r3
    a708:	d903      	bls.n	a712 <__aeabi_ddiv+0x23a>
    a70a:	2080      	movs	r0, #128	; 0x80
    a70c:	0240      	lsls	r0, r0, #9
    a70e:	4684      	mov	ip, r0
    a710:	4461      	add	r1, ip
    a712:	0c18      	lsrs	r0, r3, #16
    a714:	0412      	lsls	r2, r2, #16
    a716:	041b      	lsls	r3, r3, #16
    a718:	0c12      	lsrs	r2, r2, #16
    a71a:	1840      	adds	r0, r0, r1
    a71c:	189b      	adds	r3, r3, r2
    a71e:	4286      	cmp	r6, r0
    a720:	d200      	bcs.n	a724 <__aeabi_ddiv+0x24c>
    a722:	e100      	b.n	a926 <__aeabi_ddiv+0x44e>
    a724:	d100      	bne.n	a728 <__aeabi_ddiv+0x250>
    a726:	e0fb      	b.n	a920 <__aeabi_ddiv+0x448>
    a728:	2301      	movs	r3, #1
    a72a:	431d      	orrs	r5, r3
    a72c:	4b49      	ldr	r3, [pc, #292]	; (a854 <__aeabi_ddiv+0x37c>)
    a72e:	445b      	add	r3, fp
    a730:	2b00      	cmp	r3, #0
    a732:	dc00      	bgt.n	a736 <__aeabi_ddiv+0x25e>
    a734:	e0aa      	b.n	a88c <__aeabi_ddiv+0x3b4>
    a736:	076a      	lsls	r2, r5, #29
    a738:	d000      	beq.n	a73c <__aeabi_ddiv+0x264>
    a73a:	e13d      	b.n	a9b8 <__aeabi_ddiv+0x4e0>
    a73c:	08e9      	lsrs	r1, r5, #3
    a73e:	4642      	mov	r2, r8
    a740:	01d2      	lsls	r2, r2, #7
    a742:	d506      	bpl.n	a752 <__aeabi_ddiv+0x27a>
    a744:	4642      	mov	r2, r8
    a746:	4b44      	ldr	r3, [pc, #272]	; (a858 <__aeabi_ddiv+0x380>)
    a748:	401a      	ands	r2, r3
    a74a:	2380      	movs	r3, #128	; 0x80
    a74c:	4690      	mov	r8, r2
    a74e:	00db      	lsls	r3, r3, #3
    a750:	445b      	add	r3, fp
    a752:	4a42      	ldr	r2, [pc, #264]	; (a85c <__aeabi_ddiv+0x384>)
    a754:	4293      	cmp	r3, r2
    a756:	dd00      	ble.n	a75a <__aeabi_ddiv+0x282>
    a758:	e723      	b.n	a5a2 <__aeabi_ddiv+0xca>
    a75a:	4642      	mov	r2, r8
    a75c:	055b      	lsls	r3, r3, #21
    a75e:	0755      	lsls	r5, r2, #29
    a760:	0252      	lsls	r2, r2, #9
    a762:	430d      	orrs	r5, r1
    a764:	0b12      	lsrs	r2, r2, #12
    a766:	0d5b      	lsrs	r3, r3, #21
    a768:	e70d      	b.n	a586 <__aeabi_ddiv+0xae>
    a76a:	4651      	mov	r1, sl
    a76c:	4321      	orrs	r1, r4
    a76e:	d100      	bne.n	a772 <__aeabi_ddiv+0x29a>
    a770:	e07c      	b.n	a86c <__aeabi_ddiv+0x394>
    a772:	2c00      	cmp	r4, #0
    a774:	d100      	bne.n	a778 <__aeabi_ddiv+0x2a0>
    a776:	e0fb      	b.n	a970 <__aeabi_ddiv+0x498>
    a778:	0020      	movs	r0, r4
    a77a:	f001 fa63 	bl	bc44 <__clzsi2>
    a77e:	0002      	movs	r2, r0
    a780:	3a0b      	subs	r2, #11
    a782:	231d      	movs	r3, #29
    a784:	1a9b      	subs	r3, r3, r2
    a786:	4652      	mov	r2, sl
    a788:	0001      	movs	r1, r0
    a78a:	40da      	lsrs	r2, r3
    a78c:	4653      	mov	r3, sl
    a78e:	3908      	subs	r1, #8
    a790:	408b      	lsls	r3, r1
    a792:	408c      	lsls	r4, r1
    a794:	0019      	movs	r1, r3
    a796:	4314      	orrs	r4, r2
    a798:	4b31      	ldr	r3, [pc, #196]	; (a860 <__aeabi_ddiv+0x388>)
    a79a:	4458      	add	r0, fp
    a79c:	469b      	mov	fp, r3
    a79e:	4483      	add	fp, r0
    a7a0:	2000      	movs	r0, #0
    a7a2:	e6d9      	b.n	a558 <__aeabi_ddiv+0x80>
    a7a4:	0003      	movs	r3, r0
    a7a6:	4323      	orrs	r3, r4
    a7a8:	4698      	mov	r8, r3
    a7aa:	d044      	beq.n	a836 <__aeabi_ddiv+0x35e>
    a7ac:	2c00      	cmp	r4, #0
    a7ae:	d100      	bne.n	a7b2 <__aeabi_ddiv+0x2da>
    a7b0:	e0cf      	b.n	a952 <__aeabi_ddiv+0x47a>
    a7b2:	0020      	movs	r0, r4
    a7b4:	f001 fa46 	bl	bc44 <__clzsi2>
    a7b8:	0001      	movs	r1, r0
    a7ba:	0002      	movs	r2, r0
    a7bc:	390b      	subs	r1, #11
    a7be:	231d      	movs	r3, #29
    a7c0:	1a5b      	subs	r3, r3, r1
    a7c2:	4649      	mov	r1, r9
    a7c4:	0010      	movs	r0, r2
    a7c6:	40d9      	lsrs	r1, r3
    a7c8:	3808      	subs	r0, #8
    a7ca:	4084      	lsls	r4, r0
    a7cc:	000b      	movs	r3, r1
    a7ce:	464d      	mov	r5, r9
    a7d0:	4323      	orrs	r3, r4
    a7d2:	4698      	mov	r8, r3
    a7d4:	4085      	lsls	r5, r0
    a7d6:	4b23      	ldr	r3, [pc, #140]	; (a864 <__aeabi_ddiv+0x38c>)
    a7d8:	1a9b      	subs	r3, r3, r2
    a7da:	469b      	mov	fp, r3
    a7dc:	2300      	movs	r3, #0
    a7de:	4699      	mov	r9, r3
    a7e0:	9300      	str	r3, [sp, #0]
    a7e2:	e69e      	b.n	a522 <__aeabi_ddiv+0x4a>
    a7e4:	0002      	movs	r2, r0
    a7e6:	4322      	orrs	r2, r4
    a7e8:	4690      	mov	r8, r2
    a7ea:	d11d      	bne.n	a828 <__aeabi_ddiv+0x350>
    a7ec:	2208      	movs	r2, #8
    a7ee:	469b      	mov	fp, r3
    a7f0:	2302      	movs	r3, #2
    a7f2:	2500      	movs	r5, #0
    a7f4:	4691      	mov	r9, r2
    a7f6:	9300      	str	r3, [sp, #0]
    a7f8:	e693      	b.n	a522 <__aeabi_ddiv+0x4a>
    a7fa:	4651      	mov	r1, sl
    a7fc:	4321      	orrs	r1, r4
    a7fe:	d109      	bne.n	a814 <__aeabi_ddiv+0x33c>
    a800:	2302      	movs	r3, #2
    a802:	464a      	mov	r2, r9
    a804:	431a      	orrs	r2, r3
    a806:	4b18      	ldr	r3, [pc, #96]	; (a868 <__aeabi_ddiv+0x390>)
    a808:	4691      	mov	r9, r2
    a80a:	469c      	mov	ip, r3
    a80c:	2400      	movs	r4, #0
    a80e:	2002      	movs	r0, #2
    a810:	44e3      	add	fp, ip
    a812:	e6a1      	b.n	a558 <__aeabi_ddiv+0x80>
    a814:	2303      	movs	r3, #3
    a816:	464a      	mov	r2, r9
    a818:	431a      	orrs	r2, r3
    a81a:	4b13      	ldr	r3, [pc, #76]	; (a868 <__aeabi_ddiv+0x390>)
    a81c:	4691      	mov	r9, r2
    a81e:	469c      	mov	ip, r3
    a820:	4651      	mov	r1, sl
    a822:	2003      	movs	r0, #3
    a824:	44e3      	add	fp, ip
    a826:	e697      	b.n	a558 <__aeabi_ddiv+0x80>
    a828:	220c      	movs	r2, #12
    a82a:	469b      	mov	fp, r3
    a82c:	2303      	movs	r3, #3
    a82e:	46a0      	mov	r8, r4
    a830:	4691      	mov	r9, r2
    a832:	9300      	str	r3, [sp, #0]
    a834:	e675      	b.n	a522 <__aeabi_ddiv+0x4a>
    a836:	2304      	movs	r3, #4
    a838:	4699      	mov	r9, r3
    a83a:	2300      	movs	r3, #0
    a83c:	469b      	mov	fp, r3
    a83e:	3301      	adds	r3, #1
    a840:	2500      	movs	r5, #0
    a842:	9300      	str	r3, [sp, #0]
    a844:	e66d      	b.n	a522 <__aeabi_ddiv+0x4a>
    a846:	46c0      	nop			; (mov r8, r8)
    a848:	000007ff 	.word	0x000007ff
    a84c:	fffffc01 	.word	0xfffffc01
    a850:	0000c9d4 	.word	0x0000c9d4
    a854:	000003ff 	.word	0x000003ff
    a858:	feffffff 	.word	0xfeffffff
    a85c:	000007fe 	.word	0x000007fe
    a860:	000003f3 	.word	0x000003f3
    a864:	fffffc0d 	.word	0xfffffc0d
    a868:	fffff801 	.word	0xfffff801
    a86c:	464a      	mov	r2, r9
    a86e:	2301      	movs	r3, #1
    a870:	431a      	orrs	r2, r3
    a872:	4691      	mov	r9, r2
    a874:	2400      	movs	r4, #0
    a876:	2001      	movs	r0, #1
    a878:	e66e      	b.n	a558 <__aeabi_ddiv+0x80>
    a87a:	2300      	movs	r3, #0
    a87c:	2280      	movs	r2, #128	; 0x80
    a87e:	469a      	mov	sl, r3
    a880:	2500      	movs	r5, #0
    a882:	4b88      	ldr	r3, [pc, #544]	; (aaa4 <__aeabi_ddiv+0x5cc>)
    a884:	0312      	lsls	r2, r2, #12
    a886:	e67e      	b.n	a586 <__aeabi_ddiv+0xae>
    a888:	2501      	movs	r5, #1
    a88a:	426d      	negs	r5, r5
    a88c:	2201      	movs	r2, #1
    a88e:	1ad2      	subs	r2, r2, r3
    a890:	2a38      	cmp	r2, #56	; 0x38
    a892:	dd00      	ble.n	a896 <__aeabi_ddiv+0x3be>
    a894:	e674      	b.n	a580 <__aeabi_ddiv+0xa8>
    a896:	2a1f      	cmp	r2, #31
    a898:	dc00      	bgt.n	a89c <__aeabi_ddiv+0x3c4>
    a89a:	e0bd      	b.n	aa18 <__aeabi_ddiv+0x540>
    a89c:	211f      	movs	r1, #31
    a89e:	4249      	negs	r1, r1
    a8a0:	1acb      	subs	r3, r1, r3
    a8a2:	4641      	mov	r1, r8
    a8a4:	40d9      	lsrs	r1, r3
    a8a6:	000b      	movs	r3, r1
    a8a8:	2a20      	cmp	r2, #32
    a8aa:	d004      	beq.n	a8b6 <__aeabi_ddiv+0x3de>
    a8ac:	4641      	mov	r1, r8
    a8ae:	4a7e      	ldr	r2, [pc, #504]	; (aaa8 <__aeabi_ddiv+0x5d0>)
    a8b0:	445a      	add	r2, fp
    a8b2:	4091      	lsls	r1, r2
    a8b4:	430d      	orrs	r5, r1
    a8b6:	0029      	movs	r1, r5
    a8b8:	1e4a      	subs	r2, r1, #1
    a8ba:	4191      	sbcs	r1, r2
    a8bc:	4319      	orrs	r1, r3
    a8be:	2307      	movs	r3, #7
    a8c0:	001d      	movs	r5, r3
    a8c2:	2200      	movs	r2, #0
    a8c4:	400d      	ands	r5, r1
    a8c6:	420b      	tst	r3, r1
    a8c8:	d100      	bne.n	a8cc <__aeabi_ddiv+0x3f4>
    a8ca:	e0d0      	b.n	aa6e <__aeabi_ddiv+0x596>
    a8cc:	220f      	movs	r2, #15
    a8ce:	2300      	movs	r3, #0
    a8d0:	400a      	ands	r2, r1
    a8d2:	2a04      	cmp	r2, #4
    a8d4:	d100      	bne.n	a8d8 <__aeabi_ddiv+0x400>
    a8d6:	e0c7      	b.n	aa68 <__aeabi_ddiv+0x590>
    a8d8:	1d0a      	adds	r2, r1, #4
    a8da:	428a      	cmp	r2, r1
    a8dc:	4189      	sbcs	r1, r1
    a8de:	4249      	negs	r1, r1
    a8e0:	185b      	adds	r3, r3, r1
    a8e2:	0011      	movs	r1, r2
    a8e4:	021a      	lsls	r2, r3, #8
    a8e6:	d400      	bmi.n	a8ea <__aeabi_ddiv+0x412>
    a8e8:	e0be      	b.n	aa68 <__aeabi_ddiv+0x590>
    a8ea:	2301      	movs	r3, #1
    a8ec:	2200      	movs	r2, #0
    a8ee:	2500      	movs	r5, #0
    a8f0:	e649      	b.n	a586 <__aeabi_ddiv+0xae>
    a8f2:	2280      	movs	r2, #128	; 0x80
    a8f4:	4643      	mov	r3, r8
    a8f6:	0312      	lsls	r2, r2, #12
    a8f8:	4213      	tst	r3, r2
    a8fa:	d008      	beq.n	a90e <__aeabi_ddiv+0x436>
    a8fc:	4214      	tst	r4, r2
    a8fe:	d106      	bne.n	a90e <__aeabi_ddiv+0x436>
    a900:	4322      	orrs	r2, r4
    a902:	0312      	lsls	r2, r2, #12
    a904:	46ba      	mov	sl, r7
    a906:	000d      	movs	r5, r1
    a908:	4b66      	ldr	r3, [pc, #408]	; (aaa4 <__aeabi_ddiv+0x5cc>)
    a90a:	0b12      	lsrs	r2, r2, #12
    a90c:	e63b      	b.n	a586 <__aeabi_ddiv+0xae>
    a90e:	2280      	movs	r2, #128	; 0x80
    a910:	4643      	mov	r3, r8
    a912:	0312      	lsls	r2, r2, #12
    a914:	431a      	orrs	r2, r3
    a916:	0312      	lsls	r2, r2, #12
    a918:	46b2      	mov	sl, r6
    a91a:	4b62      	ldr	r3, [pc, #392]	; (aaa4 <__aeabi_ddiv+0x5cc>)
    a91c:	0b12      	lsrs	r2, r2, #12
    a91e:	e632      	b.n	a586 <__aeabi_ddiv+0xae>
    a920:	2b00      	cmp	r3, #0
    a922:	d100      	bne.n	a926 <__aeabi_ddiv+0x44e>
    a924:	e702      	b.n	a72c <__aeabi_ddiv+0x254>
    a926:	19a6      	adds	r6, r4, r6
    a928:	1e6a      	subs	r2, r5, #1
    a92a:	42a6      	cmp	r6, r4
    a92c:	d200      	bcs.n	a930 <__aeabi_ddiv+0x458>
    a92e:	e089      	b.n	aa44 <__aeabi_ddiv+0x56c>
    a930:	4286      	cmp	r6, r0
    a932:	d200      	bcs.n	a936 <__aeabi_ddiv+0x45e>
    a934:	e09f      	b.n	aa76 <__aeabi_ddiv+0x59e>
    a936:	d100      	bne.n	a93a <__aeabi_ddiv+0x462>
    a938:	e0af      	b.n	aa9a <__aeabi_ddiv+0x5c2>
    a93a:	0015      	movs	r5, r2
    a93c:	e6f4      	b.n	a728 <__aeabi_ddiv+0x250>
    a93e:	42a9      	cmp	r1, r5
    a940:	d900      	bls.n	a944 <__aeabi_ddiv+0x46c>
    a942:	e63c      	b.n	a5be <__aeabi_ddiv+0xe6>
    a944:	4643      	mov	r3, r8
    a946:	07de      	lsls	r6, r3, #31
    a948:	0858      	lsrs	r0, r3, #1
    a94a:	086b      	lsrs	r3, r5, #1
    a94c:	431e      	orrs	r6, r3
    a94e:	07ed      	lsls	r5, r5, #31
    a950:	e63c      	b.n	a5cc <__aeabi_ddiv+0xf4>
    a952:	f001 f977 	bl	bc44 <__clzsi2>
    a956:	0001      	movs	r1, r0
    a958:	0002      	movs	r2, r0
    a95a:	3115      	adds	r1, #21
    a95c:	3220      	adds	r2, #32
    a95e:	291c      	cmp	r1, #28
    a960:	dc00      	bgt.n	a964 <__aeabi_ddiv+0x48c>
    a962:	e72c      	b.n	a7be <__aeabi_ddiv+0x2e6>
    a964:	464b      	mov	r3, r9
    a966:	3808      	subs	r0, #8
    a968:	4083      	lsls	r3, r0
    a96a:	2500      	movs	r5, #0
    a96c:	4698      	mov	r8, r3
    a96e:	e732      	b.n	a7d6 <__aeabi_ddiv+0x2fe>
    a970:	f001 f968 	bl	bc44 <__clzsi2>
    a974:	0003      	movs	r3, r0
    a976:	001a      	movs	r2, r3
    a978:	3215      	adds	r2, #21
    a97a:	3020      	adds	r0, #32
    a97c:	2a1c      	cmp	r2, #28
    a97e:	dc00      	bgt.n	a982 <__aeabi_ddiv+0x4aa>
    a980:	e6ff      	b.n	a782 <__aeabi_ddiv+0x2aa>
    a982:	4654      	mov	r4, sl
    a984:	3b08      	subs	r3, #8
    a986:	2100      	movs	r1, #0
    a988:	409c      	lsls	r4, r3
    a98a:	e705      	b.n	a798 <__aeabi_ddiv+0x2c0>
    a98c:	1936      	adds	r6, r6, r4
    a98e:	3b01      	subs	r3, #1
    a990:	42b4      	cmp	r4, r6
    a992:	d900      	bls.n	a996 <__aeabi_ddiv+0x4be>
    a994:	e6a6      	b.n	a6e4 <__aeabi_ddiv+0x20c>
    a996:	42b2      	cmp	r2, r6
    a998:	d800      	bhi.n	a99c <__aeabi_ddiv+0x4c4>
    a99a:	e6a3      	b.n	a6e4 <__aeabi_ddiv+0x20c>
    a99c:	1e83      	subs	r3, r0, #2
    a99e:	1936      	adds	r6, r6, r4
    a9a0:	e6a0      	b.n	a6e4 <__aeabi_ddiv+0x20c>
    a9a2:	1909      	adds	r1, r1, r4
    a9a4:	3d01      	subs	r5, #1
    a9a6:	428c      	cmp	r4, r1
    a9a8:	d900      	bls.n	a9ac <__aeabi_ddiv+0x4d4>
    a9aa:	e68d      	b.n	a6c8 <__aeabi_ddiv+0x1f0>
    a9ac:	428a      	cmp	r2, r1
    a9ae:	d800      	bhi.n	a9b2 <__aeabi_ddiv+0x4da>
    a9b0:	e68a      	b.n	a6c8 <__aeabi_ddiv+0x1f0>
    a9b2:	1e85      	subs	r5, r0, #2
    a9b4:	1909      	adds	r1, r1, r4
    a9b6:	e687      	b.n	a6c8 <__aeabi_ddiv+0x1f0>
    a9b8:	220f      	movs	r2, #15
    a9ba:	402a      	ands	r2, r5
    a9bc:	2a04      	cmp	r2, #4
    a9be:	d100      	bne.n	a9c2 <__aeabi_ddiv+0x4ea>
    a9c0:	e6bc      	b.n	a73c <__aeabi_ddiv+0x264>
    a9c2:	1d29      	adds	r1, r5, #4
    a9c4:	42a9      	cmp	r1, r5
    a9c6:	41ad      	sbcs	r5, r5
    a9c8:	426d      	negs	r5, r5
    a9ca:	08c9      	lsrs	r1, r1, #3
    a9cc:	44a8      	add	r8, r5
    a9ce:	e6b6      	b.n	a73e <__aeabi_ddiv+0x266>
    a9d0:	42af      	cmp	r7, r5
    a9d2:	d900      	bls.n	a9d6 <__aeabi_ddiv+0x4fe>
    a9d4:	e662      	b.n	a69c <__aeabi_ddiv+0x1c4>
    a9d6:	4281      	cmp	r1, r0
    a9d8:	d804      	bhi.n	a9e4 <__aeabi_ddiv+0x50c>
    a9da:	d000      	beq.n	a9de <__aeabi_ddiv+0x506>
    a9dc:	e65e      	b.n	a69c <__aeabi_ddiv+0x1c4>
    a9de:	42ae      	cmp	r6, r5
    a9e0:	d800      	bhi.n	a9e4 <__aeabi_ddiv+0x50c>
    a9e2:	e65b      	b.n	a69c <__aeabi_ddiv+0x1c4>
    a9e4:	2302      	movs	r3, #2
    a9e6:	425b      	negs	r3, r3
    a9e8:	469c      	mov	ip, r3
    a9ea:	9b00      	ldr	r3, [sp, #0]
    a9ec:	44e0      	add	r8, ip
    a9ee:	469c      	mov	ip, r3
    a9f0:	4465      	add	r5, ip
    a9f2:	429d      	cmp	r5, r3
    a9f4:	419b      	sbcs	r3, r3
    a9f6:	425b      	negs	r3, r3
    a9f8:	191b      	adds	r3, r3, r4
    a9fa:	18c0      	adds	r0, r0, r3
    a9fc:	e64f      	b.n	a69e <__aeabi_ddiv+0x1c6>
    a9fe:	42b2      	cmp	r2, r6
    aa00:	d800      	bhi.n	aa04 <__aeabi_ddiv+0x52c>
    aa02:	e612      	b.n	a62a <__aeabi_ddiv+0x152>
    aa04:	1e83      	subs	r3, r0, #2
    aa06:	1936      	adds	r6, r6, r4
    aa08:	e60f      	b.n	a62a <__aeabi_ddiv+0x152>
    aa0a:	428a      	cmp	r2, r1
    aa0c:	d800      	bhi.n	aa10 <__aeabi_ddiv+0x538>
    aa0e:	e5fa      	b.n	a606 <__aeabi_ddiv+0x12e>
    aa10:	1e83      	subs	r3, r0, #2
    aa12:	4698      	mov	r8, r3
    aa14:	1909      	adds	r1, r1, r4
    aa16:	e5f6      	b.n	a606 <__aeabi_ddiv+0x12e>
    aa18:	4b24      	ldr	r3, [pc, #144]	; (aaac <__aeabi_ddiv+0x5d4>)
    aa1a:	0028      	movs	r0, r5
    aa1c:	445b      	add	r3, fp
    aa1e:	4641      	mov	r1, r8
    aa20:	409d      	lsls	r5, r3
    aa22:	4099      	lsls	r1, r3
    aa24:	40d0      	lsrs	r0, r2
    aa26:	1e6b      	subs	r3, r5, #1
    aa28:	419d      	sbcs	r5, r3
    aa2a:	4643      	mov	r3, r8
    aa2c:	4301      	orrs	r1, r0
    aa2e:	4329      	orrs	r1, r5
    aa30:	40d3      	lsrs	r3, r2
    aa32:	074a      	lsls	r2, r1, #29
    aa34:	d100      	bne.n	aa38 <__aeabi_ddiv+0x560>
    aa36:	e755      	b.n	a8e4 <__aeabi_ddiv+0x40c>
    aa38:	220f      	movs	r2, #15
    aa3a:	400a      	ands	r2, r1
    aa3c:	2a04      	cmp	r2, #4
    aa3e:	d000      	beq.n	aa42 <__aeabi_ddiv+0x56a>
    aa40:	e74a      	b.n	a8d8 <__aeabi_ddiv+0x400>
    aa42:	e74f      	b.n	a8e4 <__aeabi_ddiv+0x40c>
    aa44:	0015      	movs	r5, r2
    aa46:	4286      	cmp	r6, r0
    aa48:	d000      	beq.n	aa4c <__aeabi_ddiv+0x574>
    aa4a:	e66d      	b.n	a728 <__aeabi_ddiv+0x250>
    aa4c:	9a00      	ldr	r2, [sp, #0]
    aa4e:	429a      	cmp	r2, r3
    aa50:	d000      	beq.n	aa54 <__aeabi_ddiv+0x57c>
    aa52:	e669      	b.n	a728 <__aeabi_ddiv+0x250>
    aa54:	e66a      	b.n	a72c <__aeabi_ddiv+0x254>
    aa56:	4b16      	ldr	r3, [pc, #88]	; (aab0 <__aeabi_ddiv+0x5d8>)
    aa58:	445b      	add	r3, fp
    aa5a:	2b00      	cmp	r3, #0
    aa5c:	dc00      	bgt.n	aa60 <__aeabi_ddiv+0x588>
    aa5e:	e713      	b.n	a888 <__aeabi_ddiv+0x3b0>
    aa60:	2501      	movs	r5, #1
    aa62:	2100      	movs	r1, #0
    aa64:	44a8      	add	r8, r5
    aa66:	e66a      	b.n	a73e <__aeabi_ddiv+0x266>
    aa68:	075d      	lsls	r5, r3, #29
    aa6a:	025b      	lsls	r3, r3, #9
    aa6c:	0b1a      	lsrs	r2, r3, #12
    aa6e:	08c9      	lsrs	r1, r1, #3
    aa70:	2300      	movs	r3, #0
    aa72:	430d      	orrs	r5, r1
    aa74:	e587      	b.n	a586 <__aeabi_ddiv+0xae>
    aa76:	9900      	ldr	r1, [sp, #0]
    aa78:	3d02      	subs	r5, #2
    aa7a:	004a      	lsls	r2, r1, #1
    aa7c:	428a      	cmp	r2, r1
    aa7e:	41bf      	sbcs	r7, r7
    aa80:	427f      	negs	r7, r7
    aa82:	193f      	adds	r7, r7, r4
    aa84:	19f6      	adds	r6, r6, r7
    aa86:	9200      	str	r2, [sp, #0]
    aa88:	e7dd      	b.n	aa46 <__aeabi_ddiv+0x56e>
    aa8a:	2280      	movs	r2, #128	; 0x80
    aa8c:	4643      	mov	r3, r8
    aa8e:	0312      	lsls	r2, r2, #12
    aa90:	431a      	orrs	r2, r3
    aa92:	0312      	lsls	r2, r2, #12
    aa94:	4b03      	ldr	r3, [pc, #12]	; (aaa4 <__aeabi_ddiv+0x5cc>)
    aa96:	0b12      	lsrs	r2, r2, #12
    aa98:	e575      	b.n	a586 <__aeabi_ddiv+0xae>
    aa9a:	9900      	ldr	r1, [sp, #0]
    aa9c:	4299      	cmp	r1, r3
    aa9e:	d3ea      	bcc.n	aa76 <__aeabi_ddiv+0x59e>
    aaa0:	0015      	movs	r5, r2
    aaa2:	e7d3      	b.n	aa4c <__aeabi_ddiv+0x574>
    aaa4:	000007ff 	.word	0x000007ff
    aaa8:	0000043e 	.word	0x0000043e
    aaac:	0000041e 	.word	0x0000041e
    aab0:	000003ff 	.word	0x000003ff

0000aab4 <__eqdf2>:
    aab4:	b5f0      	push	{r4, r5, r6, r7, lr}
    aab6:	464e      	mov	r6, r9
    aab8:	4645      	mov	r5, r8
    aaba:	46de      	mov	lr, fp
    aabc:	4657      	mov	r7, sl
    aabe:	4690      	mov	r8, r2
    aac0:	b5e0      	push	{r5, r6, r7, lr}
    aac2:	0017      	movs	r7, r2
    aac4:	031a      	lsls	r2, r3, #12
    aac6:	0b12      	lsrs	r2, r2, #12
    aac8:	0005      	movs	r5, r0
    aaca:	4684      	mov	ip, r0
    aacc:	4819      	ldr	r0, [pc, #100]	; (ab34 <__eqdf2+0x80>)
    aace:	030e      	lsls	r6, r1, #12
    aad0:	004c      	lsls	r4, r1, #1
    aad2:	4691      	mov	r9, r2
    aad4:	005a      	lsls	r2, r3, #1
    aad6:	0fdb      	lsrs	r3, r3, #31
    aad8:	469b      	mov	fp, r3
    aada:	0b36      	lsrs	r6, r6, #12
    aadc:	0d64      	lsrs	r4, r4, #21
    aade:	0fc9      	lsrs	r1, r1, #31
    aae0:	0d52      	lsrs	r2, r2, #21
    aae2:	4284      	cmp	r4, r0
    aae4:	d019      	beq.n	ab1a <__eqdf2+0x66>
    aae6:	4282      	cmp	r2, r0
    aae8:	d010      	beq.n	ab0c <__eqdf2+0x58>
    aaea:	2001      	movs	r0, #1
    aaec:	4294      	cmp	r4, r2
    aaee:	d10e      	bne.n	ab0e <__eqdf2+0x5a>
    aaf0:	454e      	cmp	r6, r9
    aaf2:	d10c      	bne.n	ab0e <__eqdf2+0x5a>
    aaf4:	2001      	movs	r0, #1
    aaf6:	45c4      	cmp	ip, r8
    aaf8:	d109      	bne.n	ab0e <__eqdf2+0x5a>
    aafa:	4559      	cmp	r1, fp
    aafc:	d017      	beq.n	ab2e <__eqdf2+0x7a>
    aafe:	2c00      	cmp	r4, #0
    ab00:	d105      	bne.n	ab0e <__eqdf2+0x5a>
    ab02:	0030      	movs	r0, r6
    ab04:	4328      	orrs	r0, r5
    ab06:	1e43      	subs	r3, r0, #1
    ab08:	4198      	sbcs	r0, r3
    ab0a:	e000      	b.n	ab0e <__eqdf2+0x5a>
    ab0c:	2001      	movs	r0, #1
    ab0e:	bcf0      	pop	{r4, r5, r6, r7}
    ab10:	46bb      	mov	fp, r7
    ab12:	46b2      	mov	sl, r6
    ab14:	46a9      	mov	r9, r5
    ab16:	46a0      	mov	r8, r4
    ab18:	bdf0      	pop	{r4, r5, r6, r7, pc}
    ab1a:	0033      	movs	r3, r6
    ab1c:	2001      	movs	r0, #1
    ab1e:	432b      	orrs	r3, r5
    ab20:	d1f5      	bne.n	ab0e <__eqdf2+0x5a>
    ab22:	42a2      	cmp	r2, r4
    ab24:	d1f3      	bne.n	ab0e <__eqdf2+0x5a>
    ab26:	464b      	mov	r3, r9
    ab28:	433b      	orrs	r3, r7
    ab2a:	d1f0      	bne.n	ab0e <__eqdf2+0x5a>
    ab2c:	e7e2      	b.n	aaf4 <__eqdf2+0x40>
    ab2e:	2000      	movs	r0, #0
    ab30:	e7ed      	b.n	ab0e <__eqdf2+0x5a>
    ab32:	46c0      	nop			; (mov r8, r8)
    ab34:	000007ff 	.word	0x000007ff

0000ab38 <__gedf2>:
    ab38:	b5f0      	push	{r4, r5, r6, r7, lr}
    ab3a:	4647      	mov	r7, r8
    ab3c:	46ce      	mov	lr, r9
    ab3e:	0004      	movs	r4, r0
    ab40:	0018      	movs	r0, r3
    ab42:	0016      	movs	r6, r2
    ab44:	031b      	lsls	r3, r3, #12
    ab46:	0b1b      	lsrs	r3, r3, #12
    ab48:	4d2d      	ldr	r5, [pc, #180]	; (ac00 <__gedf2+0xc8>)
    ab4a:	004a      	lsls	r2, r1, #1
    ab4c:	4699      	mov	r9, r3
    ab4e:	b580      	push	{r7, lr}
    ab50:	0043      	lsls	r3, r0, #1
    ab52:	030f      	lsls	r7, r1, #12
    ab54:	46a4      	mov	ip, r4
    ab56:	46b0      	mov	r8, r6
    ab58:	0b3f      	lsrs	r7, r7, #12
    ab5a:	0d52      	lsrs	r2, r2, #21
    ab5c:	0fc9      	lsrs	r1, r1, #31
    ab5e:	0d5b      	lsrs	r3, r3, #21
    ab60:	0fc0      	lsrs	r0, r0, #31
    ab62:	42aa      	cmp	r2, r5
    ab64:	d021      	beq.n	abaa <__gedf2+0x72>
    ab66:	42ab      	cmp	r3, r5
    ab68:	d013      	beq.n	ab92 <__gedf2+0x5a>
    ab6a:	2a00      	cmp	r2, #0
    ab6c:	d122      	bne.n	abb4 <__gedf2+0x7c>
    ab6e:	433c      	orrs	r4, r7
    ab70:	2b00      	cmp	r3, #0
    ab72:	d102      	bne.n	ab7a <__gedf2+0x42>
    ab74:	464d      	mov	r5, r9
    ab76:	432e      	orrs	r6, r5
    ab78:	d022      	beq.n	abc0 <__gedf2+0x88>
    ab7a:	2c00      	cmp	r4, #0
    ab7c:	d010      	beq.n	aba0 <__gedf2+0x68>
    ab7e:	4281      	cmp	r1, r0
    ab80:	d022      	beq.n	abc8 <__gedf2+0x90>
    ab82:	2002      	movs	r0, #2
    ab84:	3901      	subs	r1, #1
    ab86:	4008      	ands	r0, r1
    ab88:	3801      	subs	r0, #1
    ab8a:	bcc0      	pop	{r6, r7}
    ab8c:	46b9      	mov	r9, r7
    ab8e:	46b0      	mov	r8, r6
    ab90:	bdf0      	pop	{r4, r5, r6, r7, pc}
    ab92:	464d      	mov	r5, r9
    ab94:	432e      	orrs	r6, r5
    ab96:	d129      	bne.n	abec <__gedf2+0xb4>
    ab98:	2a00      	cmp	r2, #0
    ab9a:	d1f0      	bne.n	ab7e <__gedf2+0x46>
    ab9c:	433c      	orrs	r4, r7
    ab9e:	d1ee      	bne.n	ab7e <__gedf2+0x46>
    aba0:	2800      	cmp	r0, #0
    aba2:	d1f2      	bne.n	ab8a <__gedf2+0x52>
    aba4:	2001      	movs	r0, #1
    aba6:	4240      	negs	r0, r0
    aba8:	e7ef      	b.n	ab8a <__gedf2+0x52>
    abaa:	003d      	movs	r5, r7
    abac:	4325      	orrs	r5, r4
    abae:	d11d      	bne.n	abec <__gedf2+0xb4>
    abb0:	4293      	cmp	r3, r2
    abb2:	d0ee      	beq.n	ab92 <__gedf2+0x5a>
    abb4:	2b00      	cmp	r3, #0
    abb6:	d1e2      	bne.n	ab7e <__gedf2+0x46>
    abb8:	464c      	mov	r4, r9
    abba:	4326      	orrs	r6, r4
    abbc:	d1df      	bne.n	ab7e <__gedf2+0x46>
    abbe:	e7e0      	b.n	ab82 <__gedf2+0x4a>
    abc0:	2000      	movs	r0, #0
    abc2:	2c00      	cmp	r4, #0
    abc4:	d0e1      	beq.n	ab8a <__gedf2+0x52>
    abc6:	e7dc      	b.n	ab82 <__gedf2+0x4a>
    abc8:	429a      	cmp	r2, r3
    abca:	dc0a      	bgt.n	abe2 <__gedf2+0xaa>
    abcc:	dbe8      	blt.n	aba0 <__gedf2+0x68>
    abce:	454f      	cmp	r7, r9
    abd0:	d8d7      	bhi.n	ab82 <__gedf2+0x4a>
    abd2:	d00e      	beq.n	abf2 <__gedf2+0xba>
    abd4:	2000      	movs	r0, #0
    abd6:	454f      	cmp	r7, r9
    abd8:	d2d7      	bcs.n	ab8a <__gedf2+0x52>
    abda:	2900      	cmp	r1, #0
    abdc:	d0e2      	beq.n	aba4 <__gedf2+0x6c>
    abde:	0008      	movs	r0, r1
    abe0:	e7d3      	b.n	ab8a <__gedf2+0x52>
    abe2:	4243      	negs	r3, r0
    abe4:	4158      	adcs	r0, r3
    abe6:	0040      	lsls	r0, r0, #1
    abe8:	3801      	subs	r0, #1
    abea:	e7ce      	b.n	ab8a <__gedf2+0x52>
    abec:	2002      	movs	r0, #2
    abee:	4240      	negs	r0, r0
    abf0:	e7cb      	b.n	ab8a <__gedf2+0x52>
    abf2:	45c4      	cmp	ip, r8
    abf4:	d8c5      	bhi.n	ab82 <__gedf2+0x4a>
    abf6:	2000      	movs	r0, #0
    abf8:	45c4      	cmp	ip, r8
    abfa:	d2c6      	bcs.n	ab8a <__gedf2+0x52>
    abfc:	e7ed      	b.n	abda <__gedf2+0xa2>
    abfe:	46c0      	nop			; (mov r8, r8)
    ac00:	000007ff 	.word	0x000007ff

0000ac04 <__ledf2>:
    ac04:	b5f0      	push	{r4, r5, r6, r7, lr}
    ac06:	4647      	mov	r7, r8
    ac08:	46ce      	mov	lr, r9
    ac0a:	0004      	movs	r4, r0
    ac0c:	0018      	movs	r0, r3
    ac0e:	0016      	movs	r6, r2
    ac10:	031b      	lsls	r3, r3, #12
    ac12:	0b1b      	lsrs	r3, r3, #12
    ac14:	4d2c      	ldr	r5, [pc, #176]	; (acc8 <__ledf2+0xc4>)
    ac16:	004a      	lsls	r2, r1, #1
    ac18:	4699      	mov	r9, r3
    ac1a:	b580      	push	{r7, lr}
    ac1c:	0043      	lsls	r3, r0, #1
    ac1e:	030f      	lsls	r7, r1, #12
    ac20:	46a4      	mov	ip, r4
    ac22:	46b0      	mov	r8, r6
    ac24:	0b3f      	lsrs	r7, r7, #12
    ac26:	0d52      	lsrs	r2, r2, #21
    ac28:	0fc9      	lsrs	r1, r1, #31
    ac2a:	0d5b      	lsrs	r3, r3, #21
    ac2c:	0fc0      	lsrs	r0, r0, #31
    ac2e:	42aa      	cmp	r2, r5
    ac30:	d00d      	beq.n	ac4e <__ledf2+0x4a>
    ac32:	42ab      	cmp	r3, r5
    ac34:	d010      	beq.n	ac58 <__ledf2+0x54>
    ac36:	2a00      	cmp	r2, #0
    ac38:	d127      	bne.n	ac8a <__ledf2+0x86>
    ac3a:	433c      	orrs	r4, r7
    ac3c:	2b00      	cmp	r3, #0
    ac3e:	d111      	bne.n	ac64 <__ledf2+0x60>
    ac40:	464d      	mov	r5, r9
    ac42:	432e      	orrs	r6, r5
    ac44:	d10e      	bne.n	ac64 <__ledf2+0x60>
    ac46:	2000      	movs	r0, #0
    ac48:	2c00      	cmp	r4, #0
    ac4a:	d015      	beq.n	ac78 <__ledf2+0x74>
    ac4c:	e00e      	b.n	ac6c <__ledf2+0x68>
    ac4e:	003d      	movs	r5, r7
    ac50:	4325      	orrs	r5, r4
    ac52:	d110      	bne.n	ac76 <__ledf2+0x72>
    ac54:	4293      	cmp	r3, r2
    ac56:	d118      	bne.n	ac8a <__ledf2+0x86>
    ac58:	464d      	mov	r5, r9
    ac5a:	432e      	orrs	r6, r5
    ac5c:	d10b      	bne.n	ac76 <__ledf2+0x72>
    ac5e:	2a00      	cmp	r2, #0
    ac60:	d102      	bne.n	ac68 <__ledf2+0x64>
    ac62:	433c      	orrs	r4, r7
    ac64:	2c00      	cmp	r4, #0
    ac66:	d00b      	beq.n	ac80 <__ledf2+0x7c>
    ac68:	4281      	cmp	r1, r0
    ac6a:	d014      	beq.n	ac96 <__ledf2+0x92>
    ac6c:	2002      	movs	r0, #2
    ac6e:	3901      	subs	r1, #1
    ac70:	4008      	ands	r0, r1
    ac72:	3801      	subs	r0, #1
    ac74:	e000      	b.n	ac78 <__ledf2+0x74>
    ac76:	2002      	movs	r0, #2
    ac78:	bcc0      	pop	{r6, r7}
    ac7a:	46b9      	mov	r9, r7
    ac7c:	46b0      	mov	r8, r6
    ac7e:	bdf0      	pop	{r4, r5, r6, r7, pc}
    ac80:	2800      	cmp	r0, #0
    ac82:	d1f9      	bne.n	ac78 <__ledf2+0x74>
    ac84:	2001      	movs	r0, #1
    ac86:	4240      	negs	r0, r0
    ac88:	e7f6      	b.n	ac78 <__ledf2+0x74>
    ac8a:	2b00      	cmp	r3, #0
    ac8c:	d1ec      	bne.n	ac68 <__ledf2+0x64>
    ac8e:	464c      	mov	r4, r9
    ac90:	4326      	orrs	r6, r4
    ac92:	d1e9      	bne.n	ac68 <__ledf2+0x64>
    ac94:	e7ea      	b.n	ac6c <__ledf2+0x68>
    ac96:	429a      	cmp	r2, r3
    ac98:	dd04      	ble.n	aca4 <__ledf2+0xa0>
    ac9a:	4243      	negs	r3, r0
    ac9c:	4158      	adcs	r0, r3
    ac9e:	0040      	lsls	r0, r0, #1
    aca0:	3801      	subs	r0, #1
    aca2:	e7e9      	b.n	ac78 <__ledf2+0x74>
    aca4:	429a      	cmp	r2, r3
    aca6:	dbeb      	blt.n	ac80 <__ledf2+0x7c>
    aca8:	454f      	cmp	r7, r9
    acaa:	d8df      	bhi.n	ac6c <__ledf2+0x68>
    acac:	d006      	beq.n	acbc <__ledf2+0xb8>
    acae:	2000      	movs	r0, #0
    acb0:	454f      	cmp	r7, r9
    acb2:	d2e1      	bcs.n	ac78 <__ledf2+0x74>
    acb4:	2900      	cmp	r1, #0
    acb6:	d0e5      	beq.n	ac84 <__ledf2+0x80>
    acb8:	0008      	movs	r0, r1
    acba:	e7dd      	b.n	ac78 <__ledf2+0x74>
    acbc:	45c4      	cmp	ip, r8
    acbe:	d8d5      	bhi.n	ac6c <__ledf2+0x68>
    acc0:	2000      	movs	r0, #0
    acc2:	45c4      	cmp	ip, r8
    acc4:	d2d8      	bcs.n	ac78 <__ledf2+0x74>
    acc6:	e7f5      	b.n	acb4 <__ledf2+0xb0>
    acc8:	000007ff 	.word	0x000007ff

0000accc <__aeabi_dmul>:
    accc:	b5f0      	push	{r4, r5, r6, r7, lr}
    acce:	4645      	mov	r5, r8
    acd0:	46de      	mov	lr, fp
    acd2:	4657      	mov	r7, sl
    acd4:	464e      	mov	r6, r9
    acd6:	b5e0      	push	{r5, r6, r7, lr}
    acd8:	001f      	movs	r7, r3
    acda:	030b      	lsls	r3, r1, #12
    acdc:	0b1b      	lsrs	r3, r3, #12
    acde:	469b      	mov	fp, r3
    ace0:	004d      	lsls	r5, r1, #1
    ace2:	0fcb      	lsrs	r3, r1, #31
    ace4:	0004      	movs	r4, r0
    ace6:	4691      	mov	r9, r2
    ace8:	4698      	mov	r8, r3
    acea:	b087      	sub	sp, #28
    acec:	0d6d      	lsrs	r5, r5, #21
    acee:	d100      	bne.n	acf2 <__aeabi_dmul+0x26>
    acf0:	e1cd      	b.n	b08e <__aeabi_dmul+0x3c2>
    acf2:	4bce      	ldr	r3, [pc, #824]	; (b02c <__aeabi_dmul+0x360>)
    acf4:	429d      	cmp	r5, r3
    acf6:	d100      	bne.n	acfa <__aeabi_dmul+0x2e>
    acf8:	e1e9      	b.n	b0ce <__aeabi_dmul+0x402>
    acfa:	465a      	mov	r2, fp
    acfc:	0f43      	lsrs	r3, r0, #29
    acfe:	00d2      	lsls	r2, r2, #3
    ad00:	4313      	orrs	r3, r2
    ad02:	2280      	movs	r2, #128	; 0x80
    ad04:	0412      	lsls	r2, r2, #16
    ad06:	431a      	orrs	r2, r3
    ad08:	00c3      	lsls	r3, r0, #3
    ad0a:	469a      	mov	sl, r3
    ad0c:	4bc8      	ldr	r3, [pc, #800]	; (b030 <__aeabi_dmul+0x364>)
    ad0e:	4693      	mov	fp, r2
    ad10:	469c      	mov	ip, r3
    ad12:	2300      	movs	r3, #0
    ad14:	2600      	movs	r6, #0
    ad16:	4465      	add	r5, ip
    ad18:	9300      	str	r3, [sp, #0]
    ad1a:	033c      	lsls	r4, r7, #12
    ad1c:	007b      	lsls	r3, r7, #1
    ad1e:	4648      	mov	r0, r9
    ad20:	0b24      	lsrs	r4, r4, #12
    ad22:	0d5b      	lsrs	r3, r3, #21
    ad24:	0fff      	lsrs	r7, r7, #31
    ad26:	2b00      	cmp	r3, #0
    ad28:	d100      	bne.n	ad2c <__aeabi_dmul+0x60>
    ad2a:	e189      	b.n	b040 <__aeabi_dmul+0x374>
    ad2c:	4abf      	ldr	r2, [pc, #764]	; (b02c <__aeabi_dmul+0x360>)
    ad2e:	4293      	cmp	r3, r2
    ad30:	d019      	beq.n	ad66 <__aeabi_dmul+0x9a>
    ad32:	0f42      	lsrs	r2, r0, #29
    ad34:	00e4      	lsls	r4, r4, #3
    ad36:	4322      	orrs	r2, r4
    ad38:	2480      	movs	r4, #128	; 0x80
    ad3a:	0424      	lsls	r4, r4, #16
    ad3c:	4314      	orrs	r4, r2
    ad3e:	4abc      	ldr	r2, [pc, #752]	; (b030 <__aeabi_dmul+0x364>)
    ad40:	2100      	movs	r1, #0
    ad42:	4694      	mov	ip, r2
    ad44:	4642      	mov	r2, r8
    ad46:	4463      	add	r3, ip
    ad48:	195b      	adds	r3, r3, r5
    ad4a:	9301      	str	r3, [sp, #4]
    ad4c:	9b01      	ldr	r3, [sp, #4]
    ad4e:	407a      	eors	r2, r7
    ad50:	3301      	adds	r3, #1
    ad52:	00c0      	lsls	r0, r0, #3
    ad54:	b2d2      	uxtb	r2, r2
    ad56:	9302      	str	r3, [sp, #8]
    ad58:	2e0a      	cmp	r6, #10
    ad5a:	dd1c      	ble.n	ad96 <__aeabi_dmul+0xca>
    ad5c:	003a      	movs	r2, r7
    ad5e:	2e0b      	cmp	r6, #11
    ad60:	d05e      	beq.n	ae20 <__aeabi_dmul+0x154>
    ad62:	4647      	mov	r7, r8
    ad64:	e056      	b.n	ae14 <__aeabi_dmul+0x148>
    ad66:	4649      	mov	r1, r9
    ad68:	4bb0      	ldr	r3, [pc, #704]	; (b02c <__aeabi_dmul+0x360>)
    ad6a:	4321      	orrs	r1, r4
    ad6c:	18eb      	adds	r3, r5, r3
    ad6e:	9301      	str	r3, [sp, #4]
    ad70:	2900      	cmp	r1, #0
    ad72:	d12a      	bne.n	adca <__aeabi_dmul+0xfe>
    ad74:	2080      	movs	r0, #128	; 0x80
    ad76:	2202      	movs	r2, #2
    ad78:	0100      	lsls	r0, r0, #4
    ad7a:	002b      	movs	r3, r5
    ad7c:	4684      	mov	ip, r0
    ad7e:	4316      	orrs	r6, r2
    ad80:	4642      	mov	r2, r8
    ad82:	4463      	add	r3, ip
    ad84:	407a      	eors	r2, r7
    ad86:	b2d2      	uxtb	r2, r2
    ad88:	9302      	str	r3, [sp, #8]
    ad8a:	2e0a      	cmp	r6, #10
    ad8c:	dd00      	ble.n	ad90 <__aeabi_dmul+0xc4>
    ad8e:	e231      	b.n	b1f4 <__aeabi_dmul+0x528>
    ad90:	2000      	movs	r0, #0
    ad92:	2400      	movs	r4, #0
    ad94:	2102      	movs	r1, #2
    ad96:	2e02      	cmp	r6, #2
    ad98:	dc26      	bgt.n	ade8 <__aeabi_dmul+0x11c>
    ad9a:	3e01      	subs	r6, #1
    ad9c:	2e01      	cmp	r6, #1
    ad9e:	d852      	bhi.n	ae46 <__aeabi_dmul+0x17a>
    ada0:	2902      	cmp	r1, #2
    ada2:	d04c      	beq.n	ae3e <__aeabi_dmul+0x172>
    ada4:	2901      	cmp	r1, #1
    ada6:	d000      	beq.n	adaa <__aeabi_dmul+0xde>
    ada8:	e118      	b.n	afdc <__aeabi_dmul+0x310>
    adaa:	2300      	movs	r3, #0
    adac:	2400      	movs	r4, #0
    adae:	2500      	movs	r5, #0
    adb0:	051b      	lsls	r3, r3, #20
    adb2:	4323      	orrs	r3, r4
    adb4:	07d2      	lsls	r2, r2, #31
    adb6:	4313      	orrs	r3, r2
    adb8:	0028      	movs	r0, r5
    adba:	0019      	movs	r1, r3
    adbc:	b007      	add	sp, #28
    adbe:	bcf0      	pop	{r4, r5, r6, r7}
    adc0:	46bb      	mov	fp, r7
    adc2:	46b2      	mov	sl, r6
    adc4:	46a9      	mov	r9, r5
    adc6:	46a0      	mov	r8, r4
    adc8:	bdf0      	pop	{r4, r5, r6, r7, pc}
    adca:	2180      	movs	r1, #128	; 0x80
    adcc:	2203      	movs	r2, #3
    adce:	0109      	lsls	r1, r1, #4
    add0:	002b      	movs	r3, r5
    add2:	468c      	mov	ip, r1
    add4:	4316      	orrs	r6, r2
    add6:	4642      	mov	r2, r8
    add8:	4463      	add	r3, ip
    adda:	407a      	eors	r2, r7
    addc:	b2d2      	uxtb	r2, r2
    adde:	9302      	str	r3, [sp, #8]
    ade0:	2e0a      	cmp	r6, #10
    ade2:	dd00      	ble.n	ade6 <__aeabi_dmul+0x11a>
    ade4:	e228      	b.n	b238 <__aeabi_dmul+0x56c>
    ade6:	2103      	movs	r1, #3
    ade8:	2501      	movs	r5, #1
    adea:	40b5      	lsls	r5, r6
    adec:	46ac      	mov	ip, r5
    adee:	26a6      	movs	r6, #166	; 0xa6
    adf0:	4663      	mov	r3, ip
    adf2:	00f6      	lsls	r6, r6, #3
    adf4:	4035      	ands	r5, r6
    adf6:	4233      	tst	r3, r6
    adf8:	d10b      	bne.n	ae12 <__aeabi_dmul+0x146>
    adfa:	2690      	movs	r6, #144	; 0x90
    adfc:	00b6      	lsls	r6, r6, #2
    adfe:	4233      	tst	r3, r6
    ae00:	d118      	bne.n	ae34 <__aeabi_dmul+0x168>
    ae02:	3eb9      	subs	r6, #185	; 0xb9
    ae04:	3eff      	subs	r6, #255	; 0xff
    ae06:	421e      	tst	r6, r3
    ae08:	d01d      	beq.n	ae46 <__aeabi_dmul+0x17a>
    ae0a:	46a3      	mov	fp, r4
    ae0c:	4682      	mov	sl, r0
    ae0e:	9100      	str	r1, [sp, #0]
    ae10:	e000      	b.n	ae14 <__aeabi_dmul+0x148>
    ae12:	0017      	movs	r7, r2
    ae14:	9900      	ldr	r1, [sp, #0]
    ae16:	003a      	movs	r2, r7
    ae18:	2902      	cmp	r1, #2
    ae1a:	d010      	beq.n	ae3e <__aeabi_dmul+0x172>
    ae1c:	465c      	mov	r4, fp
    ae1e:	4650      	mov	r0, sl
    ae20:	2903      	cmp	r1, #3
    ae22:	d1bf      	bne.n	ada4 <__aeabi_dmul+0xd8>
    ae24:	2380      	movs	r3, #128	; 0x80
    ae26:	031b      	lsls	r3, r3, #12
    ae28:	431c      	orrs	r4, r3
    ae2a:	0324      	lsls	r4, r4, #12
    ae2c:	0005      	movs	r5, r0
    ae2e:	4b7f      	ldr	r3, [pc, #508]	; (b02c <__aeabi_dmul+0x360>)
    ae30:	0b24      	lsrs	r4, r4, #12
    ae32:	e7bd      	b.n	adb0 <__aeabi_dmul+0xe4>
    ae34:	2480      	movs	r4, #128	; 0x80
    ae36:	2200      	movs	r2, #0
    ae38:	4b7c      	ldr	r3, [pc, #496]	; (b02c <__aeabi_dmul+0x360>)
    ae3a:	0324      	lsls	r4, r4, #12
    ae3c:	e7b8      	b.n	adb0 <__aeabi_dmul+0xe4>
    ae3e:	2400      	movs	r4, #0
    ae40:	2500      	movs	r5, #0
    ae42:	4b7a      	ldr	r3, [pc, #488]	; (b02c <__aeabi_dmul+0x360>)
    ae44:	e7b4      	b.n	adb0 <__aeabi_dmul+0xe4>
    ae46:	4653      	mov	r3, sl
    ae48:	041e      	lsls	r6, r3, #16
    ae4a:	0c36      	lsrs	r6, r6, #16
    ae4c:	0c1f      	lsrs	r7, r3, #16
    ae4e:	0033      	movs	r3, r6
    ae50:	0c01      	lsrs	r1, r0, #16
    ae52:	0400      	lsls	r0, r0, #16
    ae54:	0c00      	lsrs	r0, r0, #16
    ae56:	4343      	muls	r3, r0
    ae58:	4698      	mov	r8, r3
    ae5a:	0003      	movs	r3, r0
    ae5c:	437b      	muls	r3, r7
    ae5e:	4699      	mov	r9, r3
    ae60:	0033      	movs	r3, r6
    ae62:	434b      	muls	r3, r1
    ae64:	469c      	mov	ip, r3
    ae66:	4643      	mov	r3, r8
    ae68:	000d      	movs	r5, r1
    ae6a:	0c1b      	lsrs	r3, r3, #16
    ae6c:	469a      	mov	sl, r3
    ae6e:	437d      	muls	r5, r7
    ae70:	44cc      	add	ip, r9
    ae72:	44d4      	add	ip, sl
    ae74:	9500      	str	r5, [sp, #0]
    ae76:	45e1      	cmp	r9, ip
    ae78:	d904      	bls.n	ae84 <__aeabi_dmul+0x1b8>
    ae7a:	2380      	movs	r3, #128	; 0x80
    ae7c:	025b      	lsls	r3, r3, #9
    ae7e:	4699      	mov	r9, r3
    ae80:	444d      	add	r5, r9
    ae82:	9500      	str	r5, [sp, #0]
    ae84:	4663      	mov	r3, ip
    ae86:	0c1b      	lsrs	r3, r3, #16
    ae88:	001d      	movs	r5, r3
    ae8a:	4663      	mov	r3, ip
    ae8c:	041b      	lsls	r3, r3, #16
    ae8e:	469c      	mov	ip, r3
    ae90:	4643      	mov	r3, r8
    ae92:	041b      	lsls	r3, r3, #16
    ae94:	0c1b      	lsrs	r3, r3, #16
    ae96:	4698      	mov	r8, r3
    ae98:	4663      	mov	r3, ip
    ae9a:	4443      	add	r3, r8
    ae9c:	9303      	str	r3, [sp, #12]
    ae9e:	0c23      	lsrs	r3, r4, #16
    aea0:	4698      	mov	r8, r3
    aea2:	0033      	movs	r3, r6
    aea4:	0424      	lsls	r4, r4, #16
    aea6:	0c24      	lsrs	r4, r4, #16
    aea8:	4363      	muls	r3, r4
    aeaa:	469c      	mov	ip, r3
    aeac:	0023      	movs	r3, r4
    aeae:	437b      	muls	r3, r7
    aeb0:	4699      	mov	r9, r3
    aeb2:	4643      	mov	r3, r8
    aeb4:	435e      	muls	r6, r3
    aeb6:	435f      	muls	r7, r3
    aeb8:	444e      	add	r6, r9
    aeba:	4663      	mov	r3, ip
    aebc:	46b2      	mov	sl, r6
    aebe:	0c1e      	lsrs	r6, r3, #16
    aec0:	4456      	add	r6, sl
    aec2:	45b1      	cmp	r9, r6
    aec4:	d903      	bls.n	aece <__aeabi_dmul+0x202>
    aec6:	2380      	movs	r3, #128	; 0x80
    aec8:	025b      	lsls	r3, r3, #9
    aeca:	4699      	mov	r9, r3
    aecc:	444f      	add	r7, r9
    aece:	0c33      	lsrs	r3, r6, #16
    aed0:	4699      	mov	r9, r3
    aed2:	003b      	movs	r3, r7
    aed4:	444b      	add	r3, r9
    aed6:	9305      	str	r3, [sp, #20]
    aed8:	4663      	mov	r3, ip
    aeda:	46ac      	mov	ip, r5
    aedc:	041f      	lsls	r7, r3, #16
    aede:	0c3f      	lsrs	r7, r7, #16
    aee0:	0436      	lsls	r6, r6, #16
    aee2:	19f6      	adds	r6, r6, r7
    aee4:	44b4      	add	ip, r6
    aee6:	4663      	mov	r3, ip
    aee8:	9304      	str	r3, [sp, #16]
    aeea:	465b      	mov	r3, fp
    aeec:	0c1b      	lsrs	r3, r3, #16
    aeee:	469c      	mov	ip, r3
    aef0:	465b      	mov	r3, fp
    aef2:	041f      	lsls	r7, r3, #16
    aef4:	0c3f      	lsrs	r7, r7, #16
    aef6:	003b      	movs	r3, r7
    aef8:	4343      	muls	r3, r0
    aefa:	4699      	mov	r9, r3
    aefc:	4663      	mov	r3, ip
    aefe:	4343      	muls	r3, r0
    af00:	469a      	mov	sl, r3
    af02:	464b      	mov	r3, r9
    af04:	4660      	mov	r0, ip
    af06:	0c1b      	lsrs	r3, r3, #16
    af08:	469b      	mov	fp, r3
    af0a:	4348      	muls	r0, r1
    af0c:	4379      	muls	r1, r7
    af0e:	4451      	add	r1, sl
    af10:	4459      	add	r1, fp
    af12:	458a      	cmp	sl, r1
    af14:	d903      	bls.n	af1e <__aeabi_dmul+0x252>
    af16:	2380      	movs	r3, #128	; 0x80
    af18:	025b      	lsls	r3, r3, #9
    af1a:	469a      	mov	sl, r3
    af1c:	4450      	add	r0, sl
    af1e:	0c0b      	lsrs	r3, r1, #16
    af20:	469a      	mov	sl, r3
    af22:	464b      	mov	r3, r9
    af24:	041b      	lsls	r3, r3, #16
    af26:	0c1b      	lsrs	r3, r3, #16
    af28:	4699      	mov	r9, r3
    af2a:	003b      	movs	r3, r7
    af2c:	4363      	muls	r3, r4
    af2e:	0409      	lsls	r1, r1, #16
    af30:	4645      	mov	r5, r8
    af32:	4449      	add	r1, r9
    af34:	4699      	mov	r9, r3
    af36:	4663      	mov	r3, ip
    af38:	435c      	muls	r4, r3
    af3a:	436b      	muls	r3, r5
    af3c:	469c      	mov	ip, r3
    af3e:	464b      	mov	r3, r9
    af40:	0c1b      	lsrs	r3, r3, #16
    af42:	4698      	mov	r8, r3
    af44:	436f      	muls	r7, r5
    af46:	193f      	adds	r7, r7, r4
    af48:	4447      	add	r7, r8
    af4a:	4450      	add	r0, sl
    af4c:	42bc      	cmp	r4, r7
    af4e:	d903      	bls.n	af58 <__aeabi_dmul+0x28c>
    af50:	2380      	movs	r3, #128	; 0x80
    af52:	025b      	lsls	r3, r3, #9
    af54:	4698      	mov	r8, r3
    af56:	44c4      	add	ip, r8
    af58:	9b04      	ldr	r3, [sp, #16]
    af5a:	9d00      	ldr	r5, [sp, #0]
    af5c:	4698      	mov	r8, r3
    af5e:	4445      	add	r5, r8
    af60:	42b5      	cmp	r5, r6
    af62:	41b6      	sbcs	r6, r6
    af64:	4273      	negs	r3, r6
    af66:	4698      	mov	r8, r3
    af68:	464b      	mov	r3, r9
    af6a:	041e      	lsls	r6, r3, #16
    af6c:	9b05      	ldr	r3, [sp, #20]
    af6e:	043c      	lsls	r4, r7, #16
    af70:	4699      	mov	r9, r3
    af72:	0c36      	lsrs	r6, r6, #16
    af74:	19a4      	adds	r4, r4, r6
    af76:	444c      	add	r4, r9
    af78:	46a1      	mov	r9, r4
    af7a:	4683      	mov	fp, r0
    af7c:	186e      	adds	r6, r5, r1
    af7e:	44c1      	add	r9, r8
    af80:	428e      	cmp	r6, r1
    af82:	4189      	sbcs	r1, r1
    af84:	44cb      	add	fp, r9
    af86:	465d      	mov	r5, fp
    af88:	4249      	negs	r1, r1
    af8a:	186d      	adds	r5, r5, r1
    af8c:	429c      	cmp	r4, r3
    af8e:	41a4      	sbcs	r4, r4
    af90:	45c1      	cmp	r9, r8
    af92:	419b      	sbcs	r3, r3
    af94:	4583      	cmp	fp, r0
    af96:	4180      	sbcs	r0, r0
    af98:	428d      	cmp	r5, r1
    af9a:	4189      	sbcs	r1, r1
    af9c:	425b      	negs	r3, r3
    af9e:	4264      	negs	r4, r4
    afa0:	431c      	orrs	r4, r3
    afa2:	4240      	negs	r0, r0
    afa4:	9b03      	ldr	r3, [sp, #12]
    afa6:	4249      	negs	r1, r1
    afa8:	4301      	orrs	r1, r0
    afaa:	0270      	lsls	r0, r6, #9
    afac:	0c3f      	lsrs	r7, r7, #16
    afae:	4318      	orrs	r0, r3
    afb0:	19e4      	adds	r4, r4, r7
    afb2:	1e47      	subs	r7, r0, #1
    afb4:	41b8      	sbcs	r0, r7
    afb6:	1864      	adds	r4, r4, r1
    afb8:	4464      	add	r4, ip
    afba:	0df6      	lsrs	r6, r6, #23
    afbc:	0261      	lsls	r1, r4, #9
    afbe:	4330      	orrs	r0, r6
    afc0:	0dec      	lsrs	r4, r5, #23
    afc2:	026e      	lsls	r6, r5, #9
    afc4:	430c      	orrs	r4, r1
    afc6:	4330      	orrs	r0, r6
    afc8:	01c9      	lsls	r1, r1, #7
    afca:	d400      	bmi.n	afce <__aeabi_dmul+0x302>
    afcc:	e0f1      	b.n	b1b2 <__aeabi_dmul+0x4e6>
    afce:	2101      	movs	r1, #1
    afd0:	0843      	lsrs	r3, r0, #1
    afd2:	4001      	ands	r1, r0
    afd4:	430b      	orrs	r3, r1
    afd6:	07e0      	lsls	r0, r4, #31
    afd8:	4318      	orrs	r0, r3
    afda:	0864      	lsrs	r4, r4, #1
    afdc:	4915      	ldr	r1, [pc, #84]	; (b034 <__aeabi_dmul+0x368>)
    afde:	9b02      	ldr	r3, [sp, #8]
    afe0:	468c      	mov	ip, r1
    afe2:	4463      	add	r3, ip
    afe4:	2b00      	cmp	r3, #0
    afe6:	dc00      	bgt.n	afea <__aeabi_dmul+0x31e>
    afe8:	e097      	b.n	b11a <__aeabi_dmul+0x44e>
    afea:	0741      	lsls	r1, r0, #29
    afec:	d009      	beq.n	b002 <__aeabi_dmul+0x336>
    afee:	210f      	movs	r1, #15
    aff0:	4001      	ands	r1, r0
    aff2:	2904      	cmp	r1, #4
    aff4:	d005      	beq.n	b002 <__aeabi_dmul+0x336>
    aff6:	1d01      	adds	r1, r0, #4
    aff8:	4281      	cmp	r1, r0
    affa:	4180      	sbcs	r0, r0
    affc:	4240      	negs	r0, r0
    affe:	1824      	adds	r4, r4, r0
    b000:	0008      	movs	r0, r1
    b002:	01e1      	lsls	r1, r4, #7
    b004:	d506      	bpl.n	b014 <__aeabi_dmul+0x348>
    b006:	2180      	movs	r1, #128	; 0x80
    b008:	00c9      	lsls	r1, r1, #3
    b00a:	468c      	mov	ip, r1
    b00c:	4b0a      	ldr	r3, [pc, #40]	; (b038 <__aeabi_dmul+0x36c>)
    b00e:	401c      	ands	r4, r3
    b010:	9b02      	ldr	r3, [sp, #8]
    b012:	4463      	add	r3, ip
    b014:	4909      	ldr	r1, [pc, #36]	; (b03c <__aeabi_dmul+0x370>)
    b016:	428b      	cmp	r3, r1
    b018:	dd00      	ble.n	b01c <__aeabi_dmul+0x350>
    b01a:	e710      	b.n	ae3e <__aeabi_dmul+0x172>
    b01c:	0761      	lsls	r1, r4, #29
    b01e:	08c5      	lsrs	r5, r0, #3
    b020:	0264      	lsls	r4, r4, #9
    b022:	055b      	lsls	r3, r3, #21
    b024:	430d      	orrs	r5, r1
    b026:	0b24      	lsrs	r4, r4, #12
    b028:	0d5b      	lsrs	r3, r3, #21
    b02a:	e6c1      	b.n	adb0 <__aeabi_dmul+0xe4>
    b02c:	000007ff 	.word	0x000007ff
    b030:	fffffc01 	.word	0xfffffc01
    b034:	000003ff 	.word	0x000003ff
    b038:	feffffff 	.word	0xfeffffff
    b03c:	000007fe 	.word	0x000007fe
    b040:	464b      	mov	r3, r9
    b042:	4323      	orrs	r3, r4
    b044:	d059      	beq.n	b0fa <__aeabi_dmul+0x42e>
    b046:	2c00      	cmp	r4, #0
    b048:	d100      	bne.n	b04c <__aeabi_dmul+0x380>
    b04a:	e0a3      	b.n	b194 <__aeabi_dmul+0x4c8>
    b04c:	0020      	movs	r0, r4
    b04e:	f000 fdf9 	bl	bc44 <__clzsi2>
    b052:	0001      	movs	r1, r0
    b054:	0003      	movs	r3, r0
    b056:	390b      	subs	r1, #11
    b058:	221d      	movs	r2, #29
    b05a:	1a52      	subs	r2, r2, r1
    b05c:	4649      	mov	r1, r9
    b05e:	0018      	movs	r0, r3
    b060:	40d1      	lsrs	r1, r2
    b062:	464a      	mov	r2, r9
    b064:	3808      	subs	r0, #8
    b066:	4082      	lsls	r2, r0
    b068:	4084      	lsls	r4, r0
    b06a:	0010      	movs	r0, r2
    b06c:	430c      	orrs	r4, r1
    b06e:	4a74      	ldr	r2, [pc, #464]	; (b240 <__aeabi_dmul+0x574>)
    b070:	1aeb      	subs	r3, r5, r3
    b072:	4694      	mov	ip, r2
    b074:	4642      	mov	r2, r8
    b076:	4463      	add	r3, ip
    b078:	9301      	str	r3, [sp, #4]
    b07a:	9b01      	ldr	r3, [sp, #4]
    b07c:	407a      	eors	r2, r7
    b07e:	3301      	adds	r3, #1
    b080:	2100      	movs	r1, #0
    b082:	b2d2      	uxtb	r2, r2
    b084:	9302      	str	r3, [sp, #8]
    b086:	2e0a      	cmp	r6, #10
    b088:	dd00      	ble.n	b08c <__aeabi_dmul+0x3c0>
    b08a:	e667      	b.n	ad5c <__aeabi_dmul+0x90>
    b08c:	e683      	b.n	ad96 <__aeabi_dmul+0xca>
    b08e:	465b      	mov	r3, fp
    b090:	4303      	orrs	r3, r0
    b092:	469a      	mov	sl, r3
    b094:	d02a      	beq.n	b0ec <__aeabi_dmul+0x420>
    b096:	465b      	mov	r3, fp
    b098:	2b00      	cmp	r3, #0
    b09a:	d06d      	beq.n	b178 <__aeabi_dmul+0x4ac>
    b09c:	4658      	mov	r0, fp
    b09e:	f000 fdd1 	bl	bc44 <__clzsi2>
    b0a2:	0001      	movs	r1, r0
    b0a4:	0003      	movs	r3, r0
    b0a6:	390b      	subs	r1, #11
    b0a8:	221d      	movs	r2, #29
    b0aa:	1a52      	subs	r2, r2, r1
    b0ac:	0021      	movs	r1, r4
    b0ae:	0018      	movs	r0, r3
    b0b0:	465d      	mov	r5, fp
    b0b2:	40d1      	lsrs	r1, r2
    b0b4:	3808      	subs	r0, #8
    b0b6:	4085      	lsls	r5, r0
    b0b8:	000a      	movs	r2, r1
    b0ba:	4084      	lsls	r4, r0
    b0bc:	432a      	orrs	r2, r5
    b0be:	4693      	mov	fp, r2
    b0c0:	46a2      	mov	sl, r4
    b0c2:	4d5f      	ldr	r5, [pc, #380]	; (b240 <__aeabi_dmul+0x574>)
    b0c4:	2600      	movs	r6, #0
    b0c6:	1aed      	subs	r5, r5, r3
    b0c8:	2300      	movs	r3, #0
    b0ca:	9300      	str	r3, [sp, #0]
    b0cc:	e625      	b.n	ad1a <__aeabi_dmul+0x4e>
    b0ce:	465b      	mov	r3, fp
    b0d0:	4303      	orrs	r3, r0
    b0d2:	469a      	mov	sl, r3
    b0d4:	d105      	bne.n	b0e2 <__aeabi_dmul+0x416>
    b0d6:	2300      	movs	r3, #0
    b0d8:	469b      	mov	fp, r3
    b0da:	3302      	adds	r3, #2
    b0dc:	2608      	movs	r6, #8
    b0de:	9300      	str	r3, [sp, #0]
    b0e0:	e61b      	b.n	ad1a <__aeabi_dmul+0x4e>
    b0e2:	2303      	movs	r3, #3
    b0e4:	4682      	mov	sl, r0
    b0e6:	260c      	movs	r6, #12
    b0e8:	9300      	str	r3, [sp, #0]
    b0ea:	e616      	b.n	ad1a <__aeabi_dmul+0x4e>
    b0ec:	2300      	movs	r3, #0
    b0ee:	469b      	mov	fp, r3
    b0f0:	3301      	adds	r3, #1
    b0f2:	2604      	movs	r6, #4
    b0f4:	2500      	movs	r5, #0
    b0f6:	9300      	str	r3, [sp, #0]
    b0f8:	e60f      	b.n	ad1a <__aeabi_dmul+0x4e>
    b0fa:	4642      	mov	r2, r8
    b0fc:	3301      	adds	r3, #1
    b0fe:	9501      	str	r5, [sp, #4]
    b100:	431e      	orrs	r6, r3
    b102:	9b01      	ldr	r3, [sp, #4]
    b104:	407a      	eors	r2, r7
    b106:	3301      	adds	r3, #1
    b108:	2400      	movs	r4, #0
    b10a:	2000      	movs	r0, #0
    b10c:	2101      	movs	r1, #1
    b10e:	b2d2      	uxtb	r2, r2
    b110:	9302      	str	r3, [sp, #8]
    b112:	2e0a      	cmp	r6, #10
    b114:	dd00      	ble.n	b118 <__aeabi_dmul+0x44c>
    b116:	e621      	b.n	ad5c <__aeabi_dmul+0x90>
    b118:	e63d      	b.n	ad96 <__aeabi_dmul+0xca>
    b11a:	2101      	movs	r1, #1
    b11c:	1ac9      	subs	r1, r1, r3
    b11e:	2938      	cmp	r1, #56	; 0x38
    b120:	dd00      	ble.n	b124 <__aeabi_dmul+0x458>
    b122:	e642      	b.n	adaa <__aeabi_dmul+0xde>
    b124:	291f      	cmp	r1, #31
    b126:	dd47      	ble.n	b1b8 <__aeabi_dmul+0x4ec>
    b128:	261f      	movs	r6, #31
    b12a:	0025      	movs	r5, r4
    b12c:	4276      	negs	r6, r6
    b12e:	1af3      	subs	r3, r6, r3
    b130:	40dd      	lsrs	r5, r3
    b132:	002b      	movs	r3, r5
    b134:	2920      	cmp	r1, #32
    b136:	d005      	beq.n	b144 <__aeabi_dmul+0x478>
    b138:	4942      	ldr	r1, [pc, #264]	; (b244 <__aeabi_dmul+0x578>)
    b13a:	9d02      	ldr	r5, [sp, #8]
    b13c:	468c      	mov	ip, r1
    b13e:	4465      	add	r5, ip
    b140:	40ac      	lsls	r4, r5
    b142:	4320      	orrs	r0, r4
    b144:	1e41      	subs	r1, r0, #1
    b146:	4188      	sbcs	r0, r1
    b148:	4318      	orrs	r0, r3
    b14a:	2307      	movs	r3, #7
    b14c:	001d      	movs	r5, r3
    b14e:	2400      	movs	r4, #0
    b150:	4005      	ands	r5, r0
    b152:	4203      	tst	r3, r0
    b154:	d04a      	beq.n	b1ec <__aeabi_dmul+0x520>
    b156:	230f      	movs	r3, #15
    b158:	2400      	movs	r4, #0
    b15a:	4003      	ands	r3, r0
    b15c:	2b04      	cmp	r3, #4
    b15e:	d042      	beq.n	b1e6 <__aeabi_dmul+0x51a>
    b160:	1d03      	adds	r3, r0, #4
    b162:	4283      	cmp	r3, r0
    b164:	4180      	sbcs	r0, r0
    b166:	4240      	negs	r0, r0
    b168:	1824      	adds	r4, r4, r0
    b16a:	0018      	movs	r0, r3
    b16c:	0223      	lsls	r3, r4, #8
    b16e:	d53a      	bpl.n	b1e6 <__aeabi_dmul+0x51a>
    b170:	2301      	movs	r3, #1
    b172:	2400      	movs	r4, #0
    b174:	2500      	movs	r5, #0
    b176:	e61b      	b.n	adb0 <__aeabi_dmul+0xe4>
    b178:	f000 fd64 	bl	bc44 <__clzsi2>
    b17c:	0001      	movs	r1, r0
    b17e:	0003      	movs	r3, r0
    b180:	3115      	adds	r1, #21
    b182:	3320      	adds	r3, #32
    b184:	291c      	cmp	r1, #28
    b186:	dd8f      	ble.n	b0a8 <__aeabi_dmul+0x3dc>
    b188:	3808      	subs	r0, #8
    b18a:	2200      	movs	r2, #0
    b18c:	4084      	lsls	r4, r0
    b18e:	4692      	mov	sl, r2
    b190:	46a3      	mov	fp, r4
    b192:	e796      	b.n	b0c2 <__aeabi_dmul+0x3f6>
    b194:	f000 fd56 	bl	bc44 <__clzsi2>
    b198:	0001      	movs	r1, r0
    b19a:	0003      	movs	r3, r0
    b19c:	3115      	adds	r1, #21
    b19e:	3320      	adds	r3, #32
    b1a0:	291c      	cmp	r1, #28
    b1a2:	dc00      	bgt.n	b1a6 <__aeabi_dmul+0x4da>
    b1a4:	e758      	b.n	b058 <__aeabi_dmul+0x38c>
    b1a6:	0002      	movs	r2, r0
    b1a8:	464c      	mov	r4, r9
    b1aa:	3a08      	subs	r2, #8
    b1ac:	2000      	movs	r0, #0
    b1ae:	4094      	lsls	r4, r2
    b1b0:	e75d      	b.n	b06e <__aeabi_dmul+0x3a2>
    b1b2:	9b01      	ldr	r3, [sp, #4]
    b1b4:	9302      	str	r3, [sp, #8]
    b1b6:	e711      	b.n	afdc <__aeabi_dmul+0x310>
    b1b8:	4b23      	ldr	r3, [pc, #140]	; (b248 <__aeabi_dmul+0x57c>)
    b1ba:	0026      	movs	r6, r4
    b1bc:	469c      	mov	ip, r3
    b1be:	0003      	movs	r3, r0
    b1c0:	9d02      	ldr	r5, [sp, #8]
    b1c2:	40cb      	lsrs	r3, r1
    b1c4:	4465      	add	r5, ip
    b1c6:	40ae      	lsls	r6, r5
    b1c8:	431e      	orrs	r6, r3
    b1ca:	0003      	movs	r3, r0
    b1cc:	40ab      	lsls	r3, r5
    b1ce:	1e58      	subs	r0, r3, #1
    b1d0:	4183      	sbcs	r3, r0
    b1d2:	0030      	movs	r0, r6
    b1d4:	4318      	orrs	r0, r3
    b1d6:	40cc      	lsrs	r4, r1
    b1d8:	0743      	lsls	r3, r0, #29
    b1da:	d0c7      	beq.n	b16c <__aeabi_dmul+0x4a0>
    b1dc:	230f      	movs	r3, #15
    b1de:	4003      	ands	r3, r0
    b1e0:	2b04      	cmp	r3, #4
    b1e2:	d1bd      	bne.n	b160 <__aeabi_dmul+0x494>
    b1e4:	e7c2      	b.n	b16c <__aeabi_dmul+0x4a0>
    b1e6:	0765      	lsls	r5, r4, #29
    b1e8:	0264      	lsls	r4, r4, #9
    b1ea:	0b24      	lsrs	r4, r4, #12
    b1ec:	08c0      	lsrs	r0, r0, #3
    b1ee:	2300      	movs	r3, #0
    b1f0:	4305      	orrs	r5, r0
    b1f2:	e5dd      	b.n	adb0 <__aeabi_dmul+0xe4>
    b1f4:	2500      	movs	r5, #0
    b1f6:	2302      	movs	r3, #2
    b1f8:	2e0f      	cmp	r6, #15
    b1fa:	d10c      	bne.n	b216 <__aeabi_dmul+0x54a>
    b1fc:	2480      	movs	r4, #128	; 0x80
    b1fe:	465b      	mov	r3, fp
    b200:	0324      	lsls	r4, r4, #12
    b202:	4223      	tst	r3, r4
    b204:	d00e      	beq.n	b224 <__aeabi_dmul+0x558>
    b206:	4221      	tst	r1, r4
    b208:	d10c      	bne.n	b224 <__aeabi_dmul+0x558>
    b20a:	430c      	orrs	r4, r1
    b20c:	0324      	lsls	r4, r4, #12
    b20e:	003a      	movs	r2, r7
    b210:	4b0e      	ldr	r3, [pc, #56]	; (b24c <__aeabi_dmul+0x580>)
    b212:	0b24      	lsrs	r4, r4, #12
    b214:	e5cc      	b.n	adb0 <__aeabi_dmul+0xe4>
    b216:	2e0b      	cmp	r6, #11
    b218:	d000      	beq.n	b21c <__aeabi_dmul+0x550>
    b21a:	e5a2      	b.n	ad62 <__aeabi_dmul+0x96>
    b21c:	468b      	mov	fp, r1
    b21e:	46aa      	mov	sl, r5
    b220:	9300      	str	r3, [sp, #0]
    b222:	e5f7      	b.n	ae14 <__aeabi_dmul+0x148>
    b224:	2480      	movs	r4, #128	; 0x80
    b226:	465b      	mov	r3, fp
    b228:	0324      	lsls	r4, r4, #12
    b22a:	431c      	orrs	r4, r3
    b22c:	0324      	lsls	r4, r4, #12
    b22e:	4642      	mov	r2, r8
    b230:	4655      	mov	r5, sl
    b232:	4b06      	ldr	r3, [pc, #24]	; (b24c <__aeabi_dmul+0x580>)
    b234:	0b24      	lsrs	r4, r4, #12
    b236:	e5bb      	b.n	adb0 <__aeabi_dmul+0xe4>
    b238:	464d      	mov	r5, r9
    b23a:	0021      	movs	r1, r4
    b23c:	2303      	movs	r3, #3
    b23e:	e7db      	b.n	b1f8 <__aeabi_dmul+0x52c>
    b240:	fffffc0d 	.word	0xfffffc0d
    b244:	0000043e 	.word	0x0000043e
    b248:	0000041e 	.word	0x0000041e
    b24c:	000007ff 	.word	0x000007ff

0000b250 <__aeabi_dsub>:
    b250:	b5f0      	push	{r4, r5, r6, r7, lr}
    b252:	4657      	mov	r7, sl
    b254:	464e      	mov	r6, r9
    b256:	4645      	mov	r5, r8
    b258:	46de      	mov	lr, fp
    b25a:	b5e0      	push	{r5, r6, r7, lr}
    b25c:	000d      	movs	r5, r1
    b25e:	0004      	movs	r4, r0
    b260:	0019      	movs	r1, r3
    b262:	0010      	movs	r0, r2
    b264:	032b      	lsls	r3, r5, #12
    b266:	0a5b      	lsrs	r3, r3, #9
    b268:	0f62      	lsrs	r2, r4, #29
    b26a:	431a      	orrs	r2, r3
    b26c:	00e3      	lsls	r3, r4, #3
    b26e:	030c      	lsls	r4, r1, #12
    b270:	0a64      	lsrs	r4, r4, #9
    b272:	0f47      	lsrs	r7, r0, #29
    b274:	4327      	orrs	r7, r4
    b276:	4cd0      	ldr	r4, [pc, #832]	; (b5b8 <__aeabi_dsub+0x368>)
    b278:	006e      	lsls	r6, r5, #1
    b27a:	4691      	mov	r9, r2
    b27c:	b083      	sub	sp, #12
    b27e:	004a      	lsls	r2, r1, #1
    b280:	00c0      	lsls	r0, r0, #3
    b282:	4698      	mov	r8, r3
    b284:	46a2      	mov	sl, r4
    b286:	0d76      	lsrs	r6, r6, #21
    b288:	0fed      	lsrs	r5, r5, #31
    b28a:	0d52      	lsrs	r2, r2, #21
    b28c:	0fc9      	lsrs	r1, r1, #31
    b28e:	9001      	str	r0, [sp, #4]
    b290:	42a2      	cmp	r2, r4
    b292:	d100      	bne.n	b296 <__aeabi_dsub+0x46>
    b294:	e0b9      	b.n	b40a <__aeabi_dsub+0x1ba>
    b296:	2401      	movs	r4, #1
    b298:	4061      	eors	r1, r4
    b29a:	468b      	mov	fp, r1
    b29c:	428d      	cmp	r5, r1
    b29e:	d100      	bne.n	b2a2 <__aeabi_dsub+0x52>
    b2a0:	e08d      	b.n	b3be <__aeabi_dsub+0x16e>
    b2a2:	1ab4      	subs	r4, r6, r2
    b2a4:	46a4      	mov	ip, r4
    b2a6:	2c00      	cmp	r4, #0
    b2a8:	dc00      	bgt.n	b2ac <__aeabi_dsub+0x5c>
    b2aa:	e0b7      	b.n	b41c <__aeabi_dsub+0x1cc>
    b2ac:	2a00      	cmp	r2, #0
    b2ae:	d100      	bne.n	b2b2 <__aeabi_dsub+0x62>
    b2b0:	e0cb      	b.n	b44a <__aeabi_dsub+0x1fa>
    b2b2:	4ac1      	ldr	r2, [pc, #772]	; (b5b8 <__aeabi_dsub+0x368>)
    b2b4:	4296      	cmp	r6, r2
    b2b6:	d100      	bne.n	b2ba <__aeabi_dsub+0x6a>
    b2b8:	e186      	b.n	b5c8 <__aeabi_dsub+0x378>
    b2ba:	2280      	movs	r2, #128	; 0x80
    b2bc:	0412      	lsls	r2, r2, #16
    b2be:	4317      	orrs	r7, r2
    b2c0:	4662      	mov	r2, ip
    b2c2:	2a38      	cmp	r2, #56	; 0x38
    b2c4:	dd00      	ble.n	b2c8 <__aeabi_dsub+0x78>
    b2c6:	e1a4      	b.n	b612 <__aeabi_dsub+0x3c2>
    b2c8:	2a1f      	cmp	r2, #31
    b2ca:	dd00      	ble.n	b2ce <__aeabi_dsub+0x7e>
    b2cc:	e21d      	b.n	b70a <__aeabi_dsub+0x4ba>
    b2ce:	4661      	mov	r1, ip
    b2d0:	2220      	movs	r2, #32
    b2d2:	003c      	movs	r4, r7
    b2d4:	1a52      	subs	r2, r2, r1
    b2d6:	0001      	movs	r1, r0
    b2d8:	4090      	lsls	r0, r2
    b2da:	4094      	lsls	r4, r2
    b2dc:	1e42      	subs	r2, r0, #1
    b2de:	4190      	sbcs	r0, r2
    b2e0:	4662      	mov	r2, ip
    b2e2:	46a0      	mov	r8, r4
    b2e4:	4664      	mov	r4, ip
    b2e6:	40d7      	lsrs	r7, r2
    b2e8:	464a      	mov	r2, r9
    b2ea:	40e1      	lsrs	r1, r4
    b2ec:	4644      	mov	r4, r8
    b2ee:	1bd2      	subs	r2, r2, r7
    b2f0:	4691      	mov	r9, r2
    b2f2:	430c      	orrs	r4, r1
    b2f4:	4304      	orrs	r4, r0
    b2f6:	1b1c      	subs	r4, r3, r4
    b2f8:	42a3      	cmp	r3, r4
    b2fa:	4192      	sbcs	r2, r2
    b2fc:	464b      	mov	r3, r9
    b2fe:	4252      	negs	r2, r2
    b300:	1a9b      	subs	r3, r3, r2
    b302:	469a      	mov	sl, r3
    b304:	4653      	mov	r3, sl
    b306:	021b      	lsls	r3, r3, #8
    b308:	d400      	bmi.n	b30c <__aeabi_dsub+0xbc>
    b30a:	e12b      	b.n	b564 <__aeabi_dsub+0x314>
    b30c:	4653      	mov	r3, sl
    b30e:	025a      	lsls	r2, r3, #9
    b310:	0a53      	lsrs	r3, r2, #9
    b312:	469a      	mov	sl, r3
    b314:	4653      	mov	r3, sl
    b316:	2b00      	cmp	r3, #0
    b318:	d100      	bne.n	b31c <__aeabi_dsub+0xcc>
    b31a:	e166      	b.n	b5ea <__aeabi_dsub+0x39a>
    b31c:	4650      	mov	r0, sl
    b31e:	f000 fc91 	bl	bc44 <__clzsi2>
    b322:	0003      	movs	r3, r0
    b324:	3b08      	subs	r3, #8
    b326:	2220      	movs	r2, #32
    b328:	0020      	movs	r0, r4
    b32a:	1ad2      	subs	r2, r2, r3
    b32c:	4651      	mov	r1, sl
    b32e:	40d0      	lsrs	r0, r2
    b330:	4099      	lsls	r1, r3
    b332:	0002      	movs	r2, r0
    b334:	409c      	lsls	r4, r3
    b336:	430a      	orrs	r2, r1
    b338:	429e      	cmp	r6, r3
    b33a:	dd00      	ble.n	b33e <__aeabi_dsub+0xee>
    b33c:	e164      	b.n	b608 <__aeabi_dsub+0x3b8>
    b33e:	1b9b      	subs	r3, r3, r6
    b340:	1c59      	adds	r1, r3, #1
    b342:	291f      	cmp	r1, #31
    b344:	dd00      	ble.n	b348 <__aeabi_dsub+0xf8>
    b346:	e0fe      	b.n	b546 <__aeabi_dsub+0x2f6>
    b348:	2320      	movs	r3, #32
    b34a:	0010      	movs	r0, r2
    b34c:	0026      	movs	r6, r4
    b34e:	1a5b      	subs	r3, r3, r1
    b350:	409c      	lsls	r4, r3
    b352:	4098      	lsls	r0, r3
    b354:	40ce      	lsrs	r6, r1
    b356:	40ca      	lsrs	r2, r1
    b358:	1e63      	subs	r3, r4, #1
    b35a:	419c      	sbcs	r4, r3
    b35c:	4330      	orrs	r0, r6
    b35e:	4692      	mov	sl, r2
    b360:	2600      	movs	r6, #0
    b362:	4304      	orrs	r4, r0
    b364:	0763      	lsls	r3, r4, #29
    b366:	d009      	beq.n	b37c <__aeabi_dsub+0x12c>
    b368:	230f      	movs	r3, #15
    b36a:	4023      	ands	r3, r4
    b36c:	2b04      	cmp	r3, #4
    b36e:	d005      	beq.n	b37c <__aeabi_dsub+0x12c>
    b370:	1d23      	adds	r3, r4, #4
    b372:	42a3      	cmp	r3, r4
    b374:	41a4      	sbcs	r4, r4
    b376:	4264      	negs	r4, r4
    b378:	44a2      	add	sl, r4
    b37a:	001c      	movs	r4, r3
    b37c:	4653      	mov	r3, sl
    b37e:	021b      	lsls	r3, r3, #8
    b380:	d400      	bmi.n	b384 <__aeabi_dsub+0x134>
    b382:	e0f2      	b.n	b56a <__aeabi_dsub+0x31a>
    b384:	4b8c      	ldr	r3, [pc, #560]	; (b5b8 <__aeabi_dsub+0x368>)
    b386:	3601      	adds	r6, #1
    b388:	429e      	cmp	r6, r3
    b38a:	d100      	bne.n	b38e <__aeabi_dsub+0x13e>
    b38c:	e10f      	b.n	b5ae <__aeabi_dsub+0x35e>
    b38e:	4653      	mov	r3, sl
    b390:	498a      	ldr	r1, [pc, #552]	; (b5bc <__aeabi_dsub+0x36c>)
    b392:	08e4      	lsrs	r4, r4, #3
    b394:	400b      	ands	r3, r1
    b396:	0019      	movs	r1, r3
    b398:	075b      	lsls	r3, r3, #29
    b39a:	4323      	orrs	r3, r4
    b39c:	0572      	lsls	r2, r6, #21
    b39e:	024c      	lsls	r4, r1, #9
    b3a0:	0b24      	lsrs	r4, r4, #12
    b3a2:	0d52      	lsrs	r2, r2, #21
    b3a4:	0512      	lsls	r2, r2, #20
    b3a6:	4322      	orrs	r2, r4
    b3a8:	07ed      	lsls	r5, r5, #31
    b3aa:	432a      	orrs	r2, r5
    b3ac:	0018      	movs	r0, r3
    b3ae:	0011      	movs	r1, r2
    b3b0:	b003      	add	sp, #12
    b3b2:	bcf0      	pop	{r4, r5, r6, r7}
    b3b4:	46bb      	mov	fp, r7
    b3b6:	46b2      	mov	sl, r6
    b3b8:	46a9      	mov	r9, r5
    b3ba:	46a0      	mov	r8, r4
    b3bc:	bdf0      	pop	{r4, r5, r6, r7, pc}
    b3be:	1ab4      	subs	r4, r6, r2
    b3c0:	46a4      	mov	ip, r4
    b3c2:	2c00      	cmp	r4, #0
    b3c4:	dd59      	ble.n	b47a <__aeabi_dsub+0x22a>
    b3c6:	2a00      	cmp	r2, #0
    b3c8:	d100      	bne.n	b3cc <__aeabi_dsub+0x17c>
    b3ca:	e0b0      	b.n	b52e <__aeabi_dsub+0x2de>
    b3cc:	4556      	cmp	r6, sl
    b3ce:	d100      	bne.n	b3d2 <__aeabi_dsub+0x182>
    b3d0:	e0fa      	b.n	b5c8 <__aeabi_dsub+0x378>
    b3d2:	2280      	movs	r2, #128	; 0x80
    b3d4:	0412      	lsls	r2, r2, #16
    b3d6:	4317      	orrs	r7, r2
    b3d8:	4662      	mov	r2, ip
    b3da:	2a38      	cmp	r2, #56	; 0x38
    b3dc:	dd00      	ble.n	b3e0 <__aeabi_dsub+0x190>
    b3de:	e0d4      	b.n	b58a <__aeabi_dsub+0x33a>
    b3e0:	2a1f      	cmp	r2, #31
    b3e2:	dc00      	bgt.n	b3e6 <__aeabi_dsub+0x196>
    b3e4:	e1c0      	b.n	b768 <__aeabi_dsub+0x518>
    b3e6:	0039      	movs	r1, r7
    b3e8:	3a20      	subs	r2, #32
    b3ea:	40d1      	lsrs	r1, r2
    b3ec:	4662      	mov	r2, ip
    b3ee:	2a20      	cmp	r2, #32
    b3f0:	d006      	beq.n	b400 <__aeabi_dsub+0x1b0>
    b3f2:	4664      	mov	r4, ip
    b3f4:	2240      	movs	r2, #64	; 0x40
    b3f6:	1b12      	subs	r2, r2, r4
    b3f8:	003c      	movs	r4, r7
    b3fa:	4094      	lsls	r4, r2
    b3fc:	4304      	orrs	r4, r0
    b3fe:	9401      	str	r4, [sp, #4]
    b400:	9c01      	ldr	r4, [sp, #4]
    b402:	1e62      	subs	r2, r4, #1
    b404:	4194      	sbcs	r4, r2
    b406:	430c      	orrs	r4, r1
    b408:	e0c3      	b.n	b592 <__aeabi_dsub+0x342>
    b40a:	003c      	movs	r4, r7
    b40c:	4304      	orrs	r4, r0
    b40e:	d02b      	beq.n	b468 <__aeabi_dsub+0x218>
    b410:	468b      	mov	fp, r1
    b412:	428d      	cmp	r5, r1
    b414:	d02e      	beq.n	b474 <__aeabi_dsub+0x224>
    b416:	4c6a      	ldr	r4, [pc, #424]	; (b5c0 <__aeabi_dsub+0x370>)
    b418:	46a4      	mov	ip, r4
    b41a:	44b4      	add	ip, r6
    b41c:	4664      	mov	r4, ip
    b41e:	2c00      	cmp	r4, #0
    b420:	d05f      	beq.n	b4e2 <__aeabi_dsub+0x292>
    b422:	1b94      	subs	r4, r2, r6
    b424:	46a4      	mov	ip, r4
    b426:	2e00      	cmp	r6, #0
    b428:	d000      	beq.n	b42c <__aeabi_dsub+0x1dc>
    b42a:	e120      	b.n	b66e <__aeabi_dsub+0x41e>
    b42c:	464c      	mov	r4, r9
    b42e:	431c      	orrs	r4, r3
    b430:	d100      	bne.n	b434 <__aeabi_dsub+0x1e4>
    b432:	e1c7      	b.n	b7c4 <__aeabi_dsub+0x574>
    b434:	4661      	mov	r1, ip
    b436:	1e4c      	subs	r4, r1, #1
    b438:	2901      	cmp	r1, #1
    b43a:	d100      	bne.n	b43e <__aeabi_dsub+0x1ee>
    b43c:	e223      	b.n	b886 <__aeabi_dsub+0x636>
    b43e:	4d5e      	ldr	r5, [pc, #376]	; (b5b8 <__aeabi_dsub+0x368>)
    b440:	45ac      	cmp	ip, r5
    b442:	d100      	bne.n	b446 <__aeabi_dsub+0x1f6>
    b444:	e1d8      	b.n	b7f8 <__aeabi_dsub+0x5a8>
    b446:	46a4      	mov	ip, r4
    b448:	e11a      	b.n	b680 <__aeabi_dsub+0x430>
    b44a:	003a      	movs	r2, r7
    b44c:	4302      	orrs	r2, r0
    b44e:	d100      	bne.n	b452 <__aeabi_dsub+0x202>
    b450:	e0e4      	b.n	b61c <__aeabi_dsub+0x3cc>
    b452:	0022      	movs	r2, r4
    b454:	3a01      	subs	r2, #1
    b456:	2c01      	cmp	r4, #1
    b458:	d100      	bne.n	b45c <__aeabi_dsub+0x20c>
    b45a:	e1c3      	b.n	b7e4 <__aeabi_dsub+0x594>
    b45c:	4956      	ldr	r1, [pc, #344]	; (b5b8 <__aeabi_dsub+0x368>)
    b45e:	428c      	cmp	r4, r1
    b460:	d100      	bne.n	b464 <__aeabi_dsub+0x214>
    b462:	e0b1      	b.n	b5c8 <__aeabi_dsub+0x378>
    b464:	4694      	mov	ip, r2
    b466:	e72b      	b.n	b2c0 <__aeabi_dsub+0x70>
    b468:	2401      	movs	r4, #1
    b46a:	4061      	eors	r1, r4
    b46c:	468b      	mov	fp, r1
    b46e:	428d      	cmp	r5, r1
    b470:	d000      	beq.n	b474 <__aeabi_dsub+0x224>
    b472:	e716      	b.n	b2a2 <__aeabi_dsub+0x52>
    b474:	4952      	ldr	r1, [pc, #328]	; (b5c0 <__aeabi_dsub+0x370>)
    b476:	468c      	mov	ip, r1
    b478:	44b4      	add	ip, r6
    b47a:	4664      	mov	r4, ip
    b47c:	2c00      	cmp	r4, #0
    b47e:	d100      	bne.n	b482 <__aeabi_dsub+0x232>
    b480:	e0d3      	b.n	b62a <__aeabi_dsub+0x3da>
    b482:	1b91      	subs	r1, r2, r6
    b484:	468c      	mov	ip, r1
    b486:	2e00      	cmp	r6, #0
    b488:	d100      	bne.n	b48c <__aeabi_dsub+0x23c>
    b48a:	e15e      	b.n	b74a <__aeabi_dsub+0x4fa>
    b48c:	494a      	ldr	r1, [pc, #296]	; (b5b8 <__aeabi_dsub+0x368>)
    b48e:	428a      	cmp	r2, r1
    b490:	d100      	bne.n	b494 <__aeabi_dsub+0x244>
    b492:	e1be      	b.n	b812 <__aeabi_dsub+0x5c2>
    b494:	2180      	movs	r1, #128	; 0x80
    b496:	464c      	mov	r4, r9
    b498:	0409      	lsls	r1, r1, #16
    b49a:	430c      	orrs	r4, r1
    b49c:	46a1      	mov	r9, r4
    b49e:	4661      	mov	r1, ip
    b4a0:	2938      	cmp	r1, #56	; 0x38
    b4a2:	dd00      	ble.n	b4a6 <__aeabi_dsub+0x256>
    b4a4:	e1ba      	b.n	b81c <__aeabi_dsub+0x5cc>
    b4a6:	291f      	cmp	r1, #31
    b4a8:	dd00      	ble.n	b4ac <__aeabi_dsub+0x25c>
    b4aa:	e227      	b.n	b8fc <__aeabi_dsub+0x6ac>
    b4ac:	2420      	movs	r4, #32
    b4ae:	1a64      	subs	r4, r4, r1
    b4b0:	4649      	mov	r1, r9
    b4b2:	40a1      	lsls	r1, r4
    b4b4:	001e      	movs	r6, r3
    b4b6:	4688      	mov	r8, r1
    b4b8:	4661      	mov	r1, ip
    b4ba:	40a3      	lsls	r3, r4
    b4bc:	40ce      	lsrs	r6, r1
    b4be:	4641      	mov	r1, r8
    b4c0:	1e5c      	subs	r4, r3, #1
    b4c2:	41a3      	sbcs	r3, r4
    b4c4:	4331      	orrs	r1, r6
    b4c6:	4319      	orrs	r1, r3
    b4c8:	000c      	movs	r4, r1
    b4ca:	4663      	mov	r3, ip
    b4cc:	4649      	mov	r1, r9
    b4ce:	40d9      	lsrs	r1, r3
    b4d0:	187f      	adds	r7, r7, r1
    b4d2:	1824      	adds	r4, r4, r0
    b4d4:	4284      	cmp	r4, r0
    b4d6:	419b      	sbcs	r3, r3
    b4d8:	425b      	negs	r3, r3
    b4da:	469a      	mov	sl, r3
    b4dc:	0016      	movs	r6, r2
    b4de:	44ba      	add	sl, r7
    b4e0:	e05d      	b.n	b59e <__aeabi_dsub+0x34e>
    b4e2:	4c38      	ldr	r4, [pc, #224]	; (b5c4 <__aeabi_dsub+0x374>)
    b4e4:	1c72      	adds	r2, r6, #1
    b4e6:	4222      	tst	r2, r4
    b4e8:	d000      	beq.n	b4ec <__aeabi_dsub+0x29c>
    b4ea:	e0df      	b.n	b6ac <__aeabi_dsub+0x45c>
    b4ec:	464a      	mov	r2, r9
    b4ee:	431a      	orrs	r2, r3
    b4f0:	2e00      	cmp	r6, #0
    b4f2:	d000      	beq.n	b4f6 <__aeabi_dsub+0x2a6>
    b4f4:	e15c      	b.n	b7b0 <__aeabi_dsub+0x560>
    b4f6:	2a00      	cmp	r2, #0
    b4f8:	d100      	bne.n	b4fc <__aeabi_dsub+0x2ac>
    b4fa:	e1cf      	b.n	b89c <__aeabi_dsub+0x64c>
    b4fc:	003a      	movs	r2, r7
    b4fe:	4302      	orrs	r2, r0
    b500:	d100      	bne.n	b504 <__aeabi_dsub+0x2b4>
    b502:	e17f      	b.n	b804 <__aeabi_dsub+0x5b4>
    b504:	1a1c      	subs	r4, r3, r0
    b506:	464a      	mov	r2, r9
    b508:	42a3      	cmp	r3, r4
    b50a:	4189      	sbcs	r1, r1
    b50c:	1bd2      	subs	r2, r2, r7
    b50e:	4249      	negs	r1, r1
    b510:	1a52      	subs	r2, r2, r1
    b512:	4692      	mov	sl, r2
    b514:	0212      	lsls	r2, r2, #8
    b516:	d400      	bmi.n	b51a <__aeabi_dsub+0x2ca>
    b518:	e20a      	b.n	b930 <__aeabi_dsub+0x6e0>
    b51a:	1ac4      	subs	r4, r0, r3
    b51c:	42a0      	cmp	r0, r4
    b51e:	4180      	sbcs	r0, r0
    b520:	464b      	mov	r3, r9
    b522:	4240      	negs	r0, r0
    b524:	1aff      	subs	r7, r7, r3
    b526:	1a3b      	subs	r3, r7, r0
    b528:	469a      	mov	sl, r3
    b52a:	465d      	mov	r5, fp
    b52c:	e71a      	b.n	b364 <__aeabi_dsub+0x114>
    b52e:	003a      	movs	r2, r7
    b530:	4302      	orrs	r2, r0
    b532:	d073      	beq.n	b61c <__aeabi_dsub+0x3cc>
    b534:	0022      	movs	r2, r4
    b536:	3a01      	subs	r2, #1
    b538:	2c01      	cmp	r4, #1
    b53a:	d100      	bne.n	b53e <__aeabi_dsub+0x2ee>
    b53c:	e0cb      	b.n	b6d6 <__aeabi_dsub+0x486>
    b53e:	4554      	cmp	r4, sl
    b540:	d042      	beq.n	b5c8 <__aeabi_dsub+0x378>
    b542:	4694      	mov	ip, r2
    b544:	e748      	b.n	b3d8 <__aeabi_dsub+0x188>
    b546:	0010      	movs	r0, r2
    b548:	3b1f      	subs	r3, #31
    b54a:	40d8      	lsrs	r0, r3
    b54c:	2920      	cmp	r1, #32
    b54e:	d003      	beq.n	b558 <__aeabi_dsub+0x308>
    b550:	2340      	movs	r3, #64	; 0x40
    b552:	1a5b      	subs	r3, r3, r1
    b554:	409a      	lsls	r2, r3
    b556:	4314      	orrs	r4, r2
    b558:	1e63      	subs	r3, r4, #1
    b55a:	419c      	sbcs	r4, r3
    b55c:	2300      	movs	r3, #0
    b55e:	2600      	movs	r6, #0
    b560:	469a      	mov	sl, r3
    b562:	4304      	orrs	r4, r0
    b564:	0763      	lsls	r3, r4, #29
    b566:	d000      	beq.n	b56a <__aeabi_dsub+0x31a>
    b568:	e6fe      	b.n	b368 <__aeabi_dsub+0x118>
    b56a:	4652      	mov	r2, sl
    b56c:	08e3      	lsrs	r3, r4, #3
    b56e:	0752      	lsls	r2, r2, #29
    b570:	4313      	orrs	r3, r2
    b572:	4652      	mov	r2, sl
    b574:	46b4      	mov	ip, r6
    b576:	08d2      	lsrs	r2, r2, #3
    b578:	490f      	ldr	r1, [pc, #60]	; (b5b8 <__aeabi_dsub+0x368>)
    b57a:	458c      	cmp	ip, r1
    b57c:	d02a      	beq.n	b5d4 <__aeabi_dsub+0x384>
    b57e:	0312      	lsls	r2, r2, #12
    b580:	0b14      	lsrs	r4, r2, #12
    b582:	4662      	mov	r2, ip
    b584:	0552      	lsls	r2, r2, #21
    b586:	0d52      	lsrs	r2, r2, #21
    b588:	e70c      	b.n	b3a4 <__aeabi_dsub+0x154>
    b58a:	003c      	movs	r4, r7
    b58c:	4304      	orrs	r4, r0
    b58e:	1e62      	subs	r2, r4, #1
    b590:	4194      	sbcs	r4, r2
    b592:	18e4      	adds	r4, r4, r3
    b594:	429c      	cmp	r4, r3
    b596:	4192      	sbcs	r2, r2
    b598:	4252      	negs	r2, r2
    b59a:	444a      	add	r2, r9
    b59c:	4692      	mov	sl, r2
    b59e:	4653      	mov	r3, sl
    b5a0:	021b      	lsls	r3, r3, #8
    b5a2:	d5df      	bpl.n	b564 <__aeabi_dsub+0x314>
    b5a4:	4b04      	ldr	r3, [pc, #16]	; (b5b8 <__aeabi_dsub+0x368>)
    b5a6:	3601      	adds	r6, #1
    b5a8:	429e      	cmp	r6, r3
    b5aa:	d000      	beq.n	b5ae <__aeabi_dsub+0x35e>
    b5ac:	e0a0      	b.n	b6f0 <__aeabi_dsub+0x4a0>
    b5ae:	0032      	movs	r2, r6
    b5b0:	2400      	movs	r4, #0
    b5b2:	2300      	movs	r3, #0
    b5b4:	e6f6      	b.n	b3a4 <__aeabi_dsub+0x154>
    b5b6:	46c0      	nop			; (mov r8, r8)
    b5b8:	000007ff 	.word	0x000007ff
    b5bc:	ff7fffff 	.word	0xff7fffff
    b5c0:	fffff801 	.word	0xfffff801
    b5c4:	000007fe 	.word	0x000007fe
    b5c8:	08db      	lsrs	r3, r3, #3
    b5ca:	464a      	mov	r2, r9
    b5cc:	0752      	lsls	r2, r2, #29
    b5ce:	4313      	orrs	r3, r2
    b5d0:	464a      	mov	r2, r9
    b5d2:	08d2      	lsrs	r2, r2, #3
    b5d4:	0019      	movs	r1, r3
    b5d6:	4311      	orrs	r1, r2
    b5d8:	d100      	bne.n	b5dc <__aeabi_dsub+0x38c>
    b5da:	e1b5      	b.n	b948 <__aeabi_dsub+0x6f8>
    b5dc:	2480      	movs	r4, #128	; 0x80
    b5de:	0324      	lsls	r4, r4, #12
    b5e0:	4314      	orrs	r4, r2
    b5e2:	0324      	lsls	r4, r4, #12
    b5e4:	4ad5      	ldr	r2, [pc, #852]	; (b93c <__aeabi_dsub+0x6ec>)
    b5e6:	0b24      	lsrs	r4, r4, #12
    b5e8:	e6dc      	b.n	b3a4 <__aeabi_dsub+0x154>
    b5ea:	0020      	movs	r0, r4
    b5ec:	f000 fb2a 	bl	bc44 <__clzsi2>
    b5f0:	0003      	movs	r3, r0
    b5f2:	3318      	adds	r3, #24
    b5f4:	2b1f      	cmp	r3, #31
    b5f6:	dc00      	bgt.n	b5fa <__aeabi_dsub+0x3aa>
    b5f8:	e695      	b.n	b326 <__aeabi_dsub+0xd6>
    b5fa:	0022      	movs	r2, r4
    b5fc:	3808      	subs	r0, #8
    b5fe:	4082      	lsls	r2, r0
    b600:	2400      	movs	r4, #0
    b602:	429e      	cmp	r6, r3
    b604:	dc00      	bgt.n	b608 <__aeabi_dsub+0x3b8>
    b606:	e69a      	b.n	b33e <__aeabi_dsub+0xee>
    b608:	1af6      	subs	r6, r6, r3
    b60a:	4bcd      	ldr	r3, [pc, #820]	; (b940 <__aeabi_dsub+0x6f0>)
    b60c:	401a      	ands	r2, r3
    b60e:	4692      	mov	sl, r2
    b610:	e6a8      	b.n	b364 <__aeabi_dsub+0x114>
    b612:	003c      	movs	r4, r7
    b614:	4304      	orrs	r4, r0
    b616:	1e62      	subs	r2, r4, #1
    b618:	4194      	sbcs	r4, r2
    b61a:	e66c      	b.n	b2f6 <__aeabi_dsub+0xa6>
    b61c:	464a      	mov	r2, r9
    b61e:	08db      	lsrs	r3, r3, #3
    b620:	0752      	lsls	r2, r2, #29
    b622:	4313      	orrs	r3, r2
    b624:	464a      	mov	r2, r9
    b626:	08d2      	lsrs	r2, r2, #3
    b628:	e7a6      	b.n	b578 <__aeabi_dsub+0x328>
    b62a:	4cc6      	ldr	r4, [pc, #792]	; (b944 <__aeabi_dsub+0x6f4>)
    b62c:	1c72      	adds	r2, r6, #1
    b62e:	4222      	tst	r2, r4
    b630:	d000      	beq.n	b634 <__aeabi_dsub+0x3e4>
    b632:	e0ac      	b.n	b78e <__aeabi_dsub+0x53e>
    b634:	464a      	mov	r2, r9
    b636:	431a      	orrs	r2, r3
    b638:	2e00      	cmp	r6, #0
    b63a:	d000      	beq.n	b63e <__aeabi_dsub+0x3ee>
    b63c:	e105      	b.n	b84a <__aeabi_dsub+0x5fa>
    b63e:	2a00      	cmp	r2, #0
    b640:	d100      	bne.n	b644 <__aeabi_dsub+0x3f4>
    b642:	e156      	b.n	b8f2 <__aeabi_dsub+0x6a2>
    b644:	003a      	movs	r2, r7
    b646:	4302      	orrs	r2, r0
    b648:	d100      	bne.n	b64c <__aeabi_dsub+0x3fc>
    b64a:	e0db      	b.n	b804 <__aeabi_dsub+0x5b4>
    b64c:	181c      	adds	r4, r3, r0
    b64e:	429c      	cmp	r4, r3
    b650:	419b      	sbcs	r3, r3
    b652:	444f      	add	r7, r9
    b654:	46ba      	mov	sl, r7
    b656:	425b      	negs	r3, r3
    b658:	449a      	add	sl, r3
    b65a:	4653      	mov	r3, sl
    b65c:	021b      	lsls	r3, r3, #8
    b65e:	d400      	bmi.n	b662 <__aeabi_dsub+0x412>
    b660:	e780      	b.n	b564 <__aeabi_dsub+0x314>
    b662:	4652      	mov	r2, sl
    b664:	4bb6      	ldr	r3, [pc, #728]	; (b940 <__aeabi_dsub+0x6f0>)
    b666:	2601      	movs	r6, #1
    b668:	401a      	ands	r2, r3
    b66a:	4692      	mov	sl, r2
    b66c:	e77a      	b.n	b564 <__aeabi_dsub+0x314>
    b66e:	4cb3      	ldr	r4, [pc, #716]	; (b93c <__aeabi_dsub+0x6ec>)
    b670:	42a2      	cmp	r2, r4
    b672:	d100      	bne.n	b676 <__aeabi_dsub+0x426>
    b674:	e0c0      	b.n	b7f8 <__aeabi_dsub+0x5a8>
    b676:	2480      	movs	r4, #128	; 0x80
    b678:	464d      	mov	r5, r9
    b67a:	0424      	lsls	r4, r4, #16
    b67c:	4325      	orrs	r5, r4
    b67e:	46a9      	mov	r9, r5
    b680:	4664      	mov	r4, ip
    b682:	2c38      	cmp	r4, #56	; 0x38
    b684:	dc53      	bgt.n	b72e <__aeabi_dsub+0x4de>
    b686:	4661      	mov	r1, ip
    b688:	2c1f      	cmp	r4, #31
    b68a:	dd00      	ble.n	b68e <__aeabi_dsub+0x43e>
    b68c:	e0cd      	b.n	b82a <__aeabi_dsub+0x5da>
    b68e:	2520      	movs	r5, #32
    b690:	001e      	movs	r6, r3
    b692:	1b2d      	subs	r5, r5, r4
    b694:	464c      	mov	r4, r9
    b696:	40ab      	lsls	r3, r5
    b698:	40ac      	lsls	r4, r5
    b69a:	40ce      	lsrs	r6, r1
    b69c:	1e5d      	subs	r5, r3, #1
    b69e:	41ab      	sbcs	r3, r5
    b6a0:	4334      	orrs	r4, r6
    b6a2:	4323      	orrs	r3, r4
    b6a4:	464c      	mov	r4, r9
    b6a6:	40cc      	lsrs	r4, r1
    b6a8:	1b3f      	subs	r7, r7, r4
    b6aa:	e045      	b.n	b738 <__aeabi_dsub+0x4e8>
    b6ac:	464a      	mov	r2, r9
    b6ae:	1a1c      	subs	r4, r3, r0
    b6b0:	1bd1      	subs	r1, r2, r7
    b6b2:	42a3      	cmp	r3, r4
    b6b4:	4192      	sbcs	r2, r2
    b6b6:	4252      	negs	r2, r2
    b6b8:	4692      	mov	sl, r2
    b6ba:	000a      	movs	r2, r1
    b6bc:	4651      	mov	r1, sl
    b6be:	1a52      	subs	r2, r2, r1
    b6c0:	4692      	mov	sl, r2
    b6c2:	0212      	lsls	r2, r2, #8
    b6c4:	d500      	bpl.n	b6c8 <__aeabi_dsub+0x478>
    b6c6:	e083      	b.n	b7d0 <__aeabi_dsub+0x580>
    b6c8:	4653      	mov	r3, sl
    b6ca:	4323      	orrs	r3, r4
    b6cc:	d000      	beq.n	b6d0 <__aeabi_dsub+0x480>
    b6ce:	e621      	b.n	b314 <__aeabi_dsub+0xc4>
    b6d0:	2200      	movs	r2, #0
    b6d2:	2500      	movs	r5, #0
    b6d4:	e753      	b.n	b57e <__aeabi_dsub+0x32e>
    b6d6:	181c      	adds	r4, r3, r0
    b6d8:	429c      	cmp	r4, r3
    b6da:	419b      	sbcs	r3, r3
    b6dc:	444f      	add	r7, r9
    b6de:	46ba      	mov	sl, r7
    b6e0:	425b      	negs	r3, r3
    b6e2:	449a      	add	sl, r3
    b6e4:	4653      	mov	r3, sl
    b6e6:	2601      	movs	r6, #1
    b6e8:	021b      	lsls	r3, r3, #8
    b6ea:	d400      	bmi.n	b6ee <__aeabi_dsub+0x49e>
    b6ec:	e73a      	b.n	b564 <__aeabi_dsub+0x314>
    b6ee:	2602      	movs	r6, #2
    b6f0:	4652      	mov	r2, sl
    b6f2:	4b93      	ldr	r3, [pc, #588]	; (b940 <__aeabi_dsub+0x6f0>)
    b6f4:	2101      	movs	r1, #1
    b6f6:	401a      	ands	r2, r3
    b6f8:	0013      	movs	r3, r2
    b6fa:	4021      	ands	r1, r4
    b6fc:	0862      	lsrs	r2, r4, #1
    b6fe:	430a      	orrs	r2, r1
    b700:	07dc      	lsls	r4, r3, #31
    b702:	085b      	lsrs	r3, r3, #1
    b704:	469a      	mov	sl, r3
    b706:	4314      	orrs	r4, r2
    b708:	e62c      	b.n	b364 <__aeabi_dsub+0x114>
    b70a:	0039      	movs	r1, r7
    b70c:	3a20      	subs	r2, #32
    b70e:	40d1      	lsrs	r1, r2
    b710:	4662      	mov	r2, ip
    b712:	2a20      	cmp	r2, #32
    b714:	d006      	beq.n	b724 <__aeabi_dsub+0x4d4>
    b716:	4664      	mov	r4, ip
    b718:	2240      	movs	r2, #64	; 0x40
    b71a:	1b12      	subs	r2, r2, r4
    b71c:	003c      	movs	r4, r7
    b71e:	4094      	lsls	r4, r2
    b720:	4304      	orrs	r4, r0
    b722:	9401      	str	r4, [sp, #4]
    b724:	9c01      	ldr	r4, [sp, #4]
    b726:	1e62      	subs	r2, r4, #1
    b728:	4194      	sbcs	r4, r2
    b72a:	430c      	orrs	r4, r1
    b72c:	e5e3      	b.n	b2f6 <__aeabi_dsub+0xa6>
    b72e:	4649      	mov	r1, r9
    b730:	4319      	orrs	r1, r3
    b732:	000b      	movs	r3, r1
    b734:	1e5c      	subs	r4, r3, #1
    b736:	41a3      	sbcs	r3, r4
    b738:	1ac4      	subs	r4, r0, r3
    b73a:	42a0      	cmp	r0, r4
    b73c:	419b      	sbcs	r3, r3
    b73e:	425b      	negs	r3, r3
    b740:	1afb      	subs	r3, r7, r3
    b742:	469a      	mov	sl, r3
    b744:	465d      	mov	r5, fp
    b746:	0016      	movs	r6, r2
    b748:	e5dc      	b.n	b304 <__aeabi_dsub+0xb4>
    b74a:	4649      	mov	r1, r9
    b74c:	4319      	orrs	r1, r3
    b74e:	d100      	bne.n	b752 <__aeabi_dsub+0x502>
    b750:	e0ae      	b.n	b8b0 <__aeabi_dsub+0x660>
    b752:	4661      	mov	r1, ip
    b754:	4664      	mov	r4, ip
    b756:	3901      	subs	r1, #1
    b758:	2c01      	cmp	r4, #1
    b75a:	d100      	bne.n	b75e <__aeabi_dsub+0x50e>
    b75c:	e0e0      	b.n	b920 <__aeabi_dsub+0x6d0>
    b75e:	4c77      	ldr	r4, [pc, #476]	; (b93c <__aeabi_dsub+0x6ec>)
    b760:	45a4      	cmp	ip, r4
    b762:	d056      	beq.n	b812 <__aeabi_dsub+0x5c2>
    b764:	468c      	mov	ip, r1
    b766:	e69a      	b.n	b49e <__aeabi_dsub+0x24e>
    b768:	4661      	mov	r1, ip
    b76a:	2220      	movs	r2, #32
    b76c:	003c      	movs	r4, r7
    b76e:	1a52      	subs	r2, r2, r1
    b770:	4094      	lsls	r4, r2
    b772:	0001      	movs	r1, r0
    b774:	4090      	lsls	r0, r2
    b776:	46a0      	mov	r8, r4
    b778:	4664      	mov	r4, ip
    b77a:	1e42      	subs	r2, r0, #1
    b77c:	4190      	sbcs	r0, r2
    b77e:	4662      	mov	r2, ip
    b780:	40e1      	lsrs	r1, r4
    b782:	4644      	mov	r4, r8
    b784:	40d7      	lsrs	r7, r2
    b786:	430c      	orrs	r4, r1
    b788:	4304      	orrs	r4, r0
    b78a:	44b9      	add	r9, r7
    b78c:	e701      	b.n	b592 <__aeabi_dsub+0x342>
    b78e:	496b      	ldr	r1, [pc, #428]	; (b93c <__aeabi_dsub+0x6ec>)
    b790:	428a      	cmp	r2, r1
    b792:	d100      	bne.n	b796 <__aeabi_dsub+0x546>
    b794:	e70c      	b.n	b5b0 <__aeabi_dsub+0x360>
    b796:	1818      	adds	r0, r3, r0
    b798:	4298      	cmp	r0, r3
    b79a:	419b      	sbcs	r3, r3
    b79c:	444f      	add	r7, r9
    b79e:	425b      	negs	r3, r3
    b7a0:	18fb      	adds	r3, r7, r3
    b7a2:	07dc      	lsls	r4, r3, #31
    b7a4:	0840      	lsrs	r0, r0, #1
    b7a6:	085b      	lsrs	r3, r3, #1
    b7a8:	469a      	mov	sl, r3
    b7aa:	0016      	movs	r6, r2
    b7ac:	4304      	orrs	r4, r0
    b7ae:	e6d9      	b.n	b564 <__aeabi_dsub+0x314>
    b7b0:	2a00      	cmp	r2, #0
    b7b2:	d000      	beq.n	b7b6 <__aeabi_dsub+0x566>
    b7b4:	e081      	b.n	b8ba <__aeabi_dsub+0x66a>
    b7b6:	003b      	movs	r3, r7
    b7b8:	4303      	orrs	r3, r0
    b7ba:	d11d      	bne.n	b7f8 <__aeabi_dsub+0x5a8>
    b7bc:	2280      	movs	r2, #128	; 0x80
    b7be:	2500      	movs	r5, #0
    b7c0:	0312      	lsls	r2, r2, #12
    b7c2:	e70b      	b.n	b5dc <__aeabi_dsub+0x38c>
    b7c4:	08c0      	lsrs	r0, r0, #3
    b7c6:	077b      	lsls	r3, r7, #29
    b7c8:	465d      	mov	r5, fp
    b7ca:	4303      	orrs	r3, r0
    b7cc:	08fa      	lsrs	r2, r7, #3
    b7ce:	e6d3      	b.n	b578 <__aeabi_dsub+0x328>
    b7d0:	1ac4      	subs	r4, r0, r3
    b7d2:	42a0      	cmp	r0, r4
    b7d4:	4180      	sbcs	r0, r0
    b7d6:	464b      	mov	r3, r9
    b7d8:	4240      	negs	r0, r0
    b7da:	1aff      	subs	r7, r7, r3
    b7dc:	1a3b      	subs	r3, r7, r0
    b7de:	469a      	mov	sl, r3
    b7e0:	465d      	mov	r5, fp
    b7e2:	e597      	b.n	b314 <__aeabi_dsub+0xc4>
    b7e4:	1a1c      	subs	r4, r3, r0
    b7e6:	464a      	mov	r2, r9
    b7e8:	42a3      	cmp	r3, r4
    b7ea:	419b      	sbcs	r3, r3
    b7ec:	1bd7      	subs	r7, r2, r7
    b7ee:	425b      	negs	r3, r3
    b7f0:	1afb      	subs	r3, r7, r3
    b7f2:	469a      	mov	sl, r3
    b7f4:	2601      	movs	r6, #1
    b7f6:	e585      	b.n	b304 <__aeabi_dsub+0xb4>
    b7f8:	08c0      	lsrs	r0, r0, #3
    b7fa:	077b      	lsls	r3, r7, #29
    b7fc:	465d      	mov	r5, fp
    b7fe:	4303      	orrs	r3, r0
    b800:	08fa      	lsrs	r2, r7, #3
    b802:	e6e7      	b.n	b5d4 <__aeabi_dsub+0x384>
    b804:	464a      	mov	r2, r9
    b806:	08db      	lsrs	r3, r3, #3
    b808:	0752      	lsls	r2, r2, #29
    b80a:	4313      	orrs	r3, r2
    b80c:	464a      	mov	r2, r9
    b80e:	08d2      	lsrs	r2, r2, #3
    b810:	e6b5      	b.n	b57e <__aeabi_dsub+0x32e>
    b812:	08c0      	lsrs	r0, r0, #3
    b814:	077b      	lsls	r3, r7, #29
    b816:	4303      	orrs	r3, r0
    b818:	08fa      	lsrs	r2, r7, #3
    b81a:	e6db      	b.n	b5d4 <__aeabi_dsub+0x384>
    b81c:	4649      	mov	r1, r9
    b81e:	4319      	orrs	r1, r3
    b820:	000b      	movs	r3, r1
    b822:	1e59      	subs	r1, r3, #1
    b824:	418b      	sbcs	r3, r1
    b826:	001c      	movs	r4, r3
    b828:	e653      	b.n	b4d2 <__aeabi_dsub+0x282>
    b82a:	464d      	mov	r5, r9
    b82c:	3c20      	subs	r4, #32
    b82e:	40e5      	lsrs	r5, r4
    b830:	2920      	cmp	r1, #32
    b832:	d005      	beq.n	b840 <__aeabi_dsub+0x5f0>
    b834:	2440      	movs	r4, #64	; 0x40
    b836:	1a64      	subs	r4, r4, r1
    b838:	4649      	mov	r1, r9
    b83a:	40a1      	lsls	r1, r4
    b83c:	430b      	orrs	r3, r1
    b83e:	4698      	mov	r8, r3
    b840:	4643      	mov	r3, r8
    b842:	1e5c      	subs	r4, r3, #1
    b844:	41a3      	sbcs	r3, r4
    b846:	432b      	orrs	r3, r5
    b848:	e776      	b.n	b738 <__aeabi_dsub+0x4e8>
    b84a:	2a00      	cmp	r2, #0
    b84c:	d0e1      	beq.n	b812 <__aeabi_dsub+0x5c2>
    b84e:	003a      	movs	r2, r7
    b850:	08db      	lsrs	r3, r3, #3
    b852:	4302      	orrs	r2, r0
    b854:	d100      	bne.n	b858 <__aeabi_dsub+0x608>
    b856:	e6b8      	b.n	b5ca <__aeabi_dsub+0x37a>
    b858:	464a      	mov	r2, r9
    b85a:	0752      	lsls	r2, r2, #29
    b85c:	2480      	movs	r4, #128	; 0x80
    b85e:	4313      	orrs	r3, r2
    b860:	464a      	mov	r2, r9
    b862:	0324      	lsls	r4, r4, #12
    b864:	08d2      	lsrs	r2, r2, #3
    b866:	4222      	tst	r2, r4
    b868:	d007      	beq.n	b87a <__aeabi_dsub+0x62a>
    b86a:	08fe      	lsrs	r6, r7, #3
    b86c:	4226      	tst	r6, r4
    b86e:	d104      	bne.n	b87a <__aeabi_dsub+0x62a>
    b870:	465d      	mov	r5, fp
    b872:	0032      	movs	r2, r6
    b874:	08c3      	lsrs	r3, r0, #3
    b876:	077f      	lsls	r7, r7, #29
    b878:	433b      	orrs	r3, r7
    b87a:	0f59      	lsrs	r1, r3, #29
    b87c:	00db      	lsls	r3, r3, #3
    b87e:	0749      	lsls	r1, r1, #29
    b880:	08db      	lsrs	r3, r3, #3
    b882:	430b      	orrs	r3, r1
    b884:	e6a6      	b.n	b5d4 <__aeabi_dsub+0x384>
    b886:	1ac4      	subs	r4, r0, r3
    b888:	42a0      	cmp	r0, r4
    b88a:	4180      	sbcs	r0, r0
    b88c:	464b      	mov	r3, r9
    b88e:	4240      	negs	r0, r0
    b890:	1aff      	subs	r7, r7, r3
    b892:	1a3b      	subs	r3, r7, r0
    b894:	469a      	mov	sl, r3
    b896:	465d      	mov	r5, fp
    b898:	2601      	movs	r6, #1
    b89a:	e533      	b.n	b304 <__aeabi_dsub+0xb4>
    b89c:	003b      	movs	r3, r7
    b89e:	4303      	orrs	r3, r0
    b8a0:	d100      	bne.n	b8a4 <__aeabi_dsub+0x654>
    b8a2:	e715      	b.n	b6d0 <__aeabi_dsub+0x480>
    b8a4:	08c0      	lsrs	r0, r0, #3
    b8a6:	077b      	lsls	r3, r7, #29
    b8a8:	465d      	mov	r5, fp
    b8aa:	4303      	orrs	r3, r0
    b8ac:	08fa      	lsrs	r2, r7, #3
    b8ae:	e666      	b.n	b57e <__aeabi_dsub+0x32e>
    b8b0:	08c0      	lsrs	r0, r0, #3
    b8b2:	077b      	lsls	r3, r7, #29
    b8b4:	4303      	orrs	r3, r0
    b8b6:	08fa      	lsrs	r2, r7, #3
    b8b8:	e65e      	b.n	b578 <__aeabi_dsub+0x328>
    b8ba:	003a      	movs	r2, r7
    b8bc:	08db      	lsrs	r3, r3, #3
    b8be:	4302      	orrs	r2, r0
    b8c0:	d100      	bne.n	b8c4 <__aeabi_dsub+0x674>
    b8c2:	e682      	b.n	b5ca <__aeabi_dsub+0x37a>
    b8c4:	464a      	mov	r2, r9
    b8c6:	0752      	lsls	r2, r2, #29
    b8c8:	2480      	movs	r4, #128	; 0x80
    b8ca:	4313      	orrs	r3, r2
    b8cc:	464a      	mov	r2, r9
    b8ce:	0324      	lsls	r4, r4, #12
    b8d0:	08d2      	lsrs	r2, r2, #3
    b8d2:	4222      	tst	r2, r4
    b8d4:	d007      	beq.n	b8e6 <__aeabi_dsub+0x696>
    b8d6:	08fe      	lsrs	r6, r7, #3
    b8d8:	4226      	tst	r6, r4
    b8da:	d104      	bne.n	b8e6 <__aeabi_dsub+0x696>
    b8dc:	465d      	mov	r5, fp
    b8de:	0032      	movs	r2, r6
    b8e0:	08c3      	lsrs	r3, r0, #3
    b8e2:	077f      	lsls	r7, r7, #29
    b8e4:	433b      	orrs	r3, r7
    b8e6:	0f59      	lsrs	r1, r3, #29
    b8e8:	00db      	lsls	r3, r3, #3
    b8ea:	08db      	lsrs	r3, r3, #3
    b8ec:	0749      	lsls	r1, r1, #29
    b8ee:	430b      	orrs	r3, r1
    b8f0:	e670      	b.n	b5d4 <__aeabi_dsub+0x384>
    b8f2:	08c0      	lsrs	r0, r0, #3
    b8f4:	077b      	lsls	r3, r7, #29
    b8f6:	4303      	orrs	r3, r0
    b8f8:	08fa      	lsrs	r2, r7, #3
    b8fa:	e640      	b.n	b57e <__aeabi_dsub+0x32e>
    b8fc:	464c      	mov	r4, r9
    b8fe:	3920      	subs	r1, #32
    b900:	40cc      	lsrs	r4, r1
    b902:	4661      	mov	r1, ip
    b904:	2920      	cmp	r1, #32
    b906:	d006      	beq.n	b916 <__aeabi_dsub+0x6c6>
    b908:	4666      	mov	r6, ip
    b90a:	2140      	movs	r1, #64	; 0x40
    b90c:	1b89      	subs	r1, r1, r6
    b90e:	464e      	mov	r6, r9
    b910:	408e      	lsls	r6, r1
    b912:	4333      	orrs	r3, r6
    b914:	4698      	mov	r8, r3
    b916:	4643      	mov	r3, r8
    b918:	1e59      	subs	r1, r3, #1
    b91a:	418b      	sbcs	r3, r1
    b91c:	431c      	orrs	r4, r3
    b91e:	e5d8      	b.n	b4d2 <__aeabi_dsub+0x282>
    b920:	181c      	adds	r4, r3, r0
    b922:	4284      	cmp	r4, r0
    b924:	4180      	sbcs	r0, r0
    b926:	444f      	add	r7, r9
    b928:	46ba      	mov	sl, r7
    b92a:	4240      	negs	r0, r0
    b92c:	4482      	add	sl, r0
    b92e:	e6d9      	b.n	b6e4 <__aeabi_dsub+0x494>
    b930:	4653      	mov	r3, sl
    b932:	4323      	orrs	r3, r4
    b934:	d100      	bne.n	b938 <__aeabi_dsub+0x6e8>
    b936:	e6cb      	b.n	b6d0 <__aeabi_dsub+0x480>
    b938:	e614      	b.n	b564 <__aeabi_dsub+0x314>
    b93a:	46c0      	nop			; (mov r8, r8)
    b93c:	000007ff 	.word	0x000007ff
    b940:	ff7fffff 	.word	0xff7fffff
    b944:	000007fe 	.word	0x000007fe
    b948:	2300      	movs	r3, #0
    b94a:	4a01      	ldr	r2, [pc, #4]	; (b950 <__aeabi_dsub+0x700>)
    b94c:	001c      	movs	r4, r3
    b94e:	e529      	b.n	b3a4 <__aeabi_dsub+0x154>
    b950:	000007ff 	.word	0x000007ff

0000b954 <__aeabi_dcmpun>:
    b954:	b570      	push	{r4, r5, r6, lr}
    b956:	0005      	movs	r5, r0
    b958:	480c      	ldr	r0, [pc, #48]	; (b98c <__aeabi_dcmpun+0x38>)
    b95a:	031c      	lsls	r4, r3, #12
    b95c:	0016      	movs	r6, r2
    b95e:	005b      	lsls	r3, r3, #1
    b960:	030a      	lsls	r2, r1, #12
    b962:	0049      	lsls	r1, r1, #1
    b964:	0b12      	lsrs	r2, r2, #12
    b966:	0d49      	lsrs	r1, r1, #21
    b968:	0b24      	lsrs	r4, r4, #12
    b96a:	0d5b      	lsrs	r3, r3, #21
    b96c:	4281      	cmp	r1, r0
    b96e:	d008      	beq.n	b982 <__aeabi_dcmpun+0x2e>
    b970:	4a06      	ldr	r2, [pc, #24]	; (b98c <__aeabi_dcmpun+0x38>)
    b972:	2000      	movs	r0, #0
    b974:	4293      	cmp	r3, r2
    b976:	d103      	bne.n	b980 <__aeabi_dcmpun+0x2c>
    b978:	0020      	movs	r0, r4
    b97a:	4330      	orrs	r0, r6
    b97c:	1e43      	subs	r3, r0, #1
    b97e:	4198      	sbcs	r0, r3
    b980:	bd70      	pop	{r4, r5, r6, pc}
    b982:	2001      	movs	r0, #1
    b984:	432a      	orrs	r2, r5
    b986:	d1fb      	bne.n	b980 <__aeabi_dcmpun+0x2c>
    b988:	e7f2      	b.n	b970 <__aeabi_dcmpun+0x1c>
    b98a:	46c0      	nop			; (mov r8, r8)
    b98c:	000007ff 	.word	0x000007ff

0000b990 <__aeabi_d2iz>:
    b990:	000a      	movs	r2, r1
    b992:	b530      	push	{r4, r5, lr}
    b994:	4c13      	ldr	r4, [pc, #76]	; (b9e4 <__aeabi_d2iz+0x54>)
    b996:	0053      	lsls	r3, r2, #1
    b998:	0309      	lsls	r1, r1, #12
    b99a:	0005      	movs	r5, r0
    b99c:	0b09      	lsrs	r1, r1, #12
    b99e:	2000      	movs	r0, #0
    b9a0:	0d5b      	lsrs	r3, r3, #21
    b9a2:	0fd2      	lsrs	r2, r2, #31
    b9a4:	42a3      	cmp	r3, r4
    b9a6:	dd04      	ble.n	b9b2 <__aeabi_d2iz+0x22>
    b9a8:	480f      	ldr	r0, [pc, #60]	; (b9e8 <__aeabi_d2iz+0x58>)
    b9aa:	4283      	cmp	r3, r0
    b9ac:	dd02      	ble.n	b9b4 <__aeabi_d2iz+0x24>
    b9ae:	4b0f      	ldr	r3, [pc, #60]	; (b9ec <__aeabi_d2iz+0x5c>)
    b9b0:	18d0      	adds	r0, r2, r3
    b9b2:	bd30      	pop	{r4, r5, pc}
    b9b4:	2080      	movs	r0, #128	; 0x80
    b9b6:	0340      	lsls	r0, r0, #13
    b9b8:	4301      	orrs	r1, r0
    b9ba:	480d      	ldr	r0, [pc, #52]	; (b9f0 <__aeabi_d2iz+0x60>)
    b9bc:	1ac0      	subs	r0, r0, r3
    b9be:	281f      	cmp	r0, #31
    b9c0:	dd08      	ble.n	b9d4 <__aeabi_d2iz+0x44>
    b9c2:	480c      	ldr	r0, [pc, #48]	; (b9f4 <__aeabi_d2iz+0x64>)
    b9c4:	1ac3      	subs	r3, r0, r3
    b9c6:	40d9      	lsrs	r1, r3
    b9c8:	000b      	movs	r3, r1
    b9ca:	4258      	negs	r0, r3
    b9cc:	2a00      	cmp	r2, #0
    b9ce:	d1f0      	bne.n	b9b2 <__aeabi_d2iz+0x22>
    b9d0:	0018      	movs	r0, r3
    b9d2:	e7ee      	b.n	b9b2 <__aeabi_d2iz+0x22>
    b9d4:	4c08      	ldr	r4, [pc, #32]	; (b9f8 <__aeabi_d2iz+0x68>)
    b9d6:	40c5      	lsrs	r5, r0
    b9d8:	46a4      	mov	ip, r4
    b9da:	4463      	add	r3, ip
    b9dc:	4099      	lsls	r1, r3
    b9de:	000b      	movs	r3, r1
    b9e0:	432b      	orrs	r3, r5
    b9e2:	e7f2      	b.n	b9ca <__aeabi_d2iz+0x3a>
    b9e4:	000003fe 	.word	0x000003fe
    b9e8:	0000041d 	.word	0x0000041d
    b9ec:	7fffffff 	.word	0x7fffffff
    b9f0:	00000433 	.word	0x00000433
    b9f4:	00000413 	.word	0x00000413
    b9f8:	fffffbed 	.word	0xfffffbed

0000b9fc <__aeabi_i2d>:
    b9fc:	b570      	push	{r4, r5, r6, lr}
    b9fe:	2800      	cmp	r0, #0
    ba00:	d016      	beq.n	ba30 <__aeabi_i2d+0x34>
    ba02:	17c3      	asrs	r3, r0, #31
    ba04:	18c5      	adds	r5, r0, r3
    ba06:	405d      	eors	r5, r3
    ba08:	0fc4      	lsrs	r4, r0, #31
    ba0a:	0028      	movs	r0, r5
    ba0c:	f000 f91a 	bl	bc44 <__clzsi2>
    ba10:	4b11      	ldr	r3, [pc, #68]	; (ba58 <__aeabi_i2d+0x5c>)
    ba12:	1a1b      	subs	r3, r3, r0
    ba14:	280a      	cmp	r0, #10
    ba16:	dc16      	bgt.n	ba46 <__aeabi_i2d+0x4a>
    ba18:	0002      	movs	r2, r0
    ba1a:	002e      	movs	r6, r5
    ba1c:	3215      	adds	r2, #21
    ba1e:	4096      	lsls	r6, r2
    ba20:	220b      	movs	r2, #11
    ba22:	1a12      	subs	r2, r2, r0
    ba24:	40d5      	lsrs	r5, r2
    ba26:	055b      	lsls	r3, r3, #21
    ba28:	032d      	lsls	r5, r5, #12
    ba2a:	0b2d      	lsrs	r5, r5, #12
    ba2c:	0d5b      	lsrs	r3, r3, #21
    ba2e:	e003      	b.n	ba38 <__aeabi_i2d+0x3c>
    ba30:	2400      	movs	r4, #0
    ba32:	2300      	movs	r3, #0
    ba34:	2500      	movs	r5, #0
    ba36:	2600      	movs	r6, #0
    ba38:	051b      	lsls	r3, r3, #20
    ba3a:	432b      	orrs	r3, r5
    ba3c:	07e4      	lsls	r4, r4, #31
    ba3e:	4323      	orrs	r3, r4
    ba40:	0030      	movs	r0, r6
    ba42:	0019      	movs	r1, r3
    ba44:	bd70      	pop	{r4, r5, r6, pc}
    ba46:	380b      	subs	r0, #11
    ba48:	4085      	lsls	r5, r0
    ba4a:	055b      	lsls	r3, r3, #21
    ba4c:	032d      	lsls	r5, r5, #12
    ba4e:	2600      	movs	r6, #0
    ba50:	0b2d      	lsrs	r5, r5, #12
    ba52:	0d5b      	lsrs	r3, r3, #21
    ba54:	e7f0      	b.n	ba38 <__aeabi_i2d+0x3c>
    ba56:	46c0      	nop			; (mov r8, r8)
    ba58:	0000041e 	.word	0x0000041e

0000ba5c <__aeabi_ui2d>:
    ba5c:	b510      	push	{r4, lr}
    ba5e:	1e04      	subs	r4, r0, #0
    ba60:	d010      	beq.n	ba84 <__aeabi_ui2d+0x28>
    ba62:	f000 f8ef 	bl	bc44 <__clzsi2>
    ba66:	4b0f      	ldr	r3, [pc, #60]	; (baa4 <__aeabi_ui2d+0x48>)
    ba68:	1a1b      	subs	r3, r3, r0
    ba6a:	280a      	cmp	r0, #10
    ba6c:	dc11      	bgt.n	ba92 <__aeabi_ui2d+0x36>
    ba6e:	220b      	movs	r2, #11
    ba70:	0021      	movs	r1, r4
    ba72:	1a12      	subs	r2, r2, r0
    ba74:	40d1      	lsrs	r1, r2
    ba76:	3015      	adds	r0, #21
    ba78:	030a      	lsls	r2, r1, #12
    ba7a:	055b      	lsls	r3, r3, #21
    ba7c:	4084      	lsls	r4, r0
    ba7e:	0b12      	lsrs	r2, r2, #12
    ba80:	0d5b      	lsrs	r3, r3, #21
    ba82:	e001      	b.n	ba88 <__aeabi_ui2d+0x2c>
    ba84:	2300      	movs	r3, #0
    ba86:	2200      	movs	r2, #0
    ba88:	051b      	lsls	r3, r3, #20
    ba8a:	4313      	orrs	r3, r2
    ba8c:	0020      	movs	r0, r4
    ba8e:	0019      	movs	r1, r3
    ba90:	bd10      	pop	{r4, pc}
    ba92:	0022      	movs	r2, r4
    ba94:	380b      	subs	r0, #11
    ba96:	4082      	lsls	r2, r0
    ba98:	055b      	lsls	r3, r3, #21
    ba9a:	0312      	lsls	r2, r2, #12
    ba9c:	2400      	movs	r4, #0
    ba9e:	0b12      	lsrs	r2, r2, #12
    baa0:	0d5b      	lsrs	r3, r3, #21
    baa2:	e7f1      	b.n	ba88 <__aeabi_ui2d+0x2c>
    baa4:	0000041e 	.word	0x0000041e

0000baa8 <__aeabi_f2d>:
    baa8:	b570      	push	{r4, r5, r6, lr}
    baaa:	0242      	lsls	r2, r0, #9
    baac:	0043      	lsls	r3, r0, #1
    baae:	0fc4      	lsrs	r4, r0, #31
    bab0:	20fe      	movs	r0, #254	; 0xfe
    bab2:	0e1b      	lsrs	r3, r3, #24
    bab4:	1c59      	adds	r1, r3, #1
    bab6:	0a55      	lsrs	r5, r2, #9
    bab8:	4208      	tst	r0, r1
    baba:	d00c      	beq.n	bad6 <__aeabi_f2d+0x2e>
    babc:	21e0      	movs	r1, #224	; 0xe0
    babe:	0089      	lsls	r1, r1, #2
    bac0:	468c      	mov	ip, r1
    bac2:	076d      	lsls	r5, r5, #29
    bac4:	0b12      	lsrs	r2, r2, #12
    bac6:	4463      	add	r3, ip
    bac8:	051b      	lsls	r3, r3, #20
    baca:	4313      	orrs	r3, r2
    bacc:	07e4      	lsls	r4, r4, #31
    bace:	4323      	orrs	r3, r4
    bad0:	0028      	movs	r0, r5
    bad2:	0019      	movs	r1, r3
    bad4:	bd70      	pop	{r4, r5, r6, pc}
    bad6:	2b00      	cmp	r3, #0
    bad8:	d114      	bne.n	bb04 <__aeabi_f2d+0x5c>
    bada:	2d00      	cmp	r5, #0
    badc:	d01b      	beq.n	bb16 <__aeabi_f2d+0x6e>
    bade:	0028      	movs	r0, r5
    bae0:	f000 f8b0 	bl	bc44 <__clzsi2>
    bae4:	280a      	cmp	r0, #10
    bae6:	dc1c      	bgt.n	bb22 <__aeabi_f2d+0x7a>
    bae8:	230b      	movs	r3, #11
    baea:	002a      	movs	r2, r5
    baec:	1a1b      	subs	r3, r3, r0
    baee:	40da      	lsrs	r2, r3
    baf0:	0003      	movs	r3, r0
    baf2:	3315      	adds	r3, #21
    baf4:	409d      	lsls	r5, r3
    baf6:	4b0e      	ldr	r3, [pc, #56]	; (bb30 <__aeabi_f2d+0x88>)
    baf8:	0312      	lsls	r2, r2, #12
    bafa:	1a1b      	subs	r3, r3, r0
    bafc:	055b      	lsls	r3, r3, #21
    bafe:	0b12      	lsrs	r2, r2, #12
    bb00:	0d5b      	lsrs	r3, r3, #21
    bb02:	e7e1      	b.n	bac8 <__aeabi_f2d+0x20>
    bb04:	2d00      	cmp	r5, #0
    bb06:	d009      	beq.n	bb1c <__aeabi_f2d+0x74>
    bb08:	0b13      	lsrs	r3, r2, #12
    bb0a:	2280      	movs	r2, #128	; 0x80
    bb0c:	0312      	lsls	r2, r2, #12
    bb0e:	431a      	orrs	r2, r3
    bb10:	076d      	lsls	r5, r5, #29
    bb12:	4b08      	ldr	r3, [pc, #32]	; (bb34 <__aeabi_f2d+0x8c>)
    bb14:	e7d8      	b.n	bac8 <__aeabi_f2d+0x20>
    bb16:	2300      	movs	r3, #0
    bb18:	2200      	movs	r2, #0
    bb1a:	e7d5      	b.n	bac8 <__aeabi_f2d+0x20>
    bb1c:	2200      	movs	r2, #0
    bb1e:	4b05      	ldr	r3, [pc, #20]	; (bb34 <__aeabi_f2d+0x8c>)
    bb20:	e7d2      	b.n	bac8 <__aeabi_f2d+0x20>
    bb22:	0003      	movs	r3, r0
    bb24:	002a      	movs	r2, r5
    bb26:	3b0b      	subs	r3, #11
    bb28:	409a      	lsls	r2, r3
    bb2a:	2500      	movs	r5, #0
    bb2c:	e7e3      	b.n	baf6 <__aeabi_f2d+0x4e>
    bb2e:	46c0      	nop			; (mov r8, r8)
    bb30:	00000389 	.word	0x00000389
    bb34:	000007ff 	.word	0x000007ff

0000bb38 <__aeabi_d2f>:
    bb38:	0002      	movs	r2, r0
    bb3a:	b5f0      	push	{r4, r5, r6, r7, lr}
    bb3c:	004b      	lsls	r3, r1, #1
    bb3e:	030d      	lsls	r5, r1, #12
    bb40:	0f40      	lsrs	r0, r0, #29
    bb42:	0d5b      	lsrs	r3, r3, #21
    bb44:	0fcc      	lsrs	r4, r1, #31
    bb46:	0a6d      	lsrs	r5, r5, #9
    bb48:	493a      	ldr	r1, [pc, #232]	; (bc34 <__aeabi_d2f+0xfc>)
    bb4a:	4305      	orrs	r5, r0
    bb4c:	1c58      	adds	r0, r3, #1
    bb4e:	00d7      	lsls	r7, r2, #3
    bb50:	4208      	tst	r0, r1
    bb52:	d00a      	beq.n	bb6a <__aeabi_d2f+0x32>
    bb54:	4938      	ldr	r1, [pc, #224]	; (bc38 <__aeabi_d2f+0x100>)
    bb56:	1859      	adds	r1, r3, r1
    bb58:	29fe      	cmp	r1, #254	; 0xfe
    bb5a:	dd16      	ble.n	bb8a <__aeabi_d2f+0x52>
    bb5c:	20ff      	movs	r0, #255	; 0xff
    bb5e:	2200      	movs	r2, #0
    bb60:	05c0      	lsls	r0, r0, #23
    bb62:	4310      	orrs	r0, r2
    bb64:	07e4      	lsls	r4, r4, #31
    bb66:	4320      	orrs	r0, r4
    bb68:	bdf0      	pop	{r4, r5, r6, r7, pc}
    bb6a:	2b00      	cmp	r3, #0
    bb6c:	d106      	bne.n	bb7c <__aeabi_d2f+0x44>
    bb6e:	433d      	orrs	r5, r7
    bb70:	d026      	beq.n	bbc0 <__aeabi_d2f+0x88>
    bb72:	2205      	movs	r2, #5
    bb74:	0192      	lsls	r2, r2, #6
    bb76:	0a52      	lsrs	r2, r2, #9
    bb78:	b2d8      	uxtb	r0, r3
    bb7a:	e7f1      	b.n	bb60 <__aeabi_d2f+0x28>
    bb7c:	432f      	orrs	r7, r5
    bb7e:	d0ed      	beq.n	bb5c <__aeabi_d2f+0x24>
    bb80:	2280      	movs	r2, #128	; 0x80
    bb82:	03d2      	lsls	r2, r2, #15
    bb84:	20ff      	movs	r0, #255	; 0xff
    bb86:	432a      	orrs	r2, r5
    bb88:	e7ea      	b.n	bb60 <__aeabi_d2f+0x28>
    bb8a:	2900      	cmp	r1, #0
    bb8c:	dd1b      	ble.n	bbc6 <__aeabi_d2f+0x8e>
    bb8e:	0192      	lsls	r2, r2, #6
    bb90:	1e50      	subs	r0, r2, #1
    bb92:	4182      	sbcs	r2, r0
    bb94:	00ed      	lsls	r5, r5, #3
    bb96:	0f7f      	lsrs	r7, r7, #29
    bb98:	432a      	orrs	r2, r5
    bb9a:	433a      	orrs	r2, r7
    bb9c:	0753      	lsls	r3, r2, #29
    bb9e:	d047      	beq.n	bc30 <__aeabi_d2f+0xf8>
    bba0:	230f      	movs	r3, #15
    bba2:	4013      	ands	r3, r2
    bba4:	2b04      	cmp	r3, #4
    bba6:	d000      	beq.n	bbaa <__aeabi_d2f+0x72>
    bba8:	3204      	adds	r2, #4
    bbaa:	2380      	movs	r3, #128	; 0x80
    bbac:	04db      	lsls	r3, r3, #19
    bbae:	4013      	ands	r3, r2
    bbb0:	d03e      	beq.n	bc30 <__aeabi_d2f+0xf8>
    bbb2:	1c48      	adds	r0, r1, #1
    bbb4:	29fe      	cmp	r1, #254	; 0xfe
    bbb6:	d0d1      	beq.n	bb5c <__aeabi_d2f+0x24>
    bbb8:	0192      	lsls	r2, r2, #6
    bbba:	0a52      	lsrs	r2, r2, #9
    bbbc:	b2c0      	uxtb	r0, r0
    bbbe:	e7cf      	b.n	bb60 <__aeabi_d2f+0x28>
    bbc0:	2000      	movs	r0, #0
    bbc2:	2200      	movs	r2, #0
    bbc4:	e7cc      	b.n	bb60 <__aeabi_d2f+0x28>
    bbc6:	000a      	movs	r2, r1
    bbc8:	3217      	adds	r2, #23
    bbca:	db2f      	blt.n	bc2c <__aeabi_d2f+0xf4>
    bbcc:	2680      	movs	r6, #128	; 0x80
    bbce:	0436      	lsls	r6, r6, #16
    bbd0:	432e      	orrs	r6, r5
    bbd2:	251e      	movs	r5, #30
    bbd4:	1a6d      	subs	r5, r5, r1
    bbd6:	2d1f      	cmp	r5, #31
    bbd8:	dd11      	ble.n	bbfe <__aeabi_d2f+0xc6>
    bbda:	2202      	movs	r2, #2
    bbdc:	4252      	negs	r2, r2
    bbde:	1a52      	subs	r2, r2, r1
    bbe0:	0031      	movs	r1, r6
    bbe2:	40d1      	lsrs	r1, r2
    bbe4:	2d20      	cmp	r5, #32
    bbe6:	d004      	beq.n	bbf2 <__aeabi_d2f+0xba>
    bbe8:	4a14      	ldr	r2, [pc, #80]	; (bc3c <__aeabi_d2f+0x104>)
    bbea:	4694      	mov	ip, r2
    bbec:	4463      	add	r3, ip
    bbee:	409e      	lsls	r6, r3
    bbf0:	4337      	orrs	r7, r6
    bbf2:	003a      	movs	r2, r7
    bbf4:	1e53      	subs	r3, r2, #1
    bbf6:	419a      	sbcs	r2, r3
    bbf8:	430a      	orrs	r2, r1
    bbfa:	2100      	movs	r1, #0
    bbfc:	e7ce      	b.n	bb9c <__aeabi_d2f+0x64>
    bbfe:	4a10      	ldr	r2, [pc, #64]	; (bc40 <__aeabi_d2f+0x108>)
    bc00:	0038      	movs	r0, r7
    bc02:	4694      	mov	ip, r2
    bc04:	4463      	add	r3, ip
    bc06:	4098      	lsls	r0, r3
    bc08:	003a      	movs	r2, r7
    bc0a:	1e41      	subs	r1, r0, #1
    bc0c:	4188      	sbcs	r0, r1
    bc0e:	409e      	lsls	r6, r3
    bc10:	40ea      	lsrs	r2, r5
    bc12:	4330      	orrs	r0, r6
    bc14:	4302      	orrs	r2, r0
    bc16:	2100      	movs	r1, #0
    bc18:	0753      	lsls	r3, r2, #29
    bc1a:	d1c1      	bne.n	bba0 <__aeabi_d2f+0x68>
    bc1c:	2180      	movs	r1, #128	; 0x80
    bc1e:	0013      	movs	r3, r2
    bc20:	04c9      	lsls	r1, r1, #19
    bc22:	2001      	movs	r0, #1
    bc24:	400b      	ands	r3, r1
    bc26:	420a      	tst	r2, r1
    bc28:	d1c6      	bne.n	bbb8 <__aeabi_d2f+0x80>
    bc2a:	e7a3      	b.n	bb74 <__aeabi_d2f+0x3c>
    bc2c:	2300      	movs	r3, #0
    bc2e:	e7a0      	b.n	bb72 <__aeabi_d2f+0x3a>
    bc30:	000b      	movs	r3, r1
    bc32:	e79f      	b.n	bb74 <__aeabi_d2f+0x3c>
    bc34:	000007fe 	.word	0x000007fe
    bc38:	fffffc80 	.word	0xfffffc80
    bc3c:	fffffca2 	.word	0xfffffca2
    bc40:	fffffc82 	.word	0xfffffc82

0000bc44 <__clzsi2>:
    bc44:	211c      	movs	r1, #28
    bc46:	2301      	movs	r3, #1
    bc48:	041b      	lsls	r3, r3, #16
    bc4a:	4298      	cmp	r0, r3
    bc4c:	d301      	bcc.n	bc52 <__clzsi2+0xe>
    bc4e:	0c00      	lsrs	r0, r0, #16
    bc50:	3910      	subs	r1, #16
    bc52:	0a1b      	lsrs	r3, r3, #8
    bc54:	4298      	cmp	r0, r3
    bc56:	d301      	bcc.n	bc5c <__clzsi2+0x18>
    bc58:	0a00      	lsrs	r0, r0, #8
    bc5a:	3908      	subs	r1, #8
    bc5c:	091b      	lsrs	r3, r3, #4
    bc5e:	4298      	cmp	r0, r3
    bc60:	d301      	bcc.n	bc66 <__clzsi2+0x22>
    bc62:	0900      	lsrs	r0, r0, #4
    bc64:	3904      	subs	r1, #4
    bc66:	a202      	add	r2, pc, #8	; (adr r2, bc70 <__clzsi2+0x2c>)
    bc68:	5c10      	ldrb	r0, [r2, r0]
    bc6a:	1840      	adds	r0, r0, r1
    bc6c:	4770      	bx	lr
    bc6e:	46c0      	nop			; (mov r8, r8)
    bc70:	02020304 	.word	0x02020304
    bc74:	01010101 	.word	0x01010101
	...

0000bc80 <__clzdi2>:
    bc80:	b510      	push	{r4, lr}
    bc82:	2900      	cmp	r1, #0
    bc84:	d103      	bne.n	bc8e <__clzdi2+0xe>
    bc86:	f7ff ffdd 	bl	bc44 <__clzsi2>
    bc8a:	3020      	adds	r0, #32
    bc8c:	e002      	b.n	bc94 <__clzdi2+0x14>
    bc8e:	0008      	movs	r0, r1
    bc90:	f7ff ffd8 	bl	bc44 <__clzsi2>
    bc94:	bd10      	pop	{r4, pc}
    bc96:	46c0      	nop			; (mov r8, r8)

0000bc98 <_close>:
    bc98:	2258      	movs	r2, #88	; 0x58
    bc9a:	2001      	movs	r0, #1
    bc9c:	4b01      	ldr	r3, [pc, #4]	; (bca4 <_close+0xc>)
    bc9e:	4240      	negs	r0, r0
    bca0:	601a      	str	r2, [r3, #0]
    bca2:	4770      	bx	lr
    bca4:	4000043c 	.word	0x4000043c

0000bca8 <_fstat>:
    bca8:	2258      	movs	r2, #88	; 0x58
    bcaa:	2001      	movs	r0, #1
    bcac:	4b01      	ldr	r3, [pc, #4]	; (bcb4 <_fstat+0xc>)
    bcae:	4240      	negs	r0, r0
    bcb0:	601a      	str	r2, [r3, #0]
    bcb2:	4770      	bx	lr
    bcb4:	4000043c 	.word	0x4000043c

0000bcb8 <_getpid>:
    bcb8:	2258      	movs	r2, #88	; 0x58
    bcba:	2001      	movs	r0, #1
    bcbc:	4b01      	ldr	r3, [pc, #4]	; (bcc4 <_getpid+0xc>)
    bcbe:	4240      	negs	r0, r0
    bcc0:	601a      	str	r2, [r3, #0]
    bcc2:	4770      	bx	lr
    bcc4:	4000043c 	.word	0x4000043c

0000bcc8 <_isatty>:
    bcc8:	2258      	movs	r2, #88	; 0x58
    bcca:	4b02      	ldr	r3, [pc, #8]	; (bcd4 <_isatty+0xc>)
    bccc:	2000      	movs	r0, #0
    bcce:	601a      	str	r2, [r3, #0]
    bcd0:	4770      	bx	lr
    bcd2:	46c0      	nop			; (mov r8, r8)
    bcd4:	4000043c 	.word	0x4000043c

0000bcd8 <_kill>:
    bcd8:	2258      	movs	r2, #88	; 0x58
    bcda:	2001      	movs	r0, #1
    bcdc:	4b01      	ldr	r3, [pc, #4]	; (bce4 <_kill+0xc>)
    bcde:	4240      	negs	r0, r0
    bce0:	601a      	str	r2, [r3, #0]
    bce2:	4770      	bx	lr
    bce4:	4000043c 	.word	0x4000043c

0000bce8 <_lseek>:
    bce8:	2258      	movs	r2, #88	; 0x58
    bcea:	2001      	movs	r0, #1
    bcec:	4b01      	ldr	r3, [pc, #4]	; (bcf4 <_lseek+0xc>)
    bcee:	4240      	negs	r0, r0
    bcf0:	601a      	str	r2, [r3, #0]
    bcf2:	4770      	bx	lr
    bcf4:	4000043c 	.word	0x4000043c

0000bcf8 <_read>:
    bcf8:	2258      	movs	r2, #88	; 0x58
    bcfa:	2001      	movs	r0, #1
    bcfc:	4b01      	ldr	r3, [pc, #4]	; (bd04 <_read+0xc>)
    bcfe:	4240      	negs	r0, r0
    bd00:	601a      	str	r2, [r3, #0]
    bd02:	4770      	bx	lr
    bd04:	4000043c 	.word	0x4000043c

0000bd08 <_sbrk>:
    bd08:	4a04      	ldr	r2, [pc, #16]	; (bd1c <_sbrk+0x14>)
    bd0a:	0003      	movs	r3, r0
    bd0c:	6810      	ldr	r0, [r2, #0]
    bd0e:	2800      	cmp	r0, #0
    bd10:	d002      	beq.n	bd18 <_sbrk+0x10>
    bd12:	18c3      	adds	r3, r0, r3
    bd14:	6013      	str	r3, [r2, #0]
    bd16:	4770      	bx	lr
    bd18:	4801      	ldr	r0, [pc, #4]	; (bd20 <_sbrk+0x18>)
    bd1a:	e7fa      	b.n	bd12 <_sbrk+0xa>
    bd1c:	40000444 	.word	0x40000444
    bd20:	40400000 	.word	0x40400000

0000bd24 <_write>:
    bd24:	2258      	movs	r2, #88	; 0x58
    bd26:	2001      	movs	r0, #1
    bd28:	4b01      	ldr	r3, [pc, #4]	; (bd30 <_write+0xc>)
    bd2a:	4240      	negs	r0, r0
    bd2c:	601a      	str	r2, [r3, #0]
    bd2e:	4770      	bx	lr
    bd30:	4000043c 	.word	0x4000043c

0000bd34 <_exit>:
    bd34:	e7fe      	b.n	bd34 <_exit>
    bd36:	46c0      	nop			; (mov r8, r8)
